; Listing generated by Microsoft (R) Optimizing Compiler Version 19.00.24215.1 

	TITLE	c:\github\mvtools\sources\dctfftw.cpp
	.686P
	.XMM
	include listing.inc
	.model	flat

INCLUDELIB OLDNAMES

PUBLIC	??_C@_0L@GPFGNDCB@fftwf_free?$AA@		; `string'
PUBLIC	??_C@_09JCCKKMKO@fftw_free?$AA@			; `string'
PUBLIC	??_C@_0N@GJEDEEJG@fftwf_malloc?$AA@		; `string'
PUBLIC	??_C@_0M@BFOCFBMD@fftw_malloc?$AA@		; `string'
PUBLIC	??_C@_0BD@JBEOBMNE@fftwf_destroy_plan?$AA@	; `string'
PUBLIC	??_C@_0BC@MNDBHCDG@fftw_destroy_plan?$AA@	; `string'
PUBLIC	??_C@_0BC@DFCMKNCJ@fftwf_plan_r2r_2d?$AA@	; `string'
PUBLIC	??_C@_0BB@PJCIELJC@fftw_plan_r2r_2d?$AA@	; `string'
PUBLIC	??_C@_0BC@CKGAJNML@fftwf_execute_r2r?$AA@	; `string'
PUBLIC	??_C@_0BB@OGGEHLHA@fftw_execute_r2r?$AA@	; `string'
PUBLIC	??_R2DCTFFTW@@8					; DCTFFTW::`RTTI Base Class Array'
PUBLIC	??_R3DCTFFTW@@8					; DCTFFTW::`RTTI Class Hierarchy Descriptor'
PUBLIC	??_R1A@?0A@EA@DCTFFTW@@8			; DCTFFTW::`RTTI Base Class Descriptor at (0,-1,0,64)'
PUBLIC	??_R4DCTClass@@6B@				; DCTClass::`RTTI Complete Object Locator'
PUBLIC	??_7DCTClass@@6B@				; DCTClass::`vftable'
PUBLIC	??_R0?AVDCTClass@@@8				; DCTClass `RTTI Type Descriptor'
PUBLIC	??_R0?AVDCTFFTW@@@8				; DCTFFTW `RTTI Type Descriptor'
PUBLIC	??_R4DCTFFTW@@6B@				; DCTFFTW::`RTTI Complete Object Locator'
PUBLIC	??_7DCTFFTW@@6B@				; DCTFFTW::`vftable'
PUBLIC	??_R1A@?0A@EA@DCTClass@@8			; DCTClass::`RTTI Base Class Descriptor at (0,-1,0,64)'
PUBLIC	??_R2DCTClass@@8				; DCTClass::`RTTI Base Class Array'
PUBLIC	??_R3DCTClass@@8				; DCTClass::`RTTI Class Hierarchy Descriptor'
;	COMDAT ??_R3DCTClass@@8
rdata$r	SEGMENT
??_R3DCTClass@@8 DD 00H					; DCTClass::`RTTI Class Hierarchy Descriptor'
	DD	00H
	DD	01H
	DD	FLAT:??_R2DCTClass@@8
rdata$r	ENDS
;	COMDAT ??_R2DCTClass@@8
rdata$r	SEGMENT
??_R2DCTClass@@8 DD FLAT:??_R1A@?0A@EA@DCTClass@@8	; DCTClass::`RTTI Base Class Array'
rdata$r	ENDS
;	COMDAT ??_R1A@?0A@EA@DCTClass@@8
rdata$r	SEGMENT
??_R1A@?0A@EA@DCTClass@@8 DD FLAT:??_R0?AVDCTClass@@@8	; DCTClass::`RTTI Base Class Descriptor at (0,-1,0,64)'
	DD	00H
	DD	00H
	DD	0ffffffffH
	DD	00H
	DD	040H
	DD	FLAT:??_R3DCTClass@@8
rdata$r	ENDS
;	COMDAT ??_7DCTFFTW@@6B@
CONST	SEGMENT
??_7DCTFFTW@@6B@ DD FLAT:??_R4DCTFFTW@@6B@		; DCTFFTW::`vftable'
	DD	FLAT:?DCTBytes2D@DCTFFTW@@UAEXPBEHPAEH@Z
CONST	ENDS
;	COMDAT ??_R4DCTFFTW@@6B@
rdata$r	SEGMENT
??_R4DCTFFTW@@6B@ DD 00H				; DCTFFTW::`RTTI Complete Object Locator'
	DD	00H
	DD	00H
	DD	FLAT:??_R0?AVDCTFFTW@@@8
	DD	FLAT:??_R3DCTFFTW@@8
rdata$r	ENDS
;	COMDAT ??_R0?AVDCTFFTW@@@8
data$r	SEGMENT
??_R0?AVDCTFFTW@@@8 DD FLAT:??_7type_info@@6B@		; DCTFFTW `RTTI Type Descriptor'
	DD	00H
	DB	'.?AVDCTFFTW@@', 00H
data$r	ENDS
;	COMDAT ??_R0?AVDCTClass@@@8
data$r	SEGMENT
??_R0?AVDCTClass@@@8 DD FLAT:??_7type_info@@6B@		; DCTClass `RTTI Type Descriptor'
	DD	00H
	DB	'.?AVDCTClass@@', 00H
data$r	ENDS
;	COMDAT ??_7DCTClass@@6B@
CONST	SEGMENT
??_7DCTClass@@6B@ DD FLAT:??_R4DCTClass@@6B@		; DCTClass::`vftable'
	DD	FLAT:__purecall
CONST	ENDS
;	COMDAT ??_R4DCTClass@@6B@
rdata$r	SEGMENT
??_R4DCTClass@@6B@ DD 00H				; DCTClass::`RTTI Complete Object Locator'
	DD	00H
	DD	00H
	DD	FLAT:??_R0?AVDCTClass@@@8
	DD	FLAT:??_R3DCTClass@@8
rdata$r	ENDS
;	COMDAT ??_R1A@?0A@EA@DCTFFTW@@8
rdata$r	SEGMENT
??_R1A@?0A@EA@DCTFFTW@@8 DD FLAT:??_R0?AVDCTFFTW@@@8	; DCTFFTW::`RTTI Base Class Descriptor at (0,-1,0,64)'
	DD	01H
	DD	00H
	DD	0ffffffffH
	DD	00H
	DD	040H
	DD	FLAT:??_R3DCTFFTW@@8
rdata$r	ENDS
;	COMDAT ??_R3DCTFFTW@@8
rdata$r	SEGMENT
??_R3DCTFFTW@@8 DD 00H					; DCTFFTW::`RTTI Class Hierarchy Descriptor'
	DD	00H
	DD	02H
	DD	FLAT:??_R2DCTFFTW@@8
rdata$r	ENDS
;	COMDAT ??_R2DCTFFTW@@8
rdata$r	SEGMENT
??_R2DCTFFTW@@8 DD FLAT:??_R1A@?0A@EA@DCTFFTW@@8	; DCTFFTW::`RTTI Base Class Array'
	DD	FLAT:??_R1A@?0A@EA@DCTClass@@8
rdata$r	ENDS
;	COMDAT ??_C@_0BB@OGGEHLHA@fftw_execute_r2r?$AA@
CONST	SEGMENT
??_C@_0BB@OGGEHLHA@fftw_execute_r2r?$AA@ DB 'fftw_execute_r2r', 00H ; `string'
CONST	ENDS
;	COMDAT ??_C@_0BC@CKGAJNML@fftwf_execute_r2r?$AA@
CONST	SEGMENT
??_C@_0BC@CKGAJNML@fftwf_execute_r2r?$AA@ DB 'fftwf_execute_r2r', 00H ; `string'
CONST	ENDS
;	COMDAT ??_C@_0BB@PJCIELJC@fftw_plan_r2r_2d?$AA@
CONST	SEGMENT
??_C@_0BB@PJCIELJC@fftw_plan_r2r_2d?$AA@ DB 'fftw_plan_r2r_2d', 00H ; `string'
CONST	ENDS
;	COMDAT ??_C@_0BC@DFCMKNCJ@fftwf_plan_r2r_2d?$AA@
CONST	SEGMENT
??_C@_0BC@DFCMKNCJ@fftwf_plan_r2r_2d?$AA@ DB 'fftwf_plan_r2r_2d', 00H ; `string'
CONST	ENDS
;	COMDAT ??_C@_0BC@MNDBHCDG@fftw_destroy_plan?$AA@
CONST	SEGMENT
??_C@_0BC@MNDBHCDG@fftw_destroy_plan?$AA@ DB 'fftw_destroy_plan', 00H ; `string'
CONST	ENDS
;	COMDAT ??_C@_0BD@JBEOBMNE@fftwf_destroy_plan?$AA@
CONST	SEGMENT
??_C@_0BD@JBEOBMNE@fftwf_destroy_plan?$AA@ DB 'fftwf_destroy_plan', 00H ; `string'
CONST	ENDS
;	COMDAT ??_C@_0M@BFOCFBMD@fftw_malloc?$AA@
CONST	SEGMENT
??_C@_0M@BFOCFBMD@fftw_malloc?$AA@ DB 'fftw_malloc', 00H ; `string'
CONST	ENDS
;	COMDAT ??_C@_0N@GJEDEEJG@fftwf_malloc?$AA@
CONST	SEGMENT
??_C@_0N@GJEDEEJG@fftwf_malloc?$AA@ DB 'fftwf_malloc', 00H ; `string'
CONST	ENDS
;	COMDAT ??_C@_09JCCKKMKO@fftw_free?$AA@
CONST	SEGMENT
??_C@_09JCCKKMKO@fftw_free?$AA@ DB 'fftw_free', 00H	; `string'
CONST	ENDS
;	COMDAT ??_C@_0L@GPFGNDCB@fftwf_free?$AA@
CONST	SEGMENT
??_C@_0L@GPFGNDCB@fftwf_free?$AA@ DB 'fftwf_free', 00H	; `string'
?piecewise_construct@std@@3Upiecewise_construct_t@1@B	ORG $+1 ; std::piecewise_construct
PUBLIC	??$forward@$$QAV?$tuple@HHW4arch_t@@@std@@@std@@YA$$QAV?$tuple@HHW4arch_t@@@0@AAV10@@Z ; std::forward<std::tuple<int,int,enum arch_t> &&>
PUBLIC	??$get@$0A@$$QAV?$tuple@HHW4arch_t@@@std@@@std@@YA$$QAV?$tuple@HHW4arch_t@@@0@$$QAV?$tuple@$$QAV?$tuple@HHW4arch_t@@@std@@@0@@Z ; std::get<0,std::tuple<int,int,enum arch_t> &&>
PUBLIC	??$move@AAV?$tuple@$$QAV?$tuple@HHW4arch_t@@@std@@@std@@@std@@YA$$QAV?$tuple@$$QAV?$tuple@HHW4arch_t@@@std@@@0@AAV10@@Z ; std::move<std::tuple<std::tuple<int,int,enum arch_t> &&> &>
PUBLIC	??$?0V?$tuple@$$QAV?$tuple@HHW4arch_t@@@std@@@std@@V?$tuple@$$V@1@$0A@$$Z$S@?$pair@$$CBV?$tuple@HHW4arch_t@@@std@@P8DCTFFTW@@AEXPAEHPAM@Z@std@@QAE@AAV?$tuple@$$QAV?$tuple@HHW4arch_t@@@std@@@1@AAV?$tuple@$$V@1@U?$integer_sequence@I$0A@@1@U?$integer_sequence@I$S@1@@Z ; std::pair<std::tuple<int,int,enum arch_t> const ,void (__thiscall DCTFFTW::*)(unsigned char *,int,float *)>::pair<std::tuple<int,int,enum arch_t> const ,void (__thiscall DCTFFTW::*)(unsigned char *,int,float *)><std::tuple<std::tuple<int,int,enum arch_t> &&>,std::tuple<>,0>
PUBLIC	??$?0V?$tuple@$$QAV?$tuple@HHW4arch_t@@@std@@@std@@V?$tuple@$$V@1@$0A@$$Z$S@?$pair@$$CBV?$tuple@HHW4arch_t@@@std@@P8DCTFFTW@@AEXPBEHPAM@Z@std@@QAE@AAV?$tuple@$$QAV?$tuple@HHW4arch_t@@@std@@@1@AAV?$tuple@$$V@1@U?$integer_sequence@I$0A@@1@U?$integer_sequence@I$S@1@@Z ; std::pair<std::tuple<int,int,enum arch_t> const ,void (__thiscall DCTFFTW::*)(unsigned char const *,int,float *)>::pair<std::tuple<int,int,enum arch_t> const ,void (__thiscall DCTFFTW::*)(unsigned char const *,int,float *)><std::tuple<std::tuple<int,int,enum arch_t> &&>,std::tuple<>,0>
PUBLIC	??$?0$$QAV?$tuple@HHW4arch_t@@@std@@$$Z$$V@?$pair@$$CBV?$tuple@HHW4arch_t@@@std@@P8DCTFFTW@@AEXPAEHPAM@Z@std@@QAE@Upiecewise_construct_t@1@V?$tuple@$$QAV?$tuple@HHW4arch_t@@@std@@@1@V?$tuple@$$V@1@@Z ; std::pair<std::tuple<int,int,enum arch_t> const ,void (__thiscall DCTFFTW::*)(unsigned char *,int,float *)>::pair<std::tuple<int,int,enum arch_t> const ,void (__thiscall DCTFFTW::*)(unsigned char *,int,float *)><std::tuple<int,int,enum arch_t> &&>
PUBLIC	??$?0$$QAV?$tuple@HHW4arch_t@@@std@@$$Z$$V@?$pair@$$CBV?$tuple@HHW4arch_t@@@std@@P8DCTFFTW@@AEXPBEHPAM@Z@std@@QAE@Upiecewise_construct_t@1@V?$tuple@$$QAV?$tuple@HHW4arch_t@@@std@@@1@V?$tuple@$$V@1@@Z ; std::pair<std::tuple<int,int,enum arch_t> const ,void (__thiscall DCTFFTW::*)(unsigned char const *,int,float *)>::pair<std::tuple<int,int,enum arch_t> const ,void (__thiscall DCTFFTW::*)(unsigned char const *,int,float *)><std::tuple<int,int,enum arch_t> &&>
PUBLIC	??0?$tuple@$$QAV?$tuple@HHW4arch_t@@@std@@@std@@QAE@$$QAV01@@Z ; std::tuple<std::tuple<int,int,enum arch_t> &&>::tuple<std::tuple<int,int,enum arch_t> &&>
PUBLIC	??$construct@U?$pair@$$CBV?$tuple@HHW4arch_t@@@std@@P8DCTFFTW@@AEXPAEHPAM@Z@std@@ABUpiecewise_construct_t@2@V?$tuple@$$QAV?$tuple@HHW4arch_t@@@std@@@2@V?$tuple@$$V@2@@?$allocator@U?$_Tree_node@U?$pair@$$CBV?$tuple@HHW4arch_t@@@std@@P8DCTFFTW@@AEXPAEHPAM@Z@std@@PAX@std@@@std@@QAEXPAU?$pair@$$CBV?$tuple@HHW4arch_t@@@std@@P8DCTFFTW@@AEXPAEHPAM@Z@1@ABUpiecewise_construct_t@1@$$QAV?$tuple@$$QAV?$tuple@HHW4arch_t@@@std@@@1@$$QAV?$tuple@$$V@1@@Z ; std::allocator<std::_Tree_node<std::pair<std::tuple<int,int,enum arch_t> const ,void (__thiscall DCTFFTW::*)(unsigned char *,int,float *)>,void *> >::construct<std::pair<std::tuple<int,int,enum arch_t> const ,void (__thiscall DCTFFTW::*)(unsigned char *,int,float *)>,std::piecewise_construct_t const &,std::tuple<std::tuple<int,int,enum arch_t> &&>,std::tuple<> >
PUBLIC	??$construct@U?$pair@$$CBV?$tuple@HHW4arch_t@@@std@@P8DCTFFTW@@AEXPBEHPAM@Z@std@@ABUpiecewise_construct_t@2@V?$tuple@$$QAV?$tuple@HHW4arch_t@@@std@@@2@V?$tuple@$$V@2@@?$allocator@U?$_Tree_node@U?$pair@$$CBV?$tuple@HHW4arch_t@@@std@@P8DCTFFTW@@AEXPBEHPAM@Z@std@@PAX@std@@@std@@QAEXPAU?$pair@$$CBV?$tuple@HHW4arch_t@@@std@@P8DCTFFTW@@AEXPBEHPAM@Z@1@ABUpiecewise_construct_t@1@$$QAV?$tuple@$$QAV?$tuple@HHW4arch_t@@@std@@@1@$$QAV?$tuple@$$V@1@@Z ; std::allocator<std::_Tree_node<std::pair<std::tuple<int,int,enum arch_t> const ,void (__thiscall DCTFFTW::*)(unsigned char const *,int,float *)>,void *> >::construct<std::pair<std::tuple<int,int,enum arch_t> const ,void (__thiscall DCTFFTW::*)(unsigned char const *,int,float *)>,std::piecewise_construct_t const &,std::tuple<std::tuple<int,int,enum arch_t> &&>,std::tuple<> >
PUBLIC	??$_Buynode_if_nil@AAU?$pair@$$CBV?$tuple@HHW4arch_t@@@std@@P8DCTFFTW@@AEXPAEHPAM@Z@std@@@?$_Tree@V?$_Tmap_traits@V?$tuple@HHW4arch_t@@@std@@P8DCTFFTW@@AEXPAEHPAM@ZU?$less@V?$tuple@HHW4arch_t@@@std@@@2@V?$allocator@U?$pair@$$CBV?$tuple@HHW4arch_t@@@std@@P8DCTFFTW@@AEXPAEHPAM@Z@std@@@2@$0A@@std@@@std@@IAEPAU?$_Tree_node@U?$pair@$$CBV?$tuple@HHW4arch_t@@@std@@P8DCTFFTW@@AEXPAEHPAM@Z@std@@PAX@1@PAU21@AAU?$pair@$$CBV?$tuple@HHW4arch_t@@@std@@P8DCTFFTW@@AEXPAEHPAM@Z@1@@Z ; std::_Tree<std::_Tmap_traits<std::tuple<int,int,enum arch_t>,void (__thiscall DCTFFTW::*)(unsigned char *,int,float *),std::less<std::tuple<int,int,enum arch_t> >,std::allocator<std::pair<std::tuple<int,int,enum arch_t> const ,void (__thiscall DCTFFTW::*)(unsigned char *,int,float *)> >,0> >::_Buynode_if_nil<std::pair<std::tuple<int,int,enum arch_t> const ,void (__thiscall DCTFFTW::*)(unsigned char *,int,float *)> &>
PUBLIC	??$construct@U?$pair@$$CBV?$tuple@HHW4arch_t@@@std@@P8DCTFFTW@@AEXPAEHPAM@Z@std@@ABUpiecewise_construct_t@2@V?$tuple@$$QAV?$tuple@HHW4arch_t@@@std@@@2@V?$tuple@$$V@2@@?$allocator_traits@V?$allocator@U?$_Tree_node@U?$pair@$$CBV?$tuple@HHW4arch_t@@@std@@P8DCTFFTW@@AEXPAEHPAM@Z@std@@PAX@std@@@std@@@std@@SAXAAV?$allocator@U?$_Tree_node@U?$pair@$$CBV?$tuple@HHW4arch_t@@@std@@P8DCTFFTW@@AEXPAEHPAM@Z@std@@PAX@std@@@1@PAU?$pair@$$CBV?$tuple@HHW4arch_t@@@std@@P8DCTFFTW@@AEXPAEHPAM@Z@1@ABUpiecewise_construct_t@1@$$QAV?$tuple@$$QAV?$tuple@HHW4arch_t@@@std@@@1@$$QAV?$tuple@$$V@1@@Z ; std::allocator_traits<std::allocator<std::_Tree_node<std::pair<std::tuple<int,int,enum arch_t> const ,void (__thiscall DCTFFTW::*)(unsigned char *,int,float *)>,void *> > >::construct<std::pair<std::tuple<int,int,enum arch_t> const ,void (__thiscall DCTFFTW::*)(unsigned char *,int,float *)>,std::piecewise_construct_t const &,std::tuple<std::tuple<int,int,enum arch_t> &&>,std::tuple<> >
PUBLIC	??$_Buynode_if_nil@AAU?$pair@$$CBV?$tuple@HHW4arch_t@@@std@@P8DCTFFTW@@AEXPBEHPAM@Z@std@@@?$_Tree@V?$_Tmap_traits@V?$tuple@HHW4arch_t@@@std@@P8DCTFFTW@@AEXPBEHPAM@ZU?$less@V?$tuple@HHW4arch_t@@@std@@@2@V?$allocator@U?$pair@$$CBV?$tuple@HHW4arch_t@@@std@@P8DCTFFTW@@AEXPBEHPAM@Z@std@@@2@$0A@@std@@@std@@IAEPAU?$_Tree_node@U?$pair@$$CBV?$tuple@HHW4arch_t@@@std@@P8DCTFFTW@@AEXPBEHPAM@Z@std@@PAX@1@PAU21@AAU?$pair@$$CBV?$tuple@HHW4arch_t@@@std@@P8DCTFFTW@@AEXPBEHPAM@Z@1@@Z ; std::_Tree<std::_Tmap_traits<std::tuple<int,int,enum arch_t>,void (__thiscall DCTFFTW::*)(unsigned char const *,int,float *),std::less<std::tuple<int,int,enum arch_t> >,std::allocator<std::pair<std::tuple<int,int,enum arch_t> const ,void (__thiscall DCTFFTW::*)(unsigned char const *,int,float *)> >,0> >::_Buynode_if_nil<std::pair<std::tuple<int,int,enum arch_t> const ,void (__thiscall DCTFFTW::*)(unsigned char const *,int,float *)> &>
PUBLIC	??$construct@U?$pair@$$CBV?$tuple@HHW4arch_t@@@std@@P8DCTFFTW@@AEXPBEHPAM@Z@std@@ABUpiecewise_construct_t@2@V?$tuple@$$QAV?$tuple@HHW4arch_t@@@std@@@2@V?$tuple@$$V@2@@?$allocator_traits@V?$allocator@U?$_Tree_node@U?$pair@$$CBV?$tuple@HHW4arch_t@@@std@@P8DCTFFTW@@AEXPBEHPAM@Z@std@@PAX@std@@@std@@@std@@SAXAAV?$allocator@U?$_Tree_node@U?$pair@$$CBV?$tuple@HHW4arch_t@@@std@@P8DCTFFTW@@AEXPBEHPAM@Z@std@@PAX@std@@@1@PAU?$pair@$$CBV?$tuple@HHW4arch_t@@@std@@P8DCTFFTW@@AEXPBEHPAM@Z@1@ABUpiecewise_construct_t@1@$$QAV?$tuple@$$QAV?$tuple@HHW4arch_t@@@std@@@1@$$QAV?$tuple@$$V@1@@Z ; std::allocator_traits<std::allocator<std::_Tree_node<std::pair<std::tuple<int,int,enum arch_t> const ,void (__thiscall DCTFFTW::*)(unsigned char const *,int,float *)>,void *> > >::construct<std::pair<std::tuple<int,int,enum arch_t> const ,void (__thiscall DCTFFTW::*)(unsigned char const *,int,float *)>,std::piecewise_construct_t const &,std::tuple<std::tuple<int,int,enum arch_t> &&>,std::tuple<> >
PUBLIC	?max_size@?$allocator@U?$_Tree_node@U?$pair@$$CBV?$tuple@HHW4arch_t@@@std@@P8DCTFFTW@@AEXPAEHPAM@Z@std@@PAX@std@@@std@@QBEIXZ ; std::allocator<std::_Tree_node<std::pair<std::tuple<int,int,enum arch_t> const ,void (__thiscall DCTFFTW::*)(unsigned char *,int,float *)>,void *> >::max_size
PUBLIC	?max_size@?$allocator@U?$_Tree_node@U?$pair@$$CBV?$tuple@HHW4arch_t@@@std@@P8DCTFFTW@@AEXPBEHPAM@Z@std@@PAX@std@@@std@@QBEIXZ ; std::allocator<std::_Tree_node<std::pair<std::tuple<int,int,enum arch_t> const ,void (__thiscall DCTFFTW::*)(unsigned char const *,int,float *)>,void *> >::max_size
PUBLIC	?max_size@?$allocator_traits@V?$allocator@U?$_Tree_node@U?$pair@$$CBV?$tuple@HHW4arch_t@@@std@@P8DCTFFTW@@AEXPAEHPAM@Z@std@@PAX@std@@@std@@@std@@SAIABV?$allocator@U?$_Tree_node@U?$pair@$$CBV?$tuple@HHW4arch_t@@@std@@P8DCTFFTW@@AEXPAEHPAM@Z@std@@PAX@std@@@2@@Z ; std::allocator_traits<std::allocator<std::_Tree_node<std::pair<std::tuple<int,int,enum arch_t> const ,void (__thiscall DCTFFTW::*)(unsigned char *,int,float *)>,void *> > >::max_size
PUBLIC	?_Get_first@?$_Compressed_pair@U?$_Wrap_alloc@V?$allocator@U?$_Tree_node@U?$pair@$$CBV?$tuple@HHW4arch_t@@@std@@P8DCTFFTW@@AEXPAEHPAM@Z@std@@PAX@std@@@std@@@std@@V?$_Tree_val@U?$_Tree_simple_types@U?$pair@$$CBV?$tuple@HHW4arch_t@@@std@@P8DCTFFTW@@AEXPAEHPAM@Z@std@@@std@@@2@$00@std@@QBEABU?$_Wrap_alloc@V?$allocator@U?$_Tree_node@U?$pair@$$CBV?$tuple@HHW4arch_t@@@std@@P8DCTFFTW@@AEXPAEHPAM@Z@std@@PAX@std@@@std@@@2@XZ ; std::_Compressed_pair<std::_Wrap_alloc<std::allocator<std::_Tree_node<std::pair<std::tuple<int,int,enum arch_t> const ,void (__thiscall DCTFFTW::*)(unsigned char *,int,float *)>,void *> > >,std::_Tree_val<std::_Tree_simple_types<std::pair<std::tuple<int,int,enum arch_t> const ,void (__thiscall DCTFFTW::*)(unsigned char *,int,float *)> > >,1>::_Get_first
PUBLIC	?max_size@?$allocator_traits@V?$allocator@U?$_Tree_node@U?$pair@$$CBV?$tuple@HHW4arch_t@@@std@@P8DCTFFTW@@AEXPBEHPAM@Z@std@@PAX@std@@@std@@@std@@SAIABV?$allocator@U?$_Tree_node@U?$pair@$$CBV?$tuple@HHW4arch_t@@@std@@P8DCTFFTW@@AEXPBEHPAM@Z@std@@PAX@std@@@2@@Z ; std::allocator_traits<std::allocator<std::_Tree_node<std::pair<std::tuple<int,int,enum arch_t> const ,void (__thiscall DCTFFTW::*)(unsigned char const *,int,float *)>,void *> > >::max_size
PUBLIC	?_Get_first@?$_Compressed_pair@U?$_Wrap_alloc@V?$allocator@U?$_Tree_node@U?$pair@$$CBV?$tuple@HHW4arch_t@@@std@@P8DCTFFTW@@AEXPBEHPAM@Z@std@@PAX@std@@@std@@@std@@V?$_Tree_val@U?$_Tree_simple_types@U?$pair@$$CBV?$tuple@HHW4arch_t@@@std@@P8DCTFFTW@@AEXPBEHPAM@Z@std@@@std@@@2@$00@std@@QBEABU?$_Wrap_alloc@V?$allocator@U?$_Tree_node@U?$pair@$$CBV?$tuple@HHW4arch_t@@@std@@P8DCTFFTW@@AEXPBEHPAM@Z@std@@PAX@std@@@std@@@2@XZ ; std::_Compressed_pair<std::_Wrap_alloc<std::allocator<std::_Tree_node<std::pair<std::tuple<int,int,enum arch_t> const ,void (__thiscall DCTFFTW::*)(unsigned char const *,int,float *)>,void *> > >,std::_Tree_val<std::_Tree_simple_types<std::pair<std::tuple<int,int,enum arch_t> const ,void (__thiscall DCTFFTW::*)(unsigned char const *,int,float *)> > >,1>::_Get_first
PUBLIC	?_Getal@?$_Tree_comp_alloc@V?$_Tmap_traits@V?$tuple@HHW4arch_t@@@std@@P8DCTFFTW@@AEXPAEHPAM@ZU?$less@V?$tuple@HHW4arch_t@@@std@@@2@V?$allocator@U?$pair@$$CBV?$tuple@HHW4arch_t@@@std@@P8DCTFFTW@@AEXPAEHPAM@Z@std@@@2@$0A@@std@@@std@@QBEABU?$_Wrap_alloc@V?$allocator@U?$_Tree_node@U?$pair@$$CBV?$tuple@HHW4arch_t@@@std@@P8DCTFFTW@@AEXPAEHPAM@Z@std@@PAX@std@@@std@@@2@XZ ; std::_Tree_comp_alloc<std::_Tmap_traits<std::tuple<int,int,enum arch_t>,void (__thiscall DCTFFTW::*)(unsigned char *,int,float *),std::less<std::tuple<int,int,enum arch_t> >,std::allocator<std::pair<std::tuple<int,int,enum arch_t> const ,void (__thiscall DCTFFTW::*)(unsigned char *,int,float *)> >,0> >::_Getal
PUBLIC	?max_size@?$_Wrap_alloc@V?$allocator@U?$_Tree_node@U?$pair@$$CBV?$tuple@HHW4arch_t@@@std@@P8DCTFFTW@@AEXPAEHPAM@Z@std@@PAX@std@@@std@@@std@@QBEIU_Nil@2@@Z ; std::_Wrap_alloc<std::allocator<std::_Tree_node<std::pair<std::tuple<int,int,enum arch_t> const ,void (__thiscall DCTFFTW::*)(unsigned char *,int,float *)>,void *> > >::max_size
PUBLIC	?_Getal@?$_Tree_comp_alloc@V?$_Tmap_traits@V?$tuple@HHW4arch_t@@@std@@P8DCTFFTW@@AEXPBEHPAM@ZU?$less@V?$tuple@HHW4arch_t@@@std@@@2@V?$allocator@U?$pair@$$CBV?$tuple@HHW4arch_t@@@std@@P8DCTFFTW@@AEXPBEHPAM@Z@std@@@2@$0A@@std@@@std@@QBEABU?$_Wrap_alloc@V?$allocator@U?$_Tree_node@U?$pair@$$CBV?$tuple@HHW4arch_t@@@std@@P8DCTFFTW@@AEXPBEHPAM@Z@std@@PAX@std@@@std@@@2@XZ ; std::_Tree_comp_alloc<std::_Tmap_traits<std::tuple<int,int,enum arch_t>,void (__thiscall DCTFFTW::*)(unsigned char const *,int,float *),std::less<std::tuple<int,int,enum arch_t> >,std::allocator<std::pair<std::tuple<int,int,enum arch_t> const ,void (__thiscall DCTFFTW::*)(unsigned char const *,int,float *)> >,0> >::_Getal
PUBLIC	?max_size@?$_Wrap_alloc@V?$allocator@U?$_Tree_node@U?$pair@$$CBV?$tuple@HHW4arch_t@@@std@@P8DCTFFTW@@AEXPBEHPAM@Z@std@@PAX@std@@@std@@@std@@QBEIU_Nil@2@@Z ; std::_Wrap_alloc<std::allocator<std::_Tree_node<std::pair<std::tuple<int,int,enum arch_t> const ,void (__thiscall DCTFFTW::*)(unsigned char const *,int,float *)>,void *> > >::max_size
PUBLIC	?max_size@?$_Tree@V?$_Tmap_traits@V?$tuple@HHW4arch_t@@@std@@P8DCTFFTW@@AEXPAEHPAM@ZU?$less@V?$tuple@HHW4arch_t@@@std@@@2@V?$allocator@U?$pair@$$CBV?$tuple@HHW4arch_t@@@std@@P8DCTFFTW@@AEXPAEHPAM@Z@std@@@2@$0A@@std@@@std@@QBEIXZ ; std::_Tree<std::_Tmap_traits<std::tuple<int,int,enum arch_t>,void (__thiscall DCTFFTW::*)(unsigned char *,int,float *),std::less<std::tuple<int,int,enum arch_t> >,std::allocator<std::pair<std::tuple<int,int,enum arch_t> const ,void (__thiscall DCTFFTW::*)(unsigned char *,int,float *)> >,0> >::max_size
PUBLIC	??F?$_Tree_iterator@V?$_Tree_val@U?$_Tree_simple_types@U?$pair@$$CBV?$tuple@HHW4arch_t@@@std@@P8DCTFFTW@@AEXPAEHPAM@Z@std@@@std@@@std@@@std@@QAEAAV01@XZ ; std::_Tree_iterator<std::_Tree_val<std::_Tree_simple_types<std::pair<std::tuple<int,int,enum arch_t> const ,void (__thiscall DCTFFTW::*)(unsigned char *,int,float *)> > > >::operator--
PUBLIC	?max_size@?$_Tree@V?$_Tmap_traits@V?$tuple@HHW4arch_t@@@std@@P8DCTFFTW@@AEXPBEHPAM@ZU?$less@V?$tuple@HHW4arch_t@@@std@@@2@V?$allocator@U?$pair@$$CBV?$tuple@HHW4arch_t@@@std@@P8DCTFFTW@@AEXPBEHPAM@Z@std@@@2@$0A@@std@@@std@@QBEIXZ ; std::_Tree<std::_Tmap_traits<std::tuple<int,int,enum arch_t>,void (__thiscall DCTFFTW::*)(unsigned char const *,int,float *),std::less<std::tuple<int,int,enum arch_t> >,std::allocator<std::pair<std::tuple<int,int,enum arch_t> const ,void (__thiscall DCTFFTW::*)(unsigned char const *,int,float *)> >,0> >::max_size
PUBLIC	??F?$_Tree_iterator@V?$_Tree_val@U?$_Tree_simple_types@U?$pair@$$CBV?$tuple@HHW4arch_t@@@std@@P8DCTFFTW@@AEXPBEHPAM@Z@std@@@std@@@std@@@std@@QAEAAV01@XZ ; std::_Tree_iterator<std::_Tree_val<std::_Tree_simple_types<std::pair<std::tuple<int,int,enum arch_t> const ,void (__thiscall DCTFFTW::*)(unsigned char const *,int,float *)> > > >::operator--
PUBLIC	??$_Insert_nohint@AAU?$pair@$$CBV?$tuple@HHW4arch_t@@@std@@P8DCTFFTW@@AEXPAEHPAM@Z@std@@PAU?$_Tree_node@U?$pair@$$CBV?$tuple@HHW4arch_t@@@std@@P8DCTFFTW@@AEXPAEHPAM@Z@std@@PAX@2@@?$_Tree@V?$_Tmap_traits@V?$tuple@HHW4arch_t@@@std@@P8DCTFFTW@@AEXPAEHPAM@ZU?$less@V?$tuple@HHW4arch_t@@@std@@@2@V?$allocator@U?$pair@$$CBV?$tuple@HHW4arch_t@@@std@@P8DCTFFTW@@AEXPAEHPAM@Z@std@@@2@$0A@@std@@@std@@IAE?AU?$pair@V?$_Tree_iterator@V?$_Tree_val@U?$_Tree_simple_types@U?$pair@$$CBV?$tuple@HHW4arch_t@@@std@@P8DCTFFTW@@AEXPAEHPAM@Z@std@@@std@@@std@@@std@@_N@1@_NAAU?$pair@$$CBV?$tuple@HHW4arch_t@@@std@@P8DCTFFTW@@AEXPAEHPAM@Z@1@PAU?$_Tree_node@U?$pair@$$CBV?$tuple@HHW4arch_t@@@std@@P8DCTFFTW@@AEXPAEHPAM@Z@std@@PAX@1@@Z ; std::_Tree<std::_Tmap_traits<std::tuple<int,int,enum arch_t>,void (__thiscall DCTFFTW::*)(unsigned char *,int,float *),std::less<std::tuple<int,int,enum arch_t> >,std::allocator<std::pair<std::tuple<int,int,enum arch_t> const ,void (__thiscall DCTFFTW::*)(unsigned char *,int,float *)> >,0> >::_Insert_nohint<std::pair<std::tuple<int,int,enum arch_t> const ,void (__thiscall DCTFFTW::*)(unsigned char *,int,float *)> &,std::_Tree_node<std::pair<std::tuple<int,int,enum arch_t> const ,void (__thiscall DCTFFTW::*)(unsigned char *,int,float *)>,void *> *>
PUBLIC	??$_Insert_at@AAU?$pair@$$CBV?$tuple@HHW4arch_t@@@std@@P8DCTFFTW@@AEXPAEHPAM@Z@std@@PAU?$_Tree_node@U?$pair@$$CBV?$tuple@HHW4arch_t@@@std@@P8DCTFFTW@@AEXPAEHPAM@Z@std@@PAX@2@@?$_Tree@V?$_Tmap_traits@V?$tuple@HHW4arch_t@@@std@@P8DCTFFTW@@AEXPAEHPAM@ZU?$less@V?$tuple@HHW4arch_t@@@std@@@2@V?$allocator@U?$pair@$$CBV?$tuple@HHW4arch_t@@@std@@P8DCTFFTW@@AEXPAEHPAM@Z@std@@@2@$0A@@std@@@std@@IAE?AV?$_Tree_iterator@V?$_Tree_val@U?$_Tree_simple_types@U?$pair@$$CBV?$tuple@HHW4arch_t@@@std@@P8DCTFFTW@@AEXPAEHPAM@Z@std@@@std@@@std@@@1@_NPAU?$_Tree_node@U?$pair@$$CBV?$tuple@HHW4arch_t@@@std@@P8DCTFFTW@@AEXPAEHPAM@Z@std@@PAX@1@AAU?$pair@$$CBV?$tuple@HHW4arch_t@@@std@@P8DCTFFTW@@AEXPAEHPAM@Z@1@1@Z ; std::_Tree<std::_Tmap_traits<std::tuple<int,int,enum arch_t>,void (__thiscall DCTFFTW::*)(unsigned char *,int,float *),std::less<std::tuple<int,int,enum arch_t> >,std::allocator<std::pair<std::tuple<int,int,enum arch_t> const ,void (__thiscall DCTFFTW::*)(unsigned char *,int,float *)> >,0> >::_Insert_at<std::pair<std::tuple<int,int,enum arch_t> const ,void (__thiscall DCTFFTW::*)(unsigned char *,int,float *)> &,std::_Tree_node<std::pair<std::tuple<int,int,enum arch_t> const ,void (__thiscall DCTFFTW::*)(unsigned char *,int,float *)>,void *> *>
PUBLIC	??$forward@AAU?$pair@$$CBV?$tuple@HHW4arch_t@@@std@@P8DCTFFTW@@AEXPAEHPAM@Z@std@@@std@@YAAAU?$pair@$$CBV?$tuple@HHW4arch_t@@@std@@P8DCTFFTW@@AEXPAEHPAM@Z@0@AAU10@@Z ; std::forward<std::pair<std::tuple<int,int,enum arch_t> const ,void (__thiscall DCTFFTW::*)(unsigned char *,int,float *)> &>
PUBLIC	??$construct@U?$pair@$$CBV?$tuple@HHW4arch_t@@@std@@P8DCTFFTW@@AEXPAEHPAM@Z@std@@ABUpiecewise_construct_t@2@V?$tuple@$$QAV?$tuple@HHW4arch_t@@@std@@@2@V?$tuple@$$V@2@@?$_Wrap_alloc@V?$allocator@U?$_Tree_node@U?$pair@$$CBV?$tuple@HHW4arch_t@@@std@@P8DCTFFTW@@AEXPAEHPAM@Z@std@@PAX@std@@@std@@@std@@QAEXPAU?$pair@$$CBV?$tuple@HHW4arch_t@@@std@@P8DCTFFTW@@AEXPAEHPAM@Z@1@ABUpiecewise_construct_t@1@$$QAV?$tuple@$$QAV?$tuple@HHW4arch_t@@@std@@@1@$$QAV?$tuple@$$V@1@@Z ; std::_Wrap_alloc<std::allocator<std::_Tree_node<std::pair<std::tuple<int,int,enum arch_t> const ,void (__thiscall DCTFFTW::*)(unsigned char *,int,float *)>,void *> > >::construct<std::pair<std::tuple<int,int,enum arch_t> const ,void (__thiscall DCTFFTW::*)(unsigned char *,int,float *)>,std::piecewise_construct_t const &,std::tuple<std::tuple<int,int,enum arch_t> &&>,std::tuple<> >
PUBLIC	??$_Insert_nohint@AAU?$pair@$$CBV?$tuple@HHW4arch_t@@@std@@P8DCTFFTW@@AEXPBEHPAM@Z@std@@PAU?$_Tree_node@U?$pair@$$CBV?$tuple@HHW4arch_t@@@std@@P8DCTFFTW@@AEXPBEHPAM@Z@std@@PAX@2@@?$_Tree@V?$_Tmap_traits@V?$tuple@HHW4arch_t@@@std@@P8DCTFFTW@@AEXPBEHPAM@ZU?$less@V?$tuple@HHW4arch_t@@@std@@@2@V?$allocator@U?$pair@$$CBV?$tuple@HHW4arch_t@@@std@@P8DCTFFTW@@AEXPBEHPAM@Z@std@@@2@$0A@@std@@@std@@IAE?AU?$pair@V?$_Tree_iterator@V?$_Tree_val@U?$_Tree_simple_types@U?$pair@$$CBV?$tuple@HHW4arch_t@@@std@@P8DCTFFTW@@AEXPBEHPAM@Z@std@@@std@@@std@@@std@@_N@1@_NAAU?$pair@$$CBV?$tuple@HHW4arch_t@@@std@@P8DCTFFTW@@AEXPBEHPAM@Z@1@PAU?$_Tree_node@U?$pair@$$CBV?$tuple@HHW4arch_t@@@std@@P8DCTFFTW@@AEXPBEHPAM@Z@std@@PAX@1@@Z ; std::_Tree<std::_Tmap_traits<std::tuple<int,int,enum arch_t>,void (__thiscall DCTFFTW::*)(unsigned char const *,int,float *),std::less<std::tuple<int,int,enum arch_t> >,std::allocator<std::pair<std::tuple<int,int,enum arch_t> const ,void (__thiscall DCTFFTW::*)(unsigned char const *,int,float *)> >,0> >::_Insert_nohint<std::pair<std::tuple<int,int,enum arch_t> const ,void (__thiscall DCTFFTW::*)(unsigned char const *,int,float *)> &,std::_Tree_node<std::pair<std::tuple<int,int,enum arch_t> const ,void (__thiscall DCTFFTW::*)(unsigned char const *,int,float *)>,void *> *>
PUBLIC	??$_Insert_at@AAU?$pair@$$CBV?$tuple@HHW4arch_t@@@std@@P8DCTFFTW@@AEXPBEHPAM@Z@std@@PAU?$_Tree_node@U?$pair@$$CBV?$tuple@HHW4arch_t@@@std@@P8DCTFFTW@@AEXPBEHPAM@Z@std@@PAX@2@@?$_Tree@V?$_Tmap_traits@V?$tuple@HHW4arch_t@@@std@@P8DCTFFTW@@AEXPBEHPAM@ZU?$less@V?$tuple@HHW4arch_t@@@std@@@2@V?$allocator@U?$pair@$$CBV?$tuple@HHW4arch_t@@@std@@P8DCTFFTW@@AEXPBEHPAM@Z@std@@@2@$0A@@std@@@std@@IAE?AV?$_Tree_iterator@V?$_Tree_val@U?$_Tree_simple_types@U?$pair@$$CBV?$tuple@HHW4arch_t@@@std@@P8DCTFFTW@@AEXPBEHPAM@Z@std@@@std@@@std@@@1@_NPAU?$_Tree_node@U?$pair@$$CBV?$tuple@HHW4arch_t@@@std@@P8DCTFFTW@@AEXPBEHPAM@Z@std@@PAX@1@AAU?$pair@$$CBV?$tuple@HHW4arch_t@@@std@@P8DCTFFTW@@AEXPBEHPAM@Z@1@1@Z ; std::_Tree<std::_Tmap_traits<std::tuple<int,int,enum arch_t>,void (__thiscall DCTFFTW::*)(unsigned char const *,int,float *),std::less<std::tuple<int,int,enum arch_t> >,std::allocator<std::pair<std::tuple<int,int,enum arch_t> const ,void (__thiscall DCTFFTW::*)(unsigned char const *,int,float *)> >,0> >::_Insert_at<std::pair<std::tuple<int,int,enum arch_t> const ,void (__thiscall DCTFFTW::*)(unsigned char const *,int,float *)> &,std::_Tree_node<std::pair<std::tuple<int,int,enum arch_t> const ,void (__thiscall DCTFFTW::*)(unsigned char const *,int,float *)>,void *> *>
PUBLIC	??$forward@AAU?$pair@$$CBV?$tuple@HHW4arch_t@@@std@@P8DCTFFTW@@AEXPBEHPAM@Z@std@@@std@@YAAAU?$pair@$$CBV?$tuple@HHW4arch_t@@@std@@P8DCTFFTW@@AEXPBEHPAM@Z@0@AAU10@@Z ; std::forward<std::pair<std::tuple<int,int,enum arch_t> const ,void (__thiscall DCTFFTW::*)(unsigned char const *,int,float *)> &>
PUBLIC	??$construct@U?$pair@$$CBV?$tuple@HHW4arch_t@@@std@@P8DCTFFTW@@AEXPBEHPAM@Z@std@@ABUpiecewise_construct_t@2@V?$tuple@$$QAV?$tuple@HHW4arch_t@@@std@@@2@V?$tuple@$$V@2@@?$_Wrap_alloc@V?$allocator@U?$_Tree_node@U?$pair@$$CBV?$tuple@HHW4arch_t@@@std@@P8DCTFFTW@@AEXPBEHPAM@Z@std@@PAX@std@@@std@@@std@@QAEXPAU?$pair@$$CBV?$tuple@HHW4arch_t@@@std@@P8DCTFFTW@@AEXPBEHPAM@Z@1@ABUpiecewise_construct_t@1@$$QAV?$tuple@$$QAV?$tuple@HHW4arch_t@@@std@@@1@$$QAV?$tuple@$$V@1@@Z ; std::_Wrap_alloc<std::allocator<std::_Tree_node<std::pair<std::tuple<int,int,enum arch_t> const ,void (__thiscall DCTFFTW::*)(unsigned char const *,int,float *)>,void *> > >::construct<std::pair<std::tuple<int,int,enum arch_t> const ,void (__thiscall DCTFFTW::*)(unsigned char const *,int,float *)>,std::piecewise_construct_t const &,std::tuple<std::tuple<int,int,enum arch_t> &&>,std::tuple<> >
PUBLIC	??$?0V?$tuple@HHW4arch_t@@@std@@@?$_Tuple_val@$$QAV?$tuple@HHW4arch_t@@@std@@@std@@QAE@$$QAV?$tuple@HHW4arch_t@@@1@@Z ; std::_Tuple_val<std::tuple<int,int,enum arch_t> &&>::_Tuple_val<std::tuple<int,int,enum arch_t> &&><std::tuple<int,int,enum arch_t> >
PUBLIC	?_Mysize@?$_Tree_comp_alloc@V?$_Tmap_traits@V?$tuple@HHW4arch_t@@@std@@P8DCTFFTW@@AEXPAEHPAM@ZU?$less@V?$tuple@HHW4arch_t@@@std@@@2@V?$allocator@U?$pair@$$CBV?$tuple@HHW4arch_t@@@std@@P8DCTFFTW@@AEXPAEHPAM@Z@std@@@2@$0A@@std@@@std@@QBEABIXZ ; std::_Tree_comp_alloc<std::_Tmap_traits<std::tuple<int,int,enum arch_t>,void (__thiscall DCTFFTW::*)(unsigned char *,int,float *),std::less<std::tuple<int,int,enum arch_t> >,std::allocator<std::pair<std::tuple<int,int,enum arch_t> const ,void (__thiscall DCTFFTW::*)(unsigned char *,int,float *)> >,0> >::_Mysize
PUBLIC	?_Mysize@?$_Tree_comp_alloc@V?$_Tmap_traits@V?$tuple@HHW4arch_t@@@std@@P8DCTFFTW@@AEXPBEHPAM@ZU?$less@V?$tuple@HHW4arch_t@@@std@@@2@V?$allocator@U?$pair@$$CBV?$tuple@HHW4arch_t@@@std@@P8DCTFFTW@@AEXPBEHPAM@Z@std@@@2@$0A@@std@@@std@@QBEABIXZ ; std::_Tree_comp_alloc<std::_Tmap_traits<std::tuple<int,int,enum arch_t>,void (__thiscall DCTFFTW::*)(unsigned char const *,int,float *),std::less<std::tuple<int,int,enum arch_t> >,std::allocator<std::pair<std::tuple<int,int,enum arch_t> const ,void (__thiscall DCTFFTW::*)(unsigned char const *,int,float *)> >,0> >::_Mysize
PUBLIC	??0?$_Tree_unchecked_const_iterator@V?$_Tree_val@U?$_Tree_simple_types@U?$pair@$$CBV?$tuple@HHW4arch_t@@@std@@P8DCTFFTW@@AEXPBEHPAM@Z@std@@@std@@@std@@U_Iterator_base0@2@@std@@QAE@XZ ; std::_Tree_unchecked_const_iterator<std::_Tree_val<std::_Tree_simple_types<std::pair<std::tuple<int,int,enum arch_t> const ,void (__thiscall DCTFFTW::*)(unsigned char const *,int,float *)> > >,std::_Iterator_base0>::_Tree_unchecked_const_iterator<std::_Tree_val<std::_Tree_simple_types<std::pair<std::tuple<int,int,enum arch_t> const ,void (__thiscall DCTFFTW::*)(unsigned char const *,int,float *)> > >,std::_Iterator_base0>
PUBLIC	??F?$_Tree_unchecked_const_iterator@V?$_Tree_val@U?$_Tree_simple_types@U?$pair@$$CBV?$tuple@HHW4arch_t@@@std@@P8DCTFFTW@@AEXPBEHPAM@Z@std@@@std@@@std@@U_Iterator_base0@2@@std@@QAEAAV01@XZ ; std::_Tree_unchecked_const_iterator<std::_Tree_val<std::_Tree_simple_types<std::pair<std::tuple<int,int,enum arch_t> const ,void (__thiscall DCTFFTW::*)(unsigned char const *,int,float *)> > >,std::_Iterator_base0>::operator--
PUBLIC	??0?$_Tree_unchecked_const_iterator@V?$_Tree_val@U?$_Tree_simple_types@U?$pair@$$CBV?$tuple@HHW4arch_t@@@std@@P8DCTFFTW@@AEXPAEHPAM@Z@std@@@std@@@std@@U_Iterator_base0@2@@std@@QAE@XZ ; std::_Tree_unchecked_const_iterator<std::_Tree_val<std::_Tree_simple_types<std::pair<std::tuple<int,int,enum arch_t> const ,void (__thiscall DCTFFTW::*)(unsigned char *,int,float *)> > >,std::_Iterator_base0>::_Tree_unchecked_const_iterator<std::_Tree_val<std::_Tree_simple_types<std::pair<std::tuple<int,int,enum arch_t> const ,void (__thiscall DCTFFTW::*)(unsigned char *,int,float *)> > >,std::_Iterator_base0>
PUBLIC	??F?$_Tree_unchecked_const_iterator@V?$_Tree_val@U?$_Tree_simple_types@U?$pair@$$CBV?$tuple@HHW4arch_t@@@std@@P8DCTFFTW@@AEXPAEHPAM@Z@std@@@std@@@std@@U_Iterator_base0@2@@std@@QAEAAV01@XZ ; std::_Tree_unchecked_const_iterator<std::_Tree_val<std::_Tree_simple_types<std::pair<std::tuple<int,int,enum arch_t> const ,void (__thiscall DCTFFTW::*)(unsigned char *,int,float *)> > >,std::_Iterator_base0>::operator--
PUBLIC	?size@?$_Tree@V?$_Tmap_traits@V?$tuple@HHW4arch_t@@@std@@P8DCTFFTW@@AEXPAEHPAM@ZU?$less@V?$tuple@HHW4arch_t@@@std@@@2@V?$allocator@U?$pair@$$CBV?$tuple@HHW4arch_t@@@std@@P8DCTFFTW@@AEXPAEHPAM@Z@std@@@2@$0A@@std@@@std@@QBEIXZ ; std::_Tree<std::_Tmap_traits<std::tuple<int,int,enum arch_t>,void (__thiscall DCTFFTW::*)(unsigned char *,int,float *),std::less<std::tuple<int,int,enum arch_t> >,std::allocator<std::pair<std::tuple<int,int,enum arch_t> const ,void (__thiscall DCTFFTW::*)(unsigned char *,int,float *)> >,0> >::size
PUBLIC	?_Destroy_if_not_nil@?$_Tree@V?$_Tmap_traits@V?$tuple@HHW4arch_t@@@std@@P8DCTFFTW@@AEXPAEHPAM@ZU?$less@V?$tuple@HHW4arch_t@@@std@@@2@V?$allocator@U?$pair@$$CBV?$tuple@HHW4arch_t@@@std@@P8DCTFFTW@@AEXPAEHPAM@Z@std@@@2@$0A@@std@@@std@@IAEXPAU?$_Tree_node@U?$pair@$$CBV?$tuple@HHW4arch_t@@@std@@P8DCTFFTW@@AEXPAEHPAM@Z@std@@PAX@2@@Z ; std::_Tree<std::_Tmap_traits<std::tuple<int,int,enum arch_t>,void (__thiscall DCTFFTW::*)(unsigned char *,int,float *),std::less<std::tuple<int,int,enum arch_t> >,std::allocator<std::pair<std::tuple<int,int,enum arch_t> const ,void (__thiscall DCTFFTW::*)(unsigned char *,int,float *)> >,0> >::_Destroy_if_not_nil
PUBLIC	?_Buynode0@?$_Tree_comp_alloc@V?$_Tmap_traits@V?$tuple@HHW4arch_t@@@std@@P8DCTFFTW@@AEXPAEHPAM@ZU?$less@V?$tuple@HHW4arch_t@@@std@@@2@V?$allocator@U?$pair@$$CBV?$tuple@HHW4arch_t@@@std@@P8DCTFFTW@@AEXPAEHPAM@Z@std@@@2@$0A@@std@@@std@@QAEPAU?$_Tree_node@U?$pair@$$CBV?$tuple@HHW4arch_t@@@std@@P8DCTFFTW@@AEXPAEHPAM@Z@std@@PAX@2@XZ ; std::_Tree_comp_alloc<std::_Tmap_traits<std::tuple<int,int,enum arch_t>,void (__thiscall DCTFFTW::*)(unsigned char *,int,float *),std::less<std::tuple<int,int,enum arch_t> >,std::allocator<std::pair<std::tuple<int,int,enum arch_t> const ,void (__thiscall DCTFFTW::*)(unsigned char *,int,float *)> >,0> >::_Buynode0
PUBLIC	?_Freenode0@?$_Tree_comp_alloc@V?$_Tmap_traits@V?$tuple@HHW4arch_t@@@std@@P8DCTFFTW@@AEXPAEHPAM@ZU?$less@V?$tuple@HHW4arch_t@@@std@@@2@V?$allocator@U?$pair@$$CBV?$tuple@HHW4arch_t@@@std@@P8DCTFFTW@@AEXPAEHPAM@Z@std@@@2@$0A@@std@@@std@@QAEXPAU?$_Tree_node@U?$pair@$$CBV?$tuple@HHW4arch_t@@@std@@P8DCTFFTW@@AEXPAEHPAM@Z@std@@PAX@2@@Z ; std::_Tree_comp_alloc<std::_Tmap_traits<std::tuple<int,int,enum arch_t>,void (__thiscall DCTFFTW::*)(unsigned char *,int,float *),std::less<std::tuple<int,int,enum arch_t> >,std::allocator<std::pair<std::tuple<int,int,enum arch_t> const ,void (__thiscall DCTFFTW::*)(unsigned char *,int,float *)> >,0> >::_Freenode0
PUBLIC	??0?$_Tree_const_iterator@V?$_Tree_val@U?$_Tree_simple_types@U?$pair@$$CBV?$tuple@HHW4arch_t@@@std@@P8DCTFFTW@@AEXPAEHPAM@Z@std@@@std@@@std@@@std@@QAE@XZ ; std::_Tree_const_iterator<std::_Tree_val<std::_Tree_simple_types<std::pair<std::tuple<int,int,enum arch_t> const ,void (__thiscall DCTFFTW::*)(unsigned char *,int,float *)> > > >::_Tree_const_iterator<std::_Tree_val<std::_Tree_simple_types<std::pair<std::tuple<int,int,enum arch_t> const ,void (__thiscall DCTFFTW::*)(unsigned char *,int,float *)> > > >
PUBLIC	??F?$_Tree_const_iterator@V?$_Tree_val@U?$_Tree_simple_types@U?$pair@$$CBV?$tuple@HHW4arch_t@@@std@@P8DCTFFTW@@AEXPAEHPAM@Z@std@@@std@@@std@@@std@@QAEAAV01@XZ ; std::_Tree_const_iterator<std::_Tree_val<std::_Tree_simple_types<std::pair<std::tuple<int,int,enum arch_t> const ,void (__thiscall DCTFFTW::*)(unsigned char *,int,float *)> > > >::operator--
PUBLIC	?size@?$_Tree@V?$_Tmap_traits@V?$tuple@HHW4arch_t@@@std@@P8DCTFFTW@@AEXPBEHPAM@ZU?$less@V?$tuple@HHW4arch_t@@@std@@@2@V?$allocator@U?$pair@$$CBV?$tuple@HHW4arch_t@@@std@@P8DCTFFTW@@AEXPBEHPAM@Z@std@@@2@$0A@@std@@@std@@QBEIXZ ; std::_Tree<std::_Tmap_traits<std::tuple<int,int,enum arch_t>,void (__thiscall DCTFFTW::*)(unsigned char const *,int,float *),std::less<std::tuple<int,int,enum arch_t> >,std::allocator<std::pair<std::tuple<int,int,enum arch_t> const ,void (__thiscall DCTFFTW::*)(unsigned char const *,int,float *)> >,0> >::size
PUBLIC	?_Destroy_if_not_nil@?$_Tree@V?$_Tmap_traits@V?$tuple@HHW4arch_t@@@std@@P8DCTFFTW@@AEXPBEHPAM@ZU?$less@V?$tuple@HHW4arch_t@@@std@@@2@V?$allocator@U?$pair@$$CBV?$tuple@HHW4arch_t@@@std@@P8DCTFFTW@@AEXPBEHPAM@Z@std@@@2@$0A@@std@@@std@@IAEXPAU?$_Tree_node@U?$pair@$$CBV?$tuple@HHW4arch_t@@@std@@P8DCTFFTW@@AEXPBEHPAM@Z@std@@PAX@2@@Z ; std::_Tree<std::_Tmap_traits<std::tuple<int,int,enum arch_t>,void (__thiscall DCTFFTW::*)(unsigned char const *,int,float *),std::less<std::tuple<int,int,enum arch_t> >,std::allocator<std::pair<std::tuple<int,int,enum arch_t> const ,void (__thiscall DCTFFTW::*)(unsigned char const *,int,float *)> >,0> >::_Destroy_if_not_nil
PUBLIC	?_Buynode0@?$_Tree_comp_alloc@V?$_Tmap_traits@V?$tuple@HHW4arch_t@@@std@@P8DCTFFTW@@AEXPBEHPAM@ZU?$less@V?$tuple@HHW4arch_t@@@std@@@2@V?$allocator@U?$pair@$$CBV?$tuple@HHW4arch_t@@@std@@P8DCTFFTW@@AEXPBEHPAM@Z@std@@@2@$0A@@std@@@std@@QAEPAU?$_Tree_node@U?$pair@$$CBV?$tuple@HHW4arch_t@@@std@@P8DCTFFTW@@AEXPBEHPAM@Z@std@@PAX@2@XZ ; std::_Tree_comp_alloc<std::_Tmap_traits<std::tuple<int,int,enum arch_t>,void (__thiscall DCTFFTW::*)(unsigned char const *,int,float *),std::less<std::tuple<int,int,enum arch_t> >,std::allocator<std::pair<std::tuple<int,int,enum arch_t> const ,void (__thiscall DCTFFTW::*)(unsigned char const *,int,float *)> >,0> >::_Buynode0
PUBLIC	?_Freenode0@?$_Tree_comp_alloc@V?$_Tmap_traits@V?$tuple@HHW4arch_t@@@std@@P8DCTFFTW@@AEXPBEHPAM@ZU?$less@V?$tuple@HHW4arch_t@@@std@@@2@V?$allocator@U?$pair@$$CBV?$tuple@HHW4arch_t@@@std@@P8DCTFFTW@@AEXPBEHPAM@Z@std@@@2@$0A@@std@@@std@@QAEXPAU?$_Tree_node@U?$pair@$$CBV?$tuple@HHW4arch_t@@@std@@P8DCTFFTW@@AEXPBEHPAM@Z@std@@PAX@2@@Z ; std::_Tree_comp_alloc<std::_Tmap_traits<std::tuple<int,int,enum arch_t>,void (__thiscall DCTFFTW::*)(unsigned char const *,int,float *),std::less<std::tuple<int,int,enum arch_t> >,std::allocator<std::pair<std::tuple<int,int,enum arch_t> const ,void (__thiscall DCTFFTW::*)(unsigned char const *,int,float *)> >,0> >::_Freenode0
PUBLIC	??0?$_Tree_const_iterator@V?$_Tree_val@U?$_Tree_simple_types@U?$pair@$$CBV?$tuple@HHW4arch_t@@@std@@P8DCTFFTW@@AEXPBEHPAM@Z@std@@@std@@@std@@@std@@QAE@XZ ; std::_Tree_const_iterator<std::_Tree_val<std::_Tree_simple_types<std::pair<std::tuple<int,int,enum arch_t> const ,void (__thiscall DCTFFTW::*)(unsigned char const *,int,float *)> > > >::_Tree_const_iterator<std::_Tree_val<std::_Tree_simple_types<std::pair<std::tuple<int,int,enum arch_t> const ,void (__thiscall DCTFFTW::*)(unsigned char const *,int,float *)> > > >
PUBLIC	??F?$_Tree_const_iterator@V?$_Tree_val@U?$_Tree_simple_types@U?$pair@$$CBV?$tuple@HHW4arch_t@@@std@@P8DCTFFTW@@AEXPBEHPAM@Z@std@@@std@@@std@@@std@@QAEAAV01@XZ ; std::_Tree_const_iterator<std::_Tree_val<std::_Tree_simple_types<std::pair<std::tuple<int,int,enum arch_t> const ,void (__thiscall DCTFFTW::*)(unsigned char const *,int,float *)> > > >::operator--
PUBLIC	??$forward@AAV?$_Tree_iterator@V?$_Tree_val@U?$_Tree_simple_types@U?$pair@$$CBV?$tuple@HHW4arch_t@@@std@@P8DCTFFTW@@AEXPAEHPAM@Z@std@@@std@@@std@@@std@@@std@@YAAAV?$_Tree_iterator@V?$_Tree_val@U?$_Tree_simple_types@U?$pair@$$CBV?$tuple@HHW4arch_t@@@std@@P8DCTFFTW@@AEXPAEHPAM@Z@std@@@std@@@std@@@0@AAV10@@Z ; std::forward<std::_Tree_iterator<std::_Tree_val<std::_Tree_simple_types<std::pair<std::tuple<int,int,enum arch_t> const ,void (__thiscall DCTFFTW::*)(unsigned char *,int,float *)> > > > &>
PUBLIC	??$forward@V?$_Tree_iterator@V?$_Tree_val@U?$_Tree_simple_types@U?$pair@$$CBV?$tuple@HHW4arch_t@@@std@@P8DCTFFTW@@AEXPAEHPAM@Z@std@@@std@@@std@@@std@@@std@@YA$$QAV?$_Tree_iterator@V?$_Tree_val@U?$_Tree_simple_types@U?$pair@$$CBV?$tuple@HHW4arch_t@@@std@@P8DCTFFTW@@AEXPAEHPAM@Z@std@@@std@@@std@@@0@AAV10@@Z ; std::forward<std::_Tree_iterator<std::_Tree_val<std::_Tree_simple_types<std::pair<std::tuple<int,int,enum arch_t> const ,void (__thiscall DCTFFTW::*)(unsigned char *,int,float *)> > > > >
PUBLIC	??$_Insert_hint@AAU?$pair@$$CBV?$tuple@HHW4arch_t@@@std@@P8DCTFFTW@@AEXPAEHPAM@Z@std@@PAU?$_Tree_node@U?$pair@$$CBV?$tuple@HHW4arch_t@@@std@@P8DCTFFTW@@AEXPAEHPAM@Z@std@@PAX@2@@?$_Tree@V?$_Tmap_traits@V?$tuple@HHW4arch_t@@@std@@P8DCTFFTW@@AEXPAEHPAM@ZU?$less@V?$tuple@HHW4arch_t@@@std@@@2@V?$allocator@U?$pair@$$CBV?$tuple@HHW4arch_t@@@std@@P8DCTFFTW@@AEXPAEHPAM@Z@std@@@2@$0A@@std@@@std@@IAE?AV?$_Tree_iterator@V?$_Tree_val@U?$_Tree_simple_types@U?$pair@$$CBV?$tuple@HHW4arch_t@@@std@@P8DCTFFTW@@AEXPAEHPAM@Z@std@@@std@@@std@@@1@V?$_Tree_const_iterator@V?$_Tree_val@U?$_Tree_simple_types@U?$pair@$$CBV?$tuple@HHW4arch_t@@@std@@P8DCTFFTW@@AEXPAEHPAM@Z@std@@@std@@@std@@@1@AAU?$pair@$$CBV?$tuple@HHW4arch_t@@@std@@P8DCTFFTW@@AEXPAEHPAM@Z@1@PAU?$_Tree_node@U?$pair@$$CBV?$tuple@HHW4arch_t@@@std@@P8DCTFFTW@@AEXPAEHPAM@Z@std@@PAX@1@@Z ; std::_Tree<std::_Tmap_traits<std::tuple<int,int,enum arch_t>,void (__thiscall DCTFFTW::*)(unsigned char *,int,float *),std::less<std::tuple<int,int,enum arch_t> >,std::allocator<std::pair<std::tuple<int,int,enum arch_t> const ,void (__thiscall DCTFFTW::*)(unsigned char *,int,float *)> >,0> >::_Insert_hint<std::pair<std::tuple<int,int,enum arch_t> const ,void (__thiscall DCTFFTW::*)(unsigned char *,int,float *)> &,std::_Tree_node<std::pair<std::tuple<int,int,enum arch_t> const ,void (__thiscall DCTFFTW::*)(unsigned char *,int,float *)>,void *> *>
PUBLIC	??$_Buynode@ABUpiecewise_construct_t@std@@V?$tuple@$$QAV?$tuple@HHW4arch_t@@@std@@@2@V?$tuple@$$V@2@@?$_Tree_comp_alloc@V?$_Tmap_traits@V?$tuple@HHW4arch_t@@@std@@P8DCTFFTW@@AEXPAEHPAM@ZU?$less@V?$tuple@HHW4arch_t@@@std@@@2@V?$allocator@U?$pair@$$CBV?$tuple@HHW4arch_t@@@std@@P8DCTFFTW@@AEXPAEHPAM@Z@std@@@2@$0A@@std@@@std@@QAEPAU?$_Tree_node@U?$pair@$$CBV?$tuple@HHW4arch_t@@@std@@P8DCTFFTW@@AEXPAEHPAM@Z@std@@PAX@1@ABUpiecewise_construct_t@1@$$QAV?$tuple@$$QAV?$tuple@HHW4arch_t@@@std@@@1@$$QAV?$tuple@$$V@1@@Z ; std::_Tree_comp_alloc<std::_Tmap_traits<std::tuple<int,int,enum arch_t>,void (__thiscall DCTFFTW::*)(unsigned char *,int,float *),std::less<std::tuple<int,int,enum arch_t> >,std::allocator<std::pair<std::tuple<int,int,enum arch_t> const ,void (__thiscall DCTFFTW::*)(unsigned char *,int,float *)> >,0> >::_Buynode<std::piecewise_construct_t const &,std::tuple<std::tuple<int,int,enum arch_t> &&>,std::tuple<> >
PUBLIC	??$forward@AAV?$_Tree_iterator@V?$_Tree_val@U?$_Tree_simple_types@U?$pair@$$CBV?$tuple@HHW4arch_t@@@std@@P8DCTFFTW@@AEXPBEHPAM@Z@std@@@std@@@std@@@std@@@std@@YAAAV?$_Tree_iterator@V?$_Tree_val@U?$_Tree_simple_types@U?$pair@$$CBV?$tuple@HHW4arch_t@@@std@@P8DCTFFTW@@AEXPBEHPAM@Z@std@@@std@@@std@@@0@AAV10@@Z ; std::forward<std::_Tree_iterator<std::_Tree_val<std::_Tree_simple_types<std::pair<std::tuple<int,int,enum arch_t> const ,void (__thiscall DCTFFTW::*)(unsigned char const *,int,float *)> > > > &>
PUBLIC	??$forward@V?$_Tree_iterator@V?$_Tree_val@U?$_Tree_simple_types@U?$pair@$$CBV?$tuple@HHW4arch_t@@@std@@P8DCTFFTW@@AEXPBEHPAM@Z@std@@@std@@@std@@@std@@@std@@YA$$QAV?$_Tree_iterator@V?$_Tree_val@U?$_Tree_simple_types@U?$pair@$$CBV?$tuple@HHW4arch_t@@@std@@P8DCTFFTW@@AEXPBEHPAM@Z@std@@@std@@@std@@@0@AAV10@@Z ; std::forward<std::_Tree_iterator<std::_Tree_val<std::_Tree_simple_types<std::pair<std::tuple<int,int,enum arch_t> const ,void (__thiscall DCTFFTW::*)(unsigned char const *,int,float *)> > > > >
PUBLIC	??$_Insert_hint@AAU?$pair@$$CBV?$tuple@HHW4arch_t@@@std@@P8DCTFFTW@@AEXPBEHPAM@Z@std@@PAU?$_Tree_node@U?$pair@$$CBV?$tuple@HHW4arch_t@@@std@@P8DCTFFTW@@AEXPBEHPAM@Z@std@@PAX@2@@?$_Tree@V?$_Tmap_traits@V?$tuple@HHW4arch_t@@@std@@P8DCTFFTW@@AEXPBEHPAM@ZU?$less@V?$tuple@HHW4arch_t@@@std@@@2@V?$allocator@U?$pair@$$CBV?$tuple@HHW4arch_t@@@std@@P8DCTFFTW@@AEXPBEHPAM@Z@std@@@2@$0A@@std@@@std@@IAE?AV?$_Tree_iterator@V?$_Tree_val@U?$_Tree_simple_types@U?$pair@$$CBV?$tuple@HHW4arch_t@@@std@@P8DCTFFTW@@AEXPBEHPAM@Z@std@@@std@@@std@@@1@V?$_Tree_const_iterator@V?$_Tree_val@U?$_Tree_simple_types@U?$pair@$$CBV?$tuple@HHW4arch_t@@@std@@P8DCTFFTW@@AEXPBEHPAM@Z@std@@@std@@@std@@@1@AAU?$pair@$$CBV?$tuple@HHW4arch_t@@@std@@P8DCTFFTW@@AEXPBEHPAM@Z@1@PAU?$_Tree_node@U?$pair@$$CBV?$tuple@HHW4arch_t@@@std@@P8DCTFFTW@@AEXPBEHPAM@Z@std@@PAX@1@@Z ; std::_Tree<std::_Tmap_traits<std::tuple<int,int,enum arch_t>,void (__thiscall DCTFFTW::*)(unsigned char const *,int,float *),std::less<std::tuple<int,int,enum arch_t> >,std::allocator<std::pair<std::tuple<int,int,enum arch_t> const ,void (__thiscall DCTFFTW::*)(unsigned char const *,int,float *)> >,0> >::_Insert_hint<std::pair<std::tuple<int,int,enum arch_t> const ,void (__thiscall DCTFFTW::*)(unsigned char const *,int,float *)> &,std::_Tree_node<std::pair<std::tuple<int,int,enum arch_t> const ,void (__thiscall DCTFFTW::*)(unsigned char const *,int,float *)>,void *> *>
PUBLIC	??$_Buynode@ABUpiecewise_construct_t@std@@V?$tuple@$$QAV?$tuple@HHW4arch_t@@@std@@@2@V?$tuple@$$V@2@@?$_Tree_comp_alloc@V?$_Tmap_traits@V?$tuple@HHW4arch_t@@@std@@P8DCTFFTW@@AEXPBEHPAM@ZU?$less@V?$tuple@HHW4arch_t@@@std@@@2@V?$allocator@U?$pair@$$CBV?$tuple@HHW4arch_t@@@std@@P8DCTFFTW@@AEXPBEHPAM@Z@std@@@2@$0A@@std@@@std@@QAEPAU?$_Tree_node@U?$pair@$$CBV?$tuple@HHW4arch_t@@@std@@P8DCTFFTW@@AEXPBEHPAM@Z@std@@PAX@1@ABUpiecewise_construct_t@1@$$QAV?$tuple@$$QAV?$tuple@HHW4arch_t@@@std@@@1@$$QAV?$tuple@$$V@1@@Z ; std::_Tree_comp_alloc<std::_Tmap_traits<std::tuple<int,int,enum arch_t>,void (__thiscall DCTFFTW::*)(unsigned char const *,int,float *),std::less<std::tuple<int,int,enum arch_t> >,std::allocator<std::pair<std::tuple<int,int,enum arch_t> const ,void (__thiscall DCTFFTW::*)(unsigned char const *,int,float *)> >,0> >::_Buynode<std::piecewise_construct_t const &,std::tuple<std::tuple<int,int,enum arch_t> &&>,std::tuple<> >
PUBLIC	??$forward@V?$tuple@$$QAV?$tuple@HHW4arch_t@@@std@@@std@@@std@@YA$$QAV?$tuple@$$QAV?$tuple@HHW4arch_t@@@std@@@0@AAV10@@Z ; std::forward<std::tuple<std::tuple<int,int,enum arch_t> &&> >
PUBLIC	??$?0V?$tuple@HHW4arch_t@@@std@@$$V$0A@@?$tuple@$$QAV?$tuple@HHW4arch_t@@@std@@@std@@QAE@$$QAV?$tuple@HHW4arch_t@@@1@@Z ; std::tuple<std::tuple<int,int,enum arch_t> &&>::tuple<std::tuple<int,int,enum arch_t> &&><std::tuple<int,int,enum arch_t>,0>
PUBLIC	?_Get_first@?$_Compressed_pair@U?$less@V?$tuple@HHW4arch_t@@@std@@@std@@V?$_Compressed_pair@U?$_Wrap_alloc@V?$allocator@U?$_Tree_node@U?$pair@$$CBV?$tuple@HHW4arch_t@@@std@@P8DCTFFTW@@AEXPAEHPAM@Z@std@@PAX@std@@@std@@@std@@V?$_Tree_val@U?$_Tree_simple_types@U?$pair@$$CBV?$tuple@HHW4arch_t@@@std@@P8DCTFFTW@@AEXPAEHPAM@Z@std@@@std@@@2@$00@2@$00@std@@QBEABU?$less@V?$tuple@HHW4arch_t@@@std@@@2@XZ ; std::_Compressed_pair<std::less<std::tuple<int,int,enum arch_t> >,std::_Compressed_pair<std::_Wrap_alloc<std::allocator<std::_Tree_node<std::pair<std::tuple<int,int,enum arch_t> const ,void (__thiscall DCTFFTW::*)(unsigned char *,int,float *)>,void *> > >,std::_Tree_val<std::_Tree_simple_types<std::pair<std::tuple<int,int,enum arch_t> const ,void (__thiscall DCTFFTW::*)(unsigned char *,int,float *)> > >,1>,1>::_Get_first
PUBLIC	?_Get_first@?$_Compressed_pair@U?$less@V?$tuple@HHW4arch_t@@@std@@@std@@V?$_Compressed_pair@U?$_Wrap_alloc@V?$allocator@U?$_Tree_node@U?$pair@$$CBV?$tuple@HHW4arch_t@@@std@@P8DCTFFTW@@AEXPBEHPAM@Z@std@@PAX@std@@@std@@@std@@V?$_Tree_val@U?$_Tree_simple_types@U?$pair@$$CBV?$tuple@HHW4arch_t@@@std@@P8DCTFFTW@@AEXPBEHPAM@Z@std@@@std@@@2@$00@2@$00@std@@QBEABU?$less@V?$tuple@HHW4arch_t@@@std@@@2@XZ ; std::_Compressed_pair<std::less<std::tuple<int,int,enum arch_t> >,std::_Compressed_pair<std::_Wrap_alloc<std::allocator<std::_Tree_node<std::pair<std::tuple<int,int,enum arch_t> const ,void (__thiscall DCTFFTW::*)(unsigned char const *,int,float *)>,void *> > >,std::_Tree_val<std::_Tree_simple_types<std::pair<std::tuple<int,int,enum arch_t> const ,void (__thiscall DCTFFTW::*)(unsigned char const *,int,float *)> > >,1>,1>::_Get_first
PUBLIC	?_Getcomp@?$_Tree_comp_alloc@V?$_Tmap_traits@V?$tuple@HHW4arch_t@@@std@@P8DCTFFTW@@AEXPAEHPAM@ZU?$less@V?$tuple@HHW4arch_t@@@std@@@2@V?$allocator@U?$pair@$$CBV?$tuple@HHW4arch_t@@@std@@P8DCTFFTW@@AEXPAEHPAM@Z@std@@@2@$0A@@std@@@std@@QBEABU?$less@V?$tuple@HHW4arch_t@@@std@@@2@XZ ; std::_Tree_comp_alloc<std::_Tmap_traits<std::tuple<int,int,enum arch_t>,void (__thiscall DCTFFTW::*)(unsigned char *,int,float *),std::less<std::tuple<int,int,enum arch_t> >,std::allocator<std::pair<std::tuple<int,int,enum arch_t> const ,void (__thiscall DCTFFTW::*)(unsigned char *,int,float *)> >,0> >::_Getcomp
PUBLIC	?_Getcomp@?$_Tree_comp_alloc@V?$_Tmap_traits@V?$tuple@HHW4arch_t@@@std@@P8DCTFFTW@@AEXPBEHPAM@ZU?$less@V?$tuple@HHW4arch_t@@@std@@@2@V?$allocator@U?$pair@$$CBV?$tuple@HHW4arch_t@@@std@@P8DCTFFTW@@AEXPBEHPAM@Z@std@@@2@$0A@@std@@@std@@QBEABU?$less@V?$tuple@HHW4arch_t@@@std@@@2@XZ ; std::_Tree_comp_alloc<std::_Tmap_traits<std::tuple<int,int,enum arch_t>,void (__thiscall DCTFFTW::*)(unsigned char const *,int,float *),std::less<std::tuple<int,int,enum arch_t> >,std::allocator<std::pair<std::tuple<int,int,enum arch_t> const ,void (__thiscall DCTFFTW::*)(unsigned char const *,int,float *)> >,0> >::_Getcomp
PUBLIC	?_Compare@?$_Tree@V?$_Tmap_traits@V?$tuple@HHW4arch_t@@@std@@P8DCTFFTW@@AEXPAEHPAM@ZU?$less@V?$tuple@HHW4arch_t@@@std@@@2@V?$allocator@U?$pair@$$CBV?$tuple@HHW4arch_t@@@std@@P8DCTFFTW@@AEXPAEHPAM@Z@std@@@2@$0A@@std@@@std@@IBE_NABV?$tuple@HHW4arch_t@@@2@0@Z ; std::_Tree<std::_Tmap_traits<std::tuple<int,int,enum arch_t>,void (__thiscall DCTFFTW::*)(unsigned char *,int,float *),std::less<std::tuple<int,int,enum arch_t> >,std::allocator<std::pair<std::tuple<int,int,enum arch_t> const ,void (__thiscall DCTFFTW::*)(unsigned char *,int,float *)> >,0> >::_Compare
PUBLIC	?_Compare@?$_Tree@V?$_Tmap_traits@V?$tuple@HHW4arch_t@@@std@@P8DCTFFTW@@AEXPBEHPAM@ZU?$less@V?$tuple@HHW4arch_t@@@std@@@2@V?$allocator@U?$pair@$$CBV?$tuple@HHW4arch_t@@@std@@P8DCTFFTW@@AEXPBEHPAM@Z@std@@@2@$0A@@std@@@std@@IBE_NABV?$tuple@HHW4arch_t@@@2@0@Z ; std::_Tree<std::_Tmap_traits<std::tuple<int,int,enum arch_t>,void (__thiscall DCTFFTW::*)(unsigned char const *,int,float *),std::less<std::tuple<int,int,enum arch_t> >,std::allocator<std::pair<std::tuple<int,int,enum arch_t> const ,void (__thiscall DCTFFTW::*)(unsigned char const *,int,float *)> >,0> >::_Compare
PUBLIC	??$_Kfn@$$CBV?$tuple@HHW4arch_t@@@std@@P8DCTFFTW@@AEXPAEHPAM@Z@?$_Tmap_traits@V?$tuple@HHW4arch_t@@@std@@P8DCTFFTW@@AEXPAEHPAM@ZU?$less@V?$tuple@HHW4arch_t@@@std@@@2@V?$allocator@U?$pair@$$CBV?$tuple@HHW4arch_t@@@std@@P8DCTFFTW@@AEXPAEHPAM@Z@std@@@2@$0A@@std@@SAABV?$tuple@HHW4arch_t@@@1@ABU?$pair@$$CBV?$tuple@HHW4arch_t@@@std@@P8DCTFFTW@@AEXPAEHPAM@Z@1@@Z ; std::_Tmap_traits<std::tuple<int,int,enum arch_t>,void (__thiscall DCTFFTW::*)(unsigned char *,int,float *),std::less<std::tuple<int,int,enum arch_t> >,std::allocator<std::pair<std::tuple<int,int,enum arch_t> const ,void (__thiscall DCTFFTW::*)(unsigned char *,int,float *)> >,0>::_Kfn<std::tuple<int,int,enum arch_t> const ,void (__thiscall DCTFFTW::*)(unsigned char *,int,float *)>
PUBLIC	??$_Kfn@$$CBV?$tuple@HHW4arch_t@@@std@@P8DCTFFTW@@AEXPBEHPAM@Z@?$_Tmap_traits@V?$tuple@HHW4arch_t@@@std@@P8DCTFFTW@@AEXPBEHPAM@ZU?$less@V?$tuple@HHW4arch_t@@@std@@@2@V?$allocator@U?$pair@$$CBV?$tuple@HHW4arch_t@@@std@@P8DCTFFTW@@AEXPBEHPAM@Z@std@@@2@$0A@@std@@SAABV?$tuple@HHW4arch_t@@@1@ABU?$pair@$$CBV?$tuple@HHW4arch_t@@@std@@P8DCTFFTW@@AEXPBEHPAM@Z@1@@Z ; std::_Tmap_traits<std::tuple<int,int,enum arch_t>,void (__thiscall DCTFFTW::*)(unsigned char const *,int,float *),std::less<std::tuple<int,int,enum arch_t> >,std::allocator<std::pair<std::tuple<int,int,enum arch_t> const ,void (__thiscall DCTFFTW::*)(unsigned char const *,int,float *)> >,0>::_Kfn<std::tuple<int,int,enum arch_t> const ,void (__thiscall DCTFFTW::*)(unsigned char const *,int,float *)>
PUBLIC	??$?MHHW4arch_t@@$$ZHHW40@@std@@YA_NABV?$tuple@HHW4arch_t@@@0@0@Z ; std::operator<<int,int,enum arch_t,int,int,enum arch_t>
PUBLIC	??$_Lbound@V?$tuple@HHW4arch_t@@@std@@@?$_Tree@V?$_Tmap_traits@V?$tuple@HHW4arch_t@@@std@@P8DCTFFTW@@AEXPAEHPAM@ZU?$less@V?$tuple@HHW4arch_t@@@std@@@2@V?$allocator@U?$pair@$$CBV?$tuple@HHW4arch_t@@@std@@P8DCTFFTW@@AEXPAEHPAM@Z@std@@@2@$0A@@std@@@std@@IBEPAU?$_Tree_node@U?$pair@$$CBV?$tuple@HHW4arch_t@@@std@@P8DCTFFTW@@AEXPAEHPAM@Z@std@@PAX@1@ABV?$tuple@HHW4arch_t@@@1@@Z ; std::_Tree<std::_Tmap_traits<std::tuple<int,int,enum arch_t>,void (__thiscall DCTFFTW::*)(unsigned char *,int,float *),std::less<std::tuple<int,int,enum arch_t> >,std::allocator<std::pair<std::tuple<int,int,enum arch_t> const ,void (__thiscall DCTFFTW::*)(unsigned char *,int,float *)> >,0> >::_Lbound<std::tuple<int,int,enum arch_t> >
PUBLIC	??$_Lbound@V?$tuple@HHW4arch_t@@@std@@@?$_Tree@V?$_Tmap_traits@V?$tuple@HHW4arch_t@@@std@@P8DCTFFTW@@AEXPBEHPAM@ZU?$less@V?$tuple@HHW4arch_t@@@std@@@2@V?$allocator@U?$pair@$$CBV?$tuple@HHW4arch_t@@@std@@P8DCTFFTW@@AEXPBEHPAM@Z@std@@@2@$0A@@std@@@std@@IBEPAU?$_Tree_node@U?$pair@$$CBV?$tuple@HHW4arch_t@@@std@@P8DCTFFTW@@AEXPBEHPAM@Z@std@@PAX@1@ABV?$tuple@HHW4arch_t@@@1@@Z ; std::_Tree<std::_Tmap_traits<std::tuple<int,int,enum arch_t>,void (__thiscall DCTFFTW::*)(unsigned char const *,int,float *),std::less<std::tuple<int,int,enum arch_t> >,std::allocator<std::pair<std::tuple<int,int,enum arch_t> const ,void (__thiscall DCTFFTW::*)(unsigned char const *,int,float *)> >,0> >::_Lbound<std::tuple<int,int,enum arch_t> >
PUBLIC	??$construct@PAU?$_Tree_node@U?$pair@$$CBV?$tuple@HHW4arch_t@@@std@@P8DCTFFTW@@AEXPAEHPAM@Z@std@@PAX@std@@AAPAU12@@?$allocator@U?$_Tree_node@U?$pair@$$CBV?$tuple@HHW4arch_t@@@std@@P8DCTFFTW@@AEXPAEHPAM@Z@std@@PAX@std@@@std@@QAEXPAPAU?$_Tree_node@U?$pair@$$CBV?$tuple@HHW4arch_t@@@std@@P8DCTFFTW@@AEXPAEHPAM@Z@std@@PAX@1@AAPAU21@@Z ; std::allocator<std::_Tree_node<std::pair<std::tuple<int,int,enum arch_t> const ,void (__thiscall DCTFFTW::*)(unsigned char *,int,float *)>,void *> >::construct<std::_Tree_node<std::pair<std::tuple<int,int,enum arch_t> const ,void (__thiscall DCTFFTW::*)(unsigned char *,int,float *)>,void *> *,std::_Tree_node<std::pair<std::tuple<int,int,enum arch_t> const ,void (__thiscall DCTFFTW::*)(unsigned char *,int,float *)>,void *> * &>
PUBLIC	??$construct@PAU?$_Tree_node@U?$pair@$$CBV?$tuple@HHW4arch_t@@@std@@P8DCTFFTW@@AEXPBEHPAM@Z@std@@PAX@std@@AAPAU12@@?$allocator@U?$_Tree_node@U?$pair@$$CBV?$tuple@HHW4arch_t@@@std@@P8DCTFFTW@@AEXPBEHPAM@Z@std@@PAX@std@@@std@@QAEXPAPAU?$_Tree_node@U?$pair@$$CBV?$tuple@HHW4arch_t@@@std@@P8DCTFFTW@@AEXPBEHPAM@Z@std@@PAX@1@AAPAU21@@Z ; std::allocator<std::_Tree_node<std::pair<std::tuple<int,int,enum arch_t> const ,void (__thiscall DCTFFTW::*)(unsigned char const *,int,float *)>,void *> >::construct<std::_Tree_node<std::pair<std::tuple<int,int,enum arch_t> const ,void (__thiscall DCTFFTW::*)(unsigned char const *,int,float *)>,void *> *,std::_Tree_node<std::pair<std::tuple<int,int,enum arch_t> const ,void (__thiscall DCTFFTW::*)(unsigned char const *,int,float *)>,void *> * &>
PUBLIC	??$destroy@U?$pair@$$CBV?$tuple@HHW4arch_t@@@std@@P8DCTFFTW@@AEXPAEHPAM@Z@std@@@?$allocator@U?$_Tree_node@U?$pair@$$CBV?$tuple@HHW4arch_t@@@std@@P8DCTFFTW@@AEXPAEHPAM@Z@std@@PAX@std@@@std@@QAEXPAU?$pair@$$CBV?$tuple@HHW4arch_t@@@std@@P8DCTFFTW@@AEXPAEHPAM@Z@1@@Z ; std::allocator<std::_Tree_node<std::pair<std::tuple<int,int,enum arch_t> const ,void (__thiscall DCTFFTW::*)(unsigned char *,int,float *)>,void *> >::destroy<std::pair<std::tuple<int,int,enum arch_t> const ,void (__thiscall DCTFFTW::*)(unsigned char *,int,float *)> >
PUBLIC	??$destroy@U?$pair@$$CBV?$tuple@HHW4arch_t@@@std@@P8DCTFFTW@@AEXPBEHPAM@Z@std@@@?$allocator@U?$_Tree_node@U?$pair@$$CBV?$tuple@HHW4arch_t@@@std@@P8DCTFFTW@@AEXPBEHPAM@Z@std@@PAX@std@@@std@@QAEXPAU?$pair@$$CBV?$tuple@HHW4arch_t@@@std@@P8DCTFFTW@@AEXPBEHPAM@Z@1@@Z ; std::allocator<std::_Tree_node<std::pair<std::tuple<int,int,enum arch_t> const ,void (__thiscall DCTFFTW::*)(unsigned char const *,int,float *)>,void *> >::destroy<std::pair<std::tuple<int,int,enum arch_t> const ,void (__thiscall DCTFFTW::*)(unsigned char const *,int,float *)> >
PUBLIC	??$destroy@PAU?$_Tree_node@U?$pair@$$CBV?$tuple@HHW4arch_t@@@std@@P8DCTFFTW@@AEXPAEHPAM@Z@std@@PAX@std@@@?$allocator@U?$_Tree_node@U?$pair@$$CBV?$tuple@HHW4arch_t@@@std@@P8DCTFFTW@@AEXPAEHPAM@Z@std@@PAX@std@@@std@@QAEXPAPAU?$_Tree_node@U?$pair@$$CBV?$tuple@HHW4arch_t@@@std@@P8DCTFFTW@@AEXPAEHPAM@Z@std@@PAX@1@@Z ; std::allocator<std::_Tree_node<std::pair<std::tuple<int,int,enum arch_t> const ,void (__thiscall DCTFFTW::*)(unsigned char *,int,float *)>,void *> >::destroy<std::_Tree_node<std::pair<std::tuple<int,int,enum arch_t> const ,void (__thiscall DCTFFTW::*)(unsigned char *,int,float *)>,void *> *>
PUBLIC	??$destroy@PAU?$_Tree_node@U?$pair@$$CBV?$tuple@HHW4arch_t@@@std@@P8DCTFFTW@@AEXPBEHPAM@Z@std@@PAX@std@@@?$allocator@U?$_Tree_node@U?$pair@$$CBV?$tuple@HHW4arch_t@@@std@@P8DCTFFTW@@AEXPBEHPAM@Z@std@@PAX@std@@@std@@QAEXPAPAU?$_Tree_node@U?$pair@$$CBV?$tuple@HHW4arch_t@@@std@@P8DCTFFTW@@AEXPBEHPAM@Z@std@@PAX@1@@Z ; std::allocator<std::_Tree_node<std::pair<std::tuple<int,int,enum arch_t> const ,void (__thiscall DCTFFTW::*)(unsigned char const *,int,float *)>,void *> >::destroy<std::_Tree_node<std::pair<std::tuple<int,int,enum arch_t> const ,void (__thiscall DCTFFTW::*)(unsigned char const *,int,float *)>,void *> *>
PUBLIC	??$?0AAV?$_Tree_iterator@V?$_Tree_val@U?$_Tree_simple_types@U?$pair@$$CBV?$tuple@HHW4arch_t@@@std@@P8DCTFFTW@@AEXPAEHPAM@Z@std@@@std@@@std@@@std@@_NX$0A@@?$pair@V?$_Tree_iterator@V?$_Tree_val@U?$_Tree_simple_types@U?$pair@$$CBV?$tuple@HHW4arch_t@@@std@@P8DCTFFTW@@AEXPAEHPAM@Z@std@@@std@@@std@@@std@@_N@std@@QAE@AAV?$_Tree_iterator@V?$_Tree_val@U?$_Tree_simple_types@U?$pair@$$CBV?$tuple@HHW4arch_t@@@std@@P8DCTFFTW@@AEXPAEHPAM@Z@std@@@std@@@std@@@1@$$QA_N@Z ; std::pair<std::_Tree_iterator<std::_Tree_val<std::_Tree_simple_types<std::pair<std::tuple<int,int,enum arch_t> const ,void (__thiscall DCTFFTW::*)(unsigned char *,int,float *)> > > >,bool>::pair<std::_Tree_iterator<std::_Tree_val<std::_Tree_simple_types<std::pair<std::tuple<int,int,enum arch_t> const ,void (__thiscall DCTFFTW::*)(unsigned char *,int,float *)> > > >,bool><std::_Tree_iterator<std::_Tree_val<std::_Tree_simple_types<std::pair<std::tuple<int,int,enum arch_t> const ,void (__thiscall DCTFFTW::*)(unsigned char *,int,float *)> > > > &,bool,void,0>
PUBLIC	??$?0V?$_Tree_iterator@V?$_Tree_val@U?$_Tree_simple_types@U?$pair@$$CBV?$tuple@HHW4arch_t@@@std@@P8DCTFFTW@@AEXPAEHPAM@Z@std@@@std@@@std@@@std@@_NX$0A@@?$pair@V?$_Tree_iterator@V?$_Tree_val@U?$_Tree_simple_types@U?$pair@$$CBV?$tuple@HHW4arch_t@@@std@@P8DCTFFTW@@AEXPAEHPAM@Z@std@@@std@@@std@@@std@@_N@std@@QAE@$$QAV?$_Tree_iterator@V?$_Tree_val@U?$_Tree_simple_types@U?$pair@$$CBV?$tuple@HHW4arch_t@@@std@@P8DCTFFTW@@AEXPAEHPAM@Z@std@@@std@@@std@@@1@$$QA_N@Z ; std::pair<std::_Tree_iterator<std::_Tree_val<std::_Tree_simple_types<std::pair<std::tuple<int,int,enum arch_t> const ,void (__thiscall DCTFFTW::*)(unsigned char *,int,float *)> > > >,bool>::pair<std::_Tree_iterator<std::_Tree_val<std::_Tree_simple_types<std::pair<std::tuple<int,int,enum arch_t> const ,void (__thiscall DCTFFTW::*)(unsigned char *,int,float *)> > > >,bool><std::_Tree_iterator<std::_Tree_val<std::_Tree_simple_types<std::pair<std::tuple<int,int,enum arch_t> const ,void (__thiscall DCTFFTW::*)(unsigned char *,int,float *)> > > >,bool,void,0>
PUBLIC	??$emplace_hint@ABUpiecewise_construct_t@std@@V?$tuple@$$QAV?$tuple@HHW4arch_t@@@std@@@2@V?$tuple@$$V@2@@?$_Tree@V?$_Tmap_traits@V?$tuple@HHW4arch_t@@@std@@P8DCTFFTW@@AEXPAEHPAM@ZU?$less@V?$tuple@HHW4arch_t@@@std@@@2@V?$allocator@U?$pair@$$CBV?$tuple@HHW4arch_t@@@std@@P8DCTFFTW@@AEXPAEHPAM@Z@std@@@2@$0A@@std@@@std@@QAE?AV?$_Tree_iterator@V?$_Tree_val@U?$_Tree_simple_types@U?$pair@$$CBV?$tuple@HHW4arch_t@@@std@@P8DCTFFTW@@AEXPAEHPAM@Z@std@@@std@@@std@@@1@V?$_Tree_const_iterator@V?$_Tree_val@U?$_Tree_simple_types@U?$pair@$$CBV?$tuple@HHW4arch_t@@@std@@P8DCTFFTW@@AEXPAEHPAM@Z@std@@@std@@@std@@@1@ABUpiecewise_construct_t@1@$$QAV?$tuple@$$QAV?$tuple@HHW4arch_t@@@std@@@1@$$QAV?$tuple@$$V@1@@Z ; std::_Tree<std::_Tmap_traits<std::tuple<int,int,enum arch_t>,void (__thiscall DCTFFTW::*)(unsigned char *,int,float *),std::less<std::tuple<int,int,enum arch_t> >,std::allocator<std::pair<std::tuple<int,int,enum arch_t> const ,void (__thiscall DCTFFTW::*)(unsigned char *,int,float *)> >,0> >::emplace_hint<std::piecewise_construct_t const &,std::tuple<std::tuple<int,int,enum arch_t> &&>,std::tuple<> >
PUBLIC	??$?0AAV?$_Tree_iterator@V?$_Tree_val@U?$_Tree_simple_types@U?$pair@$$CBV?$tuple@HHW4arch_t@@@std@@P8DCTFFTW@@AEXPBEHPAM@Z@std@@@std@@@std@@@std@@_NX$0A@@?$pair@V?$_Tree_iterator@V?$_Tree_val@U?$_Tree_simple_types@U?$pair@$$CBV?$tuple@HHW4arch_t@@@std@@P8DCTFFTW@@AEXPBEHPAM@Z@std@@@std@@@std@@@std@@_N@std@@QAE@AAV?$_Tree_iterator@V?$_Tree_val@U?$_Tree_simple_types@U?$pair@$$CBV?$tuple@HHW4arch_t@@@std@@P8DCTFFTW@@AEXPBEHPAM@Z@std@@@std@@@std@@@1@$$QA_N@Z ; std::pair<std::_Tree_iterator<std::_Tree_val<std::_Tree_simple_types<std::pair<std::tuple<int,int,enum arch_t> const ,void (__thiscall DCTFFTW::*)(unsigned char const *,int,float *)> > > >,bool>::pair<std::_Tree_iterator<std::_Tree_val<std::_Tree_simple_types<std::pair<std::tuple<int,int,enum arch_t> const ,void (__thiscall DCTFFTW::*)(unsigned char const *,int,float *)> > > >,bool><std::_Tree_iterator<std::_Tree_val<std::_Tree_simple_types<std::pair<std::tuple<int,int,enum arch_t> const ,void (__thiscall DCTFFTW::*)(unsigned char const *,int,float *)> > > > &,bool,void,0>
PUBLIC	??$?0V?$_Tree_iterator@V?$_Tree_val@U?$_Tree_simple_types@U?$pair@$$CBV?$tuple@HHW4arch_t@@@std@@P8DCTFFTW@@AEXPBEHPAM@Z@std@@@std@@@std@@@std@@_NX$0A@@?$pair@V?$_Tree_iterator@V?$_Tree_val@U?$_Tree_simple_types@U?$pair@$$CBV?$tuple@HHW4arch_t@@@std@@P8DCTFFTW@@AEXPBEHPAM@Z@std@@@std@@@std@@@std@@_N@std@@QAE@$$QAV?$_Tree_iterator@V?$_Tree_val@U?$_Tree_simple_types@U?$pair@$$CBV?$tuple@HHW4arch_t@@@std@@P8DCTFFTW@@AEXPBEHPAM@Z@std@@@std@@@std@@@1@$$QA_N@Z ; std::pair<std::_Tree_iterator<std::_Tree_val<std::_Tree_simple_types<std::pair<std::tuple<int,int,enum arch_t> const ,void (__thiscall DCTFFTW::*)(unsigned char const *,int,float *)> > > >,bool>::pair<std::_Tree_iterator<std::_Tree_val<std::_Tree_simple_types<std::pair<std::tuple<int,int,enum arch_t> const ,void (__thiscall DCTFFTW::*)(unsigned char const *,int,float *)> > > >,bool><std::_Tree_iterator<std::_Tree_val<std::_Tree_simple_types<std::pair<std::tuple<int,int,enum arch_t> const ,void (__thiscall DCTFFTW::*)(unsigned char const *,int,float *)> > > >,bool,void,0>
PUBLIC	??$emplace_hint@ABUpiecewise_construct_t@std@@V?$tuple@$$QAV?$tuple@HHW4arch_t@@@std@@@2@V?$tuple@$$V@2@@?$_Tree@V?$_Tmap_traits@V?$tuple@HHW4arch_t@@@std@@P8DCTFFTW@@AEXPBEHPAM@ZU?$less@V?$tuple@HHW4arch_t@@@std@@@2@V?$allocator@U?$pair@$$CBV?$tuple@HHW4arch_t@@@std@@P8DCTFFTW@@AEXPBEHPAM@Z@std@@@2@$0A@@std@@@std@@QAE?AV?$_Tree_iterator@V?$_Tree_val@U?$_Tree_simple_types@U?$pair@$$CBV?$tuple@HHW4arch_t@@@std@@P8DCTFFTW@@AEXPBEHPAM@Z@std@@@std@@@std@@@1@V?$_Tree_const_iterator@V?$_Tree_val@U?$_Tree_simple_types@U?$pair@$$CBV?$tuple@HHW4arch_t@@@std@@P8DCTFFTW@@AEXPBEHPAM@Z@std@@@std@@@std@@@1@ABUpiecewise_construct_t@1@$$QAV?$tuple@$$QAV?$tuple@HHW4arch_t@@@std@@@1@$$QAV?$tuple@$$V@1@@Z ; std::_Tree<std::_Tmap_traits<std::tuple<int,int,enum arch_t>,void (__thiscall DCTFFTW::*)(unsigned char const *,int,float *),std::less<std::tuple<int,int,enum arch_t> >,std::allocator<std::pair<std::tuple<int,int,enum arch_t> const ,void (__thiscall DCTFFTW::*)(unsigned char const *,int,float *)> >,0> >::emplace_hint<std::piecewise_construct_t const &,std::tuple<std::tuple<int,int,enum arch_t> &&>,std::tuple<> >
PUBLIC	??$forward_as_tuple@V?$tuple@HHW4arch_t@@@std@@@std@@YA?AV?$tuple@$$QAV?$tuple@HHW4arch_t@@@std@@@0@$$QAV?$tuple@HHW4arch_t@@@0@@Z ; std::forward_as_tuple<std::tuple<int,int,enum arch_t> >
PUBLIC	??$forward@V?$tuple@HHW4arch_t@@@std@@@std@@YA$$QAV?$tuple@HHW4arch_t@@@0@AAV10@@Z ; std::forward<std::tuple<int,int,enum arch_t> >
PUBLIC	?_Kfn@?$_Tree@V?$_Tmap_traits@V?$tuple@HHW4arch_t@@@std@@P8DCTFFTW@@AEXPAEHPAM@ZU?$less@V?$tuple@HHW4arch_t@@@std@@@2@V?$allocator@U?$pair@$$CBV?$tuple@HHW4arch_t@@@std@@P8DCTFFTW@@AEXPAEHPAM@Z@std@@@2@$0A@@std@@@std@@IBEABV?$tuple@HHW4arch_t@@@2@ABU?$pair@$$CBV?$tuple@HHW4arch_t@@@std@@P8DCTFFTW@@AEXPAEHPAM@Z@2@@Z ; std::_Tree<std::_Tmap_traits<std::tuple<int,int,enum arch_t>,void (__thiscall DCTFFTW::*)(unsigned char *,int,float *),std::less<std::tuple<int,int,enum arch_t> >,std::allocator<std::pair<std::tuple<int,int,enum arch_t> const ,void (__thiscall DCTFFTW::*)(unsigned char *,int,float *)> >,0> >::_Kfn
PUBLIC	??0?$allocator@U?$_Tree_node@U?$pair@$$CBV?$tuple@HHW4arch_t@@@std@@P8DCTFFTW@@AEXPAEHPAM@Z@std@@PAX@std@@@std@@QAE@XZ ; std::allocator<std::_Tree_node<std::pair<std::tuple<int,int,enum arch_t> const ,void (__thiscall DCTFFTW::*)(unsigned char *,int,float *)>,void *> >::allocator<std::_Tree_node<std::pair<std::tuple<int,int,enum arch_t> const ,void (__thiscall DCTFFTW::*)(unsigned char *,int,float *)>,void *> >
PUBLIC	?_Get_first@?$_Compressed_pair@U?$less@V?$tuple@HHW4arch_t@@@std@@@std@@V?$_Compressed_pair@U?$_Wrap_alloc@V?$allocator@U?$_Tree_node@U?$pair@$$CBV?$tuple@HHW4arch_t@@@std@@P8DCTFFTW@@AEXPAEHPAM@Z@std@@PAX@std@@@std@@@std@@V?$_Tree_val@U?$_Tree_simple_types@U?$pair@$$CBV?$tuple@HHW4arch_t@@@std@@P8DCTFFTW@@AEXPAEHPAM@Z@std@@@std@@@2@$00@2@$00@std@@QAEAAU?$less@V?$tuple@HHW4arch_t@@@std@@@2@XZ ; std::_Compressed_pair<std::less<std::tuple<int,int,enum arch_t> >,std::_Compressed_pair<std::_Wrap_alloc<std::allocator<std::_Tree_node<std::pair<std::tuple<int,int,enum arch_t> const ,void (__thiscall DCTFFTW::*)(unsigned char *,int,float *)>,void *> > >,std::_Tree_val<std::_Tree_simple_types<std::pair<std::tuple<int,int,enum arch_t> const ,void (__thiscall DCTFFTW::*)(unsigned char *,int,float *)> > >,1>,1>::_Get_first
PUBLIC	?_Kfn@?$_Tree@V?$_Tmap_traits@V?$tuple@HHW4arch_t@@@std@@P8DCTFFTW@@AEXPBEHPAM@ZU?$less@V?$tuple@HHW4arch_t@@@std@@@2@V?$allocator@U?$pair@$$CBV?$tuple@HHW4arch_t@@@std@@P8DCTFFTW@@AEXPBEHPAM@Z@std@@@2@$0A@@std@@@std@@IBEABV?$tuple@HHW4arch_t@@@2@ABU?$pair@$$CBV?$tuple@HHW4arch_t@@@std@@P8DCTFFTW@@AEXPBEHPAM@Z@2@@Z ; std::_Tree<std::_Tmap_traits<std::tuple<int,int,enum arch_t>,void (__thiscall DCTFFTW::*)(unsigned char const *,int,float *),std::less<std::tuple<int,int,enum arch_t> >,std::allocator<std::pair<std::tuple<int,int,enum arch_t> const ,void (__thiscall DCTFFTW::*)(unsigned char const *,int,float *)> >,0> >::_Kfn
PUBLIC	??0?$allocator@U?$_Tree_node@U?$pair@$$CBV?$tuple@HHW4arch_t@@@std@@P8DCTFFTW@@AEXPBEHPAM@Z@std@@PAX@std@@@std@@QAE@XZ ; std::allocator<std::_Tree_node<std::pair<std::tuple<int,int,enum arch_t> const ,void (__thiscall DCTFFTW::*)(unsigned char const *,int,float *)>,void *> >::allocator<std::_Tree_node<std::pair<std::tuple<int,int,enum arch_t> const ,void (__thiscall DCTFFTW::*)(unsigned char const *,int,float *)>,void *> >
PUBLIC	?_Get_first@?$_Compressed_pair@U?$less@V?$tuple@HHW4arch_t@@@std@@@std@@V?$_Compressed_pair@U?$_Wrap_alloc@V?$allocator@U?$_Tree_node@U?$pair@$$CBV?$tuple@HHW4arch_t@@@std@@P8DCTFFTW@@AEXPBEHPAM@Z@std@@PAX@std@@@std@@@std@@V?$_Tree_val@U?$_Tree_simple_types@U?$pair@$$CBV?$tuple@HHW4arch_t@@@std@@P8DCTFFTW@@AEXPBEHPAM@Z@std@@@std@@@2@$00@2@$00@std@@QAEAAU?$less@V?$tuple@HHW4arch_t@@@std@@@2@XZ ; std::_Compressed_pair<std::less<std::tuple<int,int,enum arch_t> >,std::_Compressed_pair<std::_Wrap_alloc<std::allocator<std::_Tree_node<std::pair<std::tuple<int,int,enum arch_t> const ,void (__thiscall DCTFFTW::*)(unsigned char const *,int,float *)>,void *> > >,std::_Tree_val<std::_Tree_simple_types<std::pair<std::tuple<int,int,enum arch_t> const ,void (__thiscall DCTFFTW::*)(unsigned char const *,int,float *)> > >,1>,1>::_Get_first
PUBLIC	??R?$less@V?$tuple@HHW4arch_t@@@std@@@std@@QBE_NABV?$tuple@HHW4arch_t@@@1@0@Z ; std::less<std::tuple<int,int,enum arch_t> >::operator()
PUBLIC	?lower_bound@?$_Tree@V?$_Tmap_traits@V?$tuple@HHW4arch_t@@@std@@P8DCTFFTW@@AEXPAEHPAM@ZU?$less@V?$tuple@HHW4arch_t@@@std@@@2@V?$allocator@U?$pair@$$CBV?$tuple@HHW4arch_t@@@std@@P8DCTFFTW@@AEXPAEHPAM@Z@std@@@2@$0A@@std@@@std@@QAE?AV?$_Tree_iterator@V?$_Tree_val@U?$_Tree_simple_types@U?$pair@$$CBV?$tuple@HHW4arch_t@@@std@@P8DCTFFTW@@AEXPAEHPAM@Z@std@@@std@@@std@@@2@ABV?$tuple@HHW4arch_t@@@2@@Z ; std::_Tree<std::_Tmap_traits<std::tuple<int,int,enum arch_t>,void (__thiscall DCTFFTW::*)(unsigned char *,int,float *),std::less<std::tuple<int,int,enum arch_t> >,std::allocator<std::pair<std::tuple<int,int,enum arch_t> const ,void (__thiscall DCTFFTW::*)(unsigned char *,int,float *)> >,0> >::lower_bound
PUBLIC	?_Key@?$_Tree@V?$_Tmap_traits@V?$tuple@HHW4arch_t@@@std@@P8DCTFFTW@@AEXPAEHPAM@ZU?$less@V?$tuple@HHW4arch_t@@@std@@@2@V?$allocator@U?$pair@$$CBV?$tuple@HHW4arch_t@@@std@@P8DCTFFTW@@AEXPAEHPAM@Z@std@@@2@$0A@@std@@@std@@IBEABV?$tuple@HHW4arch_t@@@2@PAU?$_Tree_node@U?$pair@$$CBV?$tuple@HHW4arch_t@@@std@@P8DCTFFTW@@AEXPAEHPAM@Z@std@@PAX@2@@Z ; std::_Tree<std::_Tmap_traits<std::tuple<int,int,enum arch_t>,void (__thiscall DCTFFTW::*)(unsigned char *,int,float *),std::less<std::tuple<int,int,enum arch_t> >,std::allocator<std::pair<std::tuple<int,int,enum arch_t> const ,void (__thiscall DCTFFTW::*)(unsigned char *,int,float *)> >,0> >::_Key
PUBLIC	?_Getcomp@?$_Tree_comp_alloc@V?$_Tmap_traits@V?$tuple@HHW4arch_t@@@std@@P8DCTFFTW@@AEXPAEHPAM@ZU?$less@V?$tuple@HHW4arch_t@@@std@@@2@V?$allocator@U?$pair@$$CBV?$tuple@HHW4arch_t@@@std@@P8DCTFFTW@@AEXPAEHPAM@Z@std@@@2@$0A@@std@@@std@@QAEAAU?$less@V?$tuple@HHW4arch_t@@@std@@@2@XZ ; std::_Tree_comp_alloc<std::_Tmap_traits<std::tuple<int,int,enum arch_t>,void (__thiscall DCTFFTW::*)(unsigned char *,int,float *),std::less<std::tuple<int,int,enum arch_t> >,std::allocator<std::pair<std::tuple<int,int,enum arch_t> const ,void (__thiscall DCTFFTW::*)(unsigned char *,int,float *)> >,0> >::_Getcomp
PUBLIC	??0?$_Wrap_alloc@V?$allocator@U?$_Tree_node@U?$pair@$$CBV?$tuple@HHW4arch_t@@@std@@P8DCTFFTW@@AEXPAEHPAM@Z@std@@PAX@std@@@std@@@std@@QAE@XZ ; std::_Wrap_alloc<std::allocator<std::_Tree_node<std::pair<std::tuple<int,int,enum arch_t> const ,void (__thiscall DCTFFTW::*)(unsigned char *,int,float *)>,void *> > >::_Wrap_alloc<std::allocator<std::_Tree_node<std::pair<std::tuple<int,int,enum arch_t> const ,void (__thiscall DCTFFTW::*)(unsigned char *,int,float *)>,void *> > >
PUBLIC	??0?$_Tree_val@U?$_Tree_simple_types@U?$pair@$$CBV?$tuple@HHW4arch_t@@@std@@P8DCTFFTW@@AEXPAEHPAM@Z@std@@@std@@@std@@QAE@XZ ; std::_Tree_val<std::_Tree_simple_types<std::pair<std::tuple<int,int,enum arch_t> const ,void (__thiscall DCTFFTW::*)(unsigned char *,int,float *)> > >::_Tree_val<std::_Tree_simple_types<std::pair<std::tuple<int,int,enum arch_t> const ,void (__thiscall DCTFFTW::*)(unsigned char *,int,float *)> > >
PUBLIC	?lower_bound@?$_Tree@V?$_Tmap_traits@V?$tuple@HHW4arch_t@@@std@@P8DCTFFTW@@AEXPBEHPAM@ZU?$less@V?$tuple@HHW4arch_t@@@std@@@2@V?$allocator@U?$pair@$$CBV?$tuple@HHW4arch_t@@@std@@P8DCTFFTW@@AEXPBEHPAM@Z@std@@@2@$0A@@std@@@std@@QAE?AV?$_Tree_iterator@V?$_Tree_val@U?$_Tree_simple_types@U?$pair@$$CBV?$tuple@HHW4arch_t@@@std@@P8DCTFFTW@@AEXPBEHPAM@Z@std@@@std@@@std@@@2@ABV?$tuple@HHW4arch_t@@@2@@Z ; std::_Tree<std::_Tmap_traits<std::tuple<int,int,enum arch_t>,void (__thiscall DCTFFTW::*)(unsigned char const *,int,float *),std::less<std::tuple<int,int,enum arch_t> >,std::allocator<std::pair<std::tuple<int,int,enum arch_t> const ,void (__thiscall DCTFFTW::*)(unsigned char const *,int,float *)> >,0> >::lower_bound
PUBLIC	?_Key@?$_Tree@V?$_Tmap_traits@V?$tuple@HHW4arch_t@@@std@@P8DCTFFTW@@AEXPBEHPAM@ZU?$less@V?$tuple@HHW4arch_t@@@std@@@2@V?$allocator@U?$pair@$$CBV?$tuple@HHW4arch_t@@@std@@P8DCTFFTW@@AEXPBEHPAM@Z@std@@@2@$0A@@std@@@std@@IBEABV?$tuple@HHW4arch_t@@@2@PAU?$_Tree_node@U?$pair@$$CBV?$tuple@HHW4arch_t@@@std@@P8DCTFFTW@@AEXPBEHPAM@Z@std@@PAX@2@@Z ; std::_Tree<std::_Tmap_traits<std::tuple<int,int,enum arch_t>,void (__thiscall DCTFFTW::*)(unsigned char const *,int,float *),std::less<std::tuple<int,int,enum arch_t> >,std::allocator<std::pair<std::tuple<int,int,enum arch_t> const ,void (__thiscall DCTFFTW::*)(unsigned char const *,int,float *)> >,0> >::_Key
PUBLIC	?_Getcomp@?$_Tree_comp_alloc@V?$_Tmap_traits@V?$tuple@HHW4arch_t@@@std@@P8DCTFFTW@@AEXPBEHPAM@ZU?$less@V?$tuple@HHW4arch_t@@@std@@@2@V?$allocator@U?$pair@$$CBV?$tuple@HHW4arch_t@@@std@@P8DCTFFTW@@AEXPBEHPAM@Z@std@@@2@$0A@@std@@@std@@QAEAAU?$less@V?$tuple@HHW4arch_t@@@std@@@2@XZ ; std::_Tree_comp_alloc<std::_Tmap_traits<std::tuple<int,int,enum arch_t>,void (__thiscall DCTFFTW::*)(unsigned char const *,int,float *),std::less<std::tuple<int,int,enum arch_t> >,std::allocator<std::pair<std::tuple<int,int,enum arch_t> const ,void (__thiscall DCTFFTW::*)(unsigned char const *,int,float *)> >,0> >::_Getcomp
PUBLIC	??0?$_Wrap_alloc@V?$allocator@U?$_Tree_node@U?$pair@$$CBV?$tuple@HHW4arch_t@@@std@@P8DCTFFTW@@AEXPBEHPAM@Z@std@@PAX@std@@@std@@@std@@QAE@XZ ; std::_Wrap_alloc<std::allocator<std::_Tree_node<std::pair<std::tuple<int,int,enum arch_t> const ,void (__thiscall DCTFFTW::*)(unsigned char const *,int,float *)>,void *> > >::_Wrap_alloc<std::allocator<std::_Tree_node<std::pair<std::tuple<int,int,enum arch_t> const ,void (__thiscall DCTFFTW::*)(unsigned char const *,int,float *)>,void *> > >
PUBLIC	??0?$_Tree_val@U?$_Tree_simple_types@U?$pair@$$CBV?$tuple@HHW4arch_t@@@std@@P8DCTFFTW@@AEXPBEHPAM@Z@std@@@std@@@std@@QAE@XZ ; std::_Tree_val<std::_Tree_simple_types<std::pair<std::tuple<int,int,enum arch_t> const ,void (__thiscall DCTFFTW::*)(unsigned char const *,int,float *)> > >::_Tree_val<std::_Tree_simple_types<std::pair<std::tuple<int,int,enum arch_t> const ,void (__thiscall DCTFFTW::*)(unsigned char const *,int,float *)> > >
PUBLIC	??$construct@PAU?$_Tree_node@U?$pair@$$CBV?$tuple@HHW4arch_t@@@std@@P8DCTFFTW@@AEXPAEHPAM@Z@std@@PAX@std@@AAPAU12@@?$allocator_traits@V?$allocator@U?$_Tree_node@U?$pair@$$CBV?$tuple@HHW4arch_t@@@std@@P8DCTFFTW@@AEXPAEHPAM@Z@std@@PAX@std@@@std@@@std@@SAXAAV?$allocator@U?$_Tree_node@U?$pair@$$CBV?$tuple@HHW4arch_t@@@std@@P8DCTFFTW@@AEXPAEHPAM@Z@std@@PAX@std@@@1@PAPAU?$_Tree_node@U?$pair@$$CBV?$tuple@HHW4arch_t@@@std@@P8DCTFFTW@@AEXPAEHPAM@Z@std@@PAX@1@AAPAU31@@Z ; std::allocator_traits<std::allocator<std::_Tree_node<std::pair<std::tuple<int,int,enum arch_t> const ,void (__thiscall DCTFFTW::*)(unsigned char *,int,float *)>,void *> > >::construct<std::_Tree_node<std::pair<std::tuple<int,int,enum arch_t> const ,void (__thiscall DCTFFTW::*)(unsigned char *,int,float *)>,void *> *,std::_Tree_node<std::pair<std::tuple<int,int,enum arch_t> const ,void (__thiscall DCTFFTW::*)(unsigned char *,int,float *)>,void *> * &>
PUBLIC	??$forward@AAPAU?$_Tree_node@U?$pair@$$CBV?$tuple@HHW4arch_t@@@std@@P8DCTFFTW@@AEXPAEHPAM@Z@std@@PAX@std@@@std@@YAAAPAU?$_Tree_node@U?$pair@$$CBV?$tuple@HHW4arch_t@@@std@@P8DCTFFTW@@AEXPAEHPAM@Z@std@@PAX@0@AAPAU10@@Z ; std::forward<std::_Tree_node<std::pair<std::tuple<int,int,enum arch_t> const ,void (__thiscall DCTFFTW::*)(unsigned char *,int,float *)>,void *> * &>
PUBLIC	??$construct@PAU?$_Tree_node@U?$pair@$$CBV?$tuple@HHW4arch_t@@@std@@P8DCTFFTW@@AEXPBEHPAM@Z@std@@PAX@std@@AAPAU12@@?$allocator_traits@V?$allocator@U?$_Tree_node@U?$pair@$$CBV?$tuple@HHW4arch_t@@@std@@P8DCTFFTW@@AEXPBEHPAM@Z@std@@PAX@std@@@std@@@std@@SAXAAV?$allocator@U?$_Tree_node@U?$pair@$$CBV?$tuple@HHW4arch_t@@@std@@P8DCTFFTW@@AEXPBEHPAM@Z@std@@PAX@std@@@1@PAPAU?$_Tree_node@U?$pair@$$CBV?$tuple@HHW4arch_t@@@std@@P8DCTFFTW@@AEXPBEHPAM@Z@std@@PAX@1@AAPAU31@@Z ; std::allocator_traits<std::allocator<std::_Tree_node<std::pair<std::tuple<int,int,enum arch_t> const ,void (__thiscall DCTFFTW::*)(unsigned char const *,int,float *)>,void *> > >::construct<std::_Tree_node<std::pair<std::tuple<int,int,enum arch_t> const ,void (__thiscall DCTFFTW::*)(unsigned char const *,int,float *)>,void *> *,std::_Tree_node<std::pair<std::tuple<int,int,enum arch_t> const ,void (__thiscall DCTFFTW::*)(unsigned char const *,int,float *)>,void *> * &>
PUBLIC	??$forward@AAPAU?$_Tree_node@U?$pair@$$CBV?$tuple@HHW4arch_t@@@std@@P8DCTFFTW@@AEXPBEHPAM@Z@std@@PAX@std@@@std@@YAAAPAU?$_Tree_node@U?$pair@$$CBV?$tuple@HHW4arch_t@@@std@@P8DCTFFTW@@AEXPBEHPAM@Z@std@@PAX@0@AAPAU10@@Z ; std::forward<std::_Tree_node<std::pair<std::tuple<int,int,enum arch_t> const ,void (__thiscall DCTFFTW::*)(unsigned char const *,int,float *)>,void *> * &>
PUBLIC	??$destroy@U?$pair@$$CBV?$tuple@HHW4arch_t@@@std@@P8DCTFFTW@@AEXPAEHPAM@Z@std@@@?$allocator_traits@V?$allocator@U?$_Tree_node@U?$pair@$$CBV?$tuple@HHW4arch_t@@@std@@P8DCTFFTW@@AEXPAEHPAM@Z@std@@PAX@std@@@std@@@std@@SAXAAV?$allocator@U?$_Tree_node@U?$pair@$$CBV?$tuple@HHW4arch_t@@@std@@P8DCTFFTW@@AEXPAEHPAM@Z@std@@PAX@std@@@1@PAU?$pair@$$CBV?$tuple@HHW4arch_t@@@std@@P8DCTFFTW@@AEXPAEHPAM@Z@1@@Z ; std::allocator_traits<std::allocator<std::_Tree_node<std::pair<std::tuple<int,int,enum arch_t> const ,void (__thiscall DCTFFTW::*)(unsigned char *,int,float *)>,void *> > >::destroy<std::pair<std::tuple<int,int,enum arch_t> const ,void (__thiscall DCTFFTW::*)(unsigned char *,int,float *)> >
PUBLIC	??$destroy@U?$pair@$$CBV?$tuple@HHW4arch_t@@@std@@P8DCTFFTW@@AEXPBEHPAM@Z@std@@@?$allocator_traits@V?$allocator@U?$_Tree_node@U?$pair@$$CBV?$tuple@HHW4arch_t@@@std@@P8DCTFFTW@@AEXPBEHPAM@Z@std@@PAX@std@@@std@@@std@@SAXAAV?$allocator@U?$_Tree_node@U?$pair@$$CBV?$tuple@HHW4arch_t@@@std@@P8DCTFFTW@@AEXPBEHPAM@Z@std@@PAX@std@@@1@PAU?$pair@$$CBV?$tuple@HHW4arch_t@@@std@@P8DCTFFTW@@AEXPBEHPAM@Z@1@@Z ; std::allocator_traits<std::allocator<std::_Tree_node<std::pair<std::tuple<int,int,enum arch_t> const ,void (__thiscall DCTFFTW::*)(unsigned char const *,int,float *)>,void *> > >::destroy<std::pair<std::tuple<int,int,enum arch_t> const ,void (__thiscall DCTFFTW::*)(unsigned char const *,int,float *)> >
PUBLIC	??$?0$$V@?$_Compressed_pair@U?$_Wrap_alloc@V?$allocator@U?$_Tree_node@U?$pair@$$CBV?$tuple@HHW4arch_t@@@std@@P8DCTFFTW@@AEXPAEHPAM@Z@std@@PAX@std@@@std@@@std@@V?$_Tree_val@U?$_Tree_simple_types@U?$pair@$$CBV?$tuple@HHW4arch_t@@@std@@P8DCTFFTW@@AEXPAEHPAM@Z@std@@@std@@@2@$00@std@@QAE@U_Zero_then_variadic_args_t@1@@Z ; std::_Compressed_pair<std::_Wrap_alloc<std::allocator<std::_Tree_node<std::pair<std::tuple<int,int,enum arch_t> const ,void (__thiscall DCTFFTW::*)(unsigned char *,int,float *)>,void *> > >,std::_Tree_val<std::_Tree_simple_types<std::pair<std::tuple<int,int,enum arch_t> const ,void (__thiscall DCTFFTW::*)(unsigned char *,int,float *)> > >,1>::_Compressed_pair<std::_Wrap_alloc<std::allocator<std::_Tree_node<std::pair<std::tuple<int,int,enum arch_t> const ,void (__thiscall DCTFFTW::*)(unsigned char *,int,float *)>,void *> > >,std::_Tree_val<std::_Tree_simple_types<std::pair<std::tuple<int,int,enum arch_t> const ,void (__thiscall DCTFFTW::*)(unsigned char *,int,float *)> > >,1><>
PUBLIC	??$destroy@PAU?$_Tree_node@U?$pair@$$CBV?$tuple@HHW4arch_t@@@std@@P8DCTFFTW@@AEXPAEHPAM@Z@std@@PAX@std@@@?$allocator_traits@V?$allocator@U?$_Tree_node@U?$pair@$$CBV?$tuple@HHW4arch_t@@@std@@P8DCTFFTW@@AEXPAEHPAM@Z@std@@PAX@std@@@std@@@std@@SAXAAV?$allocator@U?$_Tree_node@U?$pair@$$CBV?$tuple@HHW4arch_t@@@std@@P8DCTFFTW@@AEXPAEHPAM@Z@std@@PAX@std@@@1@PAPAU?$_Tree_node@U?$pair@$$CBV?$tuple@HHW4arch_t@@@std@@P8DCTFFTW@@AEXPAEHPAM@Z@std@@PAX@1@@Z ; std::allocator_traits<std::allocator<std::_Tree_node<std::pair<std::tuple<int,int,enum arch_t> const ,void (__thiscall DCTFFTW::*)(unsigned char *,int,float *)>,void *> > >::destroy<std::_Tree_node<std::pair<std::tuple<int,int,enum arch_t> const ,void (__thiscall DCTFFTW::*)(unsigned char *,int,float *)>,void *> *>
PUBLIC	??$?0$$V@?$_Compressed_pair@U?$_Wrap_alloc@V?$allocator@U?$_Tree_node@U?$pair@$$CBV?$tuple@HHW4arch_t@@@std@@P8DCTFFTW@@AEXPBEHPAM@Z@std@@PAX@std@@@std@@@std@@V?$_Tree_val@U?$_Tree_simple_types@U?$pair@$$CBV?$tuple@HHW4arch_t@@@std@@P8DCTFFTW@@AEXPBEHPAM@Z@std@@@std@@@2@$00@std@@QAE@U_Zero_then_variadic_args_t@1@@Z ; std::_Compressed_pair<std::_Wrap_alloc<std::allocator<std::_Tree_node<std::pair<std::tuple<int,int,enum arch_t> const ,void (__thiscall DCTFFTW::*)(unsigned char const *,int,float *)>,void *> > >,std::_Tree_val<std::_Tree_simple_types<std::pair<std::tuple<int,int,enum arch_t> const ,void (__thiscall DCTFFTW::*)(unsigned char const *,int,float *)> > >,1>::_Compressed_pair<std::_Wrap_alloc<std::allocator<std::_Tree_node<std::pair<std::tuple<int,int,enum arch_t> const ,void (__thiscall DCTFFTW::*)(unsigned char const *,int,float *)>,void *> > >,std::_Tree_val<std::_Tree_simple_types<std::pair<std::tuple<int,int,enum arch_t> const ,void (__thiscall DCTFFTW::*)(unsigned char const *,int,float *)> > >,1><>
PUBLIC	??$forward@ABU?$less@V?$tuple@HHW4arch_t@@@std@@@std@@@std@@YAABU?$less@V?$tuple@HHW4arch_t@@@std@@@0@ABU10@@Z ; std::forward<std::less<std::tuple<int,int,enum arch_t> > const &>
PUBLIC	??$destroy@PAU?$_Tree_node@U?$pair@$$CBV?$tuple@HHW4arch_t@@@std@@P8DCTFFTW@@AEXPBEHPAM@Z@std@@PAX@std@@@?$allocator_traits@V?$allocator@U?$_Tree_node@U?$pair@$$CBV?$tuple@HHW4arch_t@@@std@@P8DCTFFTW@@AEXPBEHPAM@Z@std@@PAX@std@@@std@@@std@@SAXAAV?$allocator@U?$_Tree_node@U?$pair@$$CBV?$tuple@HHW4arch_t@@@std@@P8DCTFFTW@@AEXPBEHPAM@Z@std@@PAX@std@@@1@PAPAU?$_Tree_node@U?$pair@$$CBV?$tuple@HHW4arch_t@@@std@@P8DCTFFTW@@AEXPBEHPAM@Z@std@@PAX@1@@Z ; std::allocator_traits<std::allocator<std::_Tree_node<std::pair<std::tuple<int,int,enum arch_t> const ,void (__thiscall DCTFFTW::*)(unsigned char const *,int,float *)>,void *> > >::destroy<std::_Tree_node<std::pair<std::tuple<int,int,enum arch_t> const ,void (__thiscall DCTFFTW::*)(unsigned char const *,int,float *)>,void *> *>
PUBLIC	??$_Try_emplace@V?$tuple@HHW4arch_t@@@std@@$$V@?$map@V?$tuple@HHW4arch_t@@@std@@P8DCTFFTW@@AEXPAEHPAM@ZU?$less@V?$tuple@HHW4arch_t@@@std@@@2@V?$allocator@U?$pair@$$CBV?$tuple@HHW4arch_t@@@std@@P8DCTFFTW@@AEXPAEHPAM@Z@std@@@2@@std@@QAE?AU?$pair@V?$_Tree_iterator@V?$_Tree_val@U?$_Tree_simple_types@U?$pair@$$CBV?$tuple@HHW4arch_t@@@std@@P8DCTFFTW@@AEXPAEHPAM@Z@std@@@std@@@std@@@std@@_N@1@$$QAV?$tuple@HHW4arch_t@@@1@@Z ; std::map<std::tuple<int,int,enum arch_t>,void (__thiscall DCTFFTW::*)(unsigned char *,int,float *),std::less<std::tuple<int,int,enum arch_t> >,std::allocator<std::pair<std::tuple<int,int,enum arch_t> const ,void (__thiscall DCTFFTW::*)(unsigned char *,int,float *)> > >::_Try_emplace<std::tuple<int,int,enum arch_t> >
PUBLIC	??$_Try_emplace@V?$tuple@HHW4arch_t@@@std@@$$V@?$map@V?$tuple@HHW4arch_t@@@std@@P8DCTFFTW@@AEXPBEHPAM@ZU?$less@V?$tuple@HHW4arch_t@@@std@@@2@V?$allocator@U?$pair@$$CBV?$tuple@HHW4arch_t@@@std@@P8DCTFFTW@@AEXPBEHPAM@Z@std@@@2@@std@@QAE?AU?$pair@V?$_Tree_iterator@V?$_Tree_val@U?$_Tree_simple_types@U?$pair@$$CBV?$tuple@HHW4arch_t@@@std@@P8DCTFFTW@@AEXPBEHPAM@Z@std@@@std@@@std@@@std@@_N@1@$$QAV?$tuple@HHW4arch_t@@@1@@Z ; std::map<std::tuple<int,int,enum arch_t>,void (__thiscall DCTFFTW::*)(unsigned char const *,int,float *),std::less<std::tuple<int,int,enum arch_t> >,std::allocator<std::pair<std::tuple<int,int,enum arch_t> const ,void (__thiscall DCTFFTW::*)(unsigned char const *,int,float *)> > >::_Try_emplace<std::tuple<int,int,enum arch_t> >
PUBLIC	??$?0AAHAAHAAW4arch_t@@$0A@@?$tuple@HHW4arch_t@@@std@@QAE@AAH0AAW4arch_t@@@Z ; std::tuple<int,int,enum arch_t>::tuple<int,int,enum arch_t><int &,int &,enum arch_t &,0>
PUBLIC	??$min@H@std@@YAABHABH0@Z			; std::min<int>
PUBLIC	??$max@H@std@@YAABHABH0@Z			; std::max<int>
PUBLIC	??$?0HHW4arch_t@@$0A@@?$tuple@HHW4arch_t@@@std@@QAE@$$QAH0$$QAW4arch_t@@@Z ; std::tuple<int,int,enum arch_t>::tuple<int,int,enum arch_t><int,int,enum arch_t,0>
PUBLIC	??$construct@PAU?$_Tree_node@U?$pair@$$CBV?$tuple@HHW4arch_t@@@std@@P8DCTFFTW@@AEXPAEHPAM@Z@std@@PAX@std@@AAPAU12@@?$_Wrap_alloc@V?$allocator@U?$_Tree_node@U?$pair@$$CBV?$tuple@HHW4arch_t@@@std@@P8DCTFFTW@@AEXPAEHPAM@Z@std@@PAX@std@@@std@@@std@@QAEXPAPAU?$_Tree_node@U?$pair@$$CBV?$tuple@HHW4arch_t@@@std@@P8DCTFFTW@@AEXPAEHPAM@Z@std@@PAX@1@AAPAU21@@Z ; std::_Wrap_alloc<std::allocator<std::_Tree_node<std::pair<std::tuple<int,int,enum arch_t> const ,void (__thiscall DCTFFTW::*)(unsigned char *,int,float *)>,void *> > >::construct<std::_Tree_node<std::pair<std::tuple<int,int,enum arch_t> const ,void (__thiscall DCTFFTW::*)(unsigned char *,int,float *)>,void *> *,std::_Tree_node<std::pair<std::tuple<int,int,enum arch_t> const ,void (__thiscall DCTFFTW::*)(unsigned char *,int,float *)>,void *> * &>
PUBLIC	??$construct@PAU?$_Tree_node@U?$pair@$$CBV?$tuple@HHW4arch_t@@@std@@P8DCTFFTW@@AEXPBEHPAM@Z@std@@PAX@std@@AAPAU12@@?$_Wrap_alloc@V?$allocator@U?$_Tree_node@U?$pair@$$CBV?$tuple@HHW4arch_t@@@std@@P8DCTFFTW@@AEXPBEHPAM@Z@std@@PAX@std@@@std@@@std@@QAEXPAPAU?$_Tree_node@U?$pair@$$CBV?$tuple@HHW4arch_t@@@std@@P8DCTFFTW@@AEXPBEHPAM@Z@std@@PAX@1@AAPAU21@@Z ; std::_Wrap_alloc<std::allocator<std::_Tree_node<std::pair<std::tuple<int,int,enum arch_t> const ,void (__thiscall DCTFFTW::*)(unsigned char const *,int,float *)>,void *> > >::construct<std::_Tree_node<std::pair<std::tuple<int,int,enum arch_t> const ,void (__thiscall DCTFFTW::*)(unsigned char const *,int,float *)>,void *> *,std::_Tree_node<std::pair<std::tuple<int,int,enum arch_t> const ,void (__thiscall DCTFFTW::*)(unsigned char const *,int,float *)>,void *> * &>
PUBLIC	??$destroy@U?$pair@$$CBV?$tuple@HHW4arch_t@@@std@@P8DCTFFTW@@AEXPAEHPAM@Z@std@@@?$_Wrap_alloc@V?$allocator@U?$_Tree_node@U?$pair@$$CBV?$tuple@HHW4arch_t@@@std@@P8DCTFFTW@@AEXPAEHPAM@Z@std@@PAX@std@@@std@@@std@@QAEXPAU?$pair@$$CBV?$tuple@HHW4arch_t@@@std@@P8DCTFFTW@@AEXPAEHPAM@Z@1@@Z ; std::_Wrap_alloc<std::allocator<std::_Tree_node<std::pair<std::tuple<int,int,enum arch_t> const ,void (__thiscall DCTFFTW::*)(unsigned char *,int,float *)>,void *> > >::destroy<std::pair<std::tuple<int,int,enum arch_t> const ,void (__thiscall DCTFFTW::*)(unsigned char *,int,float *)> >
PUBLIC	??$destroy@U?$pair@$$CBV?$tuple@HHW4arch_t@@@std@@P8DCTFFTW@@AEXPBEHPAM@Z@std@@@?$_Wrap_alloc@V?$allocator@U?$_Tree_node@U?$pair@$$CBV?$tuple@HHW4arch_t@@@std@@P8DCTFFTW@@AEXPBEHPAM@Z@std@@PAX@std@@@std@@@std@@QAEXPAU?$pair@$$CBV?$tuple@HHW4arch_t@@@std@@P8DCTFFTW@@AEXPBEHPAM@Z@1@@Z ; std::_Wrap_alloc<std::allocator<std::_Tree_node<std::pair<std::tuple<int,int,enum arch_t> const ,void (__thiscall DCTFFTW::*)(unsigned char const *,int,float *)>,void *> > >::destroy<std::pair<std::tuple<int,int,enum arch_t> const ,void (__thiscall DCTFFTW::*)(unsigned char const *,int,float *)> >
PUBLIC	??$?0ABU?$less@V?$tuple@HHW4arch_t@@@std@@@std@@U_Zero_then_variadic_args_t@1@@?$_Compressed_pair@U?$less@V?$tuple@HHW4arch_t@@@std@@@std@@V?$_Compressed_pair@U?$_Wrap_alloc@V?$allocator@U?$_Tree_node@U?$pair@$$CBV?$tuple@HHW4arch_t@@@std@@P8DCTFFTW@@AEXPAEHPAM@Z@std@@PAX@std@@@std@@@std@@V?$_Tree_val@U?$_Tree_simple_types@U?$pair@$$CBV?$tuple@HHW4arch_t@@@std@@P8DCTFFTW@@AEXPAEHPAM@Z@std@@@std@@@2@$00@2@$00@std@@QAE@U_One_then_variadic_args_t@1@ABU?$less@V?$tuple@HHW4arch_t@@@std@@@1@$$QAU_Zero_then_variadic_args_t@1@@Z ; std::_Compressed_pair<std::less<std::tuple<int,int,enum arch_t> >,std::_Compressed_pair<std::_Wrap_alloc<std::allocator<std::_Tree_node<std::pair<std::tuple<int,int,enum arch_t> const ,void (__thiscall DCTFFTW::*)(unsigned char *,int,float *)>,void *> > >,std::_Tree_val<std::_Tree_simple_types<std::pair<std::tuple<int,int,enum arch_t> const ,void (__thiscall DCTFFTW::*)(unsigned char *,int,float *)> > >,1>,1>::_Compressed_pair<std::less<std::tuple<int,int,enum arch_t> >,std::_Compressed_pair<std::_Wrap_alloc<std::allocator<std::_Tree_node<std::pair<std::tuple<int,int,enum arch_t> const ,void (__thiscall DCTFFTW::*)(unsigned char *,int,float *)>,void *> > >,std::_Tree_val<std::_Tree_simple_types<std::pair<std::tuple<int,int,enum arch_t> const ,void (__thiscall DCTFFTW::*)(unsigned char *,int,float *)> > >,1>,1><std::less<std::tuple<int,int,enum arch_t> > const &,std::_Zero_then_variadic_args_t>
PUBLIC	??$destroy@PAU?$_Tree_node@U?$pair@$$CBV?$tuple@HHW4arch_t@@@std@@P8DCTFFTW@@AEXPAEHPAM@Z@std@@PAX@std@@@?$_Wrap_alloc@V?$allocator@U?$_Tree_node@U?$pair@$$CBV?$tuple@HHW4arch_t@@@std@@P8DCTFFTW@@AEXPAEHPAM@Z@std@@PAX@std@@@std@@@std@@QAEXPAPAU?$_Tree_node@U?$pair@$$CBV?$tuple@HHW4arch_t@@@std@@P8DCTFFTW@@AEXPAEHPAM@Z@std@@PAX@1@@Z ; std::_Wrap_alloc<std::allocator<std::_Tree_node<std::pair<std::tuple<int,int,enum arch_t> const ,void (__thiscall DCTFFTW::*)(unsigned char *,int,float *)>,void *> > >::destroy<std::_Tree_node<std::pair<std::tuple<int,int,enum arch_t> const ,void (__thiscall DCTFFTW::*)(unsigned char *,int,float *)>,void *> *>
PUBLIC	??$addressof@PAU?$_Tree_node@U?$pair@$$CBV?$tuple@HHW4arch_t@@@std@@P8DCTFFTW@@AEXPAEHPAM@Z@std@@PAX@std@@@std@@YAPAPAU?$_Tree_node@U?$pair@$$CBV?$tuple@HHW4arch_t@@@std@@P8DCTFFTW@@AEXPAEHPAM@Z@std@@PAX@0@AAPAU10@@Z ; std::addressof<std::_Tree_node<std::pair<std::tuple<int,int,enum arch_t> const ,void (__thiscall DCTFFTW::*)(unsigned char *,int,float *)>,void *> *>
PUBLIC	??$?0ABU?$less@V?$tuple@HHW4arch_t@@@std@@@std@@U_Zero_then_variadic_args_t@1@@?$_Compressed_pair@U?$less@V?$tuple@HHW4arch_t@@@std@@@std@@V?$_Compressed_pair@U?$_Wrap_alloc@V?$allocator@U?$_Tree_node@U?$pair@$$CBV?$tuple@HHW4arch_t@@@std@@P8DCTFFTW@@AEXPBEHPAM@Z@std@@PAX@std@@@std@@@std@@V?$_Tree_val@U?$_Tree_simple_types@U?$pair@$$CBV?$tuple@HHW4arch_t@@@std@@P8DCTFFTW@@AEXPBEHPAM@Z@std@@@std@@@2@$00@2@$00@std@@QAE@U_One_then_variadic_args_t@1@ABU?$less@V?$tuple@HHW4arch_t@@@std@@@1@$$QAU_Zero_then_variadic_args_t@1@@Z ; std::_Compressed_pair<std::less<std::tuple<int,int,enum arch_t> >,std::_Compressed_pair<std::_Wrap_alloc<std::allocator<std::_Tree_node<std::pair<std::tuple<int,int,enum arch_t> const ,void (__thiscall DCTFFTW::*)(unsigned char const *,int,float *)>,void *> > >,std::_Tree_val<std::_Tree_simple_types<std::pair<std::tuple<int,int,enum arch_t> const ,void (__thiscall DCTFFTW::*)(unsigned char const *,int,float *)> > >,1>,1>::_Compressed_pair<std::less<std::tuple<int,int,enum arch_t> >,std::_Compressed_pair<std::_Wrap_alloc<std::allocator<std::_Tree_node<std::pair<std::tuple<int,int,enum arch_t> const ,void (__thiscall DCTFFTW::*)(unsigned char const *,int,float *)>,void *> > >,std::_Tree_val<std::_Tree_simple_types<std::pair<std::tuple<int,int,enum arch_t> const ,void (__thiscall DCTFFTW::*)(unsigned char const *,int,float *)> > >,1>,1><std::less<std::tuple<int,int,enum arch_t> > const &,std::_Zero_then_variadic_args_t>
PUBLIC	??$destroy@PAU?$_Tree_node@U?$pair@$$CBV?$tuple@HHW4arch_t@@@std@@P8DCTFFTW@@AEXPBEHPAM@Z@std@@PAX@std@@@?$_Wrap_alloc@V?$allocator@U?$_Tree_node@U?$pair@$$CBV?$tuple@HHW4arch_t@@@std@@P8DCTFFTW@@AEXPBEHPAM@Z@std@@PAX@std@@@std@@@std@@QAEXPAPAU?$_Tree_node@U?$pair@$$CBV?$tuple@HHW4arch_t@@@std@@P8DCTFFTW@@AEXPBEHPAM@Z@std@@PAX@1@@Z ; std::_Wrap_alloc<std::allocator<std::_Tree_node<std::pair<std::tuple<int,int,enum arch_t> const ,void (__thiscall DCTFFTW::*)(unsigned char const *,int,float *)>,void *> > >::destroy<std::_Tree_node<std::pair<std::tuple<int,int,enum arch_t> const ,void (__thiscall DCTFFTW::*)(unsigned char const *,int,float *)>,void *> *>
PUBLIC	??$addressof@PAU?$_Tree_node@U?$pair@$$CBV?$tuple@HHW4arch_t@@@std@@P8DCTFFTW@@AEXPBEHPAM@Z@std@@PAX@std@@@std@@YAPAPAU?$_Tree_node@U?$pair@$$CBV?$tuple@HHW4arch_t@@@std@@P8DCTFFTW@@AEXPBEHPAM@Z@std@@PAX@0@AAPAU10@@Z ; std::addressof<std::_Tree_node<std::pair<std::tuple<int,int,enum arch_t> const ,void (__thiscall DCTFFTW::*)(unsigned char const *,int,float *)>,void *> *>
PUBLIC	??$addressof@U?$pair@$$CBV?$tuple@HHW4arch_t@@@std@@P8DCTFFTW@@AEXPBEHPAM@Z@std@@@std@@YAPAU?$pair@$$CBV?$tuple@HHW4arch_t@@@std@@P8DCTFFTW@@AEXPBEHPAM@Z@0@AAU10@@Z ; std::addressof<std::pair<std::tuple<int,int,enum arch_t> const ,void (__thiscall DCTFFTW::*)(unsigned char const *,int,float *)> >
PUBLIC	??$addressof@U?$pair@$$CBV?$tuple@HHW4arch_t@@@std@@P8DCTFFTW@@AEXPAEHPAM@Z@std@@@std@@YAPAU?$pair@$$CBV?$tuple@HHW4arch_t@@@std@@P8DCTFFTW@@AEXPAEHPAM@Z@0@AAU10@@Z ; std::addressof<std::pair<std::tuple<int,int,enum arch_t> const ,void (__thiscall DCTFFTW::*)(unsigned char *,int,float *)> >
PUBLIC	??$try_emplace@$$V@?$map@V?$tuple@HHW4arch_t@@@std@@P8DCTFFTW@@AEXPAEHPAM@ZU?$less@V?$tuple@HHW4arch_t@@@std@@@2@V?$allocator@U?$pair@$$CBV?$tuple@HHW4arch_t@@@std@@P8DCTFFTW@@AEXPAEHPAM@Z@std@@@2@@std@@QAE?AU?$pair@V?$_Tree_iterator@V?$_Tree_val@U?$_Tree_simple_types@U?$pair@$$CBV?$tuple@HHW4arch_t@@@std@@P8DCTFFTW@@AEXPAEHPAM@Z@std@@@std@@@std@@@std@@_N@1@$$QAV?$tuple@HHW4arch_t@@@1@@Z ; std::map<std::tuple<int,int,enum arch_t>,void (__thiscall DCTFFTW::*)(unsigned char *,int,float *),std::less<std::tuple<int,int,enum arch_t> >,std::allocator<std::pair<std::tuple<int,int,enum arch_t> const ,void (__thiscall DCTFFTW::*)(unsigned char *,int,float *)> > >::try_emplace<>
PUBLIC	??$try_emplace@$$V@?$map@V?$tuple@HHW4arch_t@@@std@@P8DCTFFTW@@AEXPBEHPAM@ZU?$less@V?$tuple@HHW4arch_t@@@std@@@2@V?$allocator@U?$pair@$$CBV?$tuple@HHW4arch_t@@@std@@P8DCTFFTW@@AEXPBEHPAM@Z@std@@@2@@std@@QAE?AU?$pair@V?$_Tree_iterator@V?$_Tree_val@U?$_Tree_simple_types@U?$pair@$$CBV?$tuple@HHW4arch_t@@@std@@P8DCTFFTW@@AEXPBEHPAM@Z@std@@@std@@@std@@@std@@_N@1@$$QAV?$tuple@HHW4arch_t@@@1@@Z ; std::map<std::tuple<int,int,enum arch_t>,void (__thiscall DCTFFTW::*)(unsigned char const *,int,float *),std::less<std::tuple<int,int,enum arch_t> >,std::allocator<std::pair<std::tuple<int,int,enum arch_t> const ,void (__thiscall DCTFFTW::*)(unsigned char const *,int,float *)> > >::try_emplace<>
PUBLIC	??$move@AAV?$tuple@HHW4arch_t@@@std@@@std@@YA$$QAV?$tuple@HHW4arch_t@@@0@AAV10@@Z ; std::move<std::tuple<int,int,enum arch_t> &>
PUBLIC	??$Bytes2Float_C@G@DCTFFTW@@AAEXPBEHPAM@Z	; DCTFFTW::Bytes2Float_C<unsigned short>
PUBLIC	??$Bytes2Float_C@E@DCTFFTW@@AAEXPBEHPAM@Z	; DCTFFTW::Bytes2Float_C<unsigned char>
PUBLIC	??$Bytes2Float_SSE2@G$03@DCTFFTW@@AAEXPBEHPAM@Z	; DCTFFTW::Bytes2Float_SSE2<unsigned short,4>
PUBLIC	??$Bytes2Float_SSE2@G$07@DCTFFTW@@AAEXPBEHPAM@Z	; DCTFFTW::Bytes2Float_SSE2<unsigned short,8>
PUBLIC	??$Bytes2Float_SSE2@G$0BA@@DCTFFTW@@AAEXPBEHPAM@Z ; DCTFFTW::Bytes2Float_SSE2<unsigned short,16>
PUBLIC	??$Bytes2Float_SSE2@G$0CA@@DCTFFTW@@AAEXPBEHPAM@Z ; DCTFFTW::Bytes2Float_SSE2<unsigned short,32>
PUBLIC	??$Bytes2Float_SSE2@E$03@DCTFFTW@@AAEXPBEHPAM@Z	; DCTFFTW::Bytes2Float_SSE2<unsigned char,4>
PUBLIC	??$Bytes2Float_SSE2@E$07@DCTFFTW@@AAEXPBEHPAM@Z	; DCTFFTW::Bytes2Float_SSE2<unsigned char,8>
PUBLIC	??$Bytes2Float_SSE2@E$0BA@@DCTFFTW@@AAEXPBEHPAM@Z ; DCTFFTW::Bytes2Float_SSE2<unsigned char,16>
PUBLIC	??$Bytes2Float_SSE2@E$0CA@@DCTFFTW@@AAEXPBEHPAM@Z ; DCTFFTW::Bytes2Float_SSE2<unsigned char,32>
PUBLIC	??$Float2Bytes_C@G@DCTFFTW@@AAEXPAEHPAM@Z	; DCTFFTW::Float2Bytes_C<unsigned short>
PUBLIC	??$Float2Bytes_C@E@DCTFFTW@@AAEXPAEHPAM@Z	; DCTFFTW::Float2Bytes_C<unsigned char>
PUBLIC	??$make_tuple@AAHAAHAAW4arch_t@@@std@@YA?AV?$tuple@HHW4arch_t@@@0@AAH0AAW4arch_t@@@Z ; std::make_tuple<int &,int &,enum arch_t &>
PUBLIC	??$Float2Bytes_SSE2@G$07$0A@@DCTFFTW@@AAEXPAEHPAM@Z ; DCTFFTW::Float2Bytes_SSE2<unsigned short,8,0>
PUBLIC	??$Float2Bytes_SSE2@G$0BA@$0A@@DCTFFTW@@AAEXPAEHPAM@Z ; DCTFFTW::Float2Bytes_SSE2<unsigned short,16,0>
PUBLIC	??$Float2Bytes_SSE2@G$0CA@$0A@@DCTFFTW@@AAEXPAEHPAM@Z ; DCTFFTW::Float2Bytes_SSE2<unsigned short,32,0>
PUBLIC	??$Float2Bytes_SSE2@E$07$0A@@DCTFFTW@@AAEXPAEHPAM@Z ; DCTFFTW::Float2Bytes_SSE2<unsigned char,8,0>
PUBLIC	??$Float2Bytes_SSE2@E$0BA@$0A@@DCTFFTW@@AAEXPAEHPAM@Z ; DCTFFTW::Float2Bytes_SSE2<unsigned char,16,0>
PUBLIC	??$Float2Bytes_SSE2@E$0CA@$0A@@DCTFFTW@@AAEXPAEHPAM@Z ; DCTFFTW::Float2Bytes_SSE2<unsigned char,32,0>
PUBLIC	??$Float2Bytes_SSE2@G$07$00@DCTFFTW@@AAEXPAEHPAM@Z ; DCTFFTW::Float2Bytes_SSE2<unsigned short,8,1>
PUBLIC	??$Float2Bytes_SSE2@G$0BA@$00@DCTFFTW@@AAEXPAEHPAM@Z ; DCTFFTW::Float2Bytes_SSE2<unsigned short,16,1>
PUBLIC	??$Float2Bytes_SSE2@G$0CA@$00@DCTFFTW@@AAEXPAEHPAM@Z ; DCTFFTW::Float2Bytes_SSE2<unsigned short,32,1>
PUBLIC	??$Float2Bytes_SSE2@E$07$00@DCTFFTW@@AAEXPAEHPAM@Z ; DCTFFTW::Float2Bytes_SSE2<unsigned char,8,1>
PUBLIC	??$Float2Bytes_SSE2@E$0BA@$00@DCTFFTW@@AAEXPAEHPAM@Z ; DCTFFTW::Float2Bytes_SSE2<unsigned char,16,1>
PUBLIC	??$Float2Bytes_SSE2@E$0CA@$00@DCTFFTW@@AAEXPAEHPAM@Z ; DCTFFTW::Float2Bytes_SSE2<unsigned char,32,1>
PUBLIC	??$make_tuple@HHW4arch_t@@@std@@YA?AV?$tuple@HHW4arch_t@@@0@$$QAH0$$QAW4arch_t@@@Z ; std::make_tuple<int,int,enum arch_t>
PUBLIC	?allocate@?$allocator@U?$_Tree_node@U?$pair@$$CBV?$tuple@HHW4arch_t@@@std@@P8DCTFFTW@@AEXPAEHPAM@Z@std@@PAX@std@@@std@@QAEPAU?$_Tree_node@U?$pair@$$CBV?$tuple@HHW4arch_t@@@std@@P8DCTFFTW@@AEXPAEHPAM@Z@std@@PAX@2@I@Z ; std::allocator<std::_Tree_node<std::pair<std::tuple<int,int,enum arch_t> const ,void (__thiscall DCTFFTW::*)(unsigned char *,int,float *)>,void *> >::allocate
PUBLIC	?_Get_second@?$_Compressed_pair@U?$_Wrap_alloc@V?$allocator@U?$_Tree_node@U?$pair@$$CBV?$tuple@HHW4arch_t@@@std@@P8DCTFFTW@@AEXPAEHPAM@Z@std@@PAX@std@@@std@@@std@@V?$_Tree_val@U?$_Tree_simple_types@U?$pair@$$CBV?$tuple@HHW4arch_t@@@std@@P8DCTFFTW@@AEXPAEHPAM@Z@std@@@std@@@2@$00@std@@QBEABV?$_Tree_val@U?$_Tree_simple_types@U?$pair@$$CBV?$tuple@HHW4arch_t@@@std@@P8DCTFFTW@@AEXPAEHPAM@Z@std@@@std@@@2@XZ ; std::_Compressed_pair<std::_Wrap_alloc<std::allocator<std::_Tree_node<std::pair<std::tuple<int,int,enum arch_t> const ,void (__thiscall DCTFFTW::*)(unsigned char *,int,float *)>,void *> > >,std::_Tree_val<std::_Tree_simple_types<std::pair<std::tuple<int,int,enum arch_t> const ,void (__thiscall DCTFFTW::*)(unsigned char *,int,float *)> > >,1>::_Get_second
PUBLIC	?_Get_second@?$_Compressed_pair@U?$less@V?$tuple@HHW4arch_t@@@std@@@std@@V?$_Compressed_pair@U?$_Wrap_alloc@V?$allocator@U?$_Tree_node@U?$pair@$$CBV?$tuple@HHW4arch_t@@@std@@P8DCTFFTW@@AEXPAEHPAM@Z@std@@PAX@std@@@std@@@std@@V?$_Tree_val@U?$_Tree_simple_types@U?$pair@$$CBV?$tuple@HHW4arch_t@@@std@@P8DCTFFTW@@AEXPAEHPAM@Z@std@@@std@@@2@$00@2@$00@std@@QBEABV?$_Compressed_pair@U?$_Wrap_alloc@V?$allocator@U?$_Tree_node@U?$pair@$$CBV?$tuple@HHW4arch_t@@@std@@P8DCTFFTW@@AEXPAEHPAM@Z@std@@PAX@std@@@std@@@std@@V?$_Tree_val@U?$_Tree_simple_types@U?$pair@$$CBV?$tuple@HHW4arch_t@@@std@@P8DCTFFTW@@AEXPAEHPAM@Z@std@@@std@@@2@$00@2@XZ ; std::_Compressed_pair<std::less<std::tuple<int,int,enum arch_t> >,std::_Compressed_pair<std::_Wrap_alloc<std::allocator<std::_Tree_node<std::pair<std::tuple<int,int,enum arch_t> const ,void (__thiscall DCTFFTW::*)(unsigned char *,int,float *)>,void *> > >,std::_Tree_val<std::_Tree_simple_types<std::pair<std::tuple<int,int,enum arch_t> const ,void (__thiscall DCTFFTW::*)(unsigned char *,int,float *)> > >,1>,1>::_Get_second
PUBLIC	?allocate@?$allocator@U?$_Tree_node@U?$pair@$$CBV?$tuple@HHW4arch_t@@@std@@P8DCTFFTW@@AEXPBEHPAM@Z@std@@PAX@std@@@std@@QAEPAU?$_Tree_node@U?$pair@$$CBV?$tuple@HHW4arch_t@@@std@@P8DCTFFTW@@AEXPBEHPAM@Z@std@@PAX@2@I@Z ; std::allocator<std::_Tree_node<std::pair<std::tuple<int,int,enum arch_t> const ,void (__thiscall DCTFFTW::*)(unsigned char const *,int,float *)>,void *> >::allocate
PUBLIC	?_Get_second@?$_Compressed_pair@U?$_Wrap_alloc@V?$allocator@U?$_Tree_node@U?$pair@$$CBV?$tuple@HHW4arch_t@@@std@@P8DCTFFTW@@AEXPBEHPAM@Z@std@@PAX@std@@@std@@@std@@V?$_Tree_val@U?$_Tree_simple_types@U?$pair@$$CBV?$tuple@HHW4arch_t@@@std@@P8DCTFFTW@@AEXPBEHPAM@Z@std@@@std@@@2@$00@std@@QBEABV?$_Tree_val@U?$_Tree_simple_types@U?$pair@$$CBV?$tuple@HHW4arch_t@@@std@@P8DCTFFTW@@AEXPBEHPAM@Z@std@@@std@@@2@XZ ; std::_Compressed_pair<std::_Wrap_alloc<std::allocator<std::_Tree_node<std::pair<std::tuple<int,int,enum arch_t> const ,void (__thiscall DCTFFTW::*)(unsigned char const *,int,float *)>,void *> > >,std::_Tree_val<std::_Tree_simple_types<std::pair<std::tuple<int,int,enum arch_t> const ,void (__thiscall DCTFFTW::*)(unsigned char const *,int,float *)> > >,1>::_Get_second
PUBLIC	?_Get_second@?$_Compressed_pair@U?$less@V?$tuple@HHW4arch_t@@@std@@@std@@V?$_Compressed_pair@U?$_Wrap_alloc@V?$allocator@U?$_Tree_node@U?$pair@$$CBV?$tuple@HHW4arch_t@@@std@@P8DCTFFTW@@AEXPBEHPAM@Z@std@@PAX@std@@@std@@@std@@V?$_Tree_val@U?$_Tree_simple_types@U?$pair@$$CBV?$tuple@HHW4arch_t@@@std@@P8DCTFFTW@@AEXPBEHPAM@Z@std@@@std@@@2@$00@2@$00@std@@QBEABV?$_Compressed_pair@U?$_Wrap_alloc@V?$allocator@U?$_Tree_node@U?$pair@$$CBV?$tuple@HHW4arch_t@@@std@@P8DCTFFTW@@AEXPBEHPAM@Z@std@@PAX@std@@@std@@@std@@V?$_Tree_val@U?$_Tree_simple_types@U?$pair@$$CBV?$tuple@HHW4arch_t@@@std@@P8DCTFFTW@@AEXPBEHPAM@Z@std@@@std@@@2@$00@2@XZ ; std::_Compressed_pair<std::less<std::tuple<int,int,enum arch_t> >,std::_Compressed_pair<std::_Wrap_alloc<std::allocator<std::_Tree_node<std::pair<std::tuple<int,int,enum arch_t> const ,void (__thiscall DCTFFTW::*)(unsigned char const *,int,float *)>,void *> > >,std::_Tree_val<std::_Tree_simple_types<std::pair<std::tuple<int,int,enum arch_t> const ,void (__thiscall DCTFFTW::*)(unsigned char const *,int,float *)> > >,1>,1>::_Get_second
PUBLIC	?_Get_data@?$_Tree_comp_alloc@V?$_Tmap_traits@V?$tuple@HHW4arch_t@@@std@@P8DCTFFTW@@AEXPAEHPAM@ZU?$less@V?$tuple@HHW4arch_t@@@std@@@2@V?$allocator@U?$pair@$$CBV?$tuple@HHW4arch_t@@@std@@P8DCTFFTW@@AEXPAEHPAM@Z@std@@@2@$0A@@std@@@std@@QBEABV?$_Tree_val@U?$_Tree_simple_types@U?$pair@$$CBV?$tuple@HHW4arch_t@@@std@@P8DCTFFTW@@AEXPAEHPAM@Z@std@@@std@@@2@XZ ; std::_Tree_comp_alloc<std::_Tmap_traits<std::tuple<int,int,enum arch_t>,void (__thiscall DCTFFTW::*)(unsigned char *,int,float *),std::less<std::tuple<int,int,enum arch_t> >,std::allocator<std::pair<std::tuple<int,int,enum arch_t> const ,void (__thiscall DCTFFTW::*)(unsigned char *,int,float *)> >,0> >::_Get_data
PUBLIC	?allocate@?$_Wrap_alloc@V?$allocator@U?$_Tree_node@U?$pair@$$CBV?$tuple@HHW4arch_t@@@std@@P8DCTFFTW@@AEXPAEHPAM@Z@std@@PAX@std@@@std@@@std@@QAEPAU?$_Tree_node@U?$pair@$$CBV?$tuple@HHW4arch_t@@@std@@P8DCTFFTW@@AEXPAEHPAM@Z@std@@PAX@2@I@Z ; std::_Wrap_alloc<std::allocator<std::_Tree_node<std::pair<std::tuple<int,int,enum arch_t> const ,void (__thiscall DCTFFTW::*)(unsigned char *,int,float *)>,void *> > >::allocate
PUBLIC	?_Color@?$_Tree_val@U?$_Tree_simple_types@U?$pair@$$CBV?$tuple@HHW4arch_t@@@std@@P8DCTFFTW@@AEXPAEHPAM@Z@std@@@std@@@std@@SAAADPAU?$_Tree_node@U?$pair@$$CBV?$tuple@HHW4arch_t@@@std@@P8DCTFFTW@@AEXPAEHPAM@Z@std@@PAX@2@@Z ; std::_Tree_val<std::_Tree_simple_types<std::pair<std::tuple<int,int,enum arch_t> const ,void (__thiscall DCTFFTW::*)(unsigned char *,int,float *)> > >::_Color
PUBLIC	?_Isnil@?$_Tree_val@U?$_Tree_simple_types@U?$pair@$$CBV?$tuple@HHW4arch_t@@@std@@P8DCTFFTW@@AEXPAEHPAM@Z@std@@@std@@@std@@SAAADPAU?$_Tree_node@U?$pair@$$CBV?$tuple@HHW4arch_t@@@std@@P8DCTFFTW@@AEXPAEHPAM@Z@std@@PAX@2@@Z ; std::_Tree_val<std::_Tree_simple_types<std::pair<std::tuple<int,int,enum arch_t> const ,void (__thiscall DCTFFTW::*)(unsigned char *,int,float *)> > >::_Isnil
PUBLIC	?_Max@?$_Tree_val@U?$_Tree_simple_types@U?$pair@$$CBV?$tuple@HHW4arch_t@@@std@@P8DCTFFTW@@AEXPAEHPAM@Z@std@@@std@@@std@@SAPAU?$_Tree_node@U?$pair@$$CBV?$tuple@HHW4arch_t@@@std@@P8DCTFFTW@@AEXPAEHPAM@Z@std@@PAX@2@PAU32@@Z ; std::_Tree_val<std::_Tree_simple_types<std::pair<std::tuple<int,int,enum arch_t> const ,void (__thiscall DCTFFTW::*)(unsigned char *,int,float *)> > >::_Max
PUBLIC	?_Min@?$_Tree_val@U?$_Tree_simple_types@U?$pair@$$CBV?$tuple@HHW4arch_t@@@std@@P8DCTFFTW@@AEXPAEHPAM@Z@std@@@std@@@std@@SAPAU?$_Tree_node@U?$pair@$$CBV?$tuple@HHW4arch_t@@@std@@P8DCTFFTW@@AEXPAEHPAM@Z@std@@PAX@2@PAU32@@Z ; std::_Tree_val<std::_Tree_simple_types<std::pair<std::tuple<int,int,enum arch_t> const ,void (__thiscall DCTFFTW::*)(unsigned char *,int,float *)> > >::_Min
PUBLIC	?_Get_data@?$_Tree_comp_alloc@V?$_Tmap_traits@V?$tuple@HHW4arch_t@@@std@@P8DCTFFTW@@AEXPBEHPAM@ZU?$less@V?$tuple@HHW4arch_t@@@std@@@2@V?$allocator@U?$pair@$$CBV?$tuple@HHW4arch_t@@@std@@P8DCTFFTW@@AEXPBEHPAM@Z@std@@@2@$0A@@std@@@std@@QBEABV?$_Tree_val@U?$_Tree_simple_types@U?$pair@$$CBV?$tuple@HHW4arch_t@@@std@@P8DCTFFTW@@AEXPBEHPAM@Z@std@@@std@@@2@XZ ; std::_Tree_comp_alloc<std::_Tmap_traits<std::tuple<int,int,enum arch_t>,void (__thiscall DCTFFTW::*)(unsigned char const *,int,float *),std::less<std::tuple<int,int,enum arch_t> >,std::allocator<std::pair<std::tuple<int,int,enum arch_t> const ,void (__thiscall DCTFFTW::*)(unsigned char const *,int,float *)> >,0> >::_Get_data
PUBLIC	?allocate@?$_Wrap_alloc@V?$allocator@U?$_Tree_node@U?$pair@$$CBV?$tuple@HHW4arch_t@@@std@@P8DCTFFTW@@AEXPBEHPAM@Z@std@@PAX@std@@@std@@@std@@QAEPAU?$_Tree_node@U?$pair@$$CBV?$tuple@HHW4arch_t@@@std@@P8DCTFFTW@@AEXPBEHPAM@Z@std@@PAX@2@I@Z ; std::_Wrap_alloc<std::allocator<std::_Tree_node<std::pair<std::tuple<int,int,enum arch_t> const ,void (__thiscall DCTFFTW::*)(unsigned char const *,int,float *)>,void *> > >::allocate
PUBLIC	?_Color@?$_Tree_val@U?$_Tree_simple_types@U?$pair@$$CBV?$tuple@HHW4arch_t@@@std@@P8DCTFFTW@@AEXPBEHPAM@Z@std@@@std@@@std@@SAAADPAU?$_Tree_node@U?$pair@$$CBV?$tuple@HHW4arch_t@@@std@@P8DCTFFTW@@AEXPBEHPAM@Z@std@@PAX@2@@Z ; std::_Tree_val<std::_Tree_simple_types<std::pair<std::tuple<int,int,enum arch_t> const ,void (__thiscall DCTFFTW::*)(unsigned char const *,int,float *)> > >::_Color
PUBLIC	?_Isnil@?$_Tree_val@U?$_Tree_simple_types@U?$pair@$$CBV?$tuple@HHW4arch_t@@@std@@P8DCTFFTW@@AEXPBEHPAM@Z@std@@@std@@@std@@SAAADPAU?$_Tree_node@U?$pair@$$CBV?$tuple@HHW4arch_t@@@std@@P8DCTFFTW@@AEXPBEHPAM@Z@std@@PAX@2@@Z ; std::_Tree_val<std::_Tree_simple_types<std::pair<std::tuple<int,int,enum arch_t> const ,void (__thiscall DCTFFTW::*)(unsigned char const *,int,float *)> > >::_Isnil
PUBLIC	?_Max@?$_Tree_val@U?$_Tree_simple_types@U?$pair@$$CBV?$tuple@HHW4arch_t@@@std@@P8DCTFFTW@@AEXPBEHPAM@Z@std@@@std@@@std@@SAPAU?$_Tree_node@U?$pair@$$CBV?$tuple@HHW4arch_t@@@std@@P8DCTFFTW@@AEXPBEHPAM@Z@std@@PAX@2@PAU32@@Z ; std::_Tree_val<std::_Tree_simple_types<std::pair<std::tuple<int,int,enum arch_t> const ,void (__thiscall DCTFFTW::*)(unsigned char const *,int,float *)> > >::_Max
PUBLIC	?_Min@?$_Tree_val@U?$_Tree_simple_types@U?$pair@$$CBV?$tuple@HHW4arch_t@@@std@@P8DCTFFTW@@AEXPBEHPAM@Z@std@@@std@@@std@@SAPAU?$_Tree_node@U?$pair@$$CBV?$tuple@HHW4arch_t@@@std@@P8DCTFFTW@@AEXPBEHPAM@Z@std@@PAX@2@PAU32@@Z ; std::_Tree_val<std::_Tree_simple_types<std::pair<std::tuple<int,int,enum arch_t> const ,void (__thiscall DCTFFTW::*)(unsigned char const *,int,float *)> > >::_Min
PUBLIC	??0?$_Tree_unchecked_const_iterator@V?$_Tree_val@U?$_Tree_simple_types@U?$pair@$$CBV?$tuple@HHW4arch_t@@@std@@P8DCTFFTW@@AEXPBEHPAM@Z@std@@@std@@@std@@U_Iterator_base0@2@@std@@QAE@PAU?$_Tree_node@U?$pair@$$CBV?$tuple@HHW4arch_t@@@std@@P8DCTFFTW@@AEXPBEHPAM@Z@std@@PAX@1@PBV?$_Tree_val@U?$_Tree_simple_types@U?$pair@$$CBV?$tuple@HHW4arch_t@@@std@@P8DCTFFTW@@AEXPBEHPAM@Z@std@@@std@@@1@@Z ; std::_Tree_unchecked_const_iterator<std::_Tree_val<std::_Tree_simple_types<std::pair<std::tuple<int,int,enum arch_t> const ,void (__thiscall DCTFFTW::*)(unsigned char const *,int,float *)> > >,std::_Iterator_base0>::_Tree_unchecked_const_iterator<std::_Tree_val<std::_Tree_simple_types<std::pair<std::tuple<int,int,enum arch_t> const ,void (__thiscall DCTFFTW::*)(unsigned char const *,int,float *)> > >,std::_Iterator_base0>
PUBLIC	??E?$_Tree_unchecked_const_iterator@V?$_Tree_val@U?$_Tree_simple_types@U?$pair@$$CBV?$tuple@HHW4arch_t@@@std@@P8DCTFFTW@@AEXPBEHPAM@Z@std@@@std@@@std@@U_Iterator_base0@2@@std@@QAEAAV01@XZ ; std::_Tree_unchecked_const_iterator<std::_Tree_val<std::_Tree_simple_types<std::pair<std::tuple<int,int,enum arch_t> const ,void (__thiscall DCTFFTW::*)(unsigned char const *,int,float *)> > >,std::_Iterator_base0>::operator++
PUBLIC	??0?$_Tree_unchecked_const_iterator@V?$_Tree_val@U?$_Tree_simple_types@U?$pair@$$CBV?$tuple@HHW4arch_t@@@std@@P8DCTFFTW@@AEXPAEHPAM@Z@std@@@std@@@std@@U_Iterator_base0@2@@std@@QAE@PAU?$_Tree_node@U?$pair@$$CBV?$tuple@HHW4arch_t@@@std@@P8DCTFFTW@@AEXPAEHPAM@Z@std@@PAX@1@PBV?$_Tree_val@U?$_Tree_simple_types@U?$pair@$$CBV?$tuple@HHW4arch_t@@@std@@P8DCTFFTW@@AEXPAEHPAM@Z@std@@@std@@@1@@Z ; std::_Tree_unchecked_const_iterator<std::_Tree_val<std::_Tree_simple_types<std::pair<std::tuple<int,int,enum arch_t> const ,void (__thiscall DCTFFTW::*)(unsigned char *,int,float *)> > >,std::_Iterator_base0>::_Tree_unchecked_const_iterator<std::_Tree_val<std::_Tree_simple_types<std::pair<std::tuple<int,int,enum arch_t> const ,void (__thiscall DCTFFTW::*)(unsigned char *,int,float *)> > >,std::_Iterator_base0>
PUBLIC	??E?$_Tree_unchecked_const_iterator@V?$_Tree_val@U?$_Tree_simple_types@U?$pair@$$CBV?$tuple@HHW4arch_t@@@std@@P8DCTFFTW@@AEXPAEHPAM@Z@std@@@std@@@std@@U_Iterator_base0@2@@std@@QAEAAV01@XZ ; std::_Tree_unchecked_const_iterator<std::_Tree_val<std::_Tree_simple_types<std::pair<std::tuple<int,int,enum arch_t> const ,void (__thiscall DCTFFTW::*)(unsigned char *,int,float *)> > >,std::_Iterator_base0>::operator++
PUBLIC	?_Erase@?$_Tree@V?$_Tmap_traits@V?$tuple@HHW4arch_t@@@std@@P8DCTFFTW@@AEXPAEHPAM@ZU?$less@V?$tuple@HHW4arch_t@@@std@@@2@V?$allocator@U?$pair@$$CBV?$tuple@HHW4arch_t@@@std@@P8DCTFFTW@@AEXPAEHPAM@Z@std@@@2@$0A@@std@@@std@@IAEXPAU?$_Tree_node@U?$pair@$$CBV?$tuple@HHW4arch_t@@@std@@P8DCTFFTW@@AEXPAEHPAM@Z@std@@PAX@2@@Z ; std::_Tree<std::_Tmap_traits<std::tuple<int,int,enum arch_t>,void (__thiscall DCTFFTW::*)(unsigned char *,int,float *),std::less<std::tuple<int,int,enum arch_t> >,std::allocator<std::pair<std::tuple<int,int,enum arch_t> const ,void (__thiscall DCTFFTW::*)(unsigned char *,int,float *)> >,0> >::_Erase
PUBLIC	?_Lrotate@?$_Tree@V?$_Tmap_traits@V?$tuple@HHW4arch_t@@@std@@P8DCTFFTW@@AEXPAEHPAM@ZU?$less@V?$tuple@HHW4arch_t@@@std@@@2@V?$allocator@U?$pair@$$CBV?$tuple@HHW4arch_t@@@std@@P8DCTFFTW@@AEXPAEHPAM@Z@std@@@2@$0A@@std@@@std@@IAEXPAU?$_Tree_node@U?$pair@$$CBV?$tuple@HHW4arch_t@@@std@@P8DCTFFTW@@AEXPAEHPAM@Z@std@@PAX@2@@Z ; std::_Tree<std::_Tmap_traits<std::tuple<int,int,enum arch_t>,void (__thiscall DCTFFTW::*)(unsigned char *,int,float *),std::less<std::tuple<int,int,enum arch_t> >,std::allocator<std::pair<std::tuple<int,int,enum arch_t> const ,void (__thiscall DCTFFTW::*)(unsigned char *,int,float *)> >,0> >::_Lrotate
PUBLIC	?_Rmost@?$_Tree@V?$_Tmap_traits@V?$tuple@HHW4arch_t@@@std@@P8DCTFFTW@@AEXPAEHPAM@ZU?$less@V?$tuple@HHW4arch_t@@@std@@@2@V?$allocator@U?$pair@$$CBV?$tuple@HHW4arch_t@@@std@@P8DCTFFTW@@AEXPAEHPAM@Z@std@@@2@$0A@@std@@@std@@IBEAAPAU?$_Tree_node@U?$pair@$$CBV?$tuple@HHW4arch_t@@@std@@P8DCTFFTW@@AEXPAEHPAM@Z@std@@PAX@2@XZ ; std::_Tree<std::_Tmap_traits<std::tuple<int,int,enum arch_t>,void (__thiscall DCTFFTW::*)(unsigned char *,int,float *),std::less<std::tuple<int,int,enum arch_t> >,std::allocator<std::pair<std::tuple<int,int,enum arch_t> const ,void (__thiscall DCTFFTW::*)(unsigned char *,int,float *)> >,0> >::_Rmost
PUBLIC	?_Root@?$_Tree@V?$_Tmap_traits@V?$tuple@HHW4arch_t@@@std@@P8DCTFFTW@@AEXPAEHPAM@ZU?$less@V?$tuple@HHW4arch_t@@@std@@@2@V?$allocator@U?$pair@$$CBV?$tuple@HHW4arch_t@@@std@@P8DCTFFTW@@AEXPAEHPAM@Z@std@@@2@$0A@@std@@@std@@IBEAAPAU?$_Tree_node@U?$pair@$$CBV?$tuple@HHW4arch_t@@@std@@P8DCTFFTW@@AEXPAEHPAM@Z@std@@PAX@2@XZ ; std::_Tree<std::_Tmap_traits<std::tuple<int,int,enum arch_t>,void (__thiscall DCTFFTW::*)(unsigned char *,int,float *),std::less<std::tuple<int,int,enum arch_t> >,std::allocator<std::pair<std::tuple<int,int,enum arch_t> const ,void (__thiscall DCTFFTW::*)(unsigned char *,int,float *)> >,0> >::_Root
PUBLIC	?_Rrotate@?$_Tree@V?$_Tmap_traits@V?$tuple@HHW4arch_t@@@std@@P8DCTFFTW@@AEXPAEHPAM@ZU?$less@V?$tuple@HHW4arch_t@@@std@@@2@V?$allocator@U?$pair@$$CBV?$tuple@HHW4arch_t@@@std@@P8DCTFFTW@@AEXPAEHPAM@Z@std@@@2@$0A@@std@@@std@@IAEXPAU?$_Tree_node@U?$pair@$$CBV?$tuple@HHW4arch_t@@@std@@P8DCTFFTW@@AEXPAEHPAM@Z@std@@PAX@2@@Z ; std::_Tree<std::_Tmap_traits<std::tuple<int,int,enum arch_t>,void (__thiscall DCTFFTW::*)(unsigned char *,int,float *),std::less<std::tuple<int,int,enum arch_t> >,std::allocator<std::pair<std::tuple<int,int,enum arch_t> const ,void (__thiscall DCTFFTW::*)(unsigned char *,int,float *)> >,0> >::_Rrotate
PUBLIC	?_Color@?$_Tree_comp_alloc@V?$_Tmap_traits@V?$tuple@HHW4arch_t@@@std@@P8DCTFFTW@@AEXPAEHPAM@ZU?$less@V?$tuple@HHW4arch_t@@@std@@@2@V?$allocator@U?$pair@$$CBV?$tuple@HHW4arch_t@@@std@@P8DCTFFTW@@AEXPAEHPAM@Z@std@@@2@$0A@@std@@@std@@SAAADPAU?$_Tree_node@U?$pair@$$CBV?$tuple@HHW4arch_t@@@std@@P8DCTFFTW@@AEXPAEHPAM@Z@std@@PAX@2@@Z ; std::_Tree_comp_alloc<std::_Tmap_traits<std::tuple<int,int,enum arch_t>,void (__thiscall DCTFFTW::*)(unsigned char *,int,float *),std::less<std::tuple<int,int,enum arch_t> >,std::allocator<std::pair<std::tuple<int,int,enum arch_t> const ,void (__thiscall DCTFFTW::*)(unsigned char *,int,float *)> >,0> >::_Color
PUBLIC	?_Isnil@?$_Tree_comp_alloc@V?$_Tmap_traits@V?$tuple@HHW4arch_t@@@std@@P8DCTFFTW@@AEXPAEHPAM@ZU?$less@V?$tuple@HHW4arch_t@@@std@@@2@V?$allocator@U?$pair@$$CBV?$tuple@HHW4arch_t@@@std@@P8DCTFFTW@@AEXPAEHPAM@Z@std@@@2@$0A@@std@@@std@@SAAADPAU?$_Tree_node@U?$pair@$$CBV?$tuple@HHW4arch_t@@@std@@P8DCTFFTW@@AEXPAEHPAM@Z@std@@PAX@2@@Z ; std::_Tree_comp_alloc<std::_Tmap_traits<std::tuple<int,int,enum arch_t>,void (__thiscall DCTFFTW::*)(unsigned char *,int,float *),std::less<std::tuple<int,int,enum arch_t> >,std::allocator<std::pair<std::tuple<int,int,enum arch_t> const ,void (__thiscall DCTFFTW::*)(unsigned char *,int,float *)> >,0> >::_Isnil
PUBLIC	?_Myval@?$_Tree_comp_alloc@V?$_Tmap_traits@V?$tuple@HHW4arch_t@@@std@@P8DCTFFTW@@AEXPAEHPAM@ZU?$less@V?$tuple@HHW4arch_t@@@std@@@2@V?$allocator@U?$pair@$$CBV?$tuple@HHW4arch_t@@@std@@P8DCTFFTW@@AEXPAEHPAM@Z@std@@@2@$0A@@std@@@std@@SAAAU?$pair@$$CBV?$tuple@HHW4arch_t@@@std@@P8DCTFFTW@@AEXPAEHPAM@Z@2@PAU?$_Tree_node@U?$pair@$$CBV?$tuple@HHW4arch_t@@@std@@P8DCTFFTW@@AEXPAEHPAM@Z@std@@PAX@2@@Z ; std::_Tree_comp_alloc<std::_Tmap_traits<std::tuple<int,int,enum arch_t>,void (__thiscall DCTFFTW::*)(unsigned char *,int,float *),std::less<std::tuple<int,int,enum arch_t> >,std::allocator<std::pair<std::tuple<int,int,enum arch_t> const ,void (__thiscall DCTFFTW::*)(unsigned char *,int,float *)> >,0> >::_Myval
PUBLIC	?_Max@?$_Tree_comp_alloc@V?$_Tmap_traits@V?$tuple@HHW4arch_t@@@std@@P8DCTFFTW@@AEXPAEHPAM@ZU?$less@V?$tuple@HHW4arch_t@@@std@@@2@V?$allocator@U?$pair@$$CBV?$tuple@HHW4arch_t@@@std@@P8DCTFFTW@@AEXPAEHPAM@Z@std@@@2@$0A@@std@@@std@@SAPAU?$_Tree_node@U?$pair@$$CBV?$tuple@HHW4arch_t@@@std@@P8DCTFFTW@@AEXPAEHPAM@Z@std@@PAX@2@PAU32@@Z ; std::_Tree_comp_alloc<std::_Tmap_traits<std::tuple<int,int,enum arch_t>,void (__thiscall DCTFFTW::*)(unsigned char *,int,float *),std::less<std::tuple<int,int,enum arch_t> >,std::allocator<std::pair<std::tuple<int,int,enum arch_t> const ,void (__thiscall DCTFFTW::*)(unsigned char *,int,float *)> >,0> >::_Max
PUBLIC	?_Min@?$_Tree_comp_alloc@V?$_Tmap_traits@V?$tuple@HHW4arch_t@@@std@@P8DCTFFTW@@AEXPAEHPAM@ZU?$less@V?$tuple@HHW4arch_t@@@std@@@2@V?$allocator@U?$pair@$$CBV?$tuple@HHW4arch_t@@@std@@P8DCTFFTW@@AEXPAEHPAM@Z@std@@@2@$0A@@std@@@std@@SAPAU?$_Tree_node@U?$pair@$$CBV?$tuple@HHW4arch_t@@@std@@P8DCTFFTW@@AEXPAEHPAM@Z@std@@PAX@2@PAU32@@Z ; std::_Tree_comp_alloc<std::_Tmap_traits<std::tuple<int,int,enum arch_t>,void (__thiscall DCTFFTW::*)(unsigned char *,int,float *),std::less<std::tuple<int,int,enum arch_t> >,std::allocator<std::pair<std::tuple<int,int,enum arch_t> const ,void (__thiscall DCTFFTW::*)(unsigned char *,int,float *)> >,0> >::_Min
PUBLIC	?_Buyheadnode@?$_Tree_comp_alloc@V?$_Tmap_traits@V?$tuple@HHW4arch_t@@@std@@P8DCTFFTW@@AEXPAEHPAM@ZU?$less@V?$tuple@HHW4arch_t@@@std@@@2@V?$allocator@U?$pair@$$CBV?$tuple@HHW4arch_t@@@std@@P8DCTFFTW@@AEXPAEHPAM@Z@std@@@2@$0A@@std@@@std@@QAEPAU?$_Tree_node@U?$pair@$$CBV?$tuple@HHW4arch_t@@@std@@P8DCTFFTW@@AEXPAEHPAM@Z@std@@PAX@2@XZ ; std::_Tree_comp_alloc<std::_Tmap_traits<std::tuple<int,int,enum arch_t>,void (__thiscall DCTFFTW::*)(unsigned char *,int,float *),std::less<std::tuple<int,int,enum arch_t> >,std::allocator<std::pair<std::tuple<int,int,enum arch_t> const ,void (__thiscall DCTFFTW::*)(unsigned char *,int,float *)> >,0> >::_Buyheadnode
PUBLIC	?_Myhead@?$_Tree_comp_alloc@V?$_Tmap_traits@V?$tuple@HHW4arch_t@@@std@@P8DCTFFTW@@AEXPAEHPAM@ZU?$less@V?$tuple@HHW4arch_t@@@std@@@2@V?$allocator@U?$pair@$$CBV?$tuple@HHW4arch_t@@@std@@P8DCTFFTW@@AEXPAEHPAM@Z@std@@@2@$0A@@std@@@std@@QBEABQAU?$_Tree_node@U?$pair@$$CBV?$tuple@HHW4arch_t@@@std@@P8DCTFFTW@@AEXPAEHPAM@Z@std@@PAX@2@XZ ; std::_Tree_comp_alloc<std::_Tmap_traits<std::tuple<int,int,enum arch_t>,void (__thiscall DCTFFTW::*)(unsigned char *,int,float *),std::less<std::tuple<int,int,enum arch_t> >,std::allocator<std::pair<std::tuple<int,int,enum arch_t> const ,void (__thiscall DCTFFTW::*)(unsigned char *,int,float *)> >,0> >::_Myhead
PUBLIC	?_Mysize@?$_Tree_comp_alloc@V?$_Tmap_traits@V?$tuple@HHW4arch_t@@@std@@P8DCTFFTW@@AEXPAEHPAM@ZU?$less@V?$tuple@HHW4arch_t@@@std@@@2@V?$allocator@U?$pair@$$CBV?$tuple@HHW4arch_t@@@std@@P8DCTFFTW@@AEXPAEHPAM@Z@std@@@2@$0A@@std@@@std@@QAEAAIXZ ; std::_Tree_comp_alloc<std::_Tmap_traits<std::tuple<int,int,enum arch_t>,void (__thiscall DCTFFTW::*)(unsigned char *,int,float *),std::less<std::tuple<int,int,enum arch_t> >,std::allocator<std::pair<std::tuple<int,int,enum arch_t> const ,void (__thiscall DCTFFTW::*)(unsigned char *,int,float *)> >,0> >::_Mysize
PUBLIC	?deallocate@?$allocator@U?$_Tree_node@U?$pair@$$CBV?$tuple@HHW4arch_t@@@std@@P8DCTFFTW@@AEXPAEHPAM@Z@std@@PAX@std@@@std@@QAEXPAU?$_Tree_node@U?$pair@$$CBV?$tuple@HHW4arch_t@@@std@@P8DCTFFTW@@AEXPAEHPAM@Z@std@@PAX@2@I@Z ; std::allocator<std::_Tree_node<std::pair<std::tuple<int,int,enum arch_t> const ,void (__thiscall DCTFFTW::*)(unsigned char *,int,float *)>,void *> >::deallocate
PUBLIC	?_Left@?$_Tree_val@U?$_Tree_simple_types@U?$pair@$$CBV?$tuple@HHW4arch_t@@@std@@P8DCTFFTW@@AEXPAEHPAM@Z@std@@@std@@@std@@SAAAPAU?$_Tree_node@U?$pair@$$CBV?$tuple@HHW4arch_t@@@std@@P8DCTFFTW@@AEXPAEHPAM@Z@std@@PAX@2@PAU32@@Z ; std::_Tree_val<std::_Tree_simple_types<std::pair<std::tuple<int,int,enum arch_t> const ,void (__thiscall DCTFFTW::*)(unsigned char *,int,float *)> > >::_Left
PUBLIC	?_Parent@?$_Tree_val@U?$_Tree_simple_types@U?$pair@$$CBV?$tuple@HHW4arch_t@@@std@@P8DCTFFTW@@AEXPAEHPAM@Z@std@@@std@@@std@@SAAAPAU?$_Tree_node@U?$pair@$$CBV?$tuple@HHW4arch_t@@@std@@P8DCTFFTW@@AEXPAEHPAM@Z@std@@PAX@2@PAU32@@Z ; std::_Tree_val<std::_Tree_simple_types<std::pair<std::tuple<int,int,enum arch_t> const ,void (__thiscall DCTFFTW::*)(unsigned char *,int,float *)> > >::_Parent
PUBLIC	?_Right@?$_Tree_val@U?$_Tree_simple_types@U?$pair@$$CBV?$tuple@HHW4arch_t@@@std@@P8DCTFFTW@@AEXPAEHPAM@Z@std@@@std@@@std@@SAAAPAU?$_Tree_node@U?$pair@$$CBV?$tuple@HHW4arch_t@@@std@@P8DCTFFTW@@AEXPAEHPAM@Z@std@@PAX@2@PAU32@@Z ; std::_Tree_val<std::_Tree_simple_types<std::pair<std::tuple<int,int,enum arch_t> const ,void (__thiscall DCTFFTW::*)(unsigned char *,int,float *)> > >::_Right
PUBLIC	?_Myval@?$_Tree_val@U?$_Tree_simple_types@U?$pair@$$CBV?$tuple@HHW4arch_t@@@std@@P8DCTFFTW@@AEXPAEHPAM@Z@std@@@std@@@std@@SAAAU?$pair@$$CBV?$tuple@HHW4arch_t@@@std@@P8DCTFFTW@@AEXPAEHPAM@Z@2@PAU?$_Tree_node@U?$pair@$$CBV?$tuple@HHW4arch_t@@@std@@P8DCTFFTW@@AEXPAEHPAM@Z@std@@PAX@2@@Z ; std::_Tree_val<std::_Tree_simple_types<std::pair<std::tuple<int,int,enum arch_t> const ,void (__thiscall DCTFFTW::*)(unsigned char *,int,float *)> > >::_Myval
PUBLIC	??0?$_Tree_const_iterator@V?$_Tree_val@U?$_Tree_simple_types@U?$pair@$$CBV?$tuple@HHW4arch_t@@@std@@P8DCTFFTW@@AEXPAEHPAM@Z@std@@@std@@@std@@@std@@QAE@PAU?$_Tree_node@U?$pair@$$CBV?$tuple@HHW4arch_t@@@std@@P8DCTFFTW@@AEXPAEHPAM@Z@std@@PAX@1@PBV?$_Tree_val@U?$_Tree_simple_types@U?$pair@$$CBV?$tuple@HHW4arch_t@@@std@@P8DCTFFTW@@AEXPAEHPAM@Z@std@@@std@@@1@@Z ; std::_Tree_const_iterator<std::_Tree_val<std::_Tree_simple_types<std::pair<std::tuple<int,int,enum arch_t> const ,void (__thiscall DCTFFTW::*)(unsigned char *,int,float *)> > > >::_Tree_const_iterator<std::_Tree_val<std::_Tree_simple_types<std::pair<std::tuple<int,int,enum arch_t> const ,void (__thiscall DCTFFTW::*)(unsigned char *,int,float *)> > > >
PUBLIC	??E?$_Tree_const_iterator@V?$_Tree_val@U?$_Tree_simple_types@U?$pair@$$CBV?$tuple@HHW4arch_t@@@std@@P8DCTFFTW@@AEXPAEHPAM@Z@std@@@std@@@std@@@std@@QAEAAV01@XZ ; std::_Tree_const_iterator<std::_Tree_val<std::_Tree_simple_types<std::pair<std::tuple<int,int,enum arch_t> const ,void (__thiscall DCTFFTW::*)(unsigned char *,int,float *)> > > >::operator++
PUBLIC	?_Get_first@?$_Compressed_pair@U?$_Wrap_alloc@V?$allocator@U?$_Tree_node@U?$pair@$$CBV?$tuple@HHW4arch_t@@@std@@P8DCTFFTW@@AEXPAEHPAM@Z@std@@PAX@std@@@std@@@std@@V?$_Tree_val@U?$_Tree_simple_types@U?$pair@$$CBV?$tuple@HHW4arch_t@@@std@@P8DCTFFTW@@AEXPAEHPAM@Z@std@@@std@@@2@$00@std@@QAEAAU?$_Wrap_alloc@V?$allocator@U?$_Tree_node@U?$pair@$$CBV?$tuple@HHW4arch_t@@@std@@P8DCTFFTW@@AEXPAEHPAM@Z@std@@PAX@std@@@std@@@2@XZ ; std::_Compressed_pair<std::_Wrap_alloc<std::allocator<std::_Tree_node<std::pair<std::tuple<int,int,enum arch_t> const ,void (__thiscall DCTFFTW::*)(unsigned char *,int,float *)>,void *> > >,std::_Tree_val<std::_Tree_simple_types<std::pair<std::tuple<int,int,enum arch_t> const ,void (__thiscall DCTFFTW::*)(unsigned char *,int,float *)> > >,1>::_Get_first
PUBLIC	?_Get_second@?$_Compressed_pair@U?$_Wrap_alloc@V?$allocator@U?$_Tree_node@U?$pair@$$CBV?$tuple@HHW4arch_t@@@std@@P8DCTFFTW@@AEXPAEHPAM@Z@std@@PAX@std@@@std@@@std@@V?$_Tree_val@U?$_Tree_simple_types@U?$pair@$$CBV?$tuple@HHW4arch_t@@@std@@P8DCTFFTW@@AEXPAEHPAM@Z@std@@@std@@@2@$00@std@@QAEAAV?$_Tree_val@U?$_Tree_simple_types@U?$pair@$$CBV?$tuple@HHW4arch_t@@@std@@P8DCTFFTW@@AEXPAEHPAM@Z@std@@@std@@@2@XZ ; std::_Compressed_pair<std::_Wrap_alloc<std::allocator<std::_Tree_node<std::pair<std::tuple<int,int,enum arch_t> const ,void (__thiscall DCTFFTW::*)(unsigned char *,int,float *)>,void *> > >,std::_Tree_val<std::_Tree_simple_types<std::pair<std::tuple<int,int,enum arch_t> const ,void (__thiscall DCTFFTW::*)(unsigned char *,int,float *)> > >,1>::_Get_second
PUBLIC	?_Get_second@?$_Compressed_pair@U?$less@V?$tuple@HHW4arch_t@@@std@@@std@@V?$_Compressed_pair@U?$_Wrap_alloc@V?$allocator@U?$_Tree_node@U?$pair@$$CBV?$tuple@HHW4arch_t@@@std@@P8DCTFFTW@@AEXPAEHPAM@Z@std@@PAX@std@@@std@@@std@@V?$_Tree_val@U?$_Tree_simple_types@U?$pair@$$CBV?$tuple@HHW4arch_t@@@std@@P8DCTFFTW@@AEXPAEHPAM@Z@std@@@std@@@2@$00@2@$00@std@@QAEAAV?$_Compressed_pair@U?$_Wrap_alloc@V?$allocator@U?$_Tree_node@U?$pair@$$CBV?$tuple@HHW4arch_t@@@std@@P8DCTFFTW@@AEXPAEHPAM@Z@std@@PAX@std@@@std@@@std@@V?$_Tree_val@U?$_Tree_simple_types@U?$pair@$$CBV?$tuple@HHW4arch_t@@@std@@P8DCTFFTW@@AEXPAEHPAM@Z@std@@@std@@@2@$00@2@XZ ; std::_Compressed_pair<std::less<std::tuple<int,int,enum arch_t> >,std::_Compressed_pair<std::_Wrap_alloc<std::allocator<std::_Tree_node<std::pair<std::tuple<int,int,enum arch_t> const ,void (__thiscall DCTFFTW::*)(unsigned char *,int,float *)>,void *> > >,std::_Tree_val<std::_Tree_simple_types<std::pair<std::tuple<int,int,enum arch_t> const ,void (__thiscall DCTFFTW::*)(unsigned char *,int,float *)> > >,1>,1>::_Get_second
PUBLIC	?_Erase@?$_Tree@V?$_Tmap_traits@V?$tuple@HHW4arch_t@@@std@@P8DCTFFTW@@AEXPBEHPAM@ZU?$less@V?$tuple@HHW4arch_t@@@std@@@2@V?$allocator@U?$pair@$$CBV?$tuple@HHW4arch_t@@@std@@P8DCTFFTW@@AEXPBEHPAM@Z@std@@@2@$0A@@std@@@std@@IAEXPAU?$_Tree_node@U?$pair@$$CBV?$tuple@HHW4arch_t@@@std@@P8DCTFFTW@@AEXPBEHPAM@Z@std@@PAX@2@@Z ; std::_Tree<std::_Tmap_traits<std::tuple<int,int,enum arch_t>,void (__thiscall DCTFFTW::*)(unsigned char const *,int,float *),std::less<std::tuple<int,int,enum arch_t> >,std::allocator<std::pair<std::tuple<int,int,enum arch_t> const ,void (__thiscall DCTFFTW::*)(unsigned char const *,int,float *)> >,0> >::_Erase
PUBLIC	?_Lrotate@?$_Tree@V?$_Tmap_traits@V?$tuple@HHW4arch_t@@@std@@P8DCTFFTW@@AEXPBEHPAM@ZU?$less@V?$tuple@HHW4arch_t@@@std@@@2@V?$allocator@U?$pair@$$CBV?$tuple@HHW4arch_t@@@std@@P8DCTFFTW@@AEXPBEHPAM@Z@std@@@2@$0A@@std@@@std@@IAEXPAU?$_Tree_node@U?$pair@$$CBV?$tuple@HHW4arch_t@@@std@@P8DCTFFTW@@AEXPBEHPAM@Z@std@@PAX@2@@Z ; std::_Tree<std::_Tmap_traits<std::tuple<int,int,enum arch_t>,void (__thiscall DCTFFTW::*)(unsigned char const *,int,float *),std::less<std::tuple<int,int,enum arch_t> >,std::allocator<std::pair<std::tuple<int,int,enum arch_t> const ,void (__thiscall DCTFFTW::*)(unsigned char const *,int,float *)> >,0> >::_Lrotate
PUBLIC	?_Rmost@?$_Tree@V?$_Tmap_traits@V?$tuple@HHW4arch_t@@@std@@P8DCTFFTW@@AEXPBEHPAM@ZU?$less@V?$tuple@HHW4arch_t@@@std@@@2@V?$allocator@U?$pair@$$CBV?$tuple@HHW4arch_t@@@std@@P8DCTFFTW@@AEXPBEHPAM@Z@std@@@2@$0A@@std@@@std@@IBEAAPAU?$_Tree_node@U?$pair@$$CBV?$tuple@HHW4arch_t@@@std@@P8DCTFFTW@@AEXPBEHPAM@Z@std@@PAX@2@XZ ; std::_Tree<std::_Tmap_traits<std::tuple<int,int,enum arch_t>,void (__thiscall DCTFFTW::*)(unsigned char const *,int,float *),std::less<std::tuple<int,int,enum arch_t> >,std::allocator<std::pair<std::tuple<int,int,enum arch_t> const ,void (__thiscall DCTFFTW::*)(unsigned char const *,int,float *)> >,0> >::_Rmost
PUBLIC	?_Root@?$_Tree@V?$_Tmap_traits@V?$tuple@HHW4arch_t@@@std@@P8DCTFFTW@@AEXPBEHPAM@ZU?$less@V?$tuple@HHW4arch_t@@@std@@@2@V?$allocator@U?$pair@$$CBV?$tuple@HHW4arch_t@@@std@@P8DCTFFTW@@AEXPBEHPAM@Z@std@@@2@$0A@@std@@@std@@IBEAAPAU?$_Tree_node@U?$pair@$$CBV?$tuple@HHW4arch_t@@@std@@P8DCTFFTW@@AEXPBEHPAM@Z@std@@PAX@2@XZ ; std::_Tree<std::_Tmap_traits<std::tuple<int,int,enum arch_t>,void (__thiscall DCTFFTW::*)(unsigned char const *,int,float *),std::less<std::tuple<int,int,enum arch_t> >,std::allocator<std::pair<std::tuple<int,int,enum arch_t> const ,void (__thiscall DCTFFTW::*)(unsigned char const *,int,float *)> >,0> >::_Root
PUBLIC	?_Rrotate@?$_Tree@V?$_Tmap_traits@V?$tuple@HHW4arch_t@@@std@@P8DCTFFTW@@AEXPBEHPAM@ZU?$less@V?$tuple@HHW4arch_t@@@std@@@2@V?$allocator@U?$pair@$$CBV?$tuple@HHW4arch_t@@@std@@P8DCTFFTW@@AEXPBEHPAM@Z@std@@@2@$0A@@std@@@std@@IAEXPAU?$_Tree_node@U?$pair@$$CBV?$tuple@HHW4arch_t@@@std@@P8DCTFFTW@@AEXPBEHPAM@Z@std@@PAX@2@@Z ; std::_Tree<std::_Tmap_traits<std::tuple<int,int,enum arch_t>,void (__thiscall DCTFFTW::*)(unsigned char const *,int,float *),std::less<std::tuple<int,int,enum arch_t> >,std::allocator<std::pair<std::tuple<int,int,enum arch_t> const ,void (__thiscall DCTFFTW::*)(unsigned char const *,int,float *)> >,0> >::_Rrotate
PUBLIC	?_Color@?$_Tree_comp_alloc@V?$_Tmap_traits@V?$tuple@HHW4arch_t@@@std@@P8DCTFFTW@@AEXPBEHPAM@ZU?$less@V?$tuple@HHW4arch_t@@@std@@@2@V?$allocator@U?$pair@$$CBV?$tuple@HHW4arch_t@@@std@@P8DCTFFTW@@AEXPBEHPAM@Z@std@@@2@$0A@@std@@@std@@SAAADPAU?$_Tree_node@U?$pair@$$CBV?$tuple@HHW4arch_t@@@std@@P8DCTFFTW@@AEXPBEHPAM@Z@std@@PAX@2@@Z ; std::_Tree_comp_alloc<std::_Tmap_traits<std::tuple<int,int,enum arch_t>,void (__thiscall DCTFFTW::*)(unsigned char const *,int,float *),std::less<std::tuple<int,int,enum arch_t> >,std::allocator<std::pair<std::tuple<int,int,enum arch_t> const ,void (__thiscall DCTFFTW::*)(unsigned char const *,int,float *)> >,0> >::_Color
PUBLIC	?_Isnil@?$_Tree_comp_alloc@V?$_Tmap_traits@V?$tuple@HHW4arch_t@@@std@@P8DCTFFTW@@AEXPBEHPAM@ZU?$less@V?$tuple@HHW4arch_t@@@std@@@2@V?$allocator@U?$pair@$$CBV?$tuple@HHW4arch_t@@@std@@P8DCTFFTW@@AEXPBEHPAM@Z@std@@@2@$0A@@std@@@std@@SAAADPAU?$_Tree_node@U?$pair@$$CBV?$tuple@HHW4arch_t@@@std@@P8DCTFFTW@@AEXPBEHPAM@Z@std@@PAX@2@@Z ; std::_Tree_comp_alloc<std::_Tmap_traits<std::tuple<int,int,enum arch_t>,void (__thiscall DCTFFTW::*)(unsigned char const *,int,float *),std::less<std::tuple<int,int,enum arch_t> >,std::allocator<std::pair<std::tuple<int,int,enum arch_t> const ,void (__thiscall DCTFFTW::*)(unsigned char const *,int,float *)> >,0> >::_Isnil
PUBLIC	?_Myval@?$_Tree_comp_alloc@V?$_Tmap_traits@V?$tuple@HHW4arch_t@@@std@@P8DCTFFTW@@AEXPBEHPAM@ZU?$less@V?$tuple@HHW4arch_t@@@std@@@2@V?$allocator@U?$pair@$$CBV?$tuple@HHW4arch_t@@@std@@P8DCTFFTW@@AEXPBEHPAM@Z@std@@@2@$0A@@std@@@std@@SAAAU?$pair@$$CBV?$tuple@HHW4arch_t@@@std@@P8DCTFFTW@@AEXPBEHPAM@Z@2@PAU?$_Tree_node@U?$pair@$$CBV?$tuple@HHW4arch_t@@@std@@P8DCTFFTW@@AEXPBEHPAM@Z@std@@PAX@2@@Z ; std::_Tree_comp_alloc<std::_Tmap_traits<std::tuple<int,int,enum arch_t>,void (__thiscall DCTFFTW::*)(unsigned char const *,int,float *),std::less<std::tuple<int,int,enum arch_t> >,std::allocator<std::pair<std::tuple<int,int,enum arch_t> const ,void (__thiscall DCTFFTW::*)(unsigned char const *,int,float *)> >,0> >::_Myval
PUBLIC	?_Max@?$_Tree_comp_alloc@V?$_Tmap_traits@V?$tuple@HHW4arch_t@@@std@@P8DCTFFTW@@AEXPBEHPAM@ZU?$less@V?$tuple@HHW4arch_t@@@std@@@2@V?$allocator@U?$pair@$$CBV?$tuple@HHW4arch_t@@@std@@P8DCTFFTW@@AEXPBEHPAM@Z@std@@@2@$0A@@std@@@std@@SAPAU?$_Tree_node@U?$pair@$$CBV?$tuple@HHW4arch_t@@@std@@P8DCTFFTW@@AEXPBEHPAM@Z@std@@PAX@2@PAU32@@Z ; std::_Tree_comp_alloc<std::_Tmap_traits<std::tuple<int,int,enum arch_t>,void (__thiscall DCTFFTW::*)(unsigned char const *,int,float *),std::less<std::tuple<int,int,enum arch_t> >,std::allocator<std::pair<std::tuple<int,int,enum arch_t> const ,void (__thiscall DCTFFTW::*)(unsigned char const *,int,float *)> >,0> >::_Max
PUBLIC	?_Min@?$_Tree_comp_alloc@V?$_Tmap_traits@V?$tuple@HHW4arch_t@@@std@@P8DCTFFTW@@AEXPBEHPAM@ZU?$less@V?$tuple@HHW4arch_t@@@std@@@2@V?$allocator@U?$pair@$$CBV?$tuple@HHW4arch_t@@@std@@P8DCTFFTW@@AEXPBEHPAM@Z@std@@@2@$0A@@std@@@std@@SAPAU?$_Tree_node@U?$pair@$$CBV?$tuple@HHW4arch_t@@@std@@P8DCTFFTW@@AEXPBEHPAM@Z@std@@PAX@2@PAU32@@Z ; std::_Tree_comp_alloc<std::_Tmap_traits<std::tuple<int,int,enum arch_t>,void (__thiscall DCTFFTW::*)(unsigned char const *,int,float *),std::less<std::tuple<int,int,enum arch_t> >,std::allocator<std::pair<std::tuple<int,int,enum arch_t> const ,void (__thiscall DCTFFTW::*)(unsigned char const *,int,float *)> >,0> >::_Min
PUBLIC	?_Buyheadnode@?$_Tree_comp_alloc@V?$_Tmap_traits@V?$tuple@HHW4arch_t@@@std@@P8DCTFFTW@@AEXPBEHPAM@ZU?$less@V?$tuple@HHW4arch_t@@@std@@@2@V?$allocator@U?$pair@$$CBV?$tuple@HHW4arch_t@@@std@@P8DCTFFTW@@AEXPBEHPAM@Z@std@@@2@$0A@@std@@@std@@QAEPAU?$_Tree_node@U?$pair@$$CBV?$tuple@HHW4arch_t@@@std@@P8DCTFFTW@@AEXPBEHPAM@Z@std@@PAX@2@XZ ; std::_Tree_comp_alloc<std::_Tmap_traits<std::tuple<int,int,enum arch_t>,void (__thiscall DCTFFTW::*)(unsigned char const *,int,float *),std::less<std::tuple<int,int,enum arch_t> >,std::allocator<std::pair<std::tuple<int,int,enum arch_t> const ,void (__thiscall DCTFFTW::*)(unsigned char const *,int,float *)> >,0> >::_Buyheadnode
PUBLIC	?_Myhead@?$_Tree_comp_alloc@V?$_Tmap_traits@V?$tuple@HHW4arch_t@@@std@@P8DCTFFTW@@AEXPBEHPAM@ZU?$less@V?$tuple@HHW4arch_t@@@std@@@2@V?$allocator@U?$pair@$$CBV?$tuple@HHW4arch_t@@@std@@P8DCTFFTW@@AEXPBEHPAM@Z@std@@@2@$0A@@std@@@std@@QBEABQAU?$_Tree_node@U?$pair@$$CBV?$tuple@HHW4arch_t@@@std@@P8DCTFFTW@@AEXPBEHPAM@Z@std@@PAX@2@XZ ; std::_Tree_comp_alloc<std::_Tmap_traits<std::tuple<int,int,enum arch_t>,void (__thiscall DCTFFTW::*)(unsigned char const *,int,float *),std::less<std::tuple<int,int,enum arch_t> >,std::allocator<std::pair<std::tuple<int,int,enum arch_t> const ,void (__thiscall DCTFFTW::*)(unsigned char const *,int,float *)> >,0> >::_Myhead
PUBLIC	?_Mysize@?$_Tree_comp_alloc@V?$_Tmap_traits@V?$tuple@HHW4arch_t@@@std@@P8DCTFFTW@@AEXPBEHPAM@ZU?$less@V?$tuple@HHW4arch_t@@@std@@@2@V?$allocator@U?$pair@$$CBV?$tuple@HHW4arch_t@@@std@@P8DCTFFTW@@AEXPBEHPAM@Z@std@@@2@$0A@@std@@@std@@QAEAAIXZ ; std::_Tree_comp_alloc<std::_Tmap_traits<std::tuple<int,int,enum arch_t>,void (__thiscall DCTFFTW::*)(unsigned char const *,int,float *),std::less<std::tuple<int,int,enum arch_t> >,std::allocator<std::pair<std::tuple<int,int,enum arch_t> const ,void (__thiscall DCTFFTW::*)(unsigned char const *,int,float *)> >,0> >::_Mysize
PUBLIC	?deallocate@?$allocator@U?$_Tree_node@U?$pair@$$CBV?$tuple@HHW4arch_t@@@std@@P8DCTFFTW@@AEXPBEHPAM@Z@std@@PAX@std@@@std@@QAEXPAU?$_Tree_node@U?$pair@$$CBV?$tuple@HHW4arch_t@@@std@@P8DCTFFTW@@AEXPBEHPAM@Z@std@@PAX@2@I@Z ; std::allocator<std::_Tree_node<std::pair<std::tuple<int,int,enum arch_t> const ,void (__thiscall DCTFFTW::*)(unsigned char const *,int,float *)>,void *> >::deallocate
PUBLIC	?_Left@?$_Tree_val@U?$_Tree_simple_types@U?$pair@$$CBV?$tuple@HHW4arch_t@@@std@@P8DCTFFTW@@AEXPBEHPAM@Z@std@@@std@@@std@@SAAAPAU?$_Tree_node@U?$pair@$$CBV?$tuple@HHW4arch_t@@@std@@P8DCTFFTW@@AEXPBEHPAM@Z@std@@PAX@2@PAU32@@Z ; std::_Tree_val<std::_Tree_simple_types<std::pair<std::tuple<int,int,enum arch_t> const ,void (__thiscall DCTFFTW::*)(unsigned char const *,int,float *)> > >::_Left
PUBLIC	?_Parent@?$_Tree_val@U?$_Tree_simple_types@U?$pair@$$CBV?$tuple@HHW4arch_t@@@std@@P8DCTFFTW@@AEXPBEHPAM@Z@std@@@std@@@std@@SAAAPAU?$_Tree_node@U?$pair@$$CBV?$tuple@HHW4arch_t@@@std@@P8DCTFFTW@@AEXPBEHPAM@Z@std@@PAX@2@PAU32@@Z ; std::_Tree_val<std::_Tree_simple_types<std::pair<std::tuple<int,int,enum arch_t> const ,void (__thiscall DCTFFTW::*)(unsigned char const *,int,float *)> > >::_Parent
PUBLIC	?_Right@?$_Tree_val@U?$_Tree_simple_types@U?$pair@$$CBV?$tuple@HHW4arch_t@@@std@@P8DCTFFTW@@AEXPBEHPAM@Z@std@@@std@@@std@@SAAAPAU?$_Tree_node@U?$pair@$$CBV?$tuple@HHW4arch_t@@@std@@P8DCTFFTW@@AEXPBEHPAM@Z@std@@PAX@2@PAU32@@Z ; std::_Tree_val<std::_Tree_simple_types<std::pair<std::tuple<int,int,enum arch_t> const ,void (__thiscall DCTFFTW::*)(unsigned char const *,int,float *)> > >::_Right
PUBLIC	?_Myval@?$_Tree_val@U?$_Tree_simple_types@U?$pair@$$CBV?$tuple@HHW4arch_t@@@std@@P8DCTFFTW@@AEXPBEHPAM@Z@std@@@std@@@std@@SAAAU?$pair@$$CBV?$tuple@HHW4arch_t@@@std@@P8DCTFFTW@@AEXPBEHPAM@Z@2@PAU?$_Tree_node@U?$pair@$$CBV?$tuple@HHW4arch_t@@@std@@P8DCTFFTW@@AEXPBEHPAM@Z@std@@PAX@2@@Z ; std::_Tree_val<std::_Tree_simple_types<std::pair<std::tuple<int,int,enum arch_t> const ,void (__thiscall DCTFFTW::*)(unsigned char const *,int,float *)> > >::_Myval
PUBLIC	??0?$_Tree_const_iterator@V?$_Tree_val@U?$_Tree_simple_types@U?$pair@$$CBV?$tuple@HHW4arch_t@@@std@@P8DCTFFTW@@AEXPBEHPAM@Z@std@@@std@@@std@@@std@@QAE@PAU?$_Tree_node@U?$pair@$$CBV?$tuple@HHW4arch_t@@@std@@P8DCTFFTW@@AEXPBEHPAM@Z@std@@PAX@1@PBV?$_Tree_val@U?$_Tree_simple_types@U?$pair@$$CBV?$tuple@HHW4arch_t@@@std@@P8DCTFFTW@@AEXPBEHPAM@Z@std@@@std@@@1@@Z ; std::_Tree_const_iterator<std::_Tree_val<std::_Tree_simple_types<std::pair<std::tuple<int,int,enum arch_t> const ,void (__thiscall DCTFFTW::*)(unsigned char const *,int,float *)> > > >::_Tree_const_iterator<std::_Tree_val<std::_Tree_simple_types<std::pair<std::tuple<int,int,enum arch_t> const ,void (__thiscall DCTFFTW::*)(unsigned char const *,int,float *)> > > >
PUBLIC	??E?$_Tree_const_iterator@V?$_Tree_val@U?$_Tree_simple_types@U?$pair@$$CBV?$tuple@HHW4arch_t@@@std@@P8DCTFFTW@@AEXPBEHPAM@Z@std@@@std@@@std@@@std@@QAEAAV01@XZ ; std::_Tree_const_iterator<std::_Tree_val<std::_Tree_simple_types<std::pair<std::tuple<int,int,enum arch_t> const ,void (__thiscall DCTFFTW::*)(unsigned char const *,int,float *)> > > >::operator++
PUBLIC	?_Get_first@?$_Compressed_pair@U?$_Wrap_alloc@V?$allocator@U?$_Tree_node@U?$pair@$$CBV?$tuple@HHW4arch_t@@@std@@P8DCTFFTW@@AEXPBEHPAM@Z@std@@PAX@std@@@std@@@std@@V?$_Tree_val@U?$_Tree_simple_types@U?$pair@$$CBV?$tuple@HHW4arch_t@@@std@@P8DCTFFTW@@AEXPBEHPAM@Z@std@@@std@@@2@$00@std@@QAEAAU?$_Wrap_alloc@V?$allocator@U?$_Tree_node@U?$pair@$$CBV?$tuple@HHW4arch_t@@@std@@P8DCTFFTW@@AEXPBEHPAM@Z@std@@PAX@std@@@std@@@2@XZ ; std::_Compressed_pair<std::_Wrap_alloc<std::allocator<std::_Tree_node<std::pair<std::tuple<int,int,enum arch_t> const ,void (__thiscall DCTFFTW::*)(unsigned char const *,int,float *)>,void *> > >,std::_Tree_val<std::_Tree_simple_types<std::pair<std::tuple<int,int,enum arch_t> const ,void (__thiscall DCTFFTW::*)(unsigned char const *,int,float *)> > >,1>::_Get_first
PUBLIC	?_Get_second@?$_Compressed_pair@U?$_Wrap_alloc@V?$allocator@U?$_Tree_node@U?$pair@$$CBV?$tuple@HHW4arch_t@@@std@@P8DCTFFTW@@AEXPBEHPAM@Z@std@@PAX@std@@@std@@@std@@V?$_Tree_val@U?$_Tree_simple_types@U?$pair@$$CBV?$tuple@HHW4arch_t@@@std@@P8DCTFFTW@@AEXPBEHPAM@Z@std@@@std@@@2@$00@std@@QAEAAV?$_Tree_val@U?$_Tree_simple_types@U?$pair@$$CBV?$tuple@HHW4arch_t@@@std@@P8DCTFFTW@@AEXPBEHPAM@Z@std@@@std@@@2@XZ ; std::_Compressed_pair<std::_Wrap_alloc<std::allocator<std::_Tree_node<std::pair<std::tuple<int,int,enum arch_t> const ,void (__thiscall DCTFFTW::*)(unsigned char const *,int,float *)>,void *> > >,std::_Tree_val<std::_Tree_simple_types<std::pair<std::tuple<int,int,enum arch_t> const ,void (__thiscall DCTFFTW::*)(unsigned char const *,int,float *)> > >,1>::_Get_second
PUBLIC	?_Get_second@?$_Compressed_pair@U?$less@V?$tuple@HHW4arch_t@@@std@@@std@@V?$_Compressed_pair@U?$_Wrap_alloc@V?$allocator@U?$_Tree_node@U?$pair@$$CBV?$tuple@HHW4arch_t@@@std@@P8DCTFFTW@@AEXPBEHPAM@Z@std@@PAX@std@@@std@@@std@@V?$_Tree_val@U?$_Tree_simple_types@U?$pair@$$CBV?$tuple@HHW4arch_t@@@std@@P8DCTFFTW@@AEXPBEHPAM@Z@std@@@std@@@2@$00@2@$00@std@@QAEAAV?$_Compressed_pair@U?$_Wrap_alloc@V?$allocator@U?$_Tree_node@U?$pair@$$CBV?$tuple@HHW4arch_t@@@std@@P8DCTFFTW@@AEXPBEHPAM@Z@std@@PAX@std@@@std@@@std@@V?$_Tree_val@U?$_Tree_simple_types@U?$pair@$$CBV?$tuple@HHW4arch_t@@@std@@P8DCTFFTW@@AEXPBEHPAM@Z@std@@@std@@@2@$00@2@XZ ; std::_Compressed_pair<std::less<std::tuple<int,int,enum arch_t> >,std::_Compressed_pair<std::_Wrap_alloc<std::allocator<std::_Tree_node<std::pair<std::tuple<int,int,enum arch_t> const ,void (__thiscall DCTFFTW::*)(unsigned char const *,int,float *)>,void *> > >,std::_Tree_val<std::_Tree_simple_types<std::pair<std::tuple<int,int,enum arch_t> const ,void (__thiscall DCTFFTW::*)(unsigned char const *,int,float *)> > >,1>,1>::_Get_second
PUBLIC	?_Mynode@?$_Tree_unchecked_const_iterator@V?$_Tree_val@U?$_Tree_simple_types@U?$pair@$$CBV?$tuple@HHW4arch_t@@@std@@P8DCTFFTW@@AEXPBEHPAM@Z@std@@@std@@@std@@U_Iterator_base0@2@@std@@QBEPAU?$_Tree_node@U?$pair@$$CBV?$tuple@HHW4arch_t@@@std@@P8DCTFFTW@@AEXPBEHPAM@Z@std@@PAX@2@XZ ; std::_Tree_unchecked_const_iterator<std::_Tree_val<std::_Tree_simple_types<std::pair<std::tuple<int,int,enum arch_t> const ,void (__thiscall DCTFFTW::*)(unsigned char const *,int,float *)> > >,std::_Iterator_base0>::_Mynode
PUBLIC	?_Mynode@?$_Tree_unchecked_const_iterator@V?$_Tree_val@U?$_Tree_simple_types@U?$pair@$$CBV?$tuple@HHW4arch_t@@@std@@P8DCTFFTW@@AEXPAEHPAM@Z@std@@@std@@@std@@U_Iterator_base0@2@@std@@QBEPAU?$_Tree_node@U?$pair@$$CBV?$tuple@HHW4arch_t@@@std@@P8DCTFFTW@@AEXPAEHPAM@Z@std@@PAX@2@XZ ; std::_Tree_unchecked_const_iterator<std::_Tree_val<std::_Tree_simple_types<std::pair<std::tuple<int,int,enum arch_t> const ,void (__thiscall DCTFFTW::*)(unsigned char *,int,float *)> > >,std::_Iterator_base0>::_Mynode
PUBLIC	?erase@?$_Tree@V?$_Tmap_traits@V?$tuple@HHW4arch_t@@@std@@P8DCTFFTW@@AEXPAEHPAM@ZU?$less@V?$tuple@HHW4arch_t@@@std@@@2@V?$allocator@U?$pair@$$CBV?$tuple@HHW4arch_t@@@std@@P8DCTFFTW@@AEXPAEHPAM@Z@std@@@2@$0A@@std@@@std@@QAE?AV?$_Tree_iterator@V?$_Tree_val@U?$_Tree_simple_types@U?$pair@$$CBV?$tuple@HHW4arch_t@@@std@@P8DCTFFTW@@AEXPAEHPAM@Z@std@@@std@@@std@@@2@V?$_Tree_const_iterator@V?$_Tree_val@U?$_Tree_simple_types@U?$pair@$$CBV?$tuple@HHW4arch_t@@@std@@P8DCTFFTW@@AEXPAEHPAM@Z@std@@@std@@@std@@@2@@Z ; std::_Tree<std::_Tmap_traits<std::tuple<int,int,enum arch_t>,void (__thiscall DCTFFTW::*)(unsigned char *,int,float *),std::less<std::tuple<int,int,enum arch_t> >,std::allocator<std::pair<std::tuple<int,int,enum arch_t> const ,void (__thiscall DCTFFTW::*)(unsigned char *,int,float *)> >,0> >::erase
PUBLIC	?clear@?$_Tree@V?$_Tmap_traits@V?$tuple@HHW4arch_t@@@std@@P8DCTFFTW@@AEXPAEHPAM@ZU?$less@V?$tuple@HHW4arch_t@@@std@@@2@V?$allocator@U?$pair@$$CBV?$tuple@HHW4arch_t@@@std@@P8DCTFFTW@@AEXPAEHPAM@Z@std@@@2@$0A@@std@@@std@@QAEXXZ ; std::_Tree<std::_Tmap_traits<std::tuple<int,int,enum arch_t>,void (__thiscall DCTFFTW::*)(unsigned char *,int,float *),std::less<std::tuple<int,int,enum arch_t> >,std::allocator<std::pair<std::tuple<int,int,enum arch_t> const ,void (__thiscall DCTFFTW::*)(unsigned char *,int,float *)> >,0> >::clear
PUBLIC	?_Lmost@?$_Tree@V?$_Tmap_traits@V?$tuple@HHW4arch_t@@@std@@P8DCTFFTW@@AEXPAEHPAM@ZU?$less@V?$tuple@HHW4arch_t@@@std@@@2@V?$allocator@U?$pair@$$CBV?$tuple@HHW4arch_t@@@std@@P8DCTFFTW@@AEXPAEHPAM@Z@std@@@2@$0A@@std@@@std@@IBEAAPAU?$_Tree_node@U?$pair@$$CBV?$tuple@HHW4arch_t@@@std@@P8DCTFFTW@@AEXPAEHPAM@Z@std@@PAX@2@XZ ; std::_Tree<std::_Tmap_traits<std::tuple<int,int,enum arch_t>,void (__thiscall DCTFFTW::*)(unsigned char *,int,float *),std::less<std::tuple<int,int,enum arch_t> >,std::allocator<std::pair<std::tuple<int,int,enum arch_t> const ,void (__thiscall DCTFFTW::*)(unsigned char *,int,float *)> >,0> >::_Lmost
PUBLIC	?_Left@?$_Tree_comp_alloc@V?$_Tmap_traits@V?$tuple@HHW4arch_t@@@std@@P8DCTFFTW@@AEXPAEHPAM@ZU?$less@V?$tuple@HHW4arch_t@@@std@@@2@V?$allocator@U?$pair@$$CBV?$tuple@HHW4arch_t@@@std@@P8DCTFFTW@@AEXPAEHPAM@Z@std@@@2@$0A@@std@@@std@@SAAAPAU?$_Tree_node@U?$pair@$$CBV?$tuple@HHW4arch_t@@@std@@P8DCTFFTW@@AEXPAEHPAM@Z@std@@PAX@2@PAU32@@Z ; std::_Tree_comp_alloc<std::_Tmap_traits<std::tuple<int,int,enum arch_t>,void (__thiscall DCTFFTW::*)(unsigned char *,int,float *),std::less<std::tuple<int,int,enum arch_t> >,std::allocator<std::pair<std::tuple<int,int,enum arch_t> const ,void (__thiscall DCTFFTW::*)(unsigned char *,int,float *)> >,0> >::_Left
PUBLIC	?_Parent@?$_Tree_comp_alloc@V?$_Tmap_traits@V?$tuple@HHW4arch_t@@@std@@P8DCTFFTW@@AEXPAEHPAM@ZU?$less@V?$tuple@HHW4arch_t@@@std@@@2@V?$allocator@U?$pair@$$CBV?$tuple@HHW4arch_t@@@std@@P8DCTFFTW@@AEXPAEHPAM@Z@std@@@2@$0A@@std@@@std@@SAAAPAU?$_Tree_node@U?$pair@$$CBV?$tuple@HHW4arch_t@@@std@@P8DCTFFTW@@AEXPAEHPAM@Z@std@@PAX@2@PAU32@@Z ; std::_Tree_comp_alloc<std::_Tmap_traits<std::tuple<int,int,enum arch_t>,void (__thiscall DCTFFTW::*)(unsigned char *,int,float *),std::less<std::tuple<int,int,enum arch_t> >,std::allocator<std::pair<std::tuple<int,int,enum arch_t> const ,void (__thiscall DCTFFTW::*)(unsigned char *,int,float *)> >,0> >::_Parent
PUBLIC	?_Right@?$_Tree_comp_alloc@V?$_Tmap_traits@V?$tuple@HHW4arch_t@@@std@@P8DCTFFTW@@AEXPAEHPAM@ZU?$less@V?$tuple@HHW4arch_t@@@std@@@2@V?$allocator@U?$pair@$$CBV?$tuple@HHW4arch_t@@@std@@P8DCTFFTW@@AEXPAEHPAM@Z@std@@@2@$0A@@std@@@std@@SAAAPAU?$_Tree_node@U?$pair@$$CBV?$tuple@HHW4arch_t@@@std@@P8DCTFFTW@@AEXPAEHPAM@Z@std@@PAX@2@PAU32@@Z ; std::_Tree_comp_alloc<std::_Tmap_traits<std::tuple<int,int,enum arch_t>,void (__thiscall DCTFFTW::*)(unsigned char *,int,float *),std::less<std::tuple<int,int,enum arch_t> >,std::allocator<std::pair<std::tuple<int,int,enum arch_t> const ,void (__thiscall DCTFFTW::*)(unsigned char *,int,float *)> >,0> >::_Right
PUBLIC	?_Construct@?$_Tree_comp_alloc@V?$_Tmap_traits@V?$tuple@HHW4arch_t@@@std@@P8DCTFFTW@@AEXPAEHPAM@ZU?$less@V?$tuple@HHW4arch_t@@@std@@@2@V?$allocator@U?$pair@$$CBV?$tuple@HHW4arch_t@@@std@@P8DCTFFTW@@AEXPAEHPAM@Z@std@@@2@$0A@@std@@@std@@QAEXXZ ; std::_Tree_comp_alloc<std::_Tmap_traits<std::tuple<int,int,enum arch_t>,void (__thiscall DCTFFTW::*)(unsigned char *,int,float *),std::less<std::tuple<int,int,enum arch_t> >,std::allocator<std::pair<std::tuple<int,int,enum arch_t> const ,void (__thiscall DCTFFTW::*)(unsigned char *,int,float *)> >,0> >::_Construct
PUBLIC	?_Getal@?$_Tree_comp_alloc@V?$_Tmap_traits@V?$tuple@HHW4arch_t@@@std@@P8DCTFFTW@@AEXPAEHPAM@ZU?$less@V?$tuple@HHW4arch_t@@@std@@@2@V?$allocator@U?$pair@$$CBV?$tuple@HHW4arch_t@@@std@@P8DCTFFTW@@AEXPAEHPAM@Z@std@@@2@$0A@@std@@@std@@QAEAAU?$_Wrap_alloc@V?$allocator@U?$_Tree_node@U?$pair@$$CBV?$tuple@HHW4arch_t@@@std@@P8DCTFFTW@@AEXPAEHPAM@Z@std@@PAX@std@@@std@@@2@XZ ; std::_Tree_comp_alloc<std::_Tmap_traits<std::tuple<int,int,enum arch_t>,void (__thiscall DCTFFTW::*)(unsigned char *,int,float *),std::less<std::tuple<int,int,enum arch_t> >,std::allocator<std::pair<std::tuple<int,int,enum arch_t> const ,void (__thiscall DCTFFTW::*)(unsigned char *,int,float *)> >,0> >::_Getal
PUBLIC	?_Get_data@?$_Tree_comp_alloc@V?$_Tmap_traits@V?$tuple@HHW4arch_t@@@std@@P8DCTFFTW@@AEXPAEHPAM@ZU?$less@V?$tuple@HHW4arch_t@@@std@@@2@V?$allocator@U?$pair@$$CBV?$tuple@HHW4arch_t@@@std@@P8DCTFFTW@@AEXPAEHPAM@Z@std@@@2@$0A@@std@@@std@@QAEAAV?$_Tree_val@U?$_Tree_simple_types@U?$pair@$$CBV?$tuple@HHW4arch_t@@@std@@P8DCTFFTW@@AEXPAEHPAM@Z@std@@@std@@@2@XZ ; std::_Tree_comp_alloc<std::_Tmap_traits<std::tuple<int,int,enum arch_t>,void (__thiscall DCTFFTW::*)(unsigned char *,int,float *),std::less<std::tuple<int,int,enum arch_t> >,std::allocator<std::pair<std::tuple<int,int,enum arch_t> const ,void (__thiscall DCTFFTW::*)(unsigned char *,int,float *)> >,0> >::_Get_data
PUBLIC	?deallocate@?$_Wrap_alloc@V?$allocator@U?$_Tree_node@U?$pair@$$CBV?$tuple@HHW4arch_t@@@std@@P8DCTFFTW@@AEXPAEHPAM@Z@std@@PAX@std@@@std@@@std@@QAEXPAU?$_Tree_node@U?$pair@$$CBV?$tuple@HHW4arch_t@@@std@@P8DCTFFTW@@AEXPAEHPAM@Z@std@@PAX@2@I@Z ; std::_Wrap_alloc<std::allocator<std::_Tree_node<std::pair<std::tuple<int,int,enum arch_t> const ,void (__thiscall DCTFFTW::*)(unsigned char *,int,float *)>,void *> > >::deallocate
PUBLIC	??D?$_Tree_const_iterator@V?$_Tree_val@U?$_Tree_simple_types@U?$pair@$$CBV?$tuple@HHW4arch_t@@@std@@P8DCTFFTW@@AEXPAEHPAM@Z@std@@@std@@@std@@@std@@QBEABU?$pair@$$CBV?$tuple@HHW4arch_t@@@std@@P8DCTFFTW@@AEXPAEHPAM@Z@1@XZ ; std::_Tree_const_iterator<std::_Tree_val<std::_Tree_simple_types<std::pair<std::tuple<int,int,enum arch_t> const ,void (__thiscall DCTFFTW::*)(unsigned char *,int,float *)> > > >::operator*
PUBLIC	??E?$_Tree_const_iterator@V?$_Tree_val@U?$_Tree_simple_types@U?$pair@$$CBV?$tuple@HHW4arch_t@@@std@@P8DCTFFTW@@AEXPAEHPAM@Z@std@@@std@@@std@@@std@@QAE?AV01@H@Z ; std::_Tree_const_iterator<std::_Tree_val<std::_Tree_simple_types<std::pair<std::tuple<int,int,enum arch_t> const ,void (__thiscall DCTFFTW::*)(unsigned char *,int,float *)> > > >::operator++
PUBLIC	??8?$_Tree_const_iterator@V?$_Tree_val@U?$_Tree_simple_types@U?$pair@$$CBV?$tuple@HHW4arch_t@@@std@@P8DCTFFTW@@AEXPAEHPAM@Z@std@@@std@@@std@@@std@@QBE_NABV01@@Z ; std::_Tree_const_iterator<std::_Tree_val<std::_Tree_simple_types<std::pair<std::tuple<int,int,enum arch_t> const ,void (__thiscall DCTFFTW::*)(unsigned char *,int,float *)> > > >::operator==
PUBLIC	??9?$_Tree_const_iterator@V?$_Tree_val@U?$_Tree_simple_types@U?$pair@$$CBV?$tuple@HHW4arch_t@@@std@@P8DCTFFTW@@AEXPAEHPAM@Z@std@@@std@@@std@@@std@@QBE_NABV01@@Z ; std::_Tree_const_iterator<std::_Tree_val<std::_Tree_simple_types<std::pair<std::tuple<int,int,enum arch_t> const ,void (__thiscall DCTFFTW::*)(unsigned char *,int,float *)> > > >::operator!=
PUBLIC	??0?$_Tree_iterator@V?$_Tree_val@U?$_Tree_simple_types@U?$pair@$$CBV?$tuple@HHW4arch_t@@@std@@P8DCTFFTW@@AEXPAEHPAM@Z@std@@@std@@@std@@@std@@QAE@PAU?$_Tree_node@U?$pair@$$CBV?$tuple@HHW4arch_t@@@std@@P8DCTFFTW@@AEXPAEHPAM@Z@std@@PAX@1@PBV?$_Tree_val@U?$_Tree_simple_types@U?$pair@$$CBV?$tuple@HHW4arch_t@@@std@@P8DCTFFTW@@AEXPAEHPAM@Z@std@@@std@@@1@@Z ; std::_Tree_iterator<std::_Tree_val<std::_Tree_simple_types<std::pair<std::tuple<int,int,enum arch_t> const ,void (__thiscall DCTFFTW::*)(unsigned char *,int,float *)> > > >::_Tree_iterator<std::_Tree_val<std::_Tree_simple_types<std::pair<std::tuple<int,int,enum arch_t> const ,void (__thiscall DCTFFTW::*)(unsigned char *,int,float *)> > > >
PUBLIC	?erase@?$_Tree@V?$_Tmap_traits@V?$tuple@HHW4arch_t@@@std@@P8DCTFFTW@@AEXPBEHPAM@ZU?$less@V?$tuple@HHW4arch_t@@@std@@@2@V?$allocator@U?$pair@$$CBV?$tuple@HHW4arch_t@@@std@@P8DCTFFTW@@AEXPBEHPAM@Z@std@@@2@$0A@@std@@@std@@QAE?AV?$_Tree_iterator@V?$_Tree_val@U?$_Tree_simple_types@U?$pair@$$CBV?$tuple@HHW4arch_t@@@std@@P8DCTFFTW@@AEXPBEHPAM@Z@std@@@std@@@std@@@2@V?$_Tree_const_iterator@V?$_Tree_val@U?$_Tree_simple_types@U?$pair@$$CBV?$tuple@HHW4arch_t@@@std@@P8DCTFFTW@@AEXPBEHPAM@Z@std@@@std@@@std@@@2@@Z ; std::_Tree<std::_Tmap_traits<std::tuple<int,int,enum arch_t>,void (__thiscall DCTFFTW::*)(unsigned char const *,int,float *),std::less<std::tuple<int,int,enum arch_t> >,std::allocator<std::pair<std::tuple<int,int,enum arch_t> const ,void (__thiscall DCTFFTW::*)(unsigned char const *,int,float *)> >,0> >::erase
PUBLIC	?clear@?$_Tree@V?$_Tmap_traits@V?$tuple@HHW4arch_t@@@std@@P8DCTFFTW@@AEXPBEHPAM@ZU?$less@V?$tuple@HHW4arch_t@@@std@@@2@V?$allocator@U?$pair@$$CBV?$tuple@HHW4arch_t@@@std@@P8DCTFFTW@@AEXPBEHPAM@Z@std@@@2@$0A@@std@@@std@@QAEXXZ ; std::_Tree<std::_Tmap_traits<std::tuple<int,int,enum arch_t>,void (__thiscall DCTFFTW::*)(unsigned char const *,int,float *),std::less<std::tuple<int,int,enum arch_t> >,std::allocator<std::pair<std::tuple<int,int,enum arch_t> const ,void (__thiscall DCTFFTW::*)(unsigned char const *,int,float *)> >,0> >::clear
PUBLIC	?_Lmost@?$_Tree@V?$_Tmap_traits@V?$tuple@HHW4arch_t@@@std@@P8DCTFFTW@@AEXPBEHPAM@ZU?$less@V?$tuple@HHW4arch_t@@@std@@@2@V?$allocator@U?$pair@$$CBV?$tuple@HHW4arch_t@@@std@@P8DCTFFTW@@AEXPBEHPAM@Z@std@@@2@$0A@@std@@@std@@IBEAAPAU?$_Tree_node@U?$pair@$$CBV?$tuple@HHW4arch_t@@@std@@P8DCTFFTW@@AEXPBEHPAM@Z@std@@PAX@2@XZ ; std::_Tree<std::_Tmap_traits<std::tuple<int,int,enum arch_t>,void (__thiscall DCTFFTW::*)(unsigned char const *,int,float *),std::less<std::tuple<int,int,enum arch_t> >,std::allocator<std::pair<std::tuple<int,int,enum arch_t> const ,void (__thiscall DCTFFTW::*)(unsigned char const *,int,float *)> >,0> >::_Lmost
PUBLIC	?_Left@?$_Tree_comp_alloc@V?$_Tmap_traits@V?$tuple@HHW4arch_t@@@std@@P8DCTFFTW@@AEXPBEHPAM@ZU?$less@V?$tuple@HHW4arch_t@@@std@@@2@V?$allocator@U?$pair@$$CBV?$tuple@HHW4arch_t@@@std@@P8DCTFFTW@@AEXPBEHPAM@Z@std@@@2@$0A@@std@@@std@@SAAAPAU?$_Tree_node@U?$pair@$$CBV?$tuple@HHW4arch_t@@@std@@P8DCTFFTW@@AEXPBEHPAM@Z@std@@PAX@2@PAU32@@Z ; std::_Tree_comp_alloc<std::_Tmap_traits<std::tuple<int,int,enum arch_t>,void (__thiscall DCTFFTW::*)(unsigned char const *,int,float *),std::less<std::tuple<int,int,enum arch_t> >,std::allocator<std::pair<std::tuple<int,int,enum arch_t> const ,void (__thiscall DCTFFTW::*)(unsigned char const *,int,float *)> >,0> >::_Left
PUBLIC	?_Parent@?$_Tree_comp_alloc@V?$_Tmap_traits@V?$tuple@HHW4arch_t@@@std@@P8DCTFFTW@@AEXPBEHPAM@ZU?$less@V?$tuple@HHW4arch_t@@@std@@@2@V?$allocator@U?$pair@$$CBV?$tuple@HHW4arch_t@@@std@@P8DCTFFTW@@AEXPBEHPAM@Z@std@@@2@$0A@@std@@@std@@SAAAPAU?$_Tree_node@U?$pair@$$CBV?$tuple@HHW4arch_t@@@std@@P8DCTFFTW@@AEXPBEHPAM@Z@std@@PAX@2@PAU32@@Z ; std::_Tree_comp_alloc<std::_Tmap_traits<std::tuple<int,int,enum arch_t>,void (__thiscall DCTFFTW::*)(unsigned char const *,int,float *),std::less<std::tuple<int,int,enum arch_t> >,std::allocator<std::pair<std::tuple<int,int,enum arch_t> const ,void (__thiscall DCTFFTW::*)(unsigned char const *,int,float *)> >,0> >::_Parent
PUBLIC	?_Right@?$_Tree_comp_alloc@V?$_Tmap_traits@V?$tuple@HHW4arch_t@@@std@@P8DCTFFTW@@AEXPBEHPAM@ZU?$less@V?$tuple@HHW4arch_t@@@std@@@2@V?$allocator@U?$pair@$$CBV?$tuple@HHW4arch_t@@@std@@P8DCTFFTW@@AEXPBEHPAM@Z@std@@@2@$0A@@std@@@std@@SAAAPAU?$_Tree_node@U?$pair@$$CBV?$tuple@HHW4arch_t@@@std@@P8DCTFFTW@@AEXPBEHPAM@Z@std@@PAX@2@PAU32@@Z ; std::_Tree_comp_alloc<std::_Tmap_traits<std::tuple<int,int,enum arch_t>,void (__thiscall DCTFFTW::*)(unsigned char const *,int,float *),std::less<std::tuple<int,int,enum arch_t> >,std::allocator<std::pair<std::tuple<int,int,enum arch_t> const ,void (__thiscall DCTFFTW::*)(unsigned char const *,int,float *)> >,0> >::_Right
PUBLIC	?_Construct@?$_Tree_comp_alloc@V?$_Tmap_traits@V?$tuple@HHW4arch_t@@@std@@P8DCTFFTW@@AEXPBEHPAM@ZU?$less@V?$tuple@HHW4arch_t@@@std@@@2@V?$allocator@U?$pair@$$CBV?$tuple@HHW4arch_t@@@std@@P8DCTFFTW@@AEXPBEHPAM@Z@std@@@2@$0A@@std@@@std@@QAEXXZ ; std::_Tree_comp_alloc<std::_Tmap_traits<std::tuple<int,int,enum arch_t>,void (__thiscall DCTFFTW::*)(unsigned char const *,int,float *),std::less<std::tuple<int,int,enum arch_t> >,std::allocator<std::pair<std::tuple<int,int,enum arch_t> const ,void (__thiscall DCTFFTW::*)(unsigned char const *,int,float *)> >,0> >::_Construct
PUBLIC	?_Getal@?$_Tree_comp_alloc@V?$_Tmap_traits@V?$tuple@HHW4arch_t@@@std@@P8DCTFFTW@@AEXPBEHPAM@ZU?$less@V?$tuple@HHW4arch_t@@@std@@@2@V?$allocator@U?$pair@$$CBV?$tuple@HHW4arch_t@@@std@@P8DCTFFTW@@AEXPBEHPAM@Z@std@@@2@$0A@@std@@@std@@QAEAAU?$_Wrap_alloc@V?$allocator@U?$_Tree_node@U?$pair@$$CBV?$tuple@HHW4arch_t@@@std@@P8DCTFFTW@@AEXPBEHPAM@Z@std@@PAX@std@@@std@@@2@XZ ; std::_Tree_comp_alloc<std::_Tmap_traits<std::tuple<int,int,enum arch_t>,void (__thiscall DCTFFTW::*)(unsigned char const *,int,float *),std::less<std::tuple<int,int,enum arch_t> >,std::allocator<std::pair<std::tuple<int,int,enum arch_t> const ,void (__thiscall DCTFFTW::*)(unsigned char const *,int,float *)> >,0> >::_Getal
PUBLIC	?_Get_data@?$_Tree_comp_alloc@V?$_Tmap_traits@V?$tuple@HHW4arch_t@@@std@@P8DCTFFTW@@AEXPBEHPAM@ZU?$less@V?$tuple@HHW4arch_t@@@std@@@2@V?$allocator@U?$pair@$$CBV?$tuple@HHW4arch_t@@@std@@P8DCTFFTW@@AEXPBEHPAM@Z@std@@@2@$0A@@std@@@std@@QAEAAV?$_Tree_val@U?$_Tree_simple_types@U?$pair@$$CBV?$tuple@HHW4arch_t@@@std@@P8DCTFFTW@@AEXPBEHPAM@Z@std@@@std@@@2@XZ ; std::_Tree_comp_alloc<std::_Tmap_traits<std::tuple<int,int,enum arch_t>,void (__thiscall DCTFFTW::*)(unsigned char const *,int,float *),std::less<std::tuple<int,int,enum arch_t> >,std::allocator<std::pair<std::tuple<int,int,enum arch_t> const ,void (__thiscall DCTFFTW::*)(unsigned char const *,int,float *)> >,0> >::_Get_data
PUBLIC	?deallocate@?$_Wrap_alloc@V?$allocator@U?$_Tree_node@U?$pair@$$CBV?$tuple@HHW4arch_t@@@std@@P8DCTFFTW@@AEXPBEHPAM@Z@std@@PAX@std@@@std@@@std@@QAEXPAU?$_Tree_node@U?$pair@$$CBV?$tuple@HHW4arch_t@@@std@@P8DCTFFTW@@AEXPBEHPAM@Z@std@@PAX@2@I@Z ; std::_Wrap_alloc<std::allocator<std::_Tree_node<std::pair<std::tuple<int,int,enum arch_t> const ,void (__thiscall DCTFFTW::*)(unsigned char const *,int,float *)>,void *> > >::deallocate
PUBLIC	??D?$_Tree_const_iterator@V?$_Tree_val@U?$_Tree_simple_types@U?$pair@$$CBV?$tuple@HHW4arch_t@@@std@@P8DCTFFTW@@AEXPBEHPAM@Z@std@@@std@@@std@@@std@@QBEABU?$pair@$$CBV?$tuple@HHW4arch_t@@@std@@P8DCTFFTW@@AEXPBEHPAM@Z@1@XZ ; std::_Tree_const_iterator<std::_Tree_val<std::_Tree_simple_types<std::pair<std::tuple<int,int,enum arch_t> const ,void (__thiscall DCTFFTW::*)(unsigned char const *,int,float *)> > > >::operator*
PUBLIC	??E?$_Tree_const_iterator@V?$_Tree_val@U?$_Tree_simple_types@U?$pair@$$CBV?$tuple@HHW4arch_t@@@std@@P8DCTFFTW@@AEXPBEHPAM@Z@std@@@std@@@std@@@std@@QAE?AV01@H@Z ; std::_Tree_const_iterator<std::_Tree_val<std::_Tree_simple_types<std::pair<std::tuple<int,int,enum arch_t> const ,void (__thiscall DCTFFTW::*)(unsigned char const *,int,float *)> > > >::operator++
PUBLIC	??8?$_Tree_const_iterator@V?$_Tree_val@U?$_Tree_simple_types@U?$pair@$$CBV?$tuple@HHW4arch_t@@@std@@P8DCTFFTW@@AEXPBEHPAM@Z@std@@@std@@@std@@@std@@QBE_NABV01@@Z ; std::_Tree_const_iterator<std::_Tree_val<std::_Tree_simple_types<std::pair<std::tuple<int,int,enum arch_t> const ,void (__thiscall DCTFFTW::*)(unsigned char const *,int,float *)> > > >::operator==
PUBLIC	??9?$_Tree_const_iterator@V?$_Tree_val@U?$_Tree_simple_types@U?$pair@$$CBV?$tuple@HHW4arch_t@@@std@@P8DCTFFTW@@AEXPBEHPAM@Z@std@@@std@@@std@@@std@@QBE_NABV01@@Z ; std::_Tree_const_iterator<std::_Tree_val<std::_Tree_simple_types<std::pair<std::tuple<int,int,enum arch_t> const ,void (__thiscall DCTFFTW::*)(unsigned char const *,int,float *)> > > >::operator!=
PUBLIC	??0?$_Tree_iterator@V?$_Tree_val@U?$_Tree_simple_types@U?$pair@$$CBV?$tuple@HHW4arch_t@@@std@@P8DCTFFTW@@AEXPBEHPAM@Z@std@@@std@@@std@@@std@@QAE@PAU?$_Tree_node@U?$pair@$$CBV?$tuple@HHW4arch_t@@@std@@P8DCTFFTW@@AEXPBEHPAM@Z@std@@PAX@1@PBV?$_Tree_val@U?$_Tree_simple_types@U?$pair@$$CBV?$tuple@HHW4arch_t@@@std@@P8DCTFFTW@@AEXPBEHPAM@Z@std@@@std@@@1@@Z ; std::_Tree_iterator<std::_Tree_val<std::_Tree_simple_types<std::pair<std::tuple<int,int,enum arch_t> const ,void (__thiscall DCTFFTW::*)(unsigned char const *,int,float *)> > > >::_Tree_iterator<std::_Tree_val<std::_Tree_simple_types<std::pair<std::tuple<int,int,enum arch_t> const ,void (__thiscall DCTFFTW::*)(unsigned char const *,int,float *)> > > >
PUBLIC	?begin@?$_Tree@V?$_Tmap_traits@V?$tuple@HHW4arch_t@@@std@@P8DCTFFTW@@AEXPAEHPAM@ZU?$less@V?$tuple@HHW4arch_t@@@std@@@2@V?$allocator@U?$pair@$$CBV?$tuple@HHW4arch_t@@@std@@P8DCTFFTW@@AEXPAEHPAM@Z@std@@@2@$0A@@std@@@std@@QAE?AV?$_Tree_iterator@V?$_Tree_val@U?$_Tree_simple_types@U?$pair@$$CBV?$tuple@HHW4arch_t@@@std@@P8DCTFFTW@@AEXPAEHPAM@Z@std@@@std@@@std@@@2@XZ ; std::_Tree<std::_Tmap_traits<std::tuple<int,int,enum arch_t>,void (__thiscall DCTFFTW::*)(unsigned char *,int,float *),std::less<std::tuple<int,int,enum arch_t> >,std::allocator<std::pair<std::tuple<int,int,enum arch_t> const ,void (__thiscall DCTFFTW::*)(unsigned char *,int,float *)> >,0> >::begin
PUBLIC	?end@?$_Tree@V?$_Tmap_traits@V?$tuple@HHW4arch_t@@@std@@P8DCTFFTW@@AEXPAEHPAM@ZU?$less@V?$tuple@HHW4arch_t@@@std@@@2@V?$allocator@U?$pair@$$CBV?$tuple@HHW4arch_t@@@std@@P8DCTFFTW@@AEXPAEHPAM@Z@std@@@2@$0A@@std@@@std@@QAE?AV?$_Tree_iterator@V?$_Tree_val@U?$_Tree_simple_types@U?$pair@$$CBV?$tuple@HHW4arch_t@@@std@@P8DCTFFTW@@AEXPAEHPAM@Z@std@@@std@@@std@@@2@XZ ; std::_Tree<std::_Tmap_traits<std::tuple<int,int,enum arch_t>,void (__thiscall DCTFFTW::*)(unsigned char *,int,float *),std::less<std::tuple<int,int,enum arch_t> >,std::allocator<std::pair<std::tuple<int,int,enum arch_t> const ,void (__thiscall DCTFFTW::*)(unsigned char *,int,float *)> >,0> >::end
PUBLIC	?erase@?$_Tree@V?$_Tmap_traits@V?$tuple@HHW4arch_t@@@std@@P8DCTFFTW@@AEXPAEHPAM@ZU?$less@V?$tuple@HHW4arch_t@@@std@@@2@V?$allocator@U?$pair@$$CBV?$tuple@HHW4arch_t@@@std@@P8DCTFFTW@@AEXPAEHPAM@Z@std@@@2@$0A@@std@@@std@@QAE?AV?$_Tree_iterator@V?$_Tree_val@U?$_Tree_simple_types@U?$pair@$$CBV?$tuple@HHW4arch_t@@@std@@P8DCTFFTW@@AEXPAEHPAM@Z@std@@@std@@@std@@@2@V?$_Tree_const_iterator@V?$_Tree_val@U?$_Tree_simple_types@U?$pair@$$CBV?$tuple@HHW4arch_t@@@std@@P8DCTFFTW@@AEXPAEHPAM@Z@std@@@std@@@std@@@2@0@Z ; std::_Tree<std::_Tmap_traits<std::tuple<int,int,enum arch_t>,void (__thiscall DCTFFTW::*)(unsigned char *,int,float *),std::less<std::tuple<int,int,enum arch_t> >,std::allocator<std::pair<std::tuple<int,int,enum arch_t> const ,void (__thiscall DCTFFTW::*)(unsigned char *,int,float *)> >,0> >::erase
PUBLIC	??0?$_Tree_comp_alloc@V?$_Tmap_traits@V?$tuple@HHW4arch_t@@@std@@P8DCTFFTW@@AEXPAEHPAM@ZU?$less@V?$tuple@HHW4arch_t@@@std@@@2@V?$allocator@U?$pair@$$CBV?$tuple@HHW4arch_t@@@std@@P8DCTFFTW@@AEXPAEHPAM@Z@std@@@2@$0A@@std@@@std@@QAE@ABU?$less@V?$tuple@HHW4arch_t@@@std@@@1@@Z ; std::_Tree_comp_alloc<std::_Tmap_traits<std::tuple<int,int,enum arch_t>,void (__thiscall DCTFFTW::*)(unsigned char *,int,float *),std::less<std::tuple<int,int,enum arch_t> >,std::allocator<std::pair<std::tuple<int,int,enum arch_t> const ,void (__thiscall DCTFFTW::*)(unsigned char *,int,float *)> >,0> >::_Tree_comp_alloc<std::_Tmap_traits<std::tuple<int,int,enum arch_t>,void (__thiscall DCTFFTW::*)(unsigned char *,int,float *),std::less<std::tuple<int,int,enum arch_t> >,std::allocator<std::pair<std::tuple<int,int,enum arch_t> const ,void (__thiscall DCTFFTW::*)(unsigned char *,int,float *)> >,0> >
PUBLIC	?_Freeheadnode@?$_Tree_comp_alloc@V?$_Tmap_traits@V?$tuple@HHW4arch_t@@@std@@P8DCTFFTW@@AEXPAEHPAM@ZU?$less@V?$tuple@HHW4arch_t@@@std@@@2@V?$allocator@U?$pair@$$CBV?$tuple@HHW4arch_t@@@std@@P8DCTFFTW@@AEXPAEHPAM@Z@std@@@2@$0A@@std@@@std@@QAEXPAU?$_Tree_node@U?$pair@$$CBV?$tuple@HHW4arch_t@@@std@@P8DCTFFTW@@AEXPAEHPAM@Z@std@@PAX@2@@Z ; std::_Tree_comp_alloc<std::_Tmap_traits<std::tuple<int,int,enum arch_t>,void (__thiscall DCTFFTW::*)(unsigned char *,int,float *),std::less<std::tuple<int,int,enum arch_t> >,std::allocator<std::pair<std::tuple<int,int,enum arch_t> const ,void (__thiscall DCTFFTW::*)(unsigned char *,int,float *)> >,0> >::_Freeheadnode
PUBLIC	?_Myhead@?$_Tree_comp_alloc@V?$_Tmap_traits@V?$tuple@HHW4arch_t@@@std@@P8DCTFFTW@@AEXPAEHPAM@ZU?$less@V?$tuple@HHW4arch_t@@@std@@@2@V?$allocator@U?$pair@$$CBV?$tuple@HHW4arch_t@@@std@@P8DCTFFTW@@AEXPAEHPAM@Z@std@@@2@$0A@@std@@@std@@QAEAAPAU?$_Tree_node@U?$pair@$$CBV?$tuple@HHW4arch_t@@@std@@P8DCTFFTW@@AEXPAEHPAM@Z@std@@PAX@2@XZ ; std::_Tree_comp_alloc<std::_Tmap_traits<std::tuple<int,int,enum arch_t>,void (__thiscall DCTFFTW::*)(unsigned char *,int,float *),std::less<std::tuple<int,int,enum arch_t> >,std::allocator<std::pair<std::tuple<int,int,enum arch_t> const ,void (__thiscall DCTFFTW::*)(unsigned char *,int,float *)> >,0> >::_Myhead
PUBLIC	??D?$_Tree_iterator@V?$_Tree_val@U?$_Tree_simple_types@U?$pair@$$CBV?$tuple@HHW4arch_t@@@std@@P8DCTFFTW@@AEXPAEHPAM@Z@std@@@std@@@std@@@std@@QBEAAU?$pair@$$CBV?$tuple@HHW4arch_t@@@std@@P8DCTFFTW@@AEXPAEHPAM@Z@1@XZ ; std::_Tree_iterator<std::_Tree_val<std::_Tree_simple_types<std::pair<std::tuple<int,int,enum arch_t> const ,void (__thiscall DCTFFTW::*)(unsigned char *,int,float *)> > > >::operator*
PUBLIC	?begin@?$_Tree@V?$_Tmap_traits@V?$tuple@HHW4arch_t@@@std@@P8DCTFFTW@@AEXPBEHPAM@ZU?$less@V?$tuple@HHW4arch_t@@@std@@@2@V?$allocator@U?$pair@$$CBV?$tuple@HHW4arch_t@@@std@@P8DCTFFTW@@AEXPBEHPAM@Z@std@@@2@$0A@@std@@@std@@QAE?AV?$_Tree_iterator@V?$_Tree_val@U?$_Tree_simple_types@U?$pair@$$CBV?$tuple@HHW4arch_t@@@std@@P8DCTFFTW@@AEXPBEHPAM@Z@std@@@std@@@std@@@2@XZ ; std::_Tree<std::_Tmap_traits<std::tuple<int,int,enum arch_t>,void (__thiscall DCTFFTW::*)(unsigned char const *,int,float *),std::less<std::tuple<int,int,enum arch_t> >,std::allocator<std::pair<std::tuple<int,int,enum arch_t> const ,void (__thiscall DCTFFTW::*)(unsigned char const *,int,float *)> >,0> >::begin
PUBLIC	?end@?$_Tree@V?$_Tmap_traits@V?$tuple@HHW4arch_t@@@std@@P8DCTFFTW@@AEXPBEHPAM@ZU?$less@V?$tuple@HHW4arch_t@@@std@@@2@V?$allocator@U?$pair@$$CBV?$tuple@HHW4arch_t@@@std@@P8DCTFFTW@@AEXPBEHPAM@Z@std@@@2@$0A@@std@@@std@@QAE?AV?$_Tree_iterator@V?$_Tree_val@U?$_Tree_simple_types@U?$pair@$$CBV?$tuple@HHW4arch_t@@@std@@P8DCTFFTW@@AEXPBEHPAM@Z@std@@@std@@@std@@@2@XZ ; std::_Tree<std::_Tmap_traits<std::tuple<int,int,enum arch_t>,void (__thiscall DCTFFTW::*)(unsigned char const *,int,float *),std::less<std::tuple<int,int,enum arch_t> >,std::allocator<std::pair<std::tuple<int,int,enum arch_t> const ,void (__thiscall DCTFFTW::*)(unsigned char const *,int,float *)> >,0> >::end
PUBLIC	?erase@?$_Tree@V?$_Tmap_traits@V?$tuple@HHW4arch_t@@@std@@P8DCTFFTW@@AEXPBEHPAM@ZU?$less@V?$tuple@HHW4arch_t@@@std@@@2@V?$allocator@U?$pair@$$CBV?$tuple@HHW4arch_t@@@std@@P8DCTFFTW@@AEXPBEHPAM@Z@std@@@2@$0A@@std@@@std@@QAE?AV?$_Tree_iterator@V?$_Tree_val@U?$_Tree_simple_types@U?$pair@$$CBV?$tuple@HHW4arch_t@@@std@@P8DCTFFTW@@AEXPBEHPAM@Z@std@@@std@@@std@@@2@V?$_Tree_const_iterator@V?$_Tree_val@U?$_Tree_simple_types@U?$pair@$$CBV?$tuple@HHW4arch_t@@@std@@P8DCTFFTW@@AEXPBEHPAM@Z@std@@@std@@@std@@@2@0@Z ; std::_Tree<std::_Tmap_traits<std::tuple<int,int,enum arch_t>,void (__thiscall DCTFFTW::*)(unsigned char const *,int,float *),std::less<std::tuple<int,int,enum arch_t> >,std::allocator<std::pair<std::tuple<int,int,enum arch_t> const ,void (__thiscall DCTFFTW::*)(unsigned char const *,int,float *)> >,0> >::erase
PUBLIC	??0?$_Tree_comp_alloc@V?$_Tmap_traits@V?$tuple@HHW4arch_t@@@std@@P8DCTFFTW@@AEXPBEHPAM@ZU?$less@V?$tuple@HHW4arch_t@@@std@@@2@V?$allocator@U?$pair@$$CBV?$tuple@HHW4arch_t@@@std@@P8DCTFFTW@@AEXPBEHPAM@Z@std@@@2@$0A@@std@@@std@@QAE@ABU?$less@V?$tuple@HHW4arch_t@@@std@@@1@@Z ; std::_Tree_comp_alloc<std::_Tmap_traits<std::tuple<int,int,enum arch_t>,void (__thiscall DCTFFTW::*)(unsigned char const *,int,float *),std::less<std::tuple<int,int,enum arch_t> >,std::allocator<std::pair<std::tuple<int,int,enum arch_t> const ,void (__thiscall DCTFFTW::*)(unsigned char const *,int,float *)> >,0> >::_Tree_comp_alloc<std::_Tmap_traits<std::tuple<int,int,enum arch_t>,void (__thiscall DCTFFTW::*)(unsigned char const *,int,float *),std::less<std::tuple<int,int,enum arch_t> >,std::allocator<std::pair<std::tuple<int,int,enum arch_t> const ,void (__thiscall DCTFFTW::*)(unsigned char const *,int,float *)> >,0> >
PUBLIC	?_Freeheadnode@?$_Tree_comp_alloc@V?$_Tmap_traits@V?$tuple@HHW4arch_t@@@std@@P8DCTFFTW@@AEXPBEHPAM@ZU?$less@V?$tuple@HHW4arch_t@@@std@@@2@V?$allocator@U?$pair@$$CBV?$tuple@HHW4arch_t@@@std@@P8DCTFFTW@@AEXPBEHPAM@Z@std@@@2@$0A@@std@@@std@@QAEXPAU?$_Tree_node@U?$pair@$$CBV?$tuple@HHW4arch_t@@@std@@P8DCTFFTW@@AEXPBEHPAM@Z@std@@PAX@2@@Z ; std::_Tree_comp_alloc<std::_Tmap_traits<std::tuple<int,int,enum arch_t>,void (__thiscall DCTFFTW::*)(unsigned char const *,int,float *),std::less<std::tuple<int,int,enum arch_t> >,std::allocator<std::pair<std::tuple<int,int,enum arch_t> const ,void (__thiscall DCTFFTW::*)(unsigned char const *,int,float *)> >,0> >::_Freeheadnode
PUBLIC	?_Myhead@?$_Tree_comp_alloc@V?$_Tmap_traits@V?$tuple@HHW4arch_t@@@std@@P8DCTFFTW@@AEXPBEHPAM@ZU?$less@V?$tuple@HHW4arch_t@@@std@@@2@V?$allocator@U?$pair@$$CBV?$tuple@HHW4arch_t@@@std@@P8DCTFFTW@@AEXPBEHPAM@Z@std@@@2@$0A@@std@@@std@@QAEAAPAU?$_Tree_node@U?$pair@$$CBV?$tuple@HHW4arch_t@@@std@@P8DCTFFTW@@AEXPBEHPAM@Z@std@@PAX@2@XZ ; std::_Tree_comp_alloc<std::_Tmap_traits<std::tuple<int,int,enum arch_t>,void (__thiscall DCTFFTW::*)(unsigned char const *,int,float *),std::less<std::tuple<int,int,enum arch_t> >,std::allocator<std::pair<std::tuple<int,int,enum arch_t> const ,void (__thiscall DCTFFTW::*)(unsigned char const *,int,float *)> >,0> >::_Myhead
PUBLIC	??D?$_Tree_iterator@V?$_Tree_val@U?$_Tree_simple_types@U?$pair@$$CBV?$tuple@HHW4arch_t@@@std@@P8DCTFFTW@@AEXPBEHPAM@Z@std@@@std@@@std@@@std@@QBEAAU?$pair@$$CBV?$tuple@HHW4arch_t@@@std@@P8DCTFFTW@@AEXPBEHPAM@Z@1@XZ ; std::_Tree_iterator<std::_Tree_val<std::_Tree_simple_types<std::pair<std::tuple<int,int,enum arch_t> const ,void (__thiscall DCTFFTW::*)(unsigned char const *,int,float *)> > > >::operator*
PUBLIC	?pointer_to@?$pointer_traits@PAU?$pair@$$CBV?$tuple@HHW4arch_t@@@std@@P8DCTFFTW@@AEXPBEHPAM@Z@std@@@std@@SAPAU?$pair@$$CBV?$tuple@HHW4arch_t@@@std@@P8DCTFFTW@@AEXPBEHPAM@Z@2@AAU32@@Z ; std::pointer_traits<std::pair<std::tuple<int,int,enum arch_t> const ,void (__thiscall DCTFFTW::*)(unsigned char const *,int,float *)> *>::pointer_to
PUBLIC	?pointer_to@?$pointer_traits@PAU?$pair@$$CBV?$tuple@HHW4arch_t@@@std@@P8DCTFFTW@@AEXPAEHPAM@Z@std@@@std@@SAPAU?$pair@$$CBV?$tuple@HHW4arch_t@@@std@@P8DCTFFTW@@AEXPAEHPAM@Z@2@AAU32@@Z ; std::pointer_traits<std::pair<std::tuple<int,int,enum arch_t> const ,void (__thiscall DCTFFTW::*)(unsigned char *,int,float *)> *>::pointer_to
PUBLIC	??0?$_Tree@V?$_Tmap_traits@V?$tuple@HHW4arch_t@@@std@@P8DCTFFTW@@AEXPAEHPAM@ZU?$less@V?$tuple@HHW4arch_t@@@std@@@2@V?$allocator@U?$pair@$$CBV?$tuple@HHW4arch_t@@@std@@P8DCTFFTW@@AEXPAEHPAM@Z@std@@@2@$0A@@std@@@std@@QAE@ABU?$less@V?$tuple@HHW4arch_t@@@std@@@1@@Z ; std::_Tree<std::_Tmap_traits<std::tuple<int,int,enum arch_t>,void (__thiscall DCTFFTW::*)(unsigned char *,int,float *),std::less<std::tuple<int,int,enum arch_t> >,std::allocator<std::pair<std::tuple<int,int,enum arch_t> const ,void (__thiscall DCTFFTW::*)(unsigned char *,int,float *)> >,0> >::_Tree<std::_Tmap_traits<std::tuple<int,int,enum arch_t>,void (__thiscall DCTFFTW::*)(unsigned char *,int,float *),std::less<std::tuple<int,int,enum arch_t> >,std::allocator<std::pair<std::tuple<int,int,enum arch_t> const ,void (__thiscall DCTFFTW::*)(unsigned char *,int,float *)> >,0> >
PUBLIC	?_Tidy@?$_Tree@V?$_Tmap_traits@V?$tuple@HHW4arch_t@@@std@@P8DCTFFTW@@AEXPAEHPAM@ZU?$less@V?$tuple@HHW4arch_t@@@std@@@2@V?$allocator@U?$pair@$$CBV?$tuple@HHW4arch_t@@@std@@P8DCTFFTW@@AEXPAEHPAM@Z@std@@@2@$0A@@std@@@std@@IAEXXZ ; std::_Tree<std::_Tmap_traits<std::tuple<int,int,enum arch_t>,void (__thiscall DCTFFTW::*)(unsigned char *,int,float *),std::less<std::tuple<int,int,enum arch_t> >,std::allocator<std::pair<std::tuple<int,int,enum arch_t> const ,void (__thiscall DCTFFTW::*)(unsigned char *,int,float *)> >,0> >::_Tidy
PUBLIC	??1?$_Tree_comp_alloc@V?$_Tmap_traits@V?$tuple@HHW4arch_t@@@std@@P8DCTFFTW@@AEXPAEHPAM@ZU?$less@V?$tuple@HHW4arch_t@@@std@@@2@V?$allocator@U?$pair@$$CBV?$tuple@HHW4arch_t@@@std@@P8DCTFFTW@@AEXPAEHPAM@Z@std@@@2@$0A@@std@@@std@@QAE@XZ ; std::_Tree_comp_alloc<std::_Tmap_traits<std::tuple<int,int,enum arch_t>,void (__thiscall DCTFFTW::*)(unsigned char *,int,float *),std::less<std::tuple<int,int,enum arch_t> >,std::allocator<std::pair<std::tuple<int,int,enum arch_t> const ,void (__thiscall DCTFFTW::*)(unsigned char *,int,float *)> >,0> >::~_Tree_comp_alloc<std::_Tmap_traits<std::tuple<int,int,enum arch_t>,void (__thiscall DCTFFTW::*)(unsigned char *,int,float *),std::less<std::tuple<int,int,enum arch_t> >,std::allocator<std::pair<std::tuple<int,int,enum arch_t> const ,void (__thiscall DCTFFTW::*)(unsigned char *,int,float *)> >,0> >
PUBLIC	??C?$_Tree_iterator@V?$_Tree_val@U?$_Tree_simple_types@U?$pair@$$CBV?$tuple@HHW4arch_t@@@std@@P8DCTFFTW@@AEXPAEHPAM@Z@std@@@std@@@std@@@std@@QBEPAU?$pair@$$CBV?$tuple@HHW4arch_t@@@std@@P8DCTFFTW@@AEXPAEHPAM@Z@1@XZ ; std::_Tree_iterator<std::_Tree_val<std::_Tree_simple_types<std::pair<std::tuple<int,int,enum arch_t> const ,void (__thiscall DCTFFTW::*)(unsigned char *,int,float *)> > > >::operator->
PUBLIC	??0?$_Tree@V?$_Tmap_traits@V?$tuple@HHW4arch_t@@@std@@P8DCTFFTW@@AEXPBEHPAM@ZU?$less@V?$tuple@HHW4arch_t@@@std@@@2@V?$allocator@U?$pair@$$CBV?$tuple@HHW4arch_t@@@std@@P8DCTFFTW@@AEXPBEHPAM@Z@std@@@2@$0A@@std@@@std@@QAE@ABU?$less@V?$tuple@HHW4arch_t@@@std@@@1@@Z ; std::_Tree<std::_Tmap_traits<std::tuple<int,int,enum arch_t>,void (__thiscall DCTFFTW::*)(unsigned char const *,int,float *),std::less<std::tuple<int,int,enum arch_t> >,std::allocator<std::pair<std::tuple<int,int,enum arch_t> const ,void (__thiscall DCTFFTW::*)(unsigned char const *,int,float *)> >,0> >::_Tree<std::_Tmap_traits<std::tuple<int,int,enum arch_t>,void (__thiscall DCTFFTW::*)(unsigned char const *,int,float *),std::less<std::tuple<int,int,enum arch_t> >,std::allocator<std::pair<std::tuple<int,int,enum arch_t> const ,void (__thiscall DCTFFTW::*)(unsigned char const *,int,float *)> >,0> >
PUBLIC	?_Tidy@?$_Tree@V?$_Tmap_traits@V?$tuple@HHW4arch_t@@@std@@P8DCTFFTW@@AEXPBEHPAM@ZU?$less@V?$tuple@HHW4arch_t@@@std@@@2@V?$allocator@U?$pair@$$CBV?$tuple@HHW4arch_t@@@std@@P8DCTFFTW@@AEXPBEHPAM@Z@std@@@2@$0A@@std@@@std@@IAEXXZ ; std::_Tree<std::_Tmap_traits<std::tuple<int,int,enum arch_t>,void (__thiscall DCTFFTW::*)(unsigned char const *,int,float *),std::less<std::tuple<int,int,enum arch_t> >,std::allocator<std::pair<std::tuple<int,int,enum arch_t> const ,void (__thiscall DCTFFTW::*)(unsigned char const *,int,float *)> >,0> >::_Tidy
PUBLIC	??1?$_Tree_comp_alloc@V?$_Tmap_traits@V?$tuple@HHW4arch_t@@@std@@P8DCTFFTW@@AEXPBEHPAM@ZU?$less@V?$tuple@HHW4arch_t@@@std@@@2@V?$allocator@U?$pair@$$CBV?$tuple@HHW4arch_t@@@std@@P8DCTFFTW@@AEXPBEHPAM@Z@std@@@2@$0A@@std@@@std@@QAE@XZ ; std::_Tree_comp_alloc<std::_Tmap_traits<std::tuple<int,int,enum arch_t>,void (__thiscall DCTFFTW::*)(unsigned char const *,int,float *),std::less<std::tuple<int,int,enum arch_t> >,std::allocator<std::pair<std::tuple<int,int,enum arch_t> const ,void (__thiscall DCTFFTW::*)(unsigned char const *,int,float *)> >,0> >::~_Tree_comp_alloc<std::_Tmap_traits<std::tuple<int,int,enum arch_t>,void (__thiscall DCTFFTW::*)(unsigned char const *,int,float *),std::less<std::tuple<int,int,enum arch_t> >,std::allocator<std::pair<std::tuple<int,int,enum arch_t> const ,void (__thiscall DCTFFTW::*)(unsigned char const *,int,float *)> >,0> >
PUBLIC	??C?$_Tree_iterator@V?$_Tree_val@U?$_Tree_simple_types@U?$pair@$$CBV?$tuple@HHW4arch_t@@@std@@P8DCTFFTW@@AEXPBEHPAM@Z@std@@@std@@@std@@@std@@QBEPAU?$pair@$$CBV?$tuple@HHW4arch_t@@@std@@P8DCTFFTW@@AEXPBEHPAM@Z@1@XZ ; std::_Tree_iterator<std::_Tree_val<std::_Tree_simple_types<std::pair<std::tuple<int,int,enum arch_t> const ,void (__thiscall DCTFFTW::*)(unsigned char const *,int,float *)> > > >::operator->
PUBLIC	??0?$map@V?$tuple@HHW4arch_t@@@std@@P8DCTFFTW@@AEXPAEHPAM@ZU?$less@V?$tuple@HHW4arch_t@@@std@@@2@V?$allocator@U?$pair@$$CBV?$tuple@HHW4arch_t@@@std@@P8DCTFFTW@@AEXPAEHPAM@Z@std@@@2@@std@@QAE@XZ ; std::map<std::tuple<int,int,enum arch_t>,void (__thiscall DCTFFTW::*)(unsigned char *,int,float *),std::less<std::tuple<int,int,enum arch_t> >,std::allocator<std::pair<std::tuple<int,int,enum arch_t> const ,void (__thiscall DCTFFTW::*)(unsigned char *,int,float *)> > >::map<std::tuple<int,int,enum arch_t>,void (__thiscall DCTFFTW::*)(unsigned char *,int,float *),std::less<std::tuple<int,int,enum arch_t> >,std::allocator<std::pair<std::tuple<int,int,enum arch_t> const ,void (__thiscall DCTFFTW::*)(unsigned char *,int,float *)> > >
PUBLIC	??A?$map@V?$tuple@HHW4arch_t@@@std@@P8DCTFFTW@@AEXPAEHPAM@ZU?$less@V?$tuple@HHW4arch_t@@@std@@@2@V?$allocator@U?$pair@$$CBV?$tuple@HHW4arch_t@@@std@@P8DCTFFTW@@AEXPAEHPAM@Z@std@@@2@@std@@QAEAAP8DCTFFTW@@AEXPAEHPAM@Z$$QAV?$tuple@HHW4arch_t@@@1@@Z ; std::map<std::tuple<int,int,enum arch_t>,void (__thiscall DCTFFTW::*)(unsigned char *,int,float *),std::less<std::tuple<int,int,enum arch_t> >,std::allocator<std::pair<std::tuple<int,int,enum arch_t> const ,void (__thiscall DCTFFTW::*)(unsigned char *,int,float *)> > >::operator[]
PUBLIC	??1?$_Tree@V?$_Tmap_traits@V?$tuple@HHW4arch_t@@@std@@P8DCTFFTW@@AEXPAEHPAM@ZU?$less@V?$tuple@HHW4arch_t@@@std@@@2@V?$allocator@U?$pair@$$CBV?$tuple@HHW4arch_t@@@std@@P8DCTFFTW@@AEXPAEHPAM@Z@std@@@2@$0A@@std@@@std@@QAE@XZ ; std::_Tree<std::_Tmap_traits<std::tuple<int,int,enum arch_t>,void (__thiscall DCTFFTW::*)(unsigned char *,int,float *),std::less<std::tuple<int,int,enum arch_t> >,std::allocator<std::pair<std::tuple<int,int,enum arch_t> const ,void (__thiscall DCTFFTW::*)(unsigned char *,int,float *)> >,0> >::~_Tree<std::_Tmap_traits<std::tuple<int,int,enum arch_t>,void (__thiscall DCTFFTW::*)(unsigned char *,int,float *),std::less<std::tuple<int,int,enum arch_t> >,std::allocator<std::pair<std::tuple<int,int,enum arch_t> const ,void (__thiscall DCTFFTW::*)(unsigned char *,int,float *)> >,0> >
PUBLIC	??0?$map@V?$tuple@HHW4arch_t@@@std@@P8DCTFFTW@@AEXPBEHPAM@ZU?$less@V?$tuple@HHW4arch_t@@@std@@@2@V?$allocator@U?$pair@$$CBV?$tuple@HHW4arch_t@@@std@@P8DCTFFTW@@AEXPBEHPAM@Z@std@@@2@@std@@QAE@XZ ; std::map<std::tuple<int,int,enum arch_t>,void (__thiscall DCTFFTW::*)(unsigned char const *,int,float *),std::less<std::tuple<int,int,enum arch_t> >,std::allocator<std::pair<std::tuple<int,int,enum arch_t> const ,void (__thiscall DCTFFTW::*)(unsigned char const *,int,float *)> > >::map<std::tuple<int,int,enum arch_t>,void (__thiscall DCTFFTW::*)(unsigned char const *,int,float *),std::less<std::tuple<int,int,enum arch_t> >,std::allocator<std::pair<std::tuple<int,int,enum arch_t> const ,void (__thiscall DCTFFTW::*)(unsigned char const *,int,float *)> > >
PUBLIC	??A?$map@V?$tuple@HHW4arch_t@@@std@@P8DCTFFTW@@AEXPBEHPAM@ZU?$less@V?$tuple@HHW4arch_t@@@std@@@2@V?$allocator@U?$pair@$$CBV?$tuple@HHW4arch_t@@@std@@P8DCTFFTW@@AEXPBEHPAM@Z@std@@@2@@std@@QAEAAP8DCTFFTW@@AEXPBEHPAM@Z$$QAV?$tuple@HHW4arch_t@@@1@@Z ; std::map<std::tuple<int,int,enum arch_t>,void (__thiscall DCTFFTW::*)(unsigned char const *,int,float *),std::less<std::tuple<int,int,enum arch_t> >,std::allocator<std::pair<std::tuple<int,int,enum arch_t> const ,void (__thiscall DCTFFTW::*)(unsigned char const *,int,float *)> > >::operator[]
PUBLIC	??1?$_Tree@V?$_Tmap_traits@V?$tuple@HHW4arch_t@@@std@@P8DCTFFTW@@AEXPBEHPAM@ZU?$less@V?$tuple@HHW4arch_t@@@std@@@2@V?$allocator@U?$pair@$$CBV?$tuple@HHW4arch_t@@@std@@P8DCTFFTW@@AEXPBEHPAM@Z@std@@@2@$0A@@std@@@std@@QAE@XZ ; std::_Tree<std::_Tmap_traits<std::tuple<int,int,enum arch_t>,void (__thiscall DCTFFTW::*)(unsigned char const *,int,float *),std::less<std::tuple<int,int,enum arch_t> >,std::allocator<std::pair<std::tuple<int,int,enum arch_t> const ,void (__thiscall DCTFFTW::*)(unsigned char const *,int,float *)> >,0> >::~_Tree<std::_Tmap_traits<std::tuple<int,int,enum arch_t>,void (__thiscall DCTFFTW::*)(unsigned char const *,int,float *),std::less<std::tuple<int,int,enum arch_t> >,std::allocator<std::pair<std::tuple<int,int,enum arch_t> const ,void (__thiscall DCTFFTW::*)(unsigned char const *,int,float *)> >,0> >
PUBLIC	?DCTBytes2D@DCTFFTW@@UAEXPBEHPAEH@Z		; DCTFFTW::DCTBytes2D
PUBLIC	??1?$map@V?$tuple@HHW4arch_t@@@std@@P8DCTFFTW@@AEXPBEHPAM@ZU?$less@V?$tuple@HHW4arch_t@@@std@@@2@V?$allocator@U?$pair@$$CBV?$tuple@HHW4arch_t@@@std@@P8DCTFFTW@@AEXPBEHPAM@Z@std@@@2@@std@@QAE@XZ ; std::map<std::tuple<int,int,enum arch_t>,void (__thiscall DCTFFTW::*)(unsigned char const *,int,float *),std::less<std::tuple<int,int,enum arch_t> >,std::allocator<std::pair<std::tuple<int,int,enum arch_t> const ,void (__thiscall DCTFFTW::*)(unsigned char const *,int,float *)> > >::~map<std::tuple<int,int,enum arch_t>,void (__thiscall DCTFFTW::*)(unsigned char const *,int,float *),std::less<std::tuple<int,int,enum arch_t> >,std::allocator<std::pair<std::tuple<int,int,enum arch_t> const ,void (__thiscall DCTFFTW::*)(unsigned char const *,int,float *)> > >
PUBLIC	?get_bytesToFloatPROC_function@DCTFFTW@@AAEP81@AEXPBEHPAM@ZHHHW4arch_t@@@Z ; DCTFFTW::get_bytesToFloatPROC_function
PUBLIC	??1?$map@V?$tuple@HHW4arch_t@@@std@@P8DCTFFTW@@AEXPAEHPAM@ZU?$less@V?$tuple@HHW4arch_t@@@std@@@2@V?$allocator@U?$pair@$$CBV?$tuple@HHW4arch_t@@@std@@P8DCTFFTW@@AEXPAEHPAM@Z@std@@@2@@std@@QAE@XZ ; std::map<std::tuple<int,int,enum arch_t>,void (__thiscall DCTFFTW::*)(unsigned char *,int,float *),std::less<std::tuple<int,int,enum arch_t> >,std::allocator<std::pair<std::tuple<int,int,enum arch_t> const ,void (__thiscall DCTFFTW::*)(unsigned char *,int,float *)> > >::~map<std::tuple<int,int,enum arch_t>,void (__thiscall DCTFFTW::*)(unsigned char *,int,float *),std::less<std::tuple<int,int,enum arch_t> >,std::allocator<std::pair<std::tuple<int,int,enum arch_t> const ,void (__thiscall DCTFFTW::*)(unsigned char *,int,float *)> > >
PUBLIC	?get_floatToBytesPROC_function@DCTFFTW@@AAEP81@AEXPAEHPAM@ZHHHW4arch_t@@@Z ; DCTFFTW::get_floatToBytesPROC_function
PUBLIC	?_MM_PACKUS_EPI32@@YA?AT__m128i@@T1@0@Z		; _MM_PACKUS_EPI32
PUBLIC	??0DCTClass@@QAE@XZ				; DCTClass::DCTClass
PUBLIC	??0DCTFFTW@@QAE@HHPAUHINSTANCE__@@HHHH@Z	; DCTFFTW::DCTFFTW
PUBLIC	?_fftw_mutex@DCTFFTW@@0VMutex@conc@@A		; DCTFFTW::_fftw_mutex
?_fftw_mutex@DCTFFTW@@0VMutex@conc@@A DB 018H DUP (?)	; DCTFFTW::_fftw_mutex
_BSS	ENDS
;	COMDAT xdata$x
xdata$x	SEGMENT
__ehfuncinfo$??0DCTFFTW@@QAE@HHPAUHINSTANCE__@@HHHH@Z DD 019930522H
	DD	01H
	DD	FLAT:__unwindtable$??0DCTFFTW@@QAE@HHPAUHINSTANCE__@@HHHH@Z
	DD	2 DUP(00H)
	DD	2 DUP(00H)
	DD	00H
	DD	01H
__unwindtable$??0DCTFFTW@@QAE@HHPAUHINSTANCE__@@HHHH@Z DD 0ffffffffH
	DD	FLAT:__unwindfunclet$??0DCTFFTW@@QAE@HHPAUHINSTANCE__@@HHHH@Z$0
xdata$x	ENDS
;	COMDAT xdata$x
xdata$x	SEGMENT
__ehfuncinfo$?get_floatToBytesPROC_function@DCTFFTW@@AAEP81@AEXPAEHPAM@ZHHHW4arch_t@@@Z DD 019930522H
	DD	01H
	DD	FLAT:__unwindtable$?get_floatToBytesPROC_function@DCTFFTW@@AAEP81@AEXPAEHPAM@ZHHHW4arch_t@@@Z
	DD	2 DUP(00H)
	DD	2 DUP(00H)
	DD	00H
	DD	01H
__unwindtable$?get_floatToBytesPROC_function@DCTFFTW@@AAEP81@AEXPAEHPAM@ZHHHW4arch_t@@@Z DD 0ffffffffH
	DD	FLAT:__unwindfunclet$?get_floatToBytesPROC_function@DCTFFTW@@AAEP81@AEXPAEHPAM@ZHHHW4arch_t@@@Z$0
xdata$x	ENDS
;	COMDAT xdata$x
xdata$x	SEGMENT
__ehfuncinfo$?get_bytesToFloatPROC_function@DCTFFTW@@AAEP81@AEXPBEHPAM@ZHHHW4arch_t@@@Z DD 019930522H
	DD	01H
	DD	FLAT:__unwindtable$?get_bytesToFloatPROC_function@DCTFFTW@@AAEP81@AEXPBEHPAM@ZHHHW4arch_t@@@Z
	DD	2 DUP(00H)
	DD	2 DUP(00H)
	DD	00H
	DD	01H
__unwindtable$?get_bytesToFloatPROC_function@DCTFFTW@@AAEP81@AEXPBEHPAM@ZHHHW4arch_t@@@Z DD 0ffffffffH
	DD	FLAT:__unwindfunclet$?get_bytesToFloatPROC_function@DCTFFTW@@AAEP81@AEXPBEHPAM@ZHHHW4arch_t@@@Z$0
xdata$x	ENDS
;	COMDAT xdata$x
xdata$x	SEGMENT
__ehfuncinfo$?clear@?$_Tree@V?$_Tmap_traits@V?$tuple@HHW4arch_t@@@std@@P8DCTFFTW@@AEXPBEHPAM@ZU?$less@V?$tuple@HHW4arch_t@@@std@@@2@V?$allocator@U?$pair@$$CBV?$tuple@HHW4arch_t@@@std@@P8DCTFFTW@@AEXPBEHPAM@Z@std@@@2@$0A@@std@@@std@@QAEXXZ DD 019930522H
	DD	00H
	DD	00H
	DD	2 DUP(00H)
	DD	2 DUP(00H)
	DD	00H
	DD	05H
xdata$x	ENDS
;	COMDAT xdata$x
xdata$x	SEGMENT
__ehfuncinfo$?clear@?$_Tree@V?$_Tmap_traits@V?$tuple@HHW4arch_t@@@std@@P8DCTFFTW@@AEXPAEHPAM@ZU?$less@V?$tuple@HHW4arch_t@@@std@@@2@V?$allocator@U?$pair@$$CBV?$tuple@HHW4arch_t@@@std@@P8DCTFFTW@@AEXPAEHPAM@Z@std@@@2@$0A@@std@@@std@@QAEXXZ DD 019930522H
	DD	00H
	DD	00H
	DD	2 DUP(00H)
	DD	2 DUP(00H)
	DD	00H
	DD	05H
xdata$x	ENDS
;	COMDAT xdata$x
xdata$x	SEGMENT
__ehfuncinfo$??$_Insert_hint@AAU?$pair@$$CBV?$tuple@HHW4arch_t@@@std@@P8DCTFFTW@@AEXPBEHPAM@Z@std@@PAU?$_Tree_node@U?$pair@$$CBV?$tuple@HHW4arch_t@@@std@@P8DCTFFTW@@AEXPBEHPAM@Z@std@@PAX@2@@?$_Tree@V?$_Tmap_traits@V?$tuple@HHW4arch_t@@@std@@P8DCTFFTW@@AEXPBEHPAM@ZU?$less@V?$tuple@HHW4arch_t@@@std@@@2@V?$allocator@U?$pair@$$CBV?$tuple@HHW4arch_t@@@std@@P8DCTFFTW@@AEXPBEHPAM@Z@std@@@2@$0A@@std@@@std@@IAE?AV?$_Tree_iterator@V?$_Tree_val@U?$_Tree_simple_types@U?$pair@$$CBV?$tuple@HHW4arch_t@@@std@@P8DCTFFTW@@AEXPBEHPAM@Z@std@@@std@@@std@@@1@V?$_Tree_const_iterator@V?$_Tree_val@U?$_Tree_simple_types@U?$pair@$$CBV?$tuple@HHW4arch_t@@@std@@P8DCTFFTW@@AEXPBEHPAM@Z@std@@@std@@@std@@@1@AAU?$pair@$$CBV?$tuple@HHW4arch_t@@@std@@P8DCTFFTW@@AEXPBEHPAM@Z@1@PAU?$_Tree_node@U?$pair@$$CBV?$tuple@HHW4arch_t@@@std@@P8DCTFFTW@@AEXPBEHPAM@Z@std@@PAX@1@@Z DD 019930522H
	DD	02H
	DD	FLAT:__unwindtable$??$_Insert_hint@AAU?$pair@$$CBV?$tuple@HHW4arch_t@@@std@@P8DCTFFTW@@AEXPBEHPAM@Z@std@@PAU?$_Tree_node@U?$pair@$$CBV?$tuple@HHW4arch_t@@@std@@P8DCTFFTW@@AEXPBEHPAM@Z@std@@PAX@2@@?$_Tree@V?$_Tmap_traits@V?$tuple@HHW4arch_t@@@std@@P8DCTFFTW@@AEXPBEHPAM@ZU?$less@V?$tuple@HHW4arch_t@@@std@@@2@V?$allocator@U?$pair@$$CBV?$tuple@HHW4arch_t@@@std@@P8DCTFFTW@@AEXPBEHPAM@Z@std@@@2@$0A@@std@@@std@@IAE?AV?$_Tree_iterator@V?$_Tree_val@U?$_Tree_simple_types@U?$pair@$$CBV?$tuple@HHW4arch_t@@@std@@P8DCTFFTW@@AEXPBEHPAM@Z@std@@@std@@@std@@@1@V?$_Tree_const_iterator@V?$_Tree_val@U?$_Tree_simple_types@U?$pair@$$CBV?$tuple@HHW4arch_t@@@std@@P8DCTFFTW@@AEXPBEHPAM@Z@std@@@std@@@std@@@1@AAU?$pair@$$CBV?$tuple@HHW4arch_t@@@std@@P8DCTFFTW@@AEXPBEHPAM@Z@1@PAU?$_Tree_node@U?$pair@$$CBV?$tuple@HHW4arch_t@@@std@@P8DCTFFTW@@AEXPBEHPAM@Z@std@@PAX@1@@Z
	DD	01H
	DD	FLAT:__tryblocktable$??$_Insert_hint@AAU?$pair@$$CBV?$tuple@HHW4arch_t@@@std@@P8DCTFFTW@@AEXPBEHPAM@Z@std@@PAU?$_Tree_node@U?$pair@$$CBV?$tuple@HHW4arch_t@@@std@@P8DCTFFTW@@AEXPBEHPAM@Z@std@@PAX@2@@?$_Tree@V?$_Tmap_traits@V?$tuple@HHW4arch_t@@@std@@P8DCTFFTW@@AEXPBEHPAM@ZU?$less@V?$tuple@HHW4arch_t@@@std@@@2@V?$allocator@U?$pair@$$CBV?$tuple@HHW4arch_t@@@std@@P8DCTFFTW@@AEXPBEHPAM@Z@std@@@2@$0A@@std@@@std@@IAE?AV?$_Tree_iterator@V?$_Tree_val@U?$_Tree_simple_types@U?$pair@$$CBV?$tuple@HHW4arch_t@@@std@@P8DCTFFTW@@AEXPBEHPAM@Z@std@@@std@@@std@@@1@V?$_Tree_const_iterator@V?$_Tree_val@U?$_Tree_simple_types@U?$pair@$$CBV?$tuple@HHW4arch_t@@@std@@P8DCTFFTW@@AEXPBEHPAM@Z@std@@@std@@@std@@@1@AAU?$pair@$$CBV?$tuple@HHW4arch_t@@@std@@P8DCTFFTW@@AEXPBEHPAM@Z@1@PAU?$_Tree_node@U?$pair@$$CBV?$tuple@HHW4arch_t@@@std@@P8DCTFFTW@@AEXPBEHPAM@Z@std@@PAX@1@@Z
	DD	2 DUP(00H)
	DD	00H
	DD	01H
__unwindtable$??$_Insert_hint@AAU?$pair@$$CBV?$tuple@HHW4arch_t@@@std@@P8DCTFFTW@@AEXPBEHPAM@Z@std@@PAU?$_Tree_node@U?$pair@$$CBV?$tuple@HHW4arch_t@@@std@@P8DCTFFTW@@AEXPBEHPAM@Z@std@@PAX@2@@?$_Tree@V?$_Tmap_traits@V?$tuple@HHW4arch_t@@@std@@P8DCTFFTW@@AEXPBEHPAM@ZU?$less@V?$tuple@HHW4arch_t@@@std@@@2@V?$allocator@U?$pair@$$CBV?$tuple@HHW4arch_t@@@std@@P8DCTFFTW@@AEXPBEHPAM@Z@std@@@2@$0A@@std@@@std@@IAE?AV?$_Tree_iterator@V?$_Tree_val@U?$_Tree_simple_types@U?$pair@$$CBV?$tuple@HHW4arch_t@@@std@@P8DCTFFTW@@AEXPBEHPAM@Z@std@@@std@@@std@@@1@V?$_Tree_const_iterator@V?$_Tree_val@U?$_Tree_simple_types@U?$pair@$$CBV?$tuple@HHW4arch_t@@@std@@P8DCTFFTW@@AEXPBEHPAM@Z@std@@@std@@@std@@@1@AAU?$pair@$$CBV?$tuple@HHW4arch_t@@@std@@P8DCTFFTW@@AEXPBEHPAM@Z@1@PAU?$_Tree_node@U?$pair@$$CBV?$tuple@HHW4arch_t@@@std@@P8DCTFFTW@@AEXPBEHPAM@Z@std@@PAX@1@@Z DD 0ffffffffH
	DD	00H
	DD	0ffffffffH
	DD	00H
__tryblocktable$??$_Insert_hint@AAU?$pair@$$CBV?$tuple@HHW4arch_t@@@std@@P8DCTFFTW@@AEXPBEHPAM@Z@std@@PAU?$_Tree_node@U?$pair@$$CBV?$tuple@HHW4arch_t@@@std@@P8DCTFFTW@@AEXPBEHPAM@Z@std@@PAX@2@@?$_Tree@V?$_Tmap_traits@V?$tuple@HHW4arch_t@@@std@@P8DCTFFTW@@AEXPBEHPAM@ZU?$less@V?$tuple@HHW4arch_t@@@std@@@2@V?$allocator@U?$pair@$$CBV?$tuple@HHW4arch_t@@@std@@P8DCTFFTW@@AEXPBEHPAM@Z@std@@@2@$0A@@std@@@std@@IAE?AV?$_Tree_iterator@V?$_Tree_val@U?$_Tree_simple_types@U?$pair@$$CBV?$tuple@HHW4arch_t@@@std@@P8DCTFFTW@@AEXPBEHPAM@Z@std@@@std@@@std@@@1@V?$_Tree_const_iterator@V?$_Tree_val@U?$_Tree_simple_types@U?$pair@$$CBV?$tuple@HHW4arch_t@@@std@@P8DCTFFTW@@AEXPBEHPAM@Z@std@@@std@@@std@@@1@AAU?$pair@$$CBV?$tuple@HHW4arch_t@@@std@@P8DCTFFTW@@AEXPBEHPAM@Z@1@PAU?$_Tree_node@U?$pair@$$CBV?$tuple@HHW4arch_t@@@std@@P8DCTFFTW@@AEXPBEHPAM@Z@std@@PAX@1@@Z DD 00H
	DD	00H
	DD	01H
	DD	01H
	DD	FLAT:__catchsym$??$_Insert_hint@AAU?$pair@$$CBV?$tuple@HHW4arch_t@@@std@@P8DCTFFTW@@AEXPBEHPAM@Z@std@@PAU?$_Tree_node@U?$pair@$$CBV?$tuple@HHW4arch_t@@@std@@P8DCTFFTW@@AEXPBEHPAM@Z@std@@PAX@2@@?$_Tree@V?$_Tmap_traits@V?$tuple@HHW4arch_t@@@std@@P8DCTFFTW@@AEXPBEHPAM@ZU?$less@V?$tuple@HHW4arch_t@@@std@@@2@V?$allocator@U?$pair@$$CBV?$tuple@HHW4arch_t@@@std@@P8DCTFFTW@@AEXPBEHPAM@Z@std@@@2@$0A@@std@@@std@@IAE?AV?$_Tree_iterator@V?$_Tree_val@U?$_Tree_simple_types@U?$pair@$$CBV?$tuple@HHW4arch_t@@@std@@P8DCTFFTW@@AEXPBEHPAM@Z@std@@@std@@@std@@@1@V?$_Tree_const_iterator@V?$_Tree_val@U?$_Tree_simple_types@U?$pair@$$CBV?$tuple@HHW4arch_t@@@std@@P8DCTFFTW@@AEXPBEHPAM@Z@std@@@std@@@std@@@1@AAU?$pair@$$CBV?$tuple@HHW4arch_t@@@std@@P8DCTFFTW@@AEXPBEHPAM@Z@1@PAU?$_Tree_node@U?$pair@$$CBV?$tuple@HHW4arch_t@@@std@@P8DCTFFTW@@AEXPBEHPAM@Z@std@@PAX@1@@Z$128
__catchsym$??$_Insert_hint@AAU?$pair@$$CBV?$tuple@HHW4arch_t@@@std@@P8DCTFFTW@@AEXPBEHPAM@Z@std@@PAU?$_Tree_node@U?$pair@$$CBV?$tuple@HHW4arch_t@@@std@@P8DCTFFTW@@AEXPBEHPAM@Z@std@@PAX@2@@?$_Tree@V?$_Tmap_traits@V?$tuple@HHW4arch_t@@@std@@P8DCTFFTW@@AEXPBEHPAM@ZU?$less@V?$tuple@HHW4arch_t@@@std@@@2@V?$allocator@U?$pair@$$CBV?$tuple@HHW4arch_t@@@std@@P8DCTFFTW@@AEXPBEHPAM@Z@std@@@2@$0A@@std@@@std@@IAE?AV?$_Tree_iterator@V?$_Tree_val@U?$_Tree_simple_types@U?$pair@$$CBV?$tuple@HHW4arch_t@@@std@@P8DCTFFTW@@AEXPBEHPAM@Z@std@@@std@@@std@@@1@V?$_Tree_const_iterator@V?$_Tree_val@U?$_Tree_simple_types@U?$pair@$$CBV?$tuple@HHW4arch_t@@@std@@P8DCTFFTW@@AEXPBEHPAM@Z@std@@@std@@@std@@@1@AAU?$pair@$$CBV?$tuple@HHW4arch_t@@@std@@P8DCTFFTW@@AEXPBEHPAM@Z@1@PAU?$_Tree_node@U?$pair@$$CBV?$tuple@HHW4arch_t@@@std@@P8DCTFFTW@@AEXPBEHPAM@Z@std@@PAX@1@@Z$128 DD 040H
	DD	00H
	DD	00H
	DD	FLAT:__catch$??$_Insert_hint@AAU?$pair@$$CBV?$tuple@HHW4arch_t@@@std@@P8DCTFFTW@@AEXPBEHPAM@Z@std@@PAU?$_Tree_node@U?$pair@$$CBV?$tuple@HHW4arch_t@@@std@@P8DCTFFTW@@AEXPBEHPAM@Z@std@@PAX@2@@?$_Tree@V?$_Tmap_traits@V?$tuple@HHW4arch_t@@@std@@P8DCTFFTW@@AEXPBEHPAM@ZU?$less@V?$tuple@HHW4arch_t@@@std@@@2@V?$allocator@U?$pair@$$CBV?$tuple@HHW4arch_t@@@std@@P8DCTFFTW@@AEXPBEHPAM@Z@std@@@2@$0A@@std@@@std@@IAE?AV?$_Tree_iterator@V?$_Tree_val@U?$_Tree_simple_types@U?$pair@$$CBV?$tuple@HHW4arch_t@@@std@@P8DCTFFTW@@AEXPBEHPAM@Z@std@@@std@@@std@@@1@V?$_Tree_const_iterator@V?$_Tree_val@U?$_Tree_simple_types@U?$pair@$$CBV?$tuple@HHW4arch_t@@@std@@P8DCTFFTW@@AEXPBEHPAM@Z@std@@@std@@@std@@@1@AAU?$pair@$$CBV?$tuple@HHW4arch_t@@@std@@P8DCTFFTW@@AEXPBEHPAM@Z@1@PAU?$_Tree_node@U?$pair@$$CBV?$tuple@HHW4arch_t@@@std@@P8DCTFFTW@@AEXPBEHPAM@Z@std@@PAX@1@@Z$0
xdata$x	ENDS
;	COMDAT xdata$x
xdata$x	SEGMENT
__ehfuncinfo$??$_Insert_hint@AAU?$pair@$$CBV?$tuple@HHW4arch_t@@@std@@P8DCTFFTW@@AEXPAEHPAM@Z@std@@PAU?$_Tree_node@U?$pair@$$CBV?$tuple@HHW4arch_t@@@std@@P8DCTFFTW@@AEXPAEHPAM@Z@std@@PAX@2@@?$_Tree@V?$_Tmap_traits@V?$tuple@HHW4arch_t@@@std@@P8DCTFFTW@@AEXPAEHPAM@ZU?$less@V?$tuple@HHW4arch_t@@@std@@@2@V?$allocator@U?$pair@$$CBV?$tuple@HHW4arch_t@@@std@@P8DCTFFTW@@AEXPAEHPAM@Z@std@@@2@$0A@@std@@@std@@IAE?AV?$_Tree_iterator@V?$_Tree_val@U?$_Tree_simple_types@U?$pair@$$CBV?$tuple@HHW4arch_t@@@std@@P8DCTFFTW@@AEXPAEHPAM@Z@std@@@std@@@std@@@1@V?$_Tree_const_iterator@V?$_Tree_val@U?$_Tree_simple_types@U?$pair@$$CBV?$tuple@HHW4arch_t@@@std@@P8DCTFFTW@@AEXPAEHPAM@Z@std@@@std@@@std@@@1@AAU?$pair@$$CBV?$tuple@HHW4arch_t@@@std@@P8DCTFFTW@@AEXPAEHPAM@Z@1@PAU?$_Tree_node@U?$pair@$$CBV?$tuple@HHW4arch_t@@@std@@P8DCTFFTW@@AEXPAEHPAM@Z@std@@PAX@1@@Z DD 019930522H
	DD	02H
	DD	FLAT:__unwindtable$??$_Insert_hint@AAU?$pair@$$CBV?$tuple@HHW4arch_t@@@std@@P8DCTFFTW@@AEXPAEHPAM@Z@std@@PAU?$_Tree_node@U?$pair@$$CBV?$tuple@HHW4arch_t@@@std@@P8DCTFFTW@@AEXPAEHPAM@Z@std@@PAX@2@@?$_Tree@V?$_Tmap_traits@V?$tuple@HHW4arch_t@@@std@@P8DCTFFTW@@AEXPAEHPAM@ZU?$less@V?$tuple@HHW4arch_t@@@std@@@2@V?$allocator@U?$pair@$$CBV?$tuple@HHW4arch_t@@@std@@P8DCTFFTW@@AEXPAEHPAM@Z@std@@@2@$0A@@std@@@std@@IAE?AV?$_Tree_iterator@V?$_Tree_val@U?$_Tree_simple_types@U?$pair@$$CBV?$tuple@HHW4arch_t@@@std@@P8DCTFFTW@@AEXPAEHPAM@Z@std@@@std@@@std@@@1@V?$_Tree_const_iterator@V?$_Tree_val@U?$_Tree_simple_types@U?$pair@$$CBV?$tuple@HHW4arch_t@@@std@@P8DCTFFTW@@AEXPAEHPAM@Z@std@@@std@@@std@@@1@AAU?$pair@$$CBV?$tuple@HHW4arch_t@@@std@@P8DCTFFTW@@AEXPAEHPAM@Z@1@PAU?$_Tree_node@U?$pair@$$CBV?$tuple@HHW4arch_t@@@std@@P8DCTFFTW@@AEXPAEHPAM@Z@std@@PAX@1@@Z
	DD	01H
	DD	FLAT:__tryblocktable$??$_Insert_hint@AAU?$pair@$$CBV?$tuple@HHW4arch_t@@@std@@P8DCTFFTW@@AEXPAEHPAM@Z@std@@PAU?$_Tree_node@U?$pair@$$CBV?$tuple@HHW4arch_t@@@std@@P8DCTFFTW@@AEXPAEHPAM@Z@std@@PAX@2@@?$_Tree@V?$_Tmap_traits@V?$tuple@HHW4arch_t@@@std@@P8DCTFFTW@@AEXPAEHPAM@ZU?$less@V?$tuple@HHW4arch_t@@@std@@@2@V?$allocator@U?$pair@$$CBV?$tuple@HHW4arch_t@@@std@@P8DCTFFTW@@AEXPAEHPAM@Z@std@@@2@$0A@@std@@@std@@IAE?AV?$_Tree_iterator@V?$_Tree_val@U?$_Tree_simple_types@U?$pair@$$CBV?$tuple@HHW4arch_t@@@std@@P8DCTFFTW@@AEXPAEHPAM@Z@std@@@std@@@std@@@1@V?$_Tree_const_iterator@V?$_Tree_val@U?$_Tree_simple_types@U?$pair@$$CBV?$tuple@HHW4arch_t@@@std@@P8DCTFFTW@@AEXPAEHPAM@Z@std@@@std@@@std@@@1@AAU?$pair@$$CBV?$tuple@HHW4arch_t@@@std@@P8DCTFFTW@@AEXPAEHPAM@Z@1@PAU?$_Tree_node@U?$pair@$$CBV?$tuple@HHW4arch_t@@@std@@P8DCTFFTW@@AEXPAEHPAM@Z@std@@PAX@1@@Z
	DD	2 DUP(00H)
	DD	00H
	DD	01H
__unwindtable$??$_Insert_hint@AAU?$pair@$$CBV?$tuple@HHW4arch_t@@@std@@P8DCTFFTW@@AEXPAEHPAM@Z@std@@PAU?$_Tree_node@U?$pair@$$CBV?$tuple@HHW4arch_t@@@std@@P8DCTFFTW@@AEXPAEHPAM@Z@std@@PAX@2@@?$_Tree@V?$_Tmap_traits@V?$tuple@HHW4arch_t@@@std@@P8DCTFFTW@@AEXPAEHPAM@ZU?$less@V?$tuple@HHW4arch_t@@@std@@@2@V?$allocator@U?$pair@$$CBV?$tuple@HHW4arch_t@@@std@@P8DCTFFTW@@AEXPAEHPAM@Z@std@@@2@$0A@@std@@@std@@IAE?AV?$_Tree_iterator@V?$_Tree_val@U?$_Tree_simple_types@U?$pair@$$CBV?$tuple@HHW4arch_t@@@std@@P8DCTFFTW@@AEXPAEHPAM@Z@std@@@std@@@std@@@1@V?$_Tree_const_iterator@V?$_Tree_val@U?$_Tree_simple_types@U?$pair@$$CBV?$tuple@HHW4arch_t@@@std@@P8DCTFFTW@@AEXPAEHPAM@Z@std@@@std@@@std@@@1@AAU?$pair@$$CBV?$tuple@HHW4arch_t@@@std@@P8DCTFFTW@@AEXPAEHPAM@Z@1@PAU?$_Tree_node@U?$pair@$$CBV?$tuple@HHW4arch_t@@@std@@P8DCTFFTW@@AEXPAEHPAM@Z@std@@PAX@1@@Z DD 0ffffffffH
	DD	00H
	DD	0ffffffffH
	DD	00H
__tryblocktable$??$_Insert_hint@AAU?$pair@$$CBV?$tuple@HHW4arch_t@@@std@@P8DCTFFTW@@AEXPAEHPAM@Z@std@@PAU?$_Tree_node@U?$pair@$$CBV?$tuple@HHW4arch_t@@@std@@P8DCTFFTW@@AEXPAEHPAM@Z@std@@PAX@2@@?$_Tree@V?$_Tmap_traits@V?$tuple@HHW4arch_t@@@std@@P8DCTFFTW@@AEXPAEHPAM@ZU?$less@V?$tuple@HHW4arch_t@@@std@@@2@V?$allocator@U?$pair@$$CBV?$tuple@HHW4arch_t@@@std@@P8DCTFFTW@@AEXPAEHPAM@Z@std@@@2@$0A@@std@@@std@@IAE?AV?$_Tree_iterator@V?$_Tree_val@U?$_Tree_simple_types@U?$pair@$$CBV?$tuple@HHW4arch_t@@@std@@P8DCTFFTW@@AEXPAEHPAM@Z@std@@@std@@@std@@@1@V?$_Tree_const_iterator@V?$_Tree_val@U?$_Tree_simple_types@U?$pair@$$CBV?$tuple@HHW4arch_t@@@std@@P8DCTFFTW@@AEXPAEHPAM@Z@std@@@std@@@std@@@1@AAU?$pair@$$CBV?$tuple@HHW4arch_t@@@std@@P8DCTFFTW@@AEXPAEHPAM@Z@1@PAU?$_Tree_node@U?$pair@$$CBV?$tuple@HHW4arch_t@@@std@@P8DCTFFTW@@AEXPAEHPAM@Z@std@@PAX@1@@Z DD 00H
	DD	00H
	DD	01H
	DD	01H
	DD	FLAT:__catchsym$??$_Insert_hint@AAU?$pair@$$CBV?$tuple@HHW4arch_t@@@std@@P8DCTFFTW@@AEXPAEHPAM@Z@std@@PAU?$_Tree_node@U?$pair@$$CBV?$tuple@HHW4arch_t@@@std@@P8DCTFFTW@@AEXPAEHPAM@Z@std@@PAX@2@@?$_Tree@V?$_Tmap_traits@V?$tuple@HHW4arch_t@@@std@@P8DCTFFTW@@AEXPAEHPAM@ZU?$less@V?$tuple@HHW4arch_t@@@std@@@2@V?$allocator@U?$pair@$$CBV?$tuple@HHW4arch_t@@@std@@P8DCTFFTW@@AEXPAEHPAM@Z@std@@@2@$0A@@std@@@std@@IAE?AV?$_Tree_iterator@V?$_Tree_val@U?$_Tree_simple_types@U?$pair@$$CBV?$tuple@HHW4arch_t@@@std@@P8DCTFFTW@@AEXPAEHPAM@Z@std@@@std@@@std@@@1@V?$_Tree_const_iterator@V?$_Tree_val@U?$_Tree_simple_types@U?$pair@$$CBV?$tuple@HHW4arch_t@@@std@@P8DCTFFTW@@AEXPAEHPAM@Z@std@@@std@@@std@@@1@AAU?$pair@$$CBV?$tuple@HHW4arch_t@@@std@@P8DCTFFTW@@AEXPAEHPAM@Z@1@PAU?$_Tree_node@U?$pair@$$CBV?$tuple@HHW4arch_t@@@std@@P8DCTFFTW@@AEXPAEHPAM@Z@std@@PAX@1@@Z$128
__catchsym$??$_Insert_hint@AAU?$pair@$$CBV?$tuple@HHW4arch_t@@@std@@P8DCTFFTW@@AEXPAEHPAM@Z@std@@PAU?$_Tree_node@U?$pair@$$CBV?$tuple@HHW4arch_t@@@std@@P8DCTFFTW@@AEXPAEHPAM@Z@std@@PAX@2@@?$_Tree@V?$_Tmap_traits@V?$tuple@HHW4arch_t@@@std@@P8DCTFFTW@@AEXPAEHPAM@ZU?$less@V?$tuple@HHW4arch_t@@@std@@@2@V?$allocator@U?$pair@$$CBV?$tuple@HHW4arch_t@@@std@@P8DCTFFTW@@AEXPAEHPAM@Z@std@@@2@$0A@@std@@@std@@IAE?AV?$_Tree_iterator@V?$_Tree_val@U?$_Tree_simple_types@U?$pair@$$CBV?$tuple@HHW4arch_t@@@std@@P8DCTFFTW@@AEXPAEHPAM@Z@std@@@std@@@std@@@1@V?$_Tree_const_iterator@V?$_Tree_val@U?$_Tree_simple_types@U?$pair@$$CBV?$tuple@HHW4arch_t@@@std@@P8DCTFFTW@@AEXPAEHPAM@Z@std@@@std@@@std@@@1@AAU?$pair@$$CBV?$tuple@HHW4arch_t@@@std@@P8DCTFFTW@@AEXPAEHPAM@Z@1@PAU?$_Tree_node@U?$pair@$$CBV?$tuple@HHW4arch_t@@@std@@P8DCTFFTW@@AEXPAEHPAM@Z@std@@PAX@1@@Z$128 DD 040H
	DD	00H
	DD	00H
	DD	FLAT:__catch$??$_Insert_hint@AAU?$pair@$$CBV?$tuple@HHW4arch_t@@@std@@P8DCTFFTW@@AEXPAEHPAM@Z@std@@PAU?$_Tree_node@U?$pair@$$CBV?$tuple@HHW4arch_t@@@std@@P8DCTFFTW@@AEXPAEHPAM@Z@std@@PAX@2@@?$_Tree@V?$_Tmap_traits@V?$tuple@HHW4arch_t@@@std@@P8DCTFFTW@@AEXPAEHPAM@ZU?$less@V?$tuple@HHW4arch_t@@@std@@@2@V?$allocator@U?$pair@$$CBV?$tuple@HHW4arch_t@@@std@@P8DCTFFTW@@AEXPAEHPAM@Z@std@@@2@$0A@@std@@@std@@IAE?AV?$_Tree_iterator@V?$_Tree_val@U?$_Tree_simple_types@U?$pair@$$CBV?$tuple@HHW4arch_t@@@std@@P8DCTFFTW@@AEXPAEHPAM@Z@std@@@std@@@std@@@1@V?$_Tree_const_iterator@V?$_Tree_val@U?$_Tree_simple_types@U?$pair@$$CBV?$tuple@HHW4arch_t@@@std@@P8DCTFFTW@@AEXPAEHPAM@Z@std@@@std@@@std@@@1@AAU?$pair@$$CBV?$tuple@HHW4arch_t@@@std@@P8DCTFFTW@@AEXPAEHPAM@Z@1@PAU?$_Tree_node@U?$pair@$$CBV?$tuple@HHW4arch_t@@@std@@P8DCTFFTW@@AEXPAEHPAM@Z@std@@PAX@1@@Z$0
xdata$x	ENDS
;	COMDAT xdata$x
xdata$x	SEGMENT
__ehfuncinfo$??$_Insert_nohint@AAU?$pair@$$CBV?$tuple@HHW4arch_t@@@std@@P8DCTFFTW@@AEXPBEHPAM@Z@std@@PAU?$_Tree_node@U?$pair@$$CBV?$tuple@HHW4arch_t@@@std@@P8DCTFFTW@@AEXPBEHPAM@Z@std@@PAX@2@@?$_Tree@V?$_Tmap_traits@V?$tuple@HHW4arch_t@@@std@@P8DCTFFTW@@AEXPBEHPAM@ZU?$less@V?$tuple@HHW4arch_t@@@std@@@2@V?$allocator@U?$pair@$$CBV?$tuple@HHW4arch_t@@@std@@P8DCTFFTW@@AEXPBEHPAM@Z@std@@@2@$0A@@std@@@std@@IAE?AU?$pair@V?$_Tree_iterator@V?$_Tree_val@U?$_Tree_simple_types@U?$pair@$$CBV?$tuple@HHW4arch_t@@@std@@P8DCTFFTW@@AEXPBEHPAM@Z@std@@@std@@@std@@@std@@_N@1@_NAAU?$pair@$$CBV?$tuple@HHW4arch_t@@@std@@P8DCTFFTW@@AEXPBEHPAM@Z@1@PAU?$_Tree_node@U?$pair@$$CBV?$tuple@HHW4arch_t@@@std@@P8DCTFFTW@@AEXPBEHPAM@Z@std@@PAX@1@@Z DD 019930522H
	DD	02H
	DD	FLAT:__unwindtable$??$_Insert_nohint@AAU?$pair@$$CBV?$tuple@HHW4arch_t@@@std@@P8DCTFFTW@@AEXPBEHPAM@Z@std@@PAU?$_Tree_node@U?$pair@$$CBV?$tuple@HHW4arch_t@@@std@@P8DCTFFTW@@AEXPBEHPAM@Z@std@@PAX@2@@?$_Tree@V?$_Tmap_traits@V?$tuple@HHW4arch_t@@@std@@P8DCTFFTW@@AEXPBEHPAM@ZU?$less@V?$tuple@HHW4arch_t@@@std@@@2@V?$allocator@U?$pair@$$CBV?$tuple@HHW4arch_t@@@std@@P8DCTFFTW@@AEXPBEHPAM@Z@std@@@2@$0A@@std@@@std@@IAE?AU?$pair@V?$_Tree_iterator@V?$_Tree_val@U?$_Tree_simple_types@U?$pair@$$CBV?$tuple@HHW4arch_t@@@std@@P8DCTFFTW@@AEXPBEHPAM@Z@std@@@std@@@std@@@std@@_N@1@_NAAU?$pair@$$CBV?$tuple@HHW4arch_t@@@std@@P8DCTFFTW@@AEXPBEHPAM@Z@1@PAU?$_Tree_node@U?$pair@$$CBV?$tuple@HHW4arch_t@@@std@@P8DCTFFTW@@AEXPBEHPAM@Z@std@@PAX@1@@Z
	DD	01H
	DD	FLAT:__tryblocktable$??$_Insert_nohint@AAU?$pair@$$CBV?$tuple@HHW4arch_t@@@std@@P8DCTFFTW@@AEXPBEHPAM@Z@std@@PAU?$_Tree_node@U?$pair@$$CBV?$tuple@HHW4arch_t@@@std@@P8DCTFFTW@@AEXPBEHPAM@Z@std@@PAX@2@@?$_Tree@V?$_Tmap_traits@V?$tuple@HHW4arch_t@@@std@@P8DCTFFTW@@AEXPBEHPAM@ZU?$less@V?$tuple@HHW4arch_t@@@std@@@2@V?$allocator@U?$pair@$$CBV?$tuple@HHW4arch_t@@@std@@P8DCTFFTW@@AEXPBEHPAM@Z@std@@@2@$0A@@std@@@std@@IAE?AU?$pair@V?$_Tree_iterator@V?$_Tree_val@U?$_Tree_simple_types@U?$pair@$$CBV?$tuple@HHW4arch_t@@@std@@P8DCTFFTW@@AEXPBEHPAM@Z@std@@@std@@@std@@@std@@_N@1@_NAAU?$pair@$$CBV?$tuple@HHW4arch_t@@@std@@P8DCTFFTW@@AEXPBEHPAM@Z@1@PAU?$_Tree_node@U?$pair@$$CBV?$tuple@HHW4arch_t@@@std@@P8DCTFFTW@@AEXPBEHPAM@Z@std@@PAX@1@@Z
	DD	2 DUP(00H)
	DD	00H
	DD	01H
__unwindtable$??$_Insert_nohint@AAU?$pair@$$CBV?$tuple@HHW4arch_t@@@std@@P8DCTFFTW@@AEXPBEHPAM@Z@std@@PAU?$_Tree_node@U?$pair@$$CBV?$tuple@HHW4arch_t@@@std@@P8DCTFFTW@@AEXPBEHPAM@Z@std@@PAX@2@@?$_Tree@V?$_Tmap_traits@V?$tuple@HHW4arch_t@@@std@@P8DCTFFTW@@AEXPBEHPAM@ZU?$less@V?$tuple@HHW4arch_t@@@std@@@2@V?$allocator@U?$pair@$$CBV?$tuple@HHW4arch_t@@@std@@P8DCTFFTW@@AEXPBEHPAM@Z@std@@@2@$0A@@std@@@std@@IAE?AU?$pair@V?$_Tree_iterator@V?$_Tree_val@U?$_Tree_simple_types@U?$pair@$$CBV?$tuple@HHW4arch_t@@@std@@P8DCTFFTW@@AEXPBEHPAM@Z@std@@@std@@@std@@@std@@_N@1@_NAAU?$pair@$$CBV?$tuple@HHW4arch_t@@@std@@P8DCTFFTW@@AEXPBEHPAM@Z@1@PAU?$_Tree_node@U?$pair@$$CBV?$tuple@HHW4arch_t@@@std@@P8DCTFFTW@@AEXPBEHPAM@Z@std@@PAX@1@@Z DD 0ffffffffH
	DD	00H
	DD	0ffffffffH
	DD	00H
__tryblocktable$??$_Insert_nohint@AAU?$pair@$$CBV?$tuple@HHW4arch_t@@@std@@P8DCTFFTW@@AEXPBEHPAM@Z@std@@PAU?$_Tree_node@U?$pair@$$CBV?$tuple@HHW4arch_t@@@std@@P8DCTFFTW@@AEXPBEHPAM@Z@std@@PAX@2@@?$_Tree@V?$_Tmap_traits@V?$tuple@HHW4arch_t@@@std@@P8DCTFFTW@@AEXPBEHPAM@ZU?$less@V?$tuple@HHW4arch_t@@@std@@@2@V?$allocator@U?$pair@$$CBV?$tuple@HHW4arch_t@@@std@@P8DCTFFTW@@AEXPBEHPAM@Z@std@@@2@$0A@@std@@@std@@IAE?AU?$pair@V?$_Tree_iterator@V?$_Tree_val@U?$_Tree_simple_types@U?$pair@$$CBV?$tuple@HHW4arch_t@@@std@@P8DCTFFTW@@AEXPBEHPAM@Z@std@@@std@@@std@@@std@@_N@1@_NAAU?$pair@$$CBV?$tuple@HHW4arch_t@@@std@@P8DCTFFTW@@AEXPBEHPAM@Z@1@PAU?$_Tree_node@U?$pair@$$CBV?$tuple@HHW4arch_t@@@std@@P8DCTFFTW@@AEXPBEHPAM@Z@std@@PAX@1@@Z DD 00H
	DD	00H
	DD	01H
	DD	01H
	DD	FLAT:__catchsym$??$_Insert_nohint@AAU?$pair@$$CBV?$tuple@HHW4arch_t@@@std@@P8DCTFFTW@@AEXPBEHPAM@Z@std@@PAU?$_Tree_node@U?$pair@$$CBV?$tuple@HHW4arch_t@@@std@@P8DCTFFTW@@AEXPBEHPAM@Z@std@@PAX@2@@?$_Tree@V?$_Tmap_traits@V?$tuple@HHW4arch_t@@@std@@P8DCTFFTW@@AEXPBEHPAM@ZU?$less@V?$tuple@HHW4arch_t@@@std@@@2@V?$allocator@U?$pair@$$CBV?$tuple@HHW4arch_t@@@std@@P8DCTFFTW@@AEXPBEHPAM@Z@std@@@2@$0A@@std@@@std@@IAE?AU?$pair@V?$_Tree_iterator@V?$_Tree_val@U?$_Tree_simple_types@U?$pair@$$CBV?$tuple@HHW4arch_t@@@std@@P8DCTFFTW@@AEXPBEHPAM@Z@std@@@std@@@std@@@std@@_N@1@_NAAU?$pair@$$CBV?$tuple@HHW4arch_t@@@std@@P8DCTFFTW@@AEXPBEHPAM@Z@1@PAU?$_Tree_node@U?$pair@$$CBV?$tuple@HHW4arch_t@@@std@@P8DCTFFTW@@AEXPBEHPAM@Z@std@@PAX@1@@Z$68
__catchsym$??$_Insert_nohint@AAU?$pair@$$CBV?$tuple@HHW4arch_t@@@std@@P8DCTFFTW@@AEXPBEHPAM@Z@std@@PAU?$_Tree_node@U?$pair@$$CBV?$tuple@HHW4arch_t@@@std@@P8DCTFFTW@@AEXPBEHPAM@Z@std@@PAX@2@@?$_Tree@V?$_Tmap_traits@V?$tuple@HHW4arch_t@@@std@@P8DCTFFTW@@AEXPBEHPAM@ZU?$less@V?$tuple@HHW4arch_t@@@std@@@2@V?$allocator@U?$pair@$$CBV?$tuple@HHW4arch_t@@@std@@P8DCTFFTW@@AEXPBEHPAM@Z@std@@@2@$0A@@std@@@std@@IAE?AU?$pair@V?$_Tree_iterator@V?$_Tree_val@U?$_Tree_simple_types@U?$pair@$$CBV?$tuple@HHW4arch_t@@@std@@P8DCTFFTW@@AEXPBEHPAM@Z@std@@@std@@@std@@@std@@_N@1@_NAAU?$pair@$$CBV?$tuple@HHW4arch_t@@@std@@P8DCTFFTW@@AEXPBEHPAM@Z@1@PAU?$_Tree_node@U?$pair@$$CBV?$tuple@HHW4arch_t@@@std@@P8DCTFFTW@@AEXPBEHPAM@Z@std@@PAX@1@@Z$68 DD 040H
	DD	00H
	DD	00H
	DD	FLAT:__catch$??$_Insert_nohint@AAU?$pair@$$CBV?$tuple@HHW4arch_t@@@std@@P8DCTFFTW@@AEXPBEHPAM@Z@std@@PAU?$_Tree_node@U?$pair@$$CBV?$tuple@HHW4arch_t@@@std@@P8DCTFFTW@@AEXPBEHPAM@Z@std@@PAX@2@@?$_Tree@V?$_Tmap_traits@V?$tuple@HHW4arch_t@@@std@@P8DCTFFTW@@AEXPBEHPAM@ZU?$less@V?$tuple@HHW4arch_t@@@std@@@2@V?$allocator@U?$pair@$$CBV?$tuple@HHW4arch_t@@@std@@P8DCTFFTW@@AEXPBEHPAM@Z@std@@@2@$0A@@std@@@std@@IAE?AU?$pair@V?$_Tree_iterator@V?$_Tree_val@U?$_Tree_simple_types@U?$pair@$$CBV?$tuple@HHW4arch_t@@@std@@P8DCTFFTW@@AEXPBEHPAM@Z@std@@@std@@@std@@@std@@_N@1@_NAAU?$pair@$$CBV?$tuple@HHW4arch_t@@@std@@P8DCTFFTW@@AEXPBEHPAM@Z@1@PAU?$_Tree_node@U?$pair@$$CBV?$tuple@HHW4arch_t@@@std@@P8DCTFFTW@@AEXPBEHPAM@Z@std@@PAX@1@@Z$0
xdata$x	ENDS
;	COMDAT xdata$x
xdata$x	SEGMENT
__ehfuncinfo$??$_Insert_nohint@AAU?$pair@$$CBV?$tuple@HHW4arch_t@@@std@@P8DCTFFTW@@AEXPAEHPAM@Z@std@@PAU?$_Tree_node@U?$pair@$$CBV?$tuple@HHW4arch_t@@@std@@P8DCTFFTW@@AEXPAEHPAM@Z@std@@PAX@2@@?$_Tree@V?$_Tmap_traits@V?$tuple@HHW4arch_t@@@std@@P8DCTFFTW@@AEXPAEHPAM@ZU?$less@V?$tuple@HHW4arch_t@@@std@@@2@V?$allocator@U?$pair@$$CBV?$tuple@HHW4arch_t@@@std@@P8DCTFFTW@@AEXPAEHPAM@Z@std@@@2@$0A@@std@@@std@@IAE?AU?$pair@V?$_Tree_iterator@V?$_Tree_val@U?$_Tree_simple_types@U?$pair@$$CBV?$tuple@HHW4arch_t@@@std@@P8DCTFFTW@@AEXPAEHPAM@Z@std@@@std@@@std@@@std@@_N@1@_NAAU?$pair@$$CBV?$tuple@HHW4arch_t@@@std@@P8DCTFFTW@@AEXPAEHPAM@Z@1@PAU?$_Tree_node@U?$pair@$$CBV?$tuple@HHW4arch_t@@@std@@P8DCTFFTW@@AEXPAEHPAM@Z@std@@PAX@1@@Z DD 019930522H
	DD	02H
	DD	FLAT:__unwindtable$??$_Insert_nohint@AAU?$pair@$$CBV?$tuple@HHW4arch_t@@@std@@P8DCTFFTW@@AEXPAEHPAM@Z@std@@PAU?$_Tree_node@U?$pair@$$CBV?$tuple@HHW4arch_t@@@std@@P8DCTFFTW@@AEXPAEHPAM@Z@std@@PAX@2@@?$_Tree@V?$_Tmap_traits@V?$tuple@HHW4arch_t@@@std@@P8DCTFFTW@@AEXPAEHPAM@ZU?$less@V?$tuple@HHW4arch_t@@@std@@@2@V?$allocator@U?$pair@$$CBV?$tuple@HHW4arch_t@@@std@@P8DCTFFTW@@AEXPAEHPAM@Z@std@@@2@$0A@@std@@@std@@IAE?AU?$pair@V?$_Tree_iterator@V?$_Tree_val@U?$_Tree_simple_types@U?$pair@$$CBV?$tuple@HHW4arch_t@@@std@@P8DCTFFTW@@AEXPAEHPAM@Z@std@@@std@@@std@@@std@@_N@1@_NAAU?$pair@$$CBV?$tuple@HHW4arch_t@@@std@@P8DCTFFTW@@AEXPAEHPAM@Z@1@PAU?$_Tree_node@U?$pair@$$CBV?$tuple@HHW4arch_t@@@std@@P8DCTFFTW@@AEXPAEHPAM@Z@std@@PAX@1@@Z
	DD	01H
	DD	FLAT:__tryblocktable$??$_Insert_nohint@AAU?$pair@$$CBV?$tuple@HHW4arch_t@@@std@@P8DCTFFTW@@AEXPAEHPAM@Z@std@@PAU?$_Tree_node@U?$pair@$$CBV?$tuple@HHW4arch_t@@@std@@P8DCTFFTW@@AEXPAEHPAM@Z@std@@PAX@2@@?$_Tree@V?$_Tmap_traits@V?$tuple@HHW4arch_t@@@std@@P8DCTFFTW@@AEXPAEHPAM@ZU?$less@V?$tuple@HHW4arch_t@@@std@@@2@V?$allocator@U?$pair@$$CBV?$tuple@HHW4arch_t@@@std@@P8DCTFFTW@@AEXPAEHPAM@Z@std@@@2@$0A@@std@@@std@@IAE?AU?$pair@V?$_Tree_iterator@V?$_Tree_val@U?$_Tree_simple_types@U?$pair@$$CBV?$tuple@HHW4arch_t@@@std@@P8DCTFFTW@@AEXPAEHPAM@Z@std@@@std@@@std@@@std@@_N@1@_NAAU?$pair@$$CBV?$tuple@HHW4arch_t@@@std@@P8DCTFFTW@@AEXPAEHPAM@Z@1@PAU?$_Tree_node@U?$pair@$$CBV?$tuple@HHW4arch_t@@@std@@P8DCTFFTW@@AEXPAEHPAM@Z@std@@PAX@1@@Z
	DD	2 DUP(00H)
	DD	00H
	DD	01H
__unwindtable$??$_Insert_nohint@AAU?$pair@$$CBV?$tuple@HHW4arch_t@@@std@@P8DCTFFTW@@AEXPAEHPAM@Z@std@@PAU?$_Tree_node@U?$pair@$$CBV?$tuple@HHW4arch_t@@@std@@P8DCTFFTW@@AEXPAEHPAM@Z@std@@PAX@2@@?$_Tree@V?$_Tmap_traits@V?$tuple@HHW4arch_t@@@std@@P8DCTFFTW@@AEXPAEHPAM@ZU?$less@V?$tuple@HHW4arch_t@@@std@@@2@V?$allocator@U?$pair@$$CBV?$tuple@HHW4arch_t@@@std@@P8DCTFFTW@@AEXPAEHPAM@Z@std@@@2@$0A@@std@@@std@@IAE?AU?$pair@V?$_Tree_iterator@V?$_Tree_val@U?$_Tree_simple_types@U?$pair@$$CBV?$tuple@HHW4arch_t@@@std@@P8DCTFFTW@@AEXPAEHPAM@Z@std@@@std@@@std@@@std@@_N@1@_NAAU?$pair@$$CBV?$tuple@HHW4arch_t@@@std@@P8DCTFFTW@@AEXPAEHPAM@Z@1@PAU?$_Tree_node@U?$pair@$$CBV?$tuple@HHW4arch_t@@@std@@P8DCTFFTW@@AEXPAEHPAM@Z@std@@PAX@1@@Z DD 0ffffffffH
	DD	00H
	DD	0ffffffffH
	DD	00H
__tryblocktable$??$_Insert_nohint@AAU?$pair@$$CBV?$tuple@HHW4arch_t@@@std@@P8DCTFFTW@@AEXPAEHPAM@Z@std@@PAU?$_Tree_node@U?$pair@$$CBV?$tuple@HHW4arch_t@@@std@@P8DCTFFTW@@AEXPAEHPAM@Z@std@@PAX@2@@?$_Tree@V?$_Tmap_traits@V?$tuple@HHW4arch_t@@@std@@P8DCTFFTW@@AEXPAEHPAM@ZU?$less@V?$tuple@HHW4arch_t@@@std@@@2@V?$allocator@U?$pair@$$CBV?$tuple@HHW4arch_t@@@std@@P8DCTFFTW@@AEXPAEHPAM@Z@std@@@2@$0A@@std@@@std@@IAE?AU?$pair@V?$_Tree_iterator@V?$_Tree_val@U?$_Tree_simple_types@U?$pair@$$CBV?$tuple@HHW4arch_t@@@std@@P8DCTFFTW@@AEXPAEHPAM@Z@std@@@std@@@std@@@std@@_N@1@_NAAU?$pair@$$CBV?$tuple@HHW4arch_t@@@std@@P8DCTFFTW@@AEXPAEHPAM@Z@1@PAU?$_Tree_node@U?$pair@$$CBV?$tuple@HHW4arch_t@@@std@@P8DCTFFTW@@AEXPAEHPAM@Z@std@@PAX@1@@Z DD 00H
	DD	00H
	DD	01H
	DD	01H
	DD	FLAT:__catchsym$??$_Insert_nohint@AAU?$pair@$$CBV?$tuple@HHW4arch_t@@@std@@P8DCTFFTW@@AEXPAEHPAM@Z@std@@PAU?$_Tree_node@U?$pair@$$CBV?$tuple@HHW4arch_t@@@std@@P8DCTFFTW@@AEXPAEHPAM@Z@std@@PAX@2@@?$_Tree@V?$_Tmap_traits@V?$tuple@HHW4arch_t@@@std@@P8DCTFFTW@@AEXPAEHPAM@ZU?$less@V?$tuple@HHW4arch_t@@@std@@@2@V?$allocator@U?$pair@$$CBV?$tuple@HHW4arch_t@@@std@@P8DCTFFTW@@AEXPAEHPAM@Z@std@@@2@$0A@@std@@@std@@IAE?AU?$pair@V?$_Tree_iterator@V?$_Tree_val@U?$_Tree_simple_types@U?$pair@$$CBV?$tuple@HHW4arch_t@@@std@@P8DCTFFTW@@AEXPAEHPAM@Z@std@@@std@@@std@@@std@@_N@1@_NAAU?$pair@$$CBV?$tuple@HHW4arch_t@@@std@@P8DCTFFTW@@AEXPAEHPAM@Z@1@PAU?$_Tree_node@U?$pair@$$CBV?$tuple@HHW4arch_t@@@std@@P8DCTFFTW@@AEXPAEHPAM@Z@std@@PAX@1@@Z$68
__catchsym$??$_Insert_nohint@AAU?$pair@$$CBV?$tuple@HHW4arch_t@@@std@@P8DCTFFTW@@AEXPAEHPAM@Z@std@@PAU?$_Tree_node@U?$pair@$$CBV?$tuple@HHW4arch_t@@@std@@P8DCTFFTW@@AEXPAEHPAM@Z@std@@PAX@2@@?$_Tree@V?$_Tmap_traits@V?$tuple@HHW4arch_t@@@std@@P8DCTFFTW@@AEXPAEHPAM@ZU?$less@V?$tuple@HHW4arch_t@@@std@@@2@V?$allocator@U?$pair@$$CBV?$tuple@HHW4arch_t@@@std@@P8DCTFFTW@@AEXPAEHPAM@Z@std@@@2@$0A@@std@@@std@@IAE?AU?$pair@V?$_Tree_iterator@V?$_Tree_val@U?$_Tree_simple_types@U?$pair@$$CBV?$tuple@HHW4arch_t@@@std@@P8DCTFFTW@@AEXPAEHPAM@Z@std@@@std@@@std@@@std@@_N@1@_NAAU?$pair@$$CBV?$tuple@HHW4arch_t@@@std@@P8DCTFFTW@@AEXPAEHPAM@Z@1@PAU?$_Tree_node@U?$pair@$$CBV?$tuple@HHW4arch_t@@@std@@P8DCTFFTW@@AEXPAEHPAM@Z@std@@PAX@1@@Z$68 DD 040H
	DD	00H
	DD	00H
	DD	FLAT:__catch$??$_Insert_nohint@AAU?$pair@$$CBV?$tuple@HHW4arch_t@@@std@@P8DCTFFTW@@AEXPAEHPAM@Z@std@@PAU?$_Tree_node@U?$pair@$$CBV?$tuple@HHW4arch_t@@@std@@P8DCTFFTW@@AEXPAEHPAM@Z@std@@PAX@2@@?$_Tree@V?$_Tmap_traits@V?$tuple@HHW4arch_t@@@std@@P8DCTFFTW@@AEXPAEHPAM@ZU?$less@V?$tuple@HHW4arch_t@@@std@@@2@V?$allocator@U?$pair@$$CBV?$tuple@HHW4arch_t@@@std@@P8DCTFFTW@@AEXPAEHPAM@Z@std@@@2@$0A@@std@@@std@@IAE?AU?$pair@V?$_Tree_iterator@V?$_Tree_val@U?$_Tree_simple_types@U?$pair@$$CBV?$tuple@HHW4arch_t@@@std@@P8DCTFFTW@@AEXPAEHPAM@Z@std@@@std@@@std@@@std@@_N@1@_NAAU?$pair@$$CBV?$tuple@HHW4arch_t@@@std@@P8DCTFFTW@@AEXPAEHPAM@Z@1@PAU?$_Tree_node@U?$pair@$$CBV?$tuple@HHW4arch_t@@@std@@P8DCTFFTW@@AEXPAEHPAM@Z@std@@PAX@1@@Z$0
??_fftw_mutex$initializer$@DCTFFTW@@0P6AXXZA@@3P6AXXZA DD FLAT:??__E?_fftw_mutex@DCTFFTW@@0VMutex@conc@@A@@YAXXZ ; ??_fftw_mutex$initializer$@DCTFFTW@@0P6AXXZA@@3P6AXXZA
; Function compile flags: /Ogtpy
; File c:\github\mvtools\sources\dctfftw.cpp
; File c:\github\mvtools\sources\conc\critsec.hpp
; File c:\github\mvtools\sources\conc\mutex.hpp
; File c:\github\mvtools\sources\dctfftw.cpp
; File c:\github\mvtools\sources\conc\mutex.hpp
; File c:\github\mvtools\sources\dctfftw.cpp
; File c:\github\mvtools\sources\conc\mutex.hpp
; File c:\github\mvtools\sources\dctfftw.cpp
;	COMDAT ??0DCTFFTW@@QAE@HHPAUHINSTANCE__@@HHHH@Z
_TEXT	SEGMENT
__$EHRec$ = -12						; size = 12
__sizex$ = 8						; size = 4
__sizey$ = 12						; size = 4
_lock$ = 16						; size = 4
_hinstFFTW3$ = 16					; size = 4
__dctmode$ = 20						; size = 4
__pixelsize$ = 24					; size = 4
__bits_per_pixel$ = 28					; size = 4
_cpu$ = 32						; size = 4
??0DCTFFTW@@QAE@HHPAUHINSTANCE__@@HHHH@Z PROC		; DCTFFTW::DCTFFTW, COMDAT
; _this$ = ecx

; 40   : {

	push	ebp
	mov	ebp, esp
	mov	eax, DWORD PTR fs:0
	push	-1
	push	__ehhandler$??0DCTFFTW@@QAE@HHPAUHINSTANCE__@@HHHH@Z
	push	eax
	mov	DWORD PTR fs:0, esp
	push	ebx

; 41   :   fftwf_free_addr = (fftwf_free_proc)GetProcAddress(hinstFFTW3, "fftwf_free");

	mov	ebx, DWORD PTR __imp__GetProcAddress@8
	push	esi
	push	edi
	mov	edi, DWORD PTR _hinstFFTW3$[ebp]
	mov	esi, ecx
	push	OFFSET ??_C@_0L@GPFGNDCB@fftwf_free?$AA@
	push	edi
	mov	DWORD PTR [esi], OFFSET ??_7DCTFFTW@@6B@
	call	ebx
	mov	DWORD PTR [esi+32], eax

; 42   :   if (!fftwf_free_addr) fftwf_free_addr = (fftwf_free_proc)GetProcAddress(hinstFFTW3, "fftw_free"); // ffw3 v3.5!!!

	test	eax, eax
	jne	SHORT $LN4@DCTFFTW
	push	OFFSET ??_C@_09JCCKKMKO@fftw_free?$AA@
	push	edi
	call	ebx
	mov	DWORD PTR [esi+32], eax
$LN4@DCTFFTW:

; 43   : 
; 44   :   fftwf_malloc_addr = (fftwf_malloc_proc)GetProcAddress(hinstFFTW3, "fftwf_malloc");

	push	OFFSET ??_C@_0N@GJEDEEJG@fftwf_malloc?$AA@
	push	edi
	call	ebx
	mov	DWORD PTR [esi+28], eax

; 45   :   if (!fftwf_malloc_addr) fftwf_malloc_addr = (fftwf_malloc_proc)GetProcAddress(hinstFFTW3, "fftw_malloc");

	test	eax, eax
	jne	SHORT $LN5@DCTFFTW
	push	OFFSET ??_C@_0M@BFOCFBMD@fftw_malloc?$AA@
	push	edi
	call	ebx
	mov	DWORD PTR [esi+28], eax
$LN5@DCTFFTW:

; 46   : 
; 47   :   fftwf_destroy_plan_addr = (fftwf_destroy_plan_proc)GetProcAddress(hinstFFTW3, "fftwf_destroy_plan");

	push	OFFSET ??_C@_0BD@JBEOBMNE@fftwf_destroy_plan?$AA@
	push	edi
	call	ebx
	mov	DWORD PTR [esi+40], eax

; 48   :   if (!fftwf_destroy_plan_addr) fftwf_destroy_plan_addr = (fftwf_destroy_plan_proc)GetProcAddress(hinstFFTW3, "fftw_destroy_plan");

	test	eax, eax
	jne	SHORT $LN6@DCTFFTW
	push	OFFSET ??_C@_0BC@MNDBHCDG@fftw_destroy_plan?$AA@
	push	edi
	call	ebx
	mov	DWORD PTR [esi+40], eax
$LN6@DCTFFTW:

; 49   : 
; 50   :   fftwf_plan_r2r_2d_addr = (fftwf_plan_r2r_2d_proc)GetProcAddress(hinstFFTW3, "fftwf_plan_r2r_2d");

	push	OFFSET ??_C@_0BC@DFCMKNCJ@fftwf_plan_r2r_2d?$AA@
	push	edi
	call	ebx
	mov	DWORD PTR [esi+36], eax

; 51   :   if (!fftwf_plan_r2r_2d_addr) fftwf_plan_r2r_2d_addr = (fftwf_plan_r2r_2d_proc)GetProcAddress(hinstFFTW3, "fftw_plan_r2r_2d");

	test	eax, eax
	jne	SHORT $LN7@DCTFFTW
	push	OFFSET ??_C@_0BB@PJCIELJC@fftw_plan_r2r_2d?$AA@
	push	edi
	call	ebx
	mov	DWORD PTR [esi+36], eax
$LN7@DCTFFTW:

; 52   : 
; 53   :   fftwf_execute_r2r_addr = (fftwf_execute_r2r_proc)GetProcAddress(hinstFFTW3, "fftwf_execute_r2r");

	push	OFFSET ??_C@_0BC@CKGAJNML@fftwf_execute_r2r?$AA@
	push	edi
	call	ebx
	mov	DWORD PTR [esi+44], eax

; 54   :   if (!fftwf_execute_r2r_addr) fftwf_execute_r2r_addr = (fftwf_execute_r2r_proc)GetProcAddress(hinstFFTW3, "fftw_execute_r2r");

	test	eax, eax
	jne	SHORT $LN8@DCTFFTW
	push	OFFSET ??_C@_0BB@OGGEHLHA@fftw_execute_r2r?$AA@
	push	edi
	call	ebx
	mov	DWORD PTR [esi+44], eax
$LN8@DCTFFTW:

; 55   : 
; 56   :   // members of the DCTClass
; 57   :   sizex = _sizex;
; 58   :   sizey = _sizey;

	mov	eax, DWORD PTR __sizey$[ebp]
	mov	ecx, DWORD PTR __sizex$[ebp]

; 59   :   dctmode = _dctmode;
; 60   :   pixelsize = _pixelsize;

	mov	edx, DWORD PTR __pixelsize$[ebp]
	mov	DWORD PTR [esi+8], eax
	mov	eax, DWORD PTR __dctmode$[ebp]
	mov	DWORD PTR [esi+12], eax

; 61   :   bits_per_pixel = _bits_per_pixel;

	mov	eax, DWORD PTR __bits_per_pixel$[ebp]
	mov	DWORD PTR [esi+20], eax

; 62   : 
; 63   :   bool isse_flag = true;
; 64   :   arch_t arch;
; 65   :   if ((((cpu & CPUF_AVX2) != 0) & isse_flag))

	mov	eax, DWORD PTR _cpu$[ebp]
	mov	DWORD PTR [esi+4], ecx
	mov	DWORD PTR [esi+16], edx
	test	eax, 8192				; 00002000H
	je	SHORT $LN9@DCTFFTW

; 66   :     arch = USE_AVX2;

	mov	edi, 6
	jmp	SHORT $LN15@DCTFFTW
$LN9@DCTFFTW:

; 67   :   else if ((((cpu & CPUF_AVX) != 0) & isse_flag))

	test	eax, 2048				; 00000800H
	je	SHORT $LN11@DCTFFTW

; 68   :     arch = USE_AVX;

	mov	edi, 5
	jmp	SHORT $LN15@DCTFFTW
$LN11@DCTFFTW:

; 69   :   else if ((((cpu & CPUF_SSE4_1) != 0) & isse_flag))

	test	eax, 1024				; 00000400H
	je	SHORT $LN13@DCTFFTW

; 70   :     arch = USE_SSE41;

	mov	edi, 3
	jmp	SHORT $LN15@DCTFFTW
$LN13@DCTFFTW:

; 71   :   else if ((((cpu & CPUF_SSE2) != 0) & isse_flag))

	movzx	edi, al
	shr	edi, 4
	and	edi, 2
$LN15@DCTFFTW:

; 72   :     arch = USE_SSE2;
; 73   :   /*  else if ((pixelsize == 1) && _isse_flag) // PF no MMX support
; 74   :   arch = USE_MMX;*/
; 75   :   else
; 76   :     arch = NO_SIMD;
; 77   : 
; 78   :   // function selector
; 79   :   bytesToFloatPROC = get_bytesToFloatPROC_function(sizex, sizey, pixelsize, arch);

	push	edi
	push	edx
	push	ecx
	push	ecx
	call	?get_bytesToFloatPROC_function@DCTFFTW@@AAEP81@AEXPBEHPAM@ZHHHW4arch_t@@@Z ; DCTFFTW::get_bytesToFloatPROC_function

; 80   :   floatToBytesPROC = get_floatToBytesPROC_function(sizex, sizey, pixelsize, arch);

	push	edi
	push	DWORD PTR [esi+16]
	mov	DWORD PTR [esi+72], eax
	push	ecx
	push	DWORD PTR [esi+4]
	call	?get_floatToBytesPROC_function@DCTFFTW@@AAEP81@AEXPAEHPAM@ZHHHW4arch_t@@@Z ; DCTFFTW::get_floatToBytesPROC_function

; 81   : 
; 82   :   int size2d = sizey*sizex;

	mov	edi, DWORD PTR [esi+8]
	imul	edi, DWORD PTR [esi+4]
	mov	DWORD PTR [esi+68], eax

; 83   : 
; 84   :   int cursize = 1;

	mov	eax, 1

; 85   :   dctshift = 0;

	mov	DWORD PTR [esi+60], 0

; 86   :   while (cursize < size2d)

	cmp	edi, eax
	jle	SHORT $LN3@DCTFFTW
	xor	ecx, ecx
$LL2@DCTFFTW:

; 87   :   {
; 88   :     dctshift++;
; 89   :     cursize = (cursize << 1);

	add	eax, eax
	inc	ecx
	cmp	eax, edi
	jl	SHORT $LL2@DCTFFTW
	mov	DWORD PTR [esi+60], ecx
$LN3@DCTFFTW:

; 92   :   dctshift0 = dctshift + 2;

	mov	eax, DWORD PTR [esi+60]
	add	eax, 2
; File c:\github\mvtools\sources\conc\critsec.hpp

; 41   : :	_mutex (mutex)

	mov	DWORD PTR _lock$[ebp], OFFSET ?_fftw_mutex@DCTFFTW@@0VMutex@conc@@A ; DCTFFTW::_fftw_mutex
; File c:\github\mvtools\sources\conc\mutex.hpp

; 53   : 	::EnterCriticalSection (&_crit_sec);

	push	OFFSET ?_fftw_mutex@DCTFFTW@@0VMutex@conc@@A ; DCTFFTW::_fftw_mutex
; File c:\github\mvtools\sources\dctfftw.cpp

; 92   :   dctshift0 = dctshift + 2;

	mov	DWORD PTR [esi+64], eax
; File c:\github\mvtools\sources\conc\mutex.hpp

; 53   : 	::EnterCriticalSection (&_crit_sec);

	call	DWORD PTR __imp__EnterCriticalSection@4
; File c:\github\mvtools\sources\dctfftw.cpp

; 96   :   conc::CritSec	lock(_fftw_mutex);

	mov	DWORD PTR __$EHRec$[ebp+8], 0

; 97   : 
; 98   :   fSrc = (float *)fftwf_malloc_addr(sizeof(float) * size2d);

	mov	eax, DWORD PTR [esi+28]
	shl	edi, 2
	push	edi
	call	eax
	mov	DWORD PTR [esi+48], eax

; 99   :   fSrcDCT = (float *)fftwf_malloc_addr(sizeof(float) * size2d);

	mov	eax, DWORD PTR [esi+28]
	push	edi
	call	eax

; 100  : 
; 101  :   dctplan = fftwf_plan_r2r_2d_addr(sizey, sizex, fSrc, fSrcDCT, FFTW_REDFT10, FFTW_REDFT10, FFTW_ESTIMATE); // direct fft 

	push	64					; 00000040H
	push	5
	push	5
	push	eax
	push	DWORD PTR [esi+48]
	mov	DWORD PTR [esi+56], eax
	push	DWORD PTR [esi+4]
	mov	eax, DWORD PTR [esi+36]
	push	DWORD PTR [esi+8]
	call	eax
	add	esp, 36					; 00000024H
	mov	DWORD PTR [esi+52], eax
; File c:\github\mvtools\sources\conc\mutex.hpp

; 60   : 	::LeaveCriticalSection (&_crit_sec);

	push	OFFSET ?_fftw_mutex@DCTFFTW@@0VMutex@conc@@A ; DCTFFTW::_fftw_mutex
	call	DWORD PTR __imp__LeaveCriticalSection@4
; File c:\github\mvtools\sources\dctfftw.cpp

; 102  : }

	mov	ecx, DWORD PTR __$EHRec$[ebp]
	mov	eax, esi
	pop	edi
	pop	esi
	mov	DWORD PTR fs:0, ecx
	pop	ebx
	mov	esp, ebp
	pop	ebp
	ret	28					; 0000001cH
_TEXT	ENDS
;	COMDAT text$x
text$x	SEGMENT
__unwindfunclet$??0DCTFFTW@@QAE@HHPAUHINSTANCE__@@HHHH@Z$0:
	lea	ecx, DWORD PTR _lock$[ebp]
	jmp	??1CritSec@conc@@QAE@XZ			; conc::CritSec::~CritSec
__ehhandler$??0DCTFFTW@@QAE@HHPAUHINSTANCE__@@HHHH@Z:
	mov	eax, OFFSET __ehfuncinfo$??0DCTFFTW@@QAE@HHPAUHINSTANCE__@@HHHH@Z
	jmp	___CxxFrameHandler3
text$x	ENDS
??0DCTFFTW@@QAE@HHPAUHINSTANCE__@@HHHH@Z ENDP		; DCTFFTW::DCTFFTW
; Function compile flags: /Ogtpy
; File c:\github\mvtools\sources\dctfftw.cpp
; File c:\github\mvtools\sources\conc\mutex.hpp
; File c:\github\mvtools\sources\dctfftw.cpp
;	COMDAT ??__E?_fftw_mutex@DCTFFTW@@0VMutex@conc@@A@@YAXXZ
text$di	SEGMENT
??__E?_fftw_mutex@DCTFFTW@@0VMutex@conc@@A@@YAXXZ PROC	; `dynamic initializer for 'DCTFFTW::_fftw_mutex'', COMDAT
; File c:\github\mvtools\sources\conc\mutex.hpp

; 39   : 	::InitializeCriticalSection (&_crit_sec);

	push	OFFSET ?_fftw_mutex@DCTFFTW@@0VMutex@conc@@A ; DCTFFTW::_fftw_mutex
	call	DWORD PTR __imp__InitializeCriticalSection@4
; File c:\github\mvtools\sources\dctfftw.cpp

; 35   : conc::Mutex	DCTFFTW::_fftw_mutex;

	push	OFFSET ??__F?_fftw_mutex@DCTFFTW@@0VMutex@conc@@A@@YAXXZ ; `dynamic atexit destructor for 'DCTFFTW::_fftw_mutex''
	call	_atexit
	pop	ecx
	ret	0
??__E?_fftw_mutex@DCTFFTW@@0VMutex@conc@@A@@YAXXZ ENDP	; `dynamic initializer for 'DCTFFTW::_fftw_mutex''
text$di	ENDS
; Function compile flags: /Ogtpy
; File c:\github\mvtools\sources\conc\mutex.hpp
;	COMDAT ??__F?_fftw_mutex@DCTFFTW@@0VMutex@conc@@A@@YAXXZ
text$yd	SEGMENT
??__F?_fftw_mutex@DCTFFTW@@0VMutex@conc@@A@@YAXXZ PROC	; `dynamic atexit destructor for 'DCTFFTW::_fftw_mutex'', COMDAT

; 46   : 	::DeleteCriticalSection (&_crit_sec);

	push	OFFSET ?_fftw_mutex@DCTFFTW@@0VMutex@conc@@A ; DCTFFTW::_fftw_mutex
	call	DWORD PTR __imp__DeleteCriticalSection@4
	ret	0
??__F?_fftw_mutex@DCTFFTW@@0VMutex@conc@@A@@YAXXZ ENDP	; `dynamic atexit destructor for 'DCTFFTW::_fftw_mutex''
text$yd	ENDS
; Function compile flags: /Ogtpy
;	COMDAT ??0DCTClass@@QAE@XZ
_TEXT	SEGMENT
??0DCTClass@@QAE@XZ PROC				; DCTClass::DCTClass, COMDAT
; _this$ = ecx
	mov	DWORD PTR [ecx], OFFSET ??_7DCTClass@@6B@
	mov	eax, ecx
	ret	0
??0DCTClass@@QAE@XZ ENDP				; DCTClass::DCTClass
_TEXT	ENDS
; Function compile flags: /Ogtpy
; File c:\github\mvtools\sources\dctfftw.cpp
;	COMDAT ?_MM_PACKUS_EPI32@@YA?AT__m128i@@T1@0@Z
_TEXT	SEGMENT
?_MM_PACKUS_EPI32@@YA?AT__m128i@@T1@0@Z PROC		; _MM_PACKUS_EPI32, COMDAT
; _a$ = xmm0
; _b$ = xmm1

; 203  :   a = _mm_slli_epi32(a, 16);

	pslld	xmm0, 16				; 00000010H

; 204  :   a = _mm_srai_epi32(a, 16);
; 205  :   b = _mm_slli_epi32(b, 16);

	pslld	xmm1, 16				; 00000010H
	psrad	xmm0, 16				; 00000010H

; 206  :   b = _mm_srai_epi32(b, 16);

	psrad	xmm1, 16				; 00000010H

; 207  :   a = _mm_packs_epi32(a, b);

	packssdw xmm0, xmm1

; 208  :   return a;
; 209  : }

	ret	0
?_MM_PACKUS_EPI32@@YA?AT__m128i@@T1@0@Z ENDP		; _MM_PACKUS_EPI32
_TEXT	ENDS
; Function compile flags: /Ogtpy
; File c:\github\mvtools\sources\dctfftw.cpp
; File c:\program files (x86)\microsoft visual studio 14.0\vc\include\xtree
; File c:\program files (x86)\microsoft visual studio 14.0\vc\include\map
; File c:\github\mvtools\sources\dctfftw.cpp
; File c:\program files (x86)\microsoft visual studio 14.0\vc\include\map
; File c:\program files (x86)\microsoft visual studio 14.0\vc\include\tuple
; File c:\program files (x86)\microsoft visual studio 14.0\vc\include\map
; File c:\program files (x86)\microsoft visual studio 14.0\vc\include\tuple
; File c:\program files (x86)\microsoft visual studio 14.0\vc\include\map
; File c:\github\mvtools\sources\dctfftw.cpp
; File c:\program files (x86)\microsoft visual studio 14.0\vc\include\map
; File c:\github\mvtools\sources\dctfftw.cpp
; File c:\program files (x86)\microsoft visual studio 14.0\vc\include\map
; File c:\program files (x86)\microsoft visual studio 14.0\vc\include\tuple
; File c:\program files (x86)\microsoft visual studio 14.0\vc\include\map
; File c:\program files (x86)\microsoft visual studio 14.0\vc\include\tuple
; File c:\program files (x86)\microsoft visual studio 14.0\vc\include\map
; File c:\github\mvtools\sources\dctfftw.cpp
; File c:\program files (x86)\microsoft visual studio 14.0\vc\include\map
; File c:\github\mvtools\sources\dctfftw.cpp
; File c:\program files (x86)\microsoft visual studio 14.0\vc\include\map
; File c:\program files (x86)\microsoft visual studio 14.0\vc\include\tuple
; File c:\program files (x86)\microsoft visual studio 14.0\vc\include\map
; File c:\program files (x86)\microsoft visual studio 14.0\vc\include\tuple
; File c:\program files (x86)\microsoft visual studio 14.0\vc\include\map
; File c:\github\mvtools\sources\dctfftw.cpp
; File c:\program files (x86)\microsoft visual studio 14.0\vc\include\map
; File c:\github\mvtools\sources\dctfftw.cpp
; File c:\program files (x86)\microsoft visual studio 14.0\vc\include\map
; File c:\program files (x86)\microsoft visual studio 14.0\vc\include\tuple
; File c:\program files (x86)\microsoft visual studio 14.0\vc\include\map
; File c:\program files (x86)\microsoft visual studio 14.0\vc\include\tuple
; File c:\program files (x86)\microsoft visual studio 14.0\vc\include\map
; File c:\github\mvtools\sources\dctfftw.cpp
; File c:\program files (x86)\microsoft visual studio 14.0\vc\include\map
; File c:\github\mvtools\sources\dctfftw.cpp
; File c:\program files (x86)\microsoft visual studio 14.0\vc\include\map
; File c:\program files (x86)\microsoft visual studio 14.0\vc\include\tuple
; File c:\program files (x86)\microsoft visual studio 14.0\vc\include\map
; File c:\program files (x86)\microsoft visual studio 14.0\vc\include\tuple
; File c:\program files (x86)\microsoft visual studio 14.0\vc\include\map
; File c:\github\mvtools\sources\dctfftw.cpp
; File c:\program files (x86)\microsoft visual studio 14.0\vc\include\map
; File c:\github\mvtools\sources\dctfftw.cpp
; File c:\program files (x86)\microsoft visual studio 14.0\vc\include\map
; File c:\program files (x86)\microsoft visual studio 14.0\vc\include\tuple
; File c:\program files (x86)\microsoft visual studio 14.0\vc\include\map
; File c:\program files (x86)\microsoft visual studio 14.0\vc\include\tuple
; File c:\program files (x86)\microsoft visual studio 14.0\vc\include\map
; File c:\github\mvtools\sources\dctfftw.cpp
; File c:\program files (x86)\microsoft visual studio 14.0\vc\include\map
; File c:\program files (x86)\microsoft visual studio 14.0\vc\include\tuple
; File c:\program files (x86)\microsoft visual studio 14.0\vc\include\map
; File c:\program files (x86)\microsoft visual studio 14.0\vc\include\tuple
; File c:\program files (x86)\microsoft visual studio 14.0\vc\include\map
; File c:\github\mvtools\sources\dctfftw.cpp
; File c:\program files (x86)\microsoft visual studio 14.0\vc\include\map
; File c:\github\mvtools\sources\dctfftw.cpp
; File c:\program files (x86)\microsoft visual studio 14.0\vc\include\map
; File c:\program files (x86)\microsoft visual studio 14.0\vc\include\tuple
; File c:\program files (x86)\microsoft visual studio 14.0\vc\include\map
; File c:\program files (x86)\microsoft visual studio 14.0\vc\include\tuple
; File c:\program files (x86)\microsoft visual studio 14.0\vc\include\map
; File c:\github\mvtools\sources\dctfftw.cpp
; File c:\program files (x86)\microsoft visual studio 14.0\vc\include\map
; File c:\github\mvtools\sources\dctfftw.cpp
; File c:\program files (x86)\microsoft visual studio 14.0\vc\include\map
; File c:\program files (x86)\microsoft visual studio 14.0\vc\include\tuple
; File c:\program files (x86)\microsoft visual studio 14.0\vc\include\map
; File c:\program files (x86)\microsoft visual studio 14.0\vc\include\tuple
; File c:\program files (x86)\microsoft visual studio 14.0\vc\include\map
; File c:\github\mvtools\sources\dctfftw.cpp
; File c:\program files (x86)\microsoft visual studio 14.0\vc\include\map
; File c:\github\mvtools\sources\dctfftw.cpp
; File c:\program files (x86)\microsoft visual studio 14.0\vc\include\map
; File c:\program files (x86)\microsoft visual studio 14.0\vc\include\tuple
; File c:\program files (x86)\microsoft visual studio 14.0\vc\include\map
; File c:\program files (x86)\microsoft visual studio 14.0\vc\include\tuple
; File c:\program files (x86)\microsoft visual studio 14.0\vc\include\map
; File c:\github\mvtools\sources\dctfftw.cpp
; File c:\program files (x86)\microsoft visual studio 14.0\vc\include\map
; File c:\github\mvtools\sources\dctfftw.cpp
; File c:\program files (x86)\microsoft visual studio 14.0\vc\include\map
; File c:\program files (x86)\microsoft visual studio 14.0\vc\include\tuple
; File c:\program files (x86)\microsoft visual studio 14.0\vc\include\map
; File c:\program files (x86)\microsoft visual studio 14.0\vc\include\tuple
; File c:\program files (x86)\microsoft visual studio 14.0\vc\include\map
; File c:\github\mvtools\sources\dctfftw.cpp
; File c:\program files (x86)\microsoft visual studio 14.0\vc\include\map
; File c:\github\mvtools\sources\dctfftw.cpp
; File c:\program files (x86)\microsoft visual studio 14.0\vc\include\map
; File c:\program files (x86)\microsoft visual studio 14.0\vc\include\tuple
; File c:\program files (x86)\microsoft visual studio 14.0\vc\include\map
; File c:\program files (x86)\microsoft visual studio 14.0\vc\include\tuple
; File c:\program files (x86)\microsoft visual studio 14.0\vc\include\map
; File c:\github\mvtools\sources\dctfftw.cpp
; File c:\program files (x86)\microsoft visual studio 14.0\vc\include\xtree
; File c:\github\mvtools\sources\dctfftw.cpp
; File c:\program files (x86)\microsoft visual studio 14.0\vc\include\xtree
; File c:\github\mvtools\sources\dctfftw.cpp
; File c:\program files (x86)\microsoft visual studio 14.0\vc\include\tuple
; File c:\program files (x86)\microsoft visual studio 14.0\vc\include\xtree
; File c:\program files (x86)\microsoft visual studio 14.0\vc\include\tuple
; File c:\program files (x86)\microsoft visual studio 14.0\vc\include\xtree
; File c:\program files (x86)\microsoft visual studio 14.0\vc\include\tuple
; File c:\program files (x86)\microsoft visual studio 14.0\vc\include\xtree
; File c:\program files (x86)\microsoft visual studio 14.0\vc\include\map
; File c:\program files (x86)\microsoft visual studio 14.0\vc\include\tuple
; File c:\program files (x86)\microsoft visual studio 14.0\vc\include\xtree
; File c:\program files (x86)\microsoft visual studio 14.0\vc\include\tuple
; File c:\program files (x86)\microsoft visual studio 14.0\vc\include\xtree
; File c:\program files (x86)\microsoft visual studio 14.0\vc\include\utility
; File c:\github\mvtools\sources\dctfftw.cpp
; File c:\program files (x86)\microsoft visual studio 14.0\vc\include\xtree
; File c:\program files (x86)\microsoft visual studio 14.0\vc\include\xmemory0
; File c:\github\mvtools\sources\dctfftw.cpp
; File c:\program files (x86)\microsoft visual studio 14.0\vc\include\xmemory0
; File c:\github\mvtools\sources\dctfftw.cpp
;	COMDAT ?get_floatToBytesPROC_function@DCTFFTW@@AAEP81@AEXPAEHPAM@ZHHHW4arch_t@@@Z
_TEXT	SEGMENT
_archlist$ = -64					; size = 20
$T2 = -44						; size = 12
$T3 = -44						; size = 12
$T4 = -44						; size = 12
$T5 = -44						; size = 12
$T6 = -44						; size = 12
$T7 = -44						; size = 12
$T8 = -44						; size = 12
$T9 = -44						; size = 12
$T10 = -44						; size = 12
$T11 = -44						; size = 12
$T12 = -44						; size = 12
$T13 = -44						; size = 12
$T14 = -44						; size = 12
_func$ = -32						; size = 8
$T15 = -24						; size = 8
$T16 = -24						; size = 8
$T17 = -24						; size = 8
$T18 = -24						; size = 8
$T19 = -24						; size = 8
$T20 = -24						; size = 8
$T21 = -24						; size = 8
$T22 = -24						; size = 8
$T23 = -24						; size = 8
$T24 = -24						; size = 8
$T25 = -24						; size = 8
$T26 = -24						; size = 8
tv2269 = -20						; size = 4
$T27 = -16						; size = 4
__$EHRec$ = -12						; size = 12
$T28 = 8						; size = 4
_BlockX$ = 8						; size = 4
_BlockY$dead$ = 12					; size = 4
$T29 = 16						; size = 4
_pixelsize$ = 16					; size = 4
_arch$ = 20						; size = 4
?get_floatToBytesPROC_function@DCTFFTW@@AAEP81@AEXPAEHPAM@ZHHHW4arch_t@@@Z PROC ; DCTFFTW::get_floatToBytesPROC_function, COMDAT
; _this$dead$ = ecx

; 323  : {

	push	ebp
	mov	ebp, esp
	push	-1
	push	__ehhandler$?get_floatToBytesPROC_function@DCTFFTW@@AAEP81@AEXPAEHPAM@ZHHHW4arch_t@@@Z
	mov	eax, DWORD PTR fs:0
	push	eax
	mov	DWORD PTR fs:0, esp
	sub	esp, 52					; 00000034H
	push	ebx
	push	esi
	push	edi
; File c:\program files (x86)\microsoft visual studio 14.0\vc\include\xtree

; 567  : 		: _Myhead(),

	mov	DWORD PTR _func$[ebp], 0

; 568  : 		_Mysize(0)

	mov	DWORD PTR _func$[ebp+4], 0

; 721  : 		_Myhead() = _Buyheadnode();

	call	?_Buyheadnode@?$_Tree_comp_alloc@V?$_Tmap_traits@V?$tuple@HHW4arch_t@@@std@@P8DCTFFTW@@AEXPAEHPAM@ZU?$less@V?$tuple@HHW4arch_t@@@std@@@2@V?$allocator@U?$pair@$$CBV?$tuple@HHW4arch_t@@@std@@P8DCTFFTW@@AEXPAEHPAM@Z@std@@@2@$0A@@std@@@std@@QAEPAU?$_Tree_node@U?$pair@$$CBV?$tuple@HHW4arch_t@@@std@@P8DCTFFTW@@AEXPAEHPAM@Z@std@@PAX@2@XZ ; std::_Tree_comp_alloc<std::_Tmap_traits<std::tuple<int,int,enum arch_t>,void (__thiscall DCTFFTW::*)(unsigned char *,int,float *),std::less<std::tuple<int,int,enum arch_t> >,std::allocator<std::pair<std::tuple<int,int,enum arch_t> const ,void (__thiscall DCTFFTW::*)(unsigned char *,int,float *)> >,0> >::_Buyheadnode
	mov	DWORD PTR _func$[ebp], eax
; File c:\program files (x86)\microsoft visual studio 14.0\vc\include\map

; 244  : 		return (_Try_emplace(_STD move(_Keyval),

	lea	eax, DWORD PTR $T14[ebp]
; File c:\github\mvtools\sources\dctfftw.cpp

; 325  :   std::map<std::tuple<int, int, arch_t>, DCTFFTW::Float2BytesFunction> func;

	mov	DWORD PTR __$EHRec$[ebp+8], 0
; File c:\program files (x86)\microsoft visual studio 14.0\vc\include\map

; 244  : 		return (_Try_emplace(_STD move(_Keyval),

	push	eax
	lea	eax, DWORD PTR $T26[ebp]
; File c:\program files (x86)\microsoft visual studio 14.0\vc\include\tuple

; 163  : 		: _Val(_STD forward<_Other>(_Arg))

	mov	DWORD PTR $T14[ebp], 3
; File c:\program files (x86)\microsoft visual studio 14.0\vc\include\map

; 244  : 		return (_Try_emplace(_STD move(_Keyval),

	push	eax
	lea	ecx, DWORD PTR _func$[ebp]
; File c:\program files (x86)\microsoft visual studio 14.0\vc\include\tuple

; 163  : 		: _Val(_STD forward<_Other>(_Arg))

	mov	DWORD PTR $T14[ebp+4], 1
	mov	DWORD PTR $T14[ebp+8], 32		; 00000020H
; File c:\program files (x86)\microsoft visual studio 14.0\vc\include\map

; 244  : 		return (_Try_emplace(_STD move(_Keyval),

	call	??$_Try_emplace@V?$tuple@HHW4arch_t@@@std@@$$V@?$map@V?$tuple@HHW4arch_t@@@std@@P8DCTFFTW@@AEXPAEHPAM@ZU?$less@V?$tuple@HHW4arch_t@@@std@@@2@V?$allocator@U?$pair@$$CBV?$tuple@HHW4arch_t@@@std@@P8DCTFFTW@@AEXPAEHPAM@Z@std@@@2@@std@@QAE?AU?$pair@V?$_Tree_iterator@V?$_Tree_val@U?$_Tree_simple_types@U?$pair@$$CBV?$tuple@HHW4arch_t@@@std@@P8DCTFFTW@@AEXPAEHPAM@Z@std@@@std@@@std@@@std@@_N@1@$$QAV?$tuple@HHW4arch_t@@@1@@Z ; std::map<std::tuple<int,int,enum arch_t>,void (__thiscall DCTFFTW::*)(unsigned char *,int,float *),std::less<std::tuple<int,int,enum arch_t> >,std::allocator<std::pair<std::tuple<int,int,enum arch_t> const ,void (__thiscall DCTFFTW::*)(unsigned char *,int,float *)> > >::_Try_emplace<std::tuple<int,int,enum arch_t> >
; File c:\github\mvtools\sources\dctfftw.cpp

; 331  :   func[make_tuple(32, 1, USE_SSE41)] = &DCTFFTW::Float2Bytes_SSE2<uint8_t, 32, true>;

	mov	eax, DWORD PTR $T26[ebp]
; File c:\program files (x86)\microsoft visual studio 14.0\vc\include\map

; 244  : 		return (_Try_emplace(_STD move(_Keyval),

	lea	ecx, DWORD PTR _func$[ebp]
; File c:\github\mvtools\sources\dctfftw.cpp

; 331  :   func[make_tuple(32, 1, USE_SSE41)] = &DCTFFTW::Float2Bytes_SSE2<uint8_t, 32, true>;

	mov	DWORD PTR [eax+28], OFFSET ??$Float2Bytes_SSE2@E$0CA@$00@DCTFFTW@@AAEXPAEHPAM@Z ; DCTFFTW::Float2Bytes_SSE2<unsigned char,32,1>
; File c:\program files (x86)\microsoft visual studio 14.0\vc\include\map

; 244  : 		return (_Try_emplace(_STD move(_Keyval),

	lea	eax, DWORD PTR $T13[ebp]
	push	eax
	lea	eax, DWORD PTR $T25[ebp]
; File c:\program files (x86)\microsoft visual studio 14.0\vc\include\tuple

; 163  : 		: _Val(_STD forward<_Other>(_Arg))

	mov	DWORD PTR $T13[ebp], 3
; File c:\program files (x86)\microsoft visual studio 14.0\vc\include\map

; 244  : 		return (_Try_emplace(_STD move(_Keyval),

	push	eax
; File c:\program files (x86)\microsoft visual studio 14.0\vc\include\tuple

; 163  : 		: _Val(_STD forward<_Other>(_Arg))

	mov	DWORD PTR $T13[ebp+4], 1
	mov	DWORD PTR $T13[ebp+8], 16		; 00000010H
; File c:\program files (x86)\microsoft visual studio 14.0\vc\include\map

; 244  : 		return (_Try_emplace(_STD move(_Keyval),

	call	??$_Try_emplace@V?$tuple@HHW4arch_t@@@std@@$$V@?$map@V?$tuple@HHW4arch_t@@@std@@P8DCTFFTW@@AEXPAEHPAM@ZU?$less@V?$tuple@HHW4arch_t@@@std@@@2@V?$allocator@U?$pair@$$CBV?$tuple@HHW4arch_t@@@std@@P8DCTFFTW@@AEXPAEHPAM@Z@std@@@2@@std@@QAE?AU?$pair@V?$_Tree_iterator@V?$_Tree_val@U?$_Tree_simple_types@U?$pair@$$CBV?$tuple@HHW4arch_t@@@std@@P8DCTFFTW@@AEXPAEHPAM@Z@std@@@std@@@std@@@std@@_N@1@$$QAV?$tuple@HHW4arch_t@@@1@@Z ; std::map<std::tuple<int,int,enum arch_t>,void (__thiscall DCTFFTW::*)(unsigned char *,int,float *),std::less<std::tuple<int,int,enum arch_t> >,std::allocator<std::pair<std::tuple<int,int,enum arch_t> const ,void (__thiscall DCTFFTW::*)(unsigned char *,int,float *)> > >::_Try_emplace<std::tuple<int,int,enum arch_t> >
; File c:\github\mvtools\sources\dctfftw.cpp

; 332  :   func[make_tuple(16, 1, USE_SSE41)] = &DCTFFTW::Float2Bytes_SSE2<uint8_t, 16, true>;

	mov	eax, DWORD PTR $T25[ebp]
; File c:\program files (x86)\microsoft visual studio 14.0\vc\include\map

; 244  : 		return (_Try_emplace(_STD move(_Keyval),

	lea	ecx, DWORD PTR _func$[ebp]
; File c:\github\mvtools\sources\dctfftw.cpp

; 332  :   func[make_tuple(16, 1, USE_SSE41)] = &DCTFFTW::Float2Bytes_SSE2<uint8_t, 16, true>;

	mov	DWORD PTR [eax+28], OFFSET ??$Float2Bytes_SSE2@E$0BA@$00@DCTFFTW@@AAEXPAEHPAM@Z ; DCTFFTW::Float2Bytes_SSE2<unsigned char,16,1>
; File c:\program files (x86)\microsoft visual studio 14.0\vc\include\map

; 244  : 		return (_Try_emplace(_STD move(_Keyval),

	lea	eax, DWORD PTR $T12[ebp]
	push	eax
	lea	eax, DWORD PTR $T24[ebp]
; File c:\program files (x86)\microsoft visual studio 14.0\vc\include\tuple

; 163  : 		: _Val(_STD forward<_Other>(_Arg))

	mov	DWORD PTR $T12[ebp], 3
; File c:\program files (x86)\microsoft visual studio 14.0\vc\include\map

; 244  : 		return (_Try_emplace(_STD move(_Keyval),

	push	eax
; File c:\program files (x86)\microsoft visual studio 14.0\vc\include\tuple

; 163  : 		: _Val(_STD forward<_Other>(_Arg))

	mov	DWORD PTR $T12[ebp+4], 1
	mov	DWORD PTR $T12[ebp+8], 8
; File c:\program files (x86)\microsoft visual studio 14.0\vc\include\map

; 244  : 		return (_Try_emplace(_STD move(_Keyval),

	call	??$_Try_emplace@V?$tuple@HHW4arch_t@@@std@@$$V@?$map@V?$tuple@HHW4arch_t@@@std@@P8DCTFFTW@@AEXPAEHPAM@ZU?$less@V?$tuple@HHW4arch_t@@@std@@@2@V?$allocator@U?$pair@$$CBV?$tuple@HHW4arch_t@@@std@@P8DCTFFTW@@AEXPAEHPAM@Z@std@@@2@@std@@QAE?AU?$pair@V?$_Tree_iterator@V?$_Tree_val@U?$_Tree_simple_types@U?$pair@$$CBV?$tuple@HHW4arch_t@@@std@@P8DCTFFTW@@AEXPAEHPAM@Z@std@@@std@@@std@@@std@@_N@1@$$QAV?$tuple@HHW4arch_t@@@1@@Z ; std::map<std::tuple<int,int,enum arch_t>,void (__thiscall DCTFFTW::*)(unsigned char *,int,float *),std::less<std::tuple<int,int,enum arch_t> >,std::allocator<std::pair<std::tuple<int,int,enum arch_t> const ,void (__thiscall DCTFFTW::*)(unsigned char *,int,float *)> > >::_Try_emplace<std::tuple<int,int,enum arch_t> >
; File c:\github\mvtools\sources\dctfftw.cpp

; 333  :   func[make_tuple(8, 1, USE_SSE41)] = &DCTFFTW::Float2Bytes_SSE2<uint8_t, 8, true>;

	mov	eax, DWORD PTR $T24[ebp]
; File c:\program files (x86)\microsoft visual studio 14.0\vc\include\map

; 244  : 		return (_Try_emplace(_STD move(_Keyval),

	lea	ecx, DWORD PTR _func$[ebp]
; File c:\github\mvtools\sources\dctfftw.cpp

; 333  :   func[make_tuple(8, 1, USE_SSE41)] = &DCTFFTW::Float2Bytes_SSE2<uint8_t, 8, true>;

	mov	DWORD PTR [eax+28], OFFSET ??$Float2Bytes_SSE2@E$07$00@DCTFFTW@@AAEXPAEHPAM@Z ; DCTFFTW::Float2Bytes_SSE2<unsigned char,8,1>
; File c:\program files (x86)\microsoft visual studio 14.0\vc\include\map

; 244  : 		return (_Try_emplace(_STD move(_Keyval),

	lea	eax, DWORD PTR $T11[ebp]
	push	eax
	lea	eax, DWORD PTR $T23[ebp]
; File c:\program files (x86)\microsoft visual studio 14.0\vc\include\tuple

; 163  : 		: _Val(_STD forward<_Other>(_Arg))

	mov	DWORD PTR $T11[ebp], 3
; File c:\program files (x86)\microsoft visual studio 14.0\vc\include\map

; 244  : 		return (_Try_emplace(_STD move(_Keyval),

	push	eax
; File c:\program files (x86)\microsoft visual studio 14.0\vc\include\tuple

; 163  : 		: _Val(_STD forward<_Other>(_Arg))

	mov	DWORD PTR $T11[ebp+4], 2
	mov	DWORD PTR $T11[ebp+8], 32		; 00000020H
; File c:\program files (x86)\microsoft visual studio 14.0\vc\include\map

; 244  : 		return (_Try_emplace(_STD move(_Keyval),

	call	??$_Try_emplace@V?$tuple@HHW4arch_t@@@std@@$$V@?$map@V?$tuple@HHW4arch_t@@@std@@P8DCTFFTW@@AEXPAEHPAM@ZU?$less@V?$tuple@HHW4arch_t@@@std@@@2@V?$allocator@U?$pair@$$CBV?$tuple@HHW4arch_t@@@std@@P8DCTFFTW@@AEXPAEHPAM@Z@std@@@2@@std@@QAE?AU?$pair@V?$_Tree_iterator@V?$_Tree_val@U?$_Tree_simple_types@U?$pair@$$CBV?$tuple@HHW4arch_t@@@std@@P8DCTFFTW@@AEXPAEHPAM@Z@std@@@std@@@std@@@std@@_N@1@$$QAV?$tuple@HHW4arch_t@@@1@@Z ; std::map<std::tuple<int,int,enum arch_t>,void (__thiscall DCTFFTW::*)(unsigned char *,int,float *),std::less<std::tuple<int,int,enum arch_t> >,std::allocator<std::pair<std::tuple<int,int,enum arch_t> const ,void (__thiscall DCTFFTW::*)(unsigned char *,int,float *)> > >::_Try_emplace<std::tuple<int,int,enum arch_t> >
; File c:\github\mvtools\sources\dctfftw.cpp

; 335  :   func[make_tuple(32, 2, USE_SSE41)] = &DCTFFTW::Float2Bytes_SSE2<uint16_t, 32, true>;

	mov	eax, DWORD PTR $T23[ebp]
; File c:\program files (x86)\microsoft visual studio 14.0\vc\include\map

; 244  : 		return (_Try_emplace(_STD move(_Keyval),

	lea	ecx, DWORD PTR _func$[ebp]
; File c:\github\mvtools\sources\dctfftw.cpp

; 335  :   func[make_tuple(32, 2, USE_SSE41)] = &DCTFFTW::Float2Bytes_SSE2<uint16_t, 32, true>;

	mov	DWORD PTR [eax+28], OFFSET ??$Float2Bytes_SSE2@G$0CA@$00@DCTFFTW@@AAEXPAEHPAM@Z ; DCTFFTW::Float2Bytes_SSE2<unsigned short,32,1>
; File c:\program files (x86)\microsoft visual studio 14.0\vc\include\map

; 244  : 		return (_Try_emplace(_STD move(_Keyval),

	lea	eax, DWORD PTR $T10[ebp]
	push	eax
	lea	eax, DWORD PTR $T22[ebp]
; File c:\program files (x86)\microsoft visual studio 14.0\vc\include\tuple

; 163  : 		: _Val(_STD forward<_Other>(_Arg))

	mov	DWORD PTR $T10[ebp], 3
; File c:\program files (x86)\microsoft visual studio 14.0\vc\include\map

; 244  : 		return (_Try_emplace(_STD move(_Keyval),

	push	eax
; File c:\program files (x86)\microsoft visual studio 14.0\vc\include\tuple

; 163  : 		: _Val(_STD forward<_Other>(_Arg))

	mov	DWORD PTR $T10[ebp+4], 2
	mov	DWORD PTR $T10[ebp+8], 16		; 00000010H
; File c:\program files (x86)\microsoft visual studio 14.0\vc\include\map

; 244  : 		return (_Try_emplace(_STD move(_Keyval),

	call	??$_Try_emplace@V?$tuple@HHW4arch_t@@@std@@$$V@?$map@V?$tuple@HHW4arch_t@@@std@@P8DCTFFTW@@AEXPAEHPAM@ZU?$less@V?$tuple@HHW4arch_t@@@std@@@2@V?$allocator@U?$pair@$$CBV?$tuple@HHW4arch_t@@@std@@P8DCTFFTW@@AEXPAEHPAM@Z@std@@@2@@std@@QAE?AU?$pair@V?$_Tree_iterator@V?$_Tree_val@U?$_Tree_simple_types@U?$pair@$$CBV?$tuple@HHW4arch_t@@@std@@P8DCTFFTW@@AEXPAEHPAM@Z@std@@@std@@@std@@@std@@_N@1@$$QAV?$tuple@HHW4arch_t@@@1@@Z ; std::map<std::tuple<int,int,enum arch_t>,void (__thiscall DCTFFTW::*)(unsigned char *,int,float *),std::less<std::tuple<int,int,enum arch_t> >,std::allocator<std::pair<std::tuple<int,int,enum arch_t> const ,void (__thiscall DCTFFTW::*)(unsigned char *,int,float *)> > >::_Try_emplace<std::tuple<int,int,enum arch_t> >
; File c:\github\mvtools\sources\dctfftw.cpp

; 336  :   func[make_tuple(16, 2, USE_SSE41)] = &DCTFFTW::Float2Bytes_SSE2<uint16_t, 16, true>;

	mov	eax, DWORD PTR $T22[ebp]
; File c:\program files (x86)\microsoft visual studio 14.0\vc\include\map

; 244  : 		return (_Try_emplace(_STD move(_Keyval),

	lea	ecx, DWORD PTR _func$[ebp]
; File c:\github\mvtools\sources\dctfftw.cpp

; 336  :   func[make_tuple(16, 2, USE_SSE41)] = &DCTFFTW::Float2Bytes_SSE2<uint16_t, 16, true>;

	mov	DWORD PTR [eax+28], OFFSET ??$Float2Bytes_SSE2@G$0BA@$00@DCTFFTW@@AAEXPAEHPAM@Z ; DCTFFTW::Float2Bytes_SSE2<unsigned short,16,1>
; File c:\program files (x86)\microsoft visual studio 14.0\vc\include\map

; 244  : 		return (_Try_emplace(_STD move(_Keyval),

	lea	eax, DWORD PTR $T9[ebp]
	push	eax
	lea	eax, DWORD PTR $T21[ebp]
; File c:\program files (x86)\microsoft visual studio 14.0\vc\include\tuple

; 163  : 		: _Val(_STD forward<_Other>(_Arg))

	mov	DWORD PTR $T9[ebp], 3
; File c:\program files (x86)\microsoft visual studio 14.0\vc\include\map

; 244  : 		return (_Try_emplace(_STD move(_Keyval),

	push	eax
; File c:\program files (x86)\microsoft visual studio 14.0\vc\include\tuple

; 163  : 		: _Val(_STD forward<_Other>(_Arg))

	mov	DWORD PTR $T9[ebp+4], 2
	mov	DWORD PTR $T9[ebp+8], 8
; File c:\program files (x86)\microsoft visual studio 14.0\vc\include\map

; 244  : 		return (_Try_emplace(_STD move(_Keyval),

	call	??$_Try_emplace@V?$tuple@HHW4arch_t@@@std@@$$V@?$map@V?$tuple@HHW4arch_t@@@std@@P8DCTFFTW@@AEXPAEHPAM@ZU?$less@V?$tuple@HHW4arch_t@@@std@@@2@V?$allocator@U?$pair@$$CBV?$tuple@HHW4arch_t@@@std@@P8DCTFFTW@@AEXPAEHPAM@Z@std@@@2@@std@@QAE?AU?$pair@V?$_Tree_iterator@V?$_Tree_val@U?$_Tree_simple_types@U?$pair@$$CBV?$tuple@HHW4arch_t@@@std@@P8DCTFFTW@@AEXPAEHPAM@Z@std@@@std@@@std@@@std@@_N@1@$$QAV?$tuple@HHW4arch_t@@@1@@Z ; std::map<std::tuple<int,int,enum arch_t>,void (__thiscall DCTFFTW::*)(unsigned char *,int,float *),std::less<std::tuple<int,int,enum arch_t> >,std::allocator<std::pair<std::tuple<int,int,enum arch_t> const ,void (__thiscall DCTFFTW::*)(unsigned char *,int,float *)> > >::_Try_emplace<std::tuple<int,int,enum arch_t> >
; File c:\github\mvtools\sources\dctfftw.cpp

; 337  :   func[make_tuple(8, 2, USE_SSE41)] = &DCTFFTW::Float2Bytes_SSE2<uint16_t, 8, true>;

	mov	eax, DWORD PTR $T21[ebp]
	mov	DWORD PTR [eax+28], OFFSET ??$Float2Bytes_SSE2@G$07$00@DCTFFTW@@AAEXPAEHPAM@Z ; DCTFFTW::Float2Bytes_SSE2<unsigned short,8,1>
; File c:\program files (x86)\microsoft visual studio 14.0\vc\include\map

; 244  : 		return (_Try_emplace(_STD move(_Keyval),

	lea	eax, DWORD PTR $T8[ebp]
	push	eax
; File c:\program files (x86)\microsoft visual studio 14.0\vc\include\tuple

; 163  : 		: _Val(_STD forward<_Other>(_Arg))

	mov	DWORD PTR $T8[ebp], 2
; File c:\program files (x86)\microsoft visual studio 14.0\vc\include\map

; 244  : 		return (_Try_emplace(_STD move(_Keyval),

	lea	eax, DWORD PTR $T20[ebp]
; File c:\program files (x86)\microsoft visual studio 14.0\vc\include\tuple

; 163  : 		: _Val(_STD forward<_Other>(_Arg))

	mov	DWORD PTR $T8[ebp+4], 1
	mov	DWORD PTR $T8[ebp+8], 32		; 00000020H
; File c:\program files (x86)\microsoft visual studio 14.0\vc\include\map

; 244  : 		return (_Try_emplace(_STD move(_Keyval),

	push	eax
	lea	ecx, DWORD PTR _func$[ebp]
	call	??$_Try_emplace@V?$tuple@HHW4arch_t@@@std@@$$V@?$map@V?$tuple@HHW4arch_t@@@std@@P8DCTFFTW@@AEXPAEHPAM@ZU?$less@V?$tuple@HHW4arch_t@@@std@@@2@V?$allocator@U?$pair@$$CBV?$tuple@HHW4arch_t@@@std@@P8DCTFFTW@@AEXPAEHPAM@Z@std@@@2@@std@@QAE?AU?$pair@V?$_Tree_iterator@V?$_Tree_val@U?$_Tree_simple_types@U?$pair@$$CBV?$tuple@HHW4arch_t@@@std@@P8DCTFFTW@@AEXPAEHPAM@Z@std@@@std@@@std@@@std@@_N@1@$$QAV?$tuple@HHW4arch_t@@@1@@Z ; std::map<std::tuple<int,int,enum arch_t>,void (__thiscall DCTFFTW::*)(unsigned char *,int,float *),std::less<std::tuple<int,int,enum arch_t> >,std::allocator<std::pair<std::tuple<int,int,enum arch_t> const ,void (__thiscall DCTFFTW::*)(unsigned char *,int,float *)> > >::_Try_emplace<std::tuple<int,int,enum arch_t> >
; File c:\github\mvtools\sources\dctfftw.cpp

; 342  :   func[make_tuple(32, 1, USE_SSE2)] = &DCTFFTW::Float2Bytes_SSE2<uint8_t, 32, false>;

	mov	eax, DWORD PTR $T20[ebp]
; File c:\program files (x86)\microsoft visual studio 14.0\vc\include\map

; 244  : 		return (_Try_emplace(_STD move(_Keyval),

	lea	ecx, DWORD PTR _func$[ebp]
; File c:\github\mvtools\sources\dctfftw.cpp

; 342  :   func[make_tuple(32, 1, USE_SSE2)] = &DCTFFTW::Float2Bytes_SSE2<uint8_t, 32, false>;

	mov	DWORD PTR [eax+28], OFFSET ??$Float2Bytes_SSE2@E$0CA@$0A@@DCTFFTW@@AAEXPAEHPAM@Z ; DCTFFTW::Float2Bytes_SSE2<unsigned char,32,0>
; File c:\program files (x86)\microsoft visual studio 14.0\vc\include\map

; 244  : 		return (_Try_emplace(_STD move(_Keyval),

	lea	eax, DWORD PTR $T7[ebp]
	push	eax
	lea	eax, DWORD PTR $T19[ebp]
; File c:\program files (x86)\microsoft visual studio 14.0\vc\include\tuple

; 163  : 		: _Val(_STD forward<_Other>(_Arg))

	mov	DWORD PTR $T7[ebp], 2
; File c:\program files (x86)\microsoft visual studio 14.0\vc\include\map

; 244  : 		return (_Try_emplace(_STD move(_Keyval),

	push	eax
; File c:\program files (x86)\microsoft visual studio 14.0\vc\include\tuple

; 163  : 		: _Val(_STD forward<_Other>(_Arg))

	mov	DWORD PTR $T7[ebp+4], 1
	mov	DWORD PTR $T7[ebp+8], 16		; 00000010H
; File c:\program files (x86)\microsoft visual studio 14.0\vc\include\map

; 244  : 		return (_Try_emplace(_STD move(_Keyval),

	call	??$_Try_emplace@V?$tuple@HHW4arch_t@@@std@@$$V@?$map@V?$tuple@HHW4arch_t@@@std@@P8DCTFFTW@@AEXPAEHPAM@ZU?$less@V?$tuple@HHW4arch_t@@@std@@@2@V?$allocator@U?$pair@$$CBV?$tuple@HHW4arch_t@@@std@@P8DCTFFTW@@AEXPAEHPAM@Z@std@@@2@@std@@QAE?AU?$pair@V?$_Tree_iterator@V?$_Tree_val@U?$_Tree_simple_types@U?$pair@$$CBV?$tuple@HHW4arch_t@@@std@@P8DCTFFTW@@AEXPAEHPAM@Z@std@@@std@@@std@@@std@@_N@1@$$QAV?$tuple@HHW4arch_t@@@1@@Z ; std::map<std::tuple<int,int,enum arch_t>,void (__thiscall DCTFFTW::*)(unsigned char *,int,float *),std::less<std::tuple<int,int,enum arch_t> >,std::allocator<std::pair<std::tuple<int,int,enum arch_t> const ,void (__thiscall DCTFFTW::*)(unsigned char *,int,float *)> > >::_Try_emplace<std::tuple<int,int,enum arch_t> >
; File c:\github\mvtools\sources\dctfftw.cpp

; 343  :   func[make_tuple(16, 1, USE_SSE2)] = &DCTFFTW::Float2Bytes_SSE2<uint8_t, 16, false>;

	mov	eax, DWORD PTR $T19[ebp]
; File c:\program files (x86)\microsoft visual studio 14.0\vc\include\map

; 244  : 		return (_Try_emplace(_STD move(_Keyval),

	lea	ecx, DWORD PTR _func$[ebp]
; File c:\github\mvtools\sources\dctfftw.cpp

; 343  :   func[make_tuple(16, 1, USE_SSE2)] = &DCTFFTW::Float2Bytes_SSE2<uint8_t, 16, false>;

	mov	DWORD PTR [eax+28], OFFSET ??$Float2Bytes_SSE2@E$0BA@$0A@@DCTFFTW@@AAEXPAEHPAM@Z ; DCTFFTW::Float2Bytes_SSE2<unsigned char,16,0>
; File c:\program files (x86)\microsoft visual studio 14.0\vc\include\map

; 244  : 		return (_Try_emplace(_STD move(_Keyval),

	lea	eax, DWORD PTR $T6[ebp]
	push	eax
	lea	eax, DWORD PTR $T18[ebp]
; File c:\program files (x86)\microsoft visual studio 14.0\vc\include\tuple

; 163  : 		: _Val(_STD forward<_Other>(_Arg))

	mov	DWORD PTR $T6[ebp], 2
; File c:\program files (x86)\microsoft visual studio 14.0\vc\include\map

; 244  : 		return (_Try_emplace(_STD move(_Keyval),

	push	eax
; File c:\program files (x86)\microsoft visual studio 14.0\vc\include\tuple

; 163  : 		: _Val(_STD forward<_Other>(_Arg))

	mov	DWORD PTR $T6[ebp+4], 1
	mov	DWORD PTR $T6[ebp+8], 8
; File c:\program files (x86)\microsoft visual studio 14.0\vc\include\map

; 244  : 		return (_Try_emplace(_STD move(_Keyval),

	call	??$_Try_emplace@V?$tuple@HHW4arch_t@@@std@@$$V@?$map@V?$tuple@HHW4arch_t@@@std@@P8DCTFFTW@@AEXPAEHPAM@ZU?$less@V?$tuple@HHW4arch_t@@@std@@@2@V?$allocator@U?$pair@$$CBV?$tuple@HHW4arch_t@@@std@@P8DCTFFTW@@AEXPAEHPAM@Z@std@@@2@@std@@QAE?AU?$pair@V?$_Tree_iterator@V?$_Tree_val@U?$_Tree_simple_types@U?$pair@$$CBV?$tuple@HHW4arch_t@@@std@@P8DCTFFTW@@AEXPAEHPAM@Z@std@@@std@@@std@@@std@@_N@1@$$QAV?$tuple@HHW4arch_t@@@1@@Z ; std::map<std::tuple<int,int,enum arch_t>,void (__thiscall DCTFFTW::*)(unsigned char *,int,float *),std::less<std::tuple<int,int,enum arch_t> >,std::allocator<std::pair<std::tuple<int,int,enum arch_t> const ,void (__thiscall DCTFFTW::*)(unsigned char *,int,float *)> > >::_Try_emplace<std::tuple<int,int,enum arch_t> >
; File c:\github\mvtools\sources\dctfftw.cpp

; 344  :   func[make_tuple(8, 1, USE_SSE2)] = &DCTFFTW::Float2Bytes_SSE2<uint8_t, 8, false>;

	mov	eax, DWORD PTR $T18[ebp]
; File c:\program files (x86)\microsoft visual studio 14.0\vc\include\map

; 244  : 		return (_Try_emplace(_STD move(_Keyval),

	lea	ecx, DWORD PTR _func$[ebp]
; File c:\github\mvtools\sources\dctfftw.cpp

; 344  :   func[make_tuple(8, 1, USE_SSE2)] = &DCTFFTW::Float2Bytes_SSE2<uint8_t, 8, false>;

	mov	DWORD PTR [eax+28], OFFSET ??$Float2Bytes_SSE2@E$07$0A@@DCTFFTW@@AAEXPAEHPAM@Z ; DCTFFTW::Float2Bytes_SSE2<unsigned char,8,0>
; File c:\program files (x86)\microsoft visual studio 14.0\vc\include\map

; 244  : 		return (_Try_emplace(_STD move(_Keyval),

	lea	eax, DWORD PTR $T5[ebp]
	push	eax
	lea	eax, DWORD PTR $T17[ebp]
; File c:\program files (x86)\microsoft visual studio 14.0\vc\include\tuple

; 163  : 		: _Val(_STD forward<_Other>(_Arg))

	mov	DWORD PTR $T5[ebp], 2
; File c:\program files (x86)\microsoft visual studio 14.0\vc\include\map

; 244  : 		return (_Try_emplace(_STD move(_Keyval),

	push	eax
; File c:\program files (x86)\microsoft visual studio 14.0\vc\include\tuple

; 163  : 		: _Val(_STD forward<_Other>(_Arg))

	mov	DWORD PTR $T5[ebp+4], 2
	mov	DWORD PTR $T5[ebp+8], 32		; 00000020H
; File c:\program files (x86)\microsoft visual studio 14.0\vc\include\map

; 244  : 		return (_Try_emplace(_STD move(_Keyval),

	call	??$_Try_emplace@V?$tuple@HHW4arch_t@@@std@@$$V@?$map@V?$tuple@HHW4arch_t@@@std@@P8DCTFFTW@@AEXPAEHPAM@ZU?$less@V?$tuple@HHW4arch_t@@@std@@@2@V?$allocator@U?$pair@$$CBV?$tuple@HHW4arch_t@@@std@@P8DCTFFTW@@AEXPAEHPAM@Z@std@@@2@@std@@QAE?AU?$pair@V?$_Tree_iterator@V?$_Tree_val@U?$_Tree_simple_types@U?$pair@$$CBV?$tuple@HHW4arch_t@@@std@@P8DCTFFTW@@AEXPAEHPAM@Z@std@@@std@@@std@@@std@@_N@1@$$QAV?$tuple@HHW4arch_t@@@1@@Z ; std::map<std::tuple<int,int,enum arch_t>,void (__thiscall DCTFFTW::*)(unsigned char *,int,float *),std::less<std::tuple<int,int,enum arch_t> >,std::allocator<std::pair<std::tuple<int,int,enum arch_t> const ,void (__thiscall DCTFFTW::*)(unsigned char *,int,float *)> > >::_Try_emplace<std::tuple<int,int,enum arch_t> >
; File c:\github\mvtools\sources\dctfftw.cpp

; 346  :   func[make_tuple(32, 2, USE_SSE2)] = &DCTFFTW::Float2Bytes_SSE2<uint16_t, 32, false>;

	mov	eax, DWORD PTR $T17[ebp]
; File c:\program files (x86)\microsoft visual studio 14.0\vc\include\map

; 244  : 		return (_Try_emplace(_STD move(_Keyval),

	lea	ecx, DWORD PTR _func$[ebp]
; File c:\github\mvtools\sources\dctfftw.cpp

; 346  :   func[make_tuple(32, 2, USE_SSE2)] = &DCTFFTW::Float2Bytes_SSE2<uint16_t, 32, false>;

	mov	DWORD PTR [eax+28], OFFSET ??$Float2Bytes_SSE2@G$0CA@$0A@@DCTFFTW@@AAEXPAEHPAM@Z ; DCTFFTW::Float2Bytes_SSE2<unsigned short,32,0>
; File c:\program files (x86)\microsoft visual studio 14.0\vc\include\map

; 244  : 		return (_Try_emplace(_STD move(_Keyval),

	lea	eax, DWORD PTR $T4[ebp]
	push	eax
	lea	eax, DWORD PTR $T16[ebp]
; File c:\program files (x86)\microsoft visual studio 14.0\vc\include\tuple

; 163  : 		: _Val(_STD forward<_Other>(_Arg))

	mov	DWORD PTR $T4[ebp], 2
; File c:\program files (x86)\microsoft visual studio 14.0\vc\include\map

; 244  : 		return (_Try_emplace(_STD move(_Keyval),

	push	eax
; File c:\program files (x86)\microsoft visual studio 14.0\vc\include\tuple

; 163  : 		: _Val(_STD forward<_Other>(_Arg))

	mov	DWORD PTR $T4[ebp+4], 2
	mov	DWORD PTR $T4[ebp+8], 16		; 00000010H
; File c:\program files (x86)\microsoft visual studio 14.0\vc\include\map

; 244  : 		return (_Try_emplace(_STD move(_Keyval),

	call	??$_Try_emplace@V?$tuple@HHW4arch_t@@@std@@$$V@?$map@V?$tuple@HHW4arch_t@@@std@@P8DCTFFTW@@AEXPAEHPAM@ZU?$less@V?$tuple@HHW4arch_t@@@std@@@2@V?$allocator@U?$pair@$$CBV?$tuple@HHW4arch_t@@@std@@P8DCTFFTW@@AEXPAEHPAM@Z@std@@@2@@std@@QAE?AU?$pair@V?$_Tree_iterator@V?$_Tree_val@U?$_Tree_simple_types@U?$pair@$$CBV?$tuple@HHW4arch_t@@@std@@P8DCTFFTW@@AEXPAEHPAM@Z@std@@@std@@@std@@@std@@_N@1@$$QAV?$tuple@HHW4arch_t@@@1@@Z ; std::map<std::tuple<int,int,enum arch_t>,void (__thiscall DCTFFTW::*)(unsigned char *,int,float *),std::less<std::tuple<int,int,enum arch_t> >,std::allocator<std::pair<std::tuple<int,int,enum arch_t> const ,void (__thiscall DCTFFTW::*)(unsigned char *,int,float *)> > >::_Try_emplace<std::tuple<int,int,enum arch_t> >
; File c:\github\mvtools\sources\dctfftw.cpp

; 347  :   func[make_tuple(16, 2, USE_SSE2)] = &DCTFFTW::Float2Bytes_SSE2<uint16_t, 16, false>;

	mov	eax, DWORD PTR $T16[ebp]
; File c:\program files (x86)\microsoft visual studio 14.0\vc\include\map

; 244  : 		return (_Try_emplace(_STD move(_Keyval),

	lea	ecx, DWORD PTR _func$[ebp]
; File c:\github\mvtools\sources\dctfftw.cpp

; 347  :   func[make_tuple(16, 2, USE_SSE2)] = &DCTFFTW::Float2Bytes_SSE2<uint16_t, 16, false>;

	mov	DWORD PTR [eax+28], OFFSET ??$Float2Bytes_SSE2@G$0BA@$0A@@DCTFFTW@@AAEXPAEHPAM@Z ; DCTFFTW::Float2Bytes_SSE2<unsigned short,16,0>
; File c:\program files (x86)\microsoft visual studio 14.0\vc\include\map

