; Listing generated by Microsoft (R) Optimizing Compiler Version 19.00.24215.1 

	TITLE	c:\github\mvtools\sources\interface.cpp
	.686P
	.XMM
	include listing.inc
	.model	flat

INCLUDELIB OLDNAMES

PUBLIC	?AVS_linkage@@3PBUAVS_Linkage@@B		; AVS_linkage
PUBLIC	??_C@_00CNPNBAHC@?$AA@				; `string'
PUBLIC	??_C@_0BJ@OBPMADJF@MVMask?3?5ML?5must?5be?5?$DO?50?40?$AA@ ; `string'
PUBLIC	??_C@_0CM@CLNNBAEJ@MVFlow?3?5Time?5must?5be?5from?50?5to?51@ ; `string'
PUBLIC	??_C@_0DB@GLOKBGKK@MVFlowInter?3?5Time?5must?5be?5from?50@ ; `string'
PUBLIC	??_C@_0BO@GMCDCOIB@MVFlowInter?3?5ML?5must?5be?5?$DO?50?40?$AA@ ; `string'
PUBLIC	??_C@_0BM@JGLGHEMH@MVFlowFps?3?5ML?5must?5be?5?$DO?50?40?$AA@ ; `string'
PUBLIC	??_C@_0DF@LGEGMKFC@MVFlowBlur?3?5Blur?5time?5must?5be?5fr@ ; `string'
PUBLIC	??_C@_0DH@CPPJDDLD@MStoreVect?3?5you?5must?5specify?5at?5@ ; `string'
PUBLIC	??_C@_0EM@NAKFNCAA@cc?$FLscale?$FNi?$FLsil?$FNi?$FLtol?$FNi?$FLshowsad?$FNb@ ; `string'
PUBLIC	??_C@_05FPCPEODF@MShow?$AA@			; `string'
PUBLIC	??_C@_0BCB@KLDOCAHB@c?$FLblksize?$FNi?$FLblksizeV?$FNi?$FLlevels?$FNi?$FL@ ; `string'
PUBLIC	??_C@_08MPPFBKIE@MAnalyse?$AA@			; `string'
PUBLIC	??_C@_0EG@HAJCMFCN@cc?$FLml?$FNf?$FLgamma?$FNf?$FLkind?$FNi?$FLtime?$FNf?$FLYs@ ; `string'
PUBLIC	??_C@_05OLMCPBF@MMask?$AA@			; `string'
PUBLIC	??_C@_0HL@HEAJFDF@ccc?$FLscbehavior?$FNb?$FLrecursion?$FNf?$FLthS@ ; `string'
PUBLIC	??_C@_0M@NJDGAAIB@MCompensate?$AA@		; `string'
PUBLIC	??_C@_0CC@KMGONIIC@cc?$FLYth?$FNi?$FLthSCD1?$FNi?$FLthSCD2?$FNi?$FLisse?$FN@ ; `string'
PUBLIC	??_C@_0N@CLNGJOF@MSCDetection?$AA@		; `string'
PUBLIC	??_C@_0HC@HLJFBMGH@cc?$FLmask?$FNc?$FLzoom?$FNb?$FLrot?$FNb?$FLpixaspect@ ; `string'
PUBLIC	??_C@_06FLAAMDNN@MDepan?$AA@			; `string'
PUBLIC	??_C@_0EF@KDBNKAPJ@ccc?$FLtime?$FNf?$FLmode?$FNi?$FLfields?$FNb?$FLthSCD@ ; `string'
PUBLIC	??_C@_05HIENMBJA@MFlow?$AA@			; `string'
PUBLIC	??_C@_0ED@CGOJKPH@cccc?$FLtime?$FNf?$FLml?$FNf?$FLblend?$FNb?$FLthSCD1?$FN@ ; `string'
PUBLIC	??_C@_0L@DJEOPEOC@MFlowInter?$AA@		; `string'
PUBLIC	??_C@_0EH@BLHGHBNC@cccc?$FLnum?$FNi?$FLden?$FNi?$FLmask?$FNi?$FLml?$FNf?$FLble@ ; `string'
PUBLIC	??_C@_08MJADCGCO@MFlowFps?$AA@			; `string'
PUBLIC	??_C@_0DF@DPJMOPHB@cccc?$FLblur?$FNf?$FLprec?$FNi?$FLthSCD1?$FNi?$FLthSC@ ; `string'
PUBLIC	??_C@_09CKNECHMI@MFlowBlur?$AA@			; `string'
PUBLIC	??_C@_0FM@HNKAHCLO@cccc?$FLthSAD?$FNi?$FLthSADC?$FNi?$FLplane?$FNi?$FLli@ ; `string'
PUBLIC	??_C@_09CNHDOAA@MDegrain1?$AA@			; `string'
PUBLIC	??_C@_0FO@HLKNGIOP@cccccc?$FLthSAD?$FNi?$FLthSADC?$FNi?$FLplane?$FNi?$FL@ ; `string'
PUBLIC	??_C@_09CJPKGNMD@MDegrain2?$AA@			; `string'
PUBLIC	??_C@_0GA@CFGPPLIN@cccccccc?$FLthSAD?$FNi?$FLthSADC?$FNi?$FLplane?$FN@ ; `string'
PUBLIC	??_C@_09DAOBFMIC@MDegrain3?$AA@			; `string'
PUBLIC	??_C@_0GC@BLKCGOJE@cccccccccc?$FLthSAD?$FNi?$FLthSADC?$FNi?$FLplan@ ; `string'
PUBLIC	??_C@_09HPKAMKEF@MDegrain4?$AA@			; `string'
PUBLIC	??_C@_0GE@MHJOIK@cccccccccccc?$FLthSAD?$FNi?$FLthSADC?$FNi?$FLpl@ ; `string'
PUBLIC	??_C@_09GGLLPLAE@MDegrain5?$AA@			; `string'
PUBLIC	??_C@_0GP@OJFJMPLO@ccci?$FLthSAD?$FNi?$FLthSADC?$FNi?$FLplane?$FNi?$FLli@ ; `string'
PUBLIC	??_C@_09KKHAFLDJ@MDegrainN?$AA@			; `string'
PUBLIC	??_C@_0LJ@LNPKOIAB@cc?$FLthsad?$FNi?$FLsmooth?$FNi?$FLblksize?$FNi?$FLbl@ ; `string'
PUBLIC	??_C@_0N@HIPOLGGP@MRecalculate?$AA@		; `string'
PUBLIC	??_C@_0EM@FHHOOIJP@cccc?$FLnum?$FNi?$FLden?$FNi?$FLmode?$FNi?$FLml?$FNi?$FLble@ ; `string'
PUBLIC	??_C@_09PDPBMHMM@MBlockFps?$AA@			; `string'
PUBLIC	??_C@_0FJ@KJGJJNIF@c?$FLhpad?$FNi?$FLvpad?$FNi?$FLpel?$FNi?$FLlevels?$FNi?$FLc@ ; `string'
PUBLIC	??_C@_06MEENJDPN@MSuper?$AA@			; `string'
PUBLIC	??_C@_09OIPLNGMI@c?$CL?$FLvccs?$FNs?$AA@	; `string'
PUBLIC	??_C@_0L@OGKEKMEE@MStoreVect?$AA@		; `string'
PUBLIC	??_C@_09HOOICLHG@c?$FLindex?$FNi?$AA@		; `string'
PUBLIC	??_C@_0N@NLLEADCO@MRestoreVect?$AA@		; `string'
PUBLIC	??_C@_0DA@IJJIFBPP@c?$FLscale?$FNf?$FLscaleV?$FNf?$FLmode?$FNi?$FLflip?$FNb@ ; `string'
PUBLIC	??_C@_0L@MGOHGFN@MScaleVect?$AA@		; `string'
PUBLIC	??_C@_0DL@BMMDLPLH@MVTools?5?3?5set?5of?5tools?5based?5on?5@ ; `string'
PUBLIC	??_C@_0BD@OLBABOEK@vector?$DMT?$DO?5too?5long?$AA@ ; `string'
	ALIGN	4

?AVS_linkage@@3PBUAVS_Linkage@@B DD 01H DUP (?)		; AVS_linkage
_BSS	ENDS
;	COMDAT ??_C@_0BD@OLBABOEK@vector?$DMT?$DO?5too?5long?$AA@
CONST	SEGMENT
??_C@_0BD@OLBABOEK@vector?$DMT?$DO?5too?5long?$AA@ DB 'vector<T> too long'
	DB	00H						; `string'
CONST	ENDS
;	COMDAT ??_C@_0DL@BMMDLPLH@MVTools?5?3?5set?5of?5tools?5based?5on?5@
CONST	SEGMENT
??_C@_0DL@BMMDLPLH@MVTools?5?3?5set?5of?5tools?5based?5on?5@ DB 'MVTools '
	DB	': set of tools based on a motion estimation engine', 00H ; `string'
CONST	ENDS
;	COMDAT ??_C@_0L@MGOHGFN@MScaleVect?$AA@
CONST	SEGMENT
??_C@_0L@MGOHGFN@MScaleVect?$AA@ DB 'MScaleVect', 00H	; `string'
CONST	ENDS
;	COMDAT ??_C@_0DA@IJJIFBPP@c?$FLscale?$FNf?$FLscaleV?$FNf?$FLmode?$FNi?$FLflip?$FNb@
CONST	SEGMENT
??_C@_0DA@IJJIFBPP@c?$FLscale?$FNf?$FLscaleV?$FNf?$FLmode?$FNi?$FLflip?$FNb@ DB 'c'
	DB	'[scale]f[scaleV]f[mode]i[flip]b[adjustSubPel]b', 00H ; `string'
CONST	ENDS
;	COMDAT ??_C@_0N@NLLEADCO@MRestoreVect?$AA@
CONST	SEGMENT
??_C@_0N@NLLEADCO@MRestoreVect?$AA@ DB 'MRestoreVect', 00H ; `string'
CONST	ENDS
;	COMDAT ??_C@_09HOOICLHG@c?$FLindex?$FNi?$AA@
CONST	SEGMENT
??_C@_09HOOICLHG@c?$FLindex?$FNi?$AA@ DB 'c[index]i', 00H ; `string'
CONST	ENDS
;	COMDAT ??_C@_0L@OGKEKMEE@MStoreVect?$AA@
CONST	SEGMENT
??_C@_0L@OGKEKMEE@MStoreVect?$AA@ DB 'MStoreVect', 00H	; `string'
CONST	ENDS
;	COMDAT ??_C@_09OIPLNGMI@c?$CL?$FLvccs?$FNs?$AA@
CONST	SEGMENT
??_C@_09OIPLNGMI@c?$CL?$FLvccs?$FNs?$AA@ DB 'c+[vccs]s', 00H ; `string'
CONST	ENDS
;	COMDAT ??_C@_06MEENJDPN@MSuper?$AA@
CONST	SEGMENT
??_C@_06MEENJDPN@MSuper?$AA@ DB 'MSuper', 00H		; `string'
CONST	ENDS
;	COMDAT ??_C@_0FJ@KJGJJNIF@c?$FLhpad?$FNi?$FLvpad?$FNi?$FLpel?$FNi?$FLlevels?$FNi?$FLc@
CONST	SEGMENT
??_C@_0FJ@KJGJJNIF@c?$FLhpad?$FNi?$FLvpad?$FNi?$FLpel?$FNi?$FLlevels?$FNi?$FLc@ DB 'c'
	DB	'[hpad]i[vpad]i[pel]i[levels]i[chroma]b[sharp]i[rfilter]i[pelc'
	DB	'lip]c[isse]b[planar]b[mt]b', 00H		; `string'
CONST	ENDS
;	COMDAT ??_C@_09PDPBMHMM@MBlockFps?$AA@
CONST	SEGMENT
??_C@_09PDPBMHMM@MBlockFps?$AA@ DB 'MBlockFps', 00H	; `string'
CONST	ENDS
;	COMDAT ??_C@_0EM@FHHOOIJP@cccc?$FLnum?$FNi?$FLden?$FNi?$FLmode?$FNi?$FLml?$FNi?$FLble@
CONST	SEGMENT
??_C@_0EM@FHHOOIJP@cccc?$FLnum?$FNi?$FLden?$FNi?$FLmode?$FNi?$FLml?$FNi?$FLble@ DB 'c'
	DB	'ccc[num]i[den]i[mode]i[ml]i[blend]b[thSCD1]i[thSCD2]i[isse]b['
	DB	'planar]b[mt]b', 00H				; `string'
CONST	ENDS
;	COMDAT ??_C@_0N@HIPOLGGP@MRecalculate?$AA@
CONST	SEGMENT
??_C@_0N@HIPOLGGP@MRecalculate?$AA@ DB 'MRecalculate', 00H ; `string'
CONST	ENDS
;	COMDAT ??_C@_0LJ@LNPKOIAB@cc?$FLthsad?$FNi?$FLsmooth?$FNi?$FLblksize?$FNi?$FLbl@
CONST	SEGMENT
??_C@_0LJ@LNPKOIAB@cc?$FLthsad?$FNi?$FLsmooth?$FNi?$FLblksize?$FNi?$FLbl@ DB 'c'
	DB	'c[thsad]i[smooth]i[blksize]i[blksizeV]i[search]i[searchparam]'
	DB	'i[lambda]i[chroma]b[truemotion]b[pnew]i[overlap]i[overlapV]i['
	DB	'outfile]s[dct]i[divide]i[sadx264]i[isse]b[meander]b[tr]i[mt]b'
	DB	00H						; `string'
CONST	ENDS
;	COMDAT ??_C@_09KKHAFLDJ@MDegrainN?$AA@
CONST	SEGMENT
??_C@_09KKHAFLDJ@MDegrainN?$AA@ DB 'MDegrainN', 00H	; `string'
CONST	ENDS
;	COMDAT ??_C@_0GP@OJFJMPLO@ccci?$FLthSAD?$FNi?$FLthSADC?$FNi?$FLplane?$FNi?$FLli@
CONST	SEGMENT
??_C@_0GP@OJFJMPLO@ccci?$FLthSAD?$FNi?$FLthSADC?$FNi?$FLplane?$FNi?$FLli@ DB 'c'
	DB	'cci[thSAD]i[thSADC]i[plane]i[limit]i[limitC]i[thSCD1]i[thSCD2'
	DB	']i[isse]b[planar]b[lsb]b[thsad2]i[thsadc2]i[mt]b', 00H ; `string'
CONST	ENDS
;	COMDAT ??_C@_09GGLLPLAE@MDegrain5?$AA@
CONST	SEGMENT
??_C@_09GGLLPLAE@MDegrain5?$AA@ DB 'MDegrain5', 00H	; `string'
CONST	ENDS
;	COMDAT ??_C@_0GE@MHJOIK@cccccccccccc?$FLthSAD?$FNi?$FLthSADC?$FNi?$FLpl@
CONST	SEGMENT
??_C@_0GE@MHJOIK@cccccccccccc?$FLthSAD?$FNi?$FLthSADC?$FNi?$FLpl@ DB 'ccc'
	DB	'ccccccccc[thSAD]i[thSADC]i[plane]i[limit]i[limitC]i[thSCD1]i['
	DB	'thSCD2]i[isse]b[planar]b[lsb]b[mt]b', 00H	; `string'
CONST	ENDS
;	COMDAT ??_C@_09HPKAMKEF@MDegrain4?$AA@
CONST	SEGMENT
??_C@_09HPKAMKEF@MDegrain4?$AA@ DB 'MDegrain4', 00H	; `string'
CONST	ENDS
;	COMDAT ??_C@_0GC@BLKCGOJE@cccccccccc?$FLthSAD?$FNi?$FLthSADC?$FNi?$FLplan@
CONST	SEGMENT
??_C@_0GC@BLKCGOJE@cccccccccc?$FLthSAD?$FNi?$FLthSADC?$FNi?$FLplan@ DB 'c'
	DB	'ccccccccc[thSAD]i[thSADC]i[plane]i[limit]i[limitC]i[thSCD1]i['
	DB	'thSCD2]i[isse]b[planar]b[lsb]b[mt]b', 00H	; `string'
CONST	ENDS
;	COMDAT ??_C@_09DAOBFMIC@MDegrain3?$AA@
CONST	SEGMENT
??_C@_09DAOBFMIC@MDegrain3?$AA@ DB 'MDegrain3', 00H	; `string'
CONST	ENDS
;	COMDAT ??_C@_0GA@CFGPPLIN@cccccccc?$FLthSAD?$FNi?$FLthSADC?$FNi?$FLplane?$FN@
CONST	SEGMENT
??_C@_0GA@CFGPPLIN@cccccccc?$FLthSAD?$FNi?$FLthSADC?$FNi?$FLplane?$FN@ DB 'c'
	DB	'ccccccc[thSAD]i[thSADC]i[plane]i[limit]i[limitC]i[thSCD1]i[th'
	DB	'SCD2]i[isse]b[planar]b[lsb]b[mt]b', 00H	; `string'
CONST	ENDS
;	COMDAT ??_C@_09CJPKGNMD@MDegrain2?$AA@
CONST	SEGMENT
??_C@_09CJPKGNMD@MDegrain2?$AA@ DB 'MDegrain2', 00H	; `string'
CONST	ENDS
;	COMDAT ??_C@_0FO@HLKNGIOP@cccccc?$FLthSAD?$FNi?$FLthSADC?$FNi?$FLplane?$FNi?$FL@
CONST	SEGMENT
??_C@_0FO@HLKNGIOP@cccccc?$FLthSAD?$FNi?$FLthSADC?$FNi?$FLplane?$FNi?$FL@ DB 'c'
	DB	'ccccc[thSAD]i[thSADC]i[plane]i[limit]i[limitC]i[thSCD1]i[thSC'
	DB	'D2]i[isse]b[planar]b[lsb]b[mt]b', 00H	; `string'
CONST	ENDS
;	COMDAT ??_C@_09CNHDOAA@MDegrain1?$AA@
CONST	SEGMENT
??_C@_09CNHDOAA@MDegrain1?$AA@ DB 'MDegrain1', 00H	; `string'
CONST	ENDS
;	COMDAT ??_C@_0FM@HNKAHCLO@cccc?$FLthSAD?$FNi?$FLthSADC?$FNi?$FLplane?$FNi?$FLli@
CONST	SEGMENT
??_C@_0FM@HNKAHCLO@cccc?$FLthSAD?$FNi?$FLthSADC?$FNi?$FLplane?$FNi?$FLli@ DB 'c'
	DB	'ccc[thSAD]i[thSADC]i[plane]i[limit]i[limitC]i[thSCD1]i[thSCD2'
	DB	']i[isse]b[planar]b[lsb]b[mt]b', 00H		; `string'
CONST	ENDS
;	COMDAT ??_C@_09CKNECHMI@MFlowBlur?$AA@
CONST	SEGMENT
??_C@_09CKNECHMI@MFlowBlur?$AA@ DB 'MFlowBlur', 00H	; `string'
CONST	ENDS
;	COMDAT ??_C@_0DF@DPJMOPHB@cccc?$FLblur?$FNf?$FLprec?$FNi?$FLthSCD1?$FNi?$FLthSC@
CONST	SEGMENT
??_C@_0DF@DPJMOPHB@cccc?$FLblur?$FNf?$FLprec?$FNi?$FLthSCD1?$FNi?$FLthSC@ DB 'c'
	DB	'ccc[blur]f[prec]i[thSCD1]i[thSCD2]i[isse]b[planar]b', 00H ; `string'
CONST	ENDS
;	COMDAT ??_C@_08MJADCGCO@MFlowFps?$AA@
CONST	SEGMENT
??_C@_08MJADCGCO@MFlowFps?$AA@ DB 'MFlowFps', 00H	; `string'
CONST	ENDS
;	COMDAT ??_C@_0EH@BLHGHBNC@cccc?$FLnum?$FNi?$FLden?$FNi?$FLmask?$FNi?$FLml?$FNf?$FLble@
CONST	SEGMENT
??_C@_0EH@BLHGHBNC@cccc?$FLnum?$FNi?$FLden?$FNi?$FLmask?$FNi?$FLml?$FNf?$FLble@ DB 'c'
	DB	'ccc[num]i[den]i[mask]i[ml]f[blend]b[thSCD1]i[thSCD2]i[isse]b['
	DB	'planar]b', 00H				; `string'
CONST	ENDS
;	COMDAT ??_C@_0L@DJEOPEOC@MFlowInter?$AA@
CONST	SEGMENT
??_C@_0L@DJEOPEOC@MFlowInter?$AA@ DB 'MFlowInter', 00H	; `string'
CONST	ENDS
;	COMDAT ??_C@_0ED@CGOJKPH@cccc?$FLtime?$FNf?$FLml?$FNf?$FLblend?$FNb?$FLthSCD1?$FN@
CONST	SEGMENT
??_C@_0ED@CGOJKPH@cccc?$FLtime?$FNf?$FLml?$FNf?$FLblend?$FNb?$FLthSCD1?$FN@ DB 'c'
	DB	'ccc[time]f[ml]f[blend]b[thSCD1]i[thSCD2]i[isse]b[planar]b[tcl'
	DB	'ip]c', 00H					; `string'
CONST	ENDS
;	COMDAT ??_C@_05HIENMBJA@MFlow?$AA@
CONST	SEGMENT
??_C@_05HIENMBJA@MFlow?$AA@ DB 'MFlow', 00H		; `string'
CONST	ENDS
;	COMDAT ??_C@_0EF@KDBNKAPJ@ccc?$FLtime?$FNf?$FLmode?$FNi?$FLfields?$FNb?$FLthSCD@
CONST	SEGMENT
??_C@_0EF@KDBNKAPJ@ccc?$FLtime?$FNf?$FLmode?$FNi?$FLfields?$FNb?$FLthSCD@ DB 'c'
	DB	'cc[time]f[mode]i[fields]b[thSCD1]i[thSCD2]i[isse]b[planar]b[t'
	DB	'clip]c', 00H				; `string'
CONST	ENDS
;	COMDAT ??_C@_06FLAAMDNN@MDepan?$AA@
CONST	SEGMENT
??_C@_06FLAAMDNN@MDepan?$AA@ DB 'MDepan', 00H		; `string'
CONST	ENDS
;	COMDAT ??_C@_0HC@HLJFBMGH@cc?$FLmask?$FNc?$FLzoom?$FNb?$FLrot?$FNb?$FLpixaspect@
CONST	SEGMENT
??_C@_0HC@HLJFBMGH@cc?$FLmask?$FNc?$FLzoom?$FNb?$FLrot?$FNb?$FLpixaspect@ DB 'c'
	DB	'c[mask]c[zoom]b[rot]b[pixaspect]f[error]f[info]b[log]s[wrong]'
	DB	'f[zerow]f[range]i[thSCD1]i[thSCD2]i[isse]b[planar]b', 00H ; `string'
CONST	ENDS
;	COMDAT ??_C@_0N@CLNGJOF@MSCDetection?$AA@
CONST	SEGMENT
??_C@_0N@CLNGJOF@MSCDetection?$AA@ DB 'MSCDetection', 00H ; `string'
CONST	ENDS
;	COMDAT ??_C@_0CC@KMGONIIC@cc?$FLYth?$FNi?$FLthSCD1?$FNi?$FLthSCD2?$FNi?$FLisse?$FN@
CONST	SEGMENT
??_C@_0CC@KMGONIIC@cc?$FLYth?$FNi?$FLthSCD1?$FNi?$FLthSCD2?$FNi?$FLisse?$FN@ DB 'c'
	DB	'c[Yth]i[thSCD1]i[thSCD2]i[isse]b', 00H	; `string'
CONST	ENDS
;	COMDAT ??_C@_0M@NJDGAAIB@MCompensate?$AA@
CONST	SEGMENT
??_C@_0M@NJDGAAIB@MCompensate?$AA@ DB 'MCompensate', 00H ; `string'
CONST	ENDS
;	COMDAT ??_C@_0HL@HEAJFDF@ccc?$FLscbehavior?$FNb?$FLrecursion?$FNf?$FLthS@
CONST	SEGMENT
??_C@_0HL@HEAJFDF@ccc?$FLscbehavior?$FNb?$FLrecursion?$FNf?$FLthS@ DB 'cc'
	DB	'c[scbehavior]b[recursion]f[thSAD]i[fields]b[time]f[thSCD1]i[t'
	DB	'hSCD2]i[isse]b[planar]b[mt]b[tr]i[center]b[cclip]c[thSAD2]i', 00H ; `string'
CONST	ENDS
;	COMDAT ??_C@_05OLMCPBF@MMask?$AA@
CONST	SEGMENT
??_C@_05OLMCPBF@MMask?$AA@ DB 'MMask', 00H		; `string'
CONST	ENDS
;	COMDAT ??_C@_0EG@HAJCMFCN@cc?$FLml?$FNf?$FLgamma?$FNf?$FLkind?$FNi?$FLtime?$FNf?$FLYs@
CONST	SEGMENT
??_C@_0EG@HAJCMFCN@cc?$FLml?$FNf?$FLgamma?$FNf?$FLkind?$FNi?$FLtime?$FNf?$FLYs@ DB 'c'
	DB	'c[ml]f[gamma]f[kind]i[time]f[Ysc]i[thSCD1]i[thSCD2]i[isse]b[p'
	DB	'lanar]b', 00H				; `string'
CONST	ENDS
;	COMDAT ??_C@_08MPPFBKIE@MAnalyse?$AA@
CONST	SEGMENT
??_C@_08MPPFBKIE@MAnalyse?$AA@ DB 'MAnalyse', 00H	; `string'
CONST	ENDS
;	COMDAT ??_C@_0BCB@KLDOCAHB@c?$FLblksize?$FNi?$FLblksizeV?$FNi?$FLlevels?$FNi?$FL@
CONST	SEGMENT
??_C@_0BCB@KLDOCAHB@c?$FLblksize?$FNi?$FLblksizeV?$FNi?$FLlevels?$FNi?$FL@ DB 'c'
	DB	'[blksize]i[blksizeV]i[levels]i[search]i[searchparam]i[pelsear'
	DB	'ch]i[isb]b[lambda]i[chroma]b[delta]i[truemotion]b[lsad]i[plev'
	DB	'el]i[global]b[pnew]i[pzero]i[pglobal]i[overlap]i[overlapV]i[o'
	DB	'utfile]s[dct]i[divide]i[sadx264]i[badSAD]i[badrange]i[isse]b['
	DB	'meander]b[temporal]b[trymany]b[multi]b[mt]b', 00H ; `string'
CONST	ENDS
;	COMDAT ??_C@_05FPCPEODF@MShow?$AA@
CONST	SEGMENT
??_C@_05FPCPEODF@MShow?$AA@ DB 'MShow', 00H		; `string'
CONST	ENDS
;	COMDAT ??_C@_0EM@NAKFNCAA@cc?$FLscale?$FNi?$FLsil?$FNi?$FLtol?$FNi?$FLshowsad?$FNb@
CONST	SEGMENT
??_C@_0EM@NAKFNCAA@cc?$FLscale?$FNi?$FLsil?$FNi?$FLtol?$FNi?$FLshowsad?$FNb@ DB 'c'
	DB	'c[scale]i[sil]i[tol]i[showsad]b[number]i[thSCD1]i[thSCD2]i[is'
	DB	'se]b[planar]b', 00H				; `string'
CONST	ENDS
;	COMDAT ??_C@_0DH@CPPJDDLD@MStoreVect?3?5you?5must?5specify?5at?5@
CONST	SEGMENT
??_C@_0DH@CPPJDDLD@MStoreVect?3?5you?5must?5specify?5at?5@ DB 'MStoreVect'
	DB	': you must specify at least one vector clip.', 00H ; `string'
CONST	ENDS
;	COMDAT ??_C@_0DF@LGEGMKFC@MVFlowBlur?3?5Blur?5time?5must?5be?5fr@
CONST	SEGMENT
??_C@_0DF@LGEGMKFC@MVFlowBlur?3?5Blur?5time?5must?5be?5fr@ DB 'MVFlowBlur'
	DB	': Blur time must be from 0 to 200 percent.', 00H ; `string'
CONST	ENDS
;	COMDAT ??_C@_0BM@JGLGHEMH@MVFlowFps?3?5ML?5must?5be?5?$DO?50?40?$AA@
CONST	SEGMENT
??_C@_0BM@JGLGHEMH@MVFlowFps?3?5ML?5must?5be?5?$DO?50?40?$AA@ DB 'MVFlowF'
	DB	'ps: ML must be > 0.0', 00H			; `string'
CONST	ENDS
;	COMDAT ??_C@_0BO@GMCDCOIB@MVFlowInter?3?5ML?5must?5be?5?$DO?50?40?$AA@
CONST	SEGMENT
??_C@_0BO@GMCDCOIB@MVFlowInter?3?5ML?5must?5be?5?$DO?50?40?$AA@ DB 'MVFlo'
	DB	'wInter: ML must be > 0.0', 00H		; `string'
CONST	ENDS
;	COMDAT ??_C@_0DB@GLOKBGKK@MVFlowInter?3?5Time?5must?5be?5from?50@
CONST	SEGMENT
??_C@_0DB@GLOKBGKK@MVFlowInter?3?5Time?5must?5be?5from?50@ DB 'MVFlowInte'
	DB	'r: Time must be from 0 to 100 percent.', 00H ; `string'
CONST	ENDS
;	COMDAT ??_C@_0CM@CLNNBAEJ@MVFlow?3?5Time?5must?5be?5from?50?5to?51@
CONST	SEGMENT
??_C@_0CM@CLNNBAEJ@MVFlow?3?5Time?5must?5be?5from?50?5to?51@ DB 'MVFlow: '
	DB	'Time must be from 0 to 100 percent.', 00H	; `string'
CONST	ENDS
;	COMDAT ??_C@_0BJ@OBPMADJF@MVMask?3?5ML?5must?5be?5?$DO?50?40?$AA@
CONST	SEGMENT
??_C@_0BJ@OBPMADJF@MVMask?3?5ML?5must?5be?5?$DO?50?40?$AA@ DB 'MVMask: ML'
	DB	' must be > 0.0', 00H			; `string'
CONST	ENDS
;	COMDAT ??_C@_00CNPNBAHC@?$AA@
CONST	SEGMENT
??_C@_00CNPNBAHC@?$AA@ DB 00H				; `string'
PUBLIC	??$construct@VPClip@@V1@@?$allocator@VPClip@@@std@@QAEXPAVPClip@@$$QAV2@@Z ; std::allocator<PClip>::construct<PClip,PClip>
PUBLIC	??$construct@VPClip@@V1@@?$allocator_traits@V?$allocator@VPClip@@@std@@@std@@SAXAAV?$allocator@VPClip@@@1@PAVPClip@@$$QAV3@@Z ; std::allocator_traits<std::allocator<PClip> >::construct<PClip,PClip>
PUBLIC	??$forward@VPClip@@@std@@YA$$QAVPClip@@AAV1@@Z	; std::forward<PClip>
PUBLIC	??_GPClip@@QAEPAXI@Z				; PClip::`scalar deleting destructor'
PUBLIC	??$destroy@VPClip@@@?$allocator@VPClip@@@std@@QAEXPAVPClip@@@Z ; std::allocator<PClip>::destroy<PClip>
PUBLIC	??$construct@VPClip@@V1@@?$_Wrap_alloc@V?$allocator@VPClip@@@std@@@std@@QAEXPAVPClip@@$$QAV2@@Z ; std::_Wrap_alloc<std::allocator<PClip> >::construct<PClip,PClip>
PUBLIC	??$move@AAVPClip@@@std@@YA$$QAVPClip@@AAV1@@Z	; std::move<PClip &>
PUBLIC	??$destroy@VPClip@@@?$allocator_traits@V?$allocator@VPClip@@@std@@@std@@SAXAAV?$allocator@VPClip@@@1@PAVPClip@@@Z ; std::allocator_traits<std::allocator<PClip> >::destroy<PClip>
PUBLIC	??$_Uninitialized_move_al_unchecked1@PAVPClip@@PAV1@V?$allocator@VPClip@@@std@@@std@@YAPAVPClip@@PAV1@00AAU?$_Wrap_alloc@V?$allocator@VPClip@@@std@@@0@U_General_ptr_iterator_tag@0@U_Any_tag@0@@Z ; std::_Uninitialized_move_al_unchecked1<PClip *,PClip *,std::allocator<PClip> >
PUBLIC	??$_Ptr_move_cat@VPClip@@V1@@std@@YA?AU_General_ptr_iterator_tag@0@ABQAVPClip@@0@Z ; std::_Ptr_move_cat<PClip,PClip>
PUBLIC	??$?0U?$integral_constant@_N$00@std@@@_Any_tag@std@@QAE@$$QAU?$integral_constant@_N$00@1@@Z ; std::_Any_tag::_Any_tag<std::integral_constant<bool,1> >
PUBLIC	??$_Uninitialized_copy_al_unchecked1@PBVPClip@@PAV1@V?$allocator@VPClip@@@std@@@std@@YAPAVPClip@@PBV1@0PAV1@AAU?$_Wrap_alloc@V?$allocator@VPClip@@@std@@@0@U_General_ptr_iterator_tag@0@U_Any_tag@0@@Z ; std::_Uninitialized_copy_al_unchecked1<PClip const *,PClip *,std::allocator<PClip> >
PUBLIC	??$_Ptr_copy_cat@$$CBVPClip@@V1@@std@@YA?AU_General_ptr_iterator_tag@0@ABQBVPClip@@ABQAV2@@Z ; std::_Ptr_copy_cat<PClip const ,PClip>
PUBLIC	?_Unchecked@?$_Vector_const_iterator@V?$_Vector_val@U?$_Simple_types@VPClip@@@std@@@std@@@std@@QBEPBVPClip@@XZ ; std::_Vector_const_iterator<std::_Vector_val<std::_Simple_types<PClip> > >::_Unchecked
PUBLIC	??$move@AAU?$_Wrap_alloc@V?$allocator@VPClip@@@std@@@std@@@std@@YA$$QAU?$_Wrap_alloc@V?$allocator@VPClip@@@std@@@0@AAU10@@Z ; std::move<std::_Wrap_alloc<std::allocator<PClip> > &>
PUBLIC	??$destroy@VPClip@@@?$_Wrap_alloc@V?$allocator@VPClip@@@std@@@std@@QAEXPAVPClip@@@Z ; std::_Wrap_alloc<std::allocator<PClip> >::destroy<PClip>
PUBLIC	??$_Uninitialized_move_al_unchecked@PAVPClip@@PAV1@V?$allocator@VPClip@@@std@@@std@@YAPAVPClip@@PAV1@00AAU?$_Wrap_alloc@V?$allocator@VPClip@@@std@@@0@@Z ; std::_Uninitialized_move_al_unchecked<PClip *,PClip *,std::allocator<PClip> >
PUBLIC	??$_Rechecked@PAVPClip@@PAV1@@std@@YAAAPAVPClip@@AAPAV1@PAV1@@Z ; std::_Rechecked<PClip *,PClip *>
PUBLIC	??$_Uninitialized_copy_al_unchecked@PBVPClip@@PAV1@V?$allocator@VPClip@@@std@@@std@@YAPAVPClip@@PBV1@0PAV1@AAU?$_Wrap_alloc@V?$allocator@VPClip@@@std@@@0@@Z ; std::_Uninitialized_copy_al_unchecked<PClip const *,PClip *,std::allocator<PClip> >
PUBLIC	??$_Unchecked@PAVPClip@@@std@@YAPAVPClip@@PAV1@@Z ; std::_Unchecked<PClip *>
PUBLIC	??$_Unchecked@V?$_Vector_val@U?$_Simple_types@VPClip@@@std@@@std@@@std@@YAPBVPClip@@V?$_Vector_const_iterator@V?$_Vector_val@U?$_Simple_types@VPClip@@@std@@@std@@@0@@Z ; std::_Unchecked<std::_Vector_val<std::_Simple_types<PClip> > >
PUBLIC	??$construct@VPClip@@ABV1@@?$allocator@VPClip@@@std@@QAEXPAVPClip@@ABV2@@Z ; std::allocator<PClip>::construct<PClip,PClip const &>
PUBLIC	??$construct@VPClip@@AAV1@@?$allocator@VPClip@@@std@@QAEXPAVPClip@@AAV2@@Z ; std::allocator<PClip>::construct<PClip,PClip &>
PUBLIC	??0?$_Wrap_alloc@V?$allocator@VPClip@@@std@@@std@@QAE@$$QAU01@@Z ; std::_Wrap_alloc<std::allocator<PClip> >::_Wrap_alloc<std::allocator<PClip> >
PUBLIC	??$_Destroy_range1@V?$allocator@VPClip@@@std@@PAVPClip@@@std@@YAXPAVPClip@@0AAU?$_Wrap_alloc@V?$allocator@VPClip@@@std@@@0@U?$integral_constant@_N$0A@@0@@Z ; std::_Destroy_range1<std::allocator<PClip>,PClip *>
PUBLIC	??$_Uninitialized_move@PAVPClip@@PAV1@V?$allocator@VPClip@@@std@@@std@@YAPAVPClip@@PAV1@00AAU?$_Wrap_alloc@V?$allocator@VPClip@@@std@@@0@@Z ; std::_Uninitialized_move<PClip *,PClip *,std::allocator<PClip> >
PUBLIC	??$forward@V?$allocator@VPClip@@@std@@@std@@YA$$QAV?$allocator@VPClip@@@0@AAV10@@Z ; std::forward<std::allocator<PClip> >
PUBLIC	??$_Uninitialized_copy@V?$_Vector_const_iterator@V?$_Vector_val@U?$_Simple_types@VPClip@@@std@@@std@@@std@@PAVPClip@@V?$allocator@VPClip@@@2@@std@@YAPAVPClip@@V?$_Vector_const_iterator@V?$_Vector_val@U?$_Simple_types@VPClip@@@std@@@std@@@0@0PAV1@AAU?$_Wrap_alloc@V?$allocator@VPClip@@@std@@@0@@Z ; std::_Uninitialized_copy<std::_Vector_const_iterator<std::_Vector_val<std::_Simple_types<PClip> > >,PClip *,std::allocator<PClip> >
PUBLIC	??$?0U?$_Wrap_alloc@V?$allocator@VPClip@@@std@@@std@@$$V@?$_Compressed_pair@U?$_Wrap_alloc@V?$allocator@VPClip@@@std@@@std@@V?$_Vector_val@U?$_Simple_types@VPClip@@@std@@@2@$00@std@@QAE@U_One_then_variadic_args_t@1@$$QAU?$_Wrap_alloc@V?$allocator@VPClip@@@std@@@1@@Z ; std::_Compressed_pair<std::_Wrap_alloc<std::allocator<PClip> >,std::_Vector_val<std::_Simple_types<PClip> >,1>::_Compressed_pair<std::_Wrap_alloc<std::allocator<PClip> >,std::_Vector_val<std::_Simple_types<PClip> >,1><std::_Wrap_alloc<std::allocator<PClip> > >
PUBLIC	??$forward@U?$_Wrap_alloc@V?$allocator@VPClip@@@std@@@std@@@std@@YA$$QAU?$_Wrap_alloc@V?$allocator@VPClip@@@std@@@0@AAU10@@Z ; std::forward<std::_Wrap_alloc<std::allocator<PClip> > >
PUBLIC	??$construct@VPClip@@ABV1@@?$allocator_traits@V?$allocator@VPClip@@@std@@@std@@SAXAAV?$allocator@VPClip@@@1@PAVPClip@@ABV3@@Z ; std::allocator_traits<std::allocator<PClip> >::construct<PClip,PClip const &>
PUBLIC	??$forward@ABVPClip@@@std@@YAABVPClip@@ABV1@@Z	; std::forward<PClip const &>
PUBLIC	??$construct@VPClip@@AAV1@@?$allocator_traits@V?$allocator@VPClip@@@std@@@std@@SAXAAV?$allocator@VPClip@@@1@PAVPClip@@AAV3@@Z ; std::allocator_traits<std::allocator<PClip> >::construct<PClip,PClip &>
PUBLIC	??$forward@AAVPClip@@@std@@YAAAVPClip@@AAV1@@Z	; std::forward<PClip &>
PUBLIC	??0?$allocator@VPClip@@@std@@QAE@XZ		; std::allocator<PClip>::allocator<PClip>
PUBLIC	??0?$_Wrap_alloc@V?$allocator@VPClip@@@std@@@std@@QAE@XZ ; std::_Wrap_alloc<std::allocator<PClip> >::_Wrap_alloc<std::allocator<PClip> >
PUBLIC	??0?$_Vector_val@U?$_Simple_types@VPClip@@@std@@@std@@QAE@XZ ; std::_Vector_val<std::_Simple_types<PClip> >::_Vector_val<std::_Simple_types<PClip> >
PUBLIC	??$_Destroy_range@V?$allocator@VPClip@@@std@@PAVPClip@@@std@@YAXPAVPClip@@0AAU?$_Wrap_alloc@V?$allocator@VPClip@@@std@@@0@@Z ; std::_Destroy_range<std::allocator<PClip>,PClip *>
PUBLIC	??$_Umove@PAVPClip@@@?$vector@VPClip@@V?$allocator@VPClip@@@std@@@std@@IAEPAVPClip@@PAV2@00@Z ; std::vector<PClip,std::allocator<PClip> >::_Umove<PClip *>
PUBLIC	??$?0$$V@?$_Compressed_pair@U?$_Wrap_alloc@V?$allocator@VPClip@@@std@@@std@@V?$_Vector_val@U?$_Simple_types@VPClip@@@std@@@2@$00@std@@QAE@U_Zero_then_variadic_args_t@1@@Z ; std::_Compressed_pair<std::_Wrap_alloc<std::allocator<PClip> >,std::_Vector_val<std::_Simple_types<PClip> >,1>::_Compressed_pair<std::_Wrap_alloc<std::allocator<PClip> >,std::_Vector_val<std::_Simple_types<PClip> >,1><>
PUBLIC	??$?0V?$allocator@VPClip@@@std@@@?$_Wrap_alloc@V?$allocator@VPClip@@@std@@@std@@QAE@$$QAV?$allocator@VPClip@@@1@@Z ; std::_Wrap_alloc<std::allocator<PClip> >::_Wrap_alloc<std::allocator<PClip> ><std::allocator<PClip> >
PUBLIC	??$_Ucopy@V?$_Vector_const_iterator@V?$_Vector_val@U?$_Simple_types@VPClip@@@std@@@std@@@std@@@?$vector@VPClip@@V?$allocator@VPClip@@@std@@@std@@IAEPAVPClip@@V?$_Vector_const_iterator@V?$_Vector_val@U?$_Simple_types@VPClip@@@std@@@std@@@1@0PAV2@@Z ; std::vector<PClip,std::allocator<PClip> >::_Ucopy<std::_Vector_const_iterator<std::_Vector_val<std::_Simple_types<PClip> > > >
PUBLIC	??$?0U?$_Wrap_alloc@V?$allocator@VPClip@@@std@@@std@@X@?$_Vector_alloc@U?$_Vec_base_types@VPClip@@V?$allocator@VPClip@@@std@@@std@@@std@@QAE@$$QAU?$_Wrap_alloc@V?$allocator@VPClip@@@std@@@1@@Z ; std::_Vector_alloc<std::_Vec_base_types<PClip,std::allocator<PClip> > >::_Vector_alloc<std::_Vec_base_types<PClip,std::allocator<PClip> > ><std::_Wrap_alloc<std::allocator<PClip> >,void>
PUBLIC	??$construct@VPClip@@ABV1@@?$_Wrap_alloc@V?$allocator@VPClip@@@std@@@std@@QAEXPAVPClip@@ABV2@@Z ; std::_Wrap_alloc<std::allocator<PClip> >::construct<PClip,PClip const &>
PUBLIC	??$construct@VPClip@@AAV1@@?$_Wrap_alloc@V?$allocator@VPClip@@@std@@@std@@QAEXPAVPClip@@AAV2@@Z ; std::_Wrap_alloc<std::allocator<PClip> >::construct<PClip,PClip &>
PUBLIC	??$_Unfancy@VPClip@@@std@@YAPAVPClip@@PAV1@@Z	; std::_Unfancy<PClip>
PUBLIC	??$addressof@$$CBVPClip@@@std@@YAPBVPClip@@ABV1@@Z ; std::addressof<PClip const >
PUBLIC	?max_size@?$allocator@VPClip@@@std@@QBEIXZ	; std::allocator<PClip>::max_size
PUBLIC	?max_size@?$allocator_traits@V?$allocator@VPClip@@@std@@@std@@SAIABV?$allocator@VPClip@@@2@@Z ; std::allocator_traits<std::allocator<PClip> >::max_size
PUBLIC	??0?$allocator@VPClip@@@std@@QAE@ABV01@@Z	; std::allocator<PClip>::allocator<PClip>
PUBLIC	?deallocate@?$allocator@VPClip@@@std@@QAEXPAVPClip@@I@Z ; std::allocator<PClip>::deallocate
PUBLIC	?allocate@?$allocator@VPClip@@@std@@QAEPAVPClip@@I@Z ; std::allocator<PClip>::allocate
PUBLIC	?capacity@?$vector@VPClip@@V?$allocator@VPClip@@@std@@@std@@QBEIXZ ; std::vector<PClip,std::allocator<PClip> >::capacity
PUBLIC	?_Myend@?$_Vector_alloc@U?$_Vec_base_types@VPClip@@V?$allocator@VPClip@@@std@@@std@@@std@@QBEABQAVPClip@@XZ ; std::_Vector_alloc<std::_Vec_base_types<PClip,std::allocator<PClip> > >::_Myend
PUBLIC	?max_size@?$_Wrap_alloc@V?$allocator@VPClip@@@std@@@std@@QBEIU_Nil@2@@Z ; std::_Wrap_alloc<std::allocator<PClip> >::max_size
PUBLIC	?_Get_second@?$_Compressed_pair@U?$_Wrap_alloc@V?$allocator@VPClip@@@std@@@std@@V?$_Vector_val@U?$_Simple_types@VPClip@@@std@@@2@$00@std@@QAEAAV?$_Vector_val@U?$_Simple_types@VPClip@@@std@@@2@XZ ; std::_Compressed_pair<std::_Wrap_alloc<std::allocator<PClip> >,std::_Vector_val<std::_Simple_types<PClip> >,1>::_Get_second
PUBLIC	?_Get_second@?$_Compressed_pair@U?$_Wrap_alloc@V?$allocator@VPClip@@@std@@@std@@V?$_Vector_val@U?$_Simple_types@VPClip@@@std@@@2@$00@std@@QBEABV?$_Vector_val@U?$_Simple_types@VPClip@@@std@@@2@XZ ; std::_Compressed_pair<std::_Wrap_alloc<std::allocator<PClip> >,std::_Vector_val<std::_Simple_types<PClip> >,1>::_Get_second
PUBLIC	?_Unused_capacity@?$vector@VPClip@@V?$allocator@VPClip@@@std@@@std@@QBEIXZ ; std::vector<PClip,std::allocator<PClip> >::_Unused_capacity
PUBLIC	?max_size@?$vector@VPClip@@V?$allocator@VPClip@@@std@@@std@@QBEIXZ ; std::vector<PClip,std::allocator<PClip> >::max_size
PUBLIC	?_Destroy@?$vector@VPClip@@V?$allocator@VPClip@@@std@@@std@@IAEXPAVPClip@@0@Z ; std::vector<PClip,std::allocator<PClip> >::_Destroy
PUBLIC	?_Grow_to@?$vector@VPClip@@V?$allocator@VPClip@@@std@@@std@@IBEII@Z ; std::vector<PClip,std::allocator<PClip> >::_Grow_to
PUBLIC	?_Reallocate@?$vector@VPClip@@V?$allocator@VPClip@@@std@@@std@@IAEXI@Z ; std::vector<PClip,std::allocator<PClip> >::_Reallocate
PUBLIC	?_Xlen@?$vector@VPClip@@V?$allocator@VPClip@@@std@@@std@@IBEXXZ ; std::vector<PClip,std::allocator<PClip> >::_Xlen
PUBLIC	?_Orphan_all@?$_Vector_alloc@U?$_Vec_base_types@VPClip@@V?$allocator@VPClip@@@std@@@std@@@std@@QAEXXZ ; std::_Vector_alloc<std::_Vec_base_types<PClip,std::allocator<PClip> > >::_Orphan_all
PUBLIC	?_Get_data@?$_Vector_alloc@U?$_Vec_base_types@VPClip@@V?$allocator@VPClip@@@std@@@std@@@std@@QAEAAV?$_Vector_val@U?$_Simple_types@VPClip@@@std@@@2@XZ ; std::_Vector_alloc<std::_Vec_base_types<PClip,std::allocator<PClip> > >::_Get_data
PUBLIC	?_Get_data@?$_Vector_alloc@U?$_Vec_base_types@VPClip@@V?$allocator@VPClip@@@std@@@std@@@std@@QBEABV?$_Vector_val@U?$_Simple_types@VPClip@@@std@@@2@XZ ; std::_Vector_alloc<std::_Vec_base_types<PClip,std::allocator<PClip> > >::_Get_data
PUBLIC	?_Myfirst@?$_Vector_alloc@U?$_Vec_base_types@VPClip@@V?$allocator@VPClip@@@std@@@std@@@std@@QBEABQAVPClip@@XZ ; std::_Vector_alloc<std::_Vec_base_types<PClip,std::allocator<PClip> > >::_Myfirst
PUBLIC	?_Mylast@?$_Vector_alloc@U?$_Vec_base_types@VPClip@@V?$allocator@VPClip@@@std@@@std@@@std@@QBEABQAVPClip@@XZ ; std::_Vector_alloc<std::_Vec_base_types<PClip,std::allocator<PClip> > >::_Mylast
PUBLIC	?allocate@?$_Wrap_alloc@V?$allocator@VPClip@@@std@@@std@@QAEPAVPClip@@I@Z ; std::_Wrap_alloc<std::allocator<PClip> >::allocate
PUBLIC	?deallocate@?$_Wrap_alloc@V?$allocator@VPClip@@@std@@@std@@QAEXPAVPClip@@I@Z ; std::_Wrap_alloc<std::allocator<PClip> >::deallocate
PUBLIC	?select_on_container_copy_construction@?$allocator_traits@V?$allocator@VPClip@@@std@@@std@@SA?AV?$allocator@VPClip@@@2@ABV32@@Z ; std::allocator_traits<std::allocator<PClip> >::select_on_container_copy_construction
PUBLIC	??0?$_Vector_const_iterator@V?$_Vector_val@U?$_Simple_types@VPClip@@@std@@@std@@@std@@QAE@PAVPClip@@PBU_Container_base0@1@@Z ; std::_Vector_const_iterator<std::_Vector_val<std::_Simple_types<PClip> > >::_Vector_const_iterator<std::_Vector_val<std::_Simple_types<PClip> > >
PUBLIC	?_Get_first@?$_Compressed_pair@U?$_Wrap_alloc@V?$allocator@VPClip@@@std@@@std@@V?$_Vector_val@U?$_Simple_types@VPClip@@@std@@@2@$00@std@@QAEAAU?$_Wrap_alloc@V?$allocator@VPClip@@@std@@@2@XZ ; std::_Compressed_pair<std::_Wrap_alloc<std::allocator<PClip> >,std::_Vector_val<std::_Simple_types<PClip> >,1>::_Get_first
PUBLIC	?_Get_first@?$_Compressed_pair@U?$_Wrap_alloc@V?$allocator@VPClip@@@std@@@std@@V?$_Vector_val@U?$_Simple_types@VPClip@@@std@@@2@$00@std@@QBEABU?$_Wrap_alloc@V?$allocator@VPClip@@@std@@@2@XZ ; std::_Compressed_pair<std::_Wrap_alloc<std::allocator<PClip> >,std::_Vector_val<std::_Simple_types<PClip> >,1>::_Get_first
PUBLIC	?begin@?$vector@VPClip@@V?$allocator@VPClip@@@std@@@std@@QBE?AV?$_Vector_const_iterator@V?$_Vector_val@U?$_Simple_types@VPClip@@@std@@@std@@@2@XZ ; std::vector<PClip,std::allocator<PClip> >::begin
PUBLIC	?end@?$vector@VPClip@@V?$allocator@VPClip@@@std@@@std@@QBE?AV?$_Vector_const_iterator@V?$_Vector_val@U?$_Simple_types@VPClip@@@std@@@std@@@2@XZ ; std::vector<PClip,std::allocator<PClip> >::end
PUBLIC	?size@?$vector@VPClip@@V?$allocator@VPClip@@@std@@@std@@QBEIXZ ; std::vector<PClip,std::allocator<PClip> >::size
PUBLIC	?_Buy@?$vector@VPClip@@V?$allocator@VPClip@@@std@@@std@@IAE_NI@Z ; std::vector<PClip,std::allocator<PClip> >::_Buy
PUBLIC	?_Inside@?$vector@VPClip@@V?$allocator@VPClip@@@std@@@std@@IBE_NPBVPClip@@@Z ; std::vector<PClip,std::allocator<PClip> >::_Inside
PUBLIC	?_Reserve@?$vector@VPClip@@V?$allocator@VPClip@@@std@@@std@@IAEXI@Z ; std::vector<PClip,std::allocator<PClip> >::_Reserve
PUBLIC	?_Tidy@?$vector@VPClip@@V?$allocator@VPClip@@@std@@@std@@IAEXXZ ; std::vector<PClip,std::allocator<PClip> >::_Tidy
PUBLIC	?_Orphan_range@?$vector@VPClip@@V?$allocator@VPClip@@@std@@@std@@IBEXPAVPClip@@0@Z ; std::vector<PClip,std::allocator<PClip> >::_Orphan_range
PUBLIC	??0?$_Vector_alloc@U?$_Vec_base_types@VPClip@@V?$allocator@VPClip@@@std@@@std@@@std@@QAE@XZ ; std::_Vector_alloc<std::_Vec_base_types<PClip,std::allocator<PClip> > >::_Vector_alloc<std::_Vec_base_types<PClip,std::allocator<PClip> > >
PUBLIC	?_Getal@?$_Vector_alloc@U?$_Vec_base_types@VPClip@@V?$allocator@VPClip@@@std@@@std@@@std@@QAEAAU?$_Wrap_alloc@V?$allocator@VPClip@@@std@@@2@XZ ; std::_Vector_alloc<std::_Vec_base_types<PClip,std::allocator<PClip> > >::_Getal
PUBLIC	?_Getal@?$_Vector_alloc@U?$_Vec_base_types@VPClip@@V?$allocator@VPClip@@@std@@@std@@@std@@QBEABU?$_Wrap_alloc@V?$allocator@VPClip@@@std@@@2@XZ ; std::_Vector_alloc<std::_Vec_base_types<PClip,std::allocator<PClip> > >::_Getal
PUBLIC	?_Myfirst@?$_Vector_alloc@U?$_Vec_base_types@VPClip@@V?$allocator@VPClip@@@std@@@std@@@std@@QAEAAPAVPClip@@XZ ; std::_Vector_alloc<std::_Vec_base_types<PClip,std::allocator<PClip> > >::_Myfirst
PUBLIC	?_Mylast@?$_Vector_alloc@U?$_Vec_base_types@VPClip@@V?$allocator@VPClip@@@std@@@std@@@std@@QAEAAPAVPClip@@XZ ; std::_Vector_alloc<std::_Vec_base_types<PClip,std::allocator<PClip> > >::_Mylast
PUBLIC	?_Myend@?$_Vector_alloc@U?$_Vec_base_types@VPClip@@V?$allocator@VPClip@@@std@@@std@@@std@@QAEAAPAVPClip@@XZ ; std::_Vector_alloc<std::_Vec_base_types<PClip,std::allocator<PClip> > >::_Myend
PUBLIC	?select_on_container_copy_construction@?$_Wrap_alloc@V?$allocator@VPClip@@@std@@@std@@QBE?AU12@U_Nil@2@@Z ; std::_Wrap_alloc<std::allocator<PClip> >::select_on_container_copy_construction
PUBLIC	??0?$vector@VPClip@@V?$allocator@VPClip@@@std@@@std@@QAE@XZ ; std::vector<PClip,std::allocator<PClip> >::vector<PClip,std::allocator<PClip> >
PUBLIC	??0?$vector@VPClip@@V?$allocator@VPClip@@@std@@@std@@QAE@ABV01@@Z ; std::vector<PClip,std::allocator<PClip> >::vector<PClip,std::allocator<PClip> >
PUBLIC	??1?$vector@VPClip@@V?$allocator@VPClip@@@std@@@std@@QAE@XZ ; std::vector<PClip,std::allocator<PClip> >::~vector<PClip,std::allocator<PClip> >
PUBLIC	?push_back@?$vector@VPClip@@V?$allocator@VPClip@@@std@@@std@@QAEXABVPClip@@@Z ; std::vector<PClip,std::allocator<PClip> >::push_back
PUBLIC	_DllMain@12
PUBLIC	_AvisynthPluginInit3@8
PUBLIC	?Create_MScaleVect@@YA?AVAVSValue@@V1@PAXPAVIScriptEnvironment@@@Z ; Create_MScaleVect
PUBLIC	?Create_MRestoreVect@@YA?AVAVSValue@@V1@PAXPAVIScriptEnvironment@@@Z ; Create_MRestoreVect
PUBLIC	?Create_MStoreVect@@YA?AVAVSValue@@V1@PAXPAVIScriptEnvironment@@@Z ; Create_MStoreVect
PUBLIC	?Create_MVSuper@@YA?AVAVSValue@@V1@PAXPAVIScriptEnvironment@@@Z ; Create_MVSuper
PUBLIC	?Create_MVBlockFps@@YA?AVAVSValue@@V1@PAXPAVIScriptEnvironment@@@Z ; Create_MVBlockFps
PUBLIC	?Create_MVRecalculate@@YA?AVAVSValue@@V1@PAXPAVIScriptEnvironment@@@Z ; Create_MVRecalculate
PUBLIC	?Create_MDegrainN@@YA?AVAVSValue@@V1@PAXPAVIScriptEnvironment@@@Z ; Create_MDegrainN
PUBLIC	?Create_MVDegrainX@@YA?AVAVSValue@@V1@PAXPAVIScriptEnvironment@@@Z ; Create_MVDegrainX
PUBLIC	?Create_MVFlowBlur@@YA?AVAVSValue@@V1@PAXPAVIScriptEnvironment@@@Z ; Create_MVFlowBlur
PUBLIC	?Create_MVFlowFps@@YA?AVAVSValue@@V1@PAXPAVIScriptEnvironment@@@Z ; Create_MVFlowFps
PUBLIC	?Create_MVFlowInter@@YA?AVAVSValue@@V1@PAXPAVIScriptEnvironment@@@Z ; Create_MVFlowInter
PUBLIC	?Create_MVFlow@@YA?AVAVSValue@@V1@PAXPAVIScriptEnvironment@@@Z ; Create_MVFlow
PUBLIC	?Create_MVDepan@@YA?AVAVSValue@@V1@PAXPAVIScriptEnvironment@@@Z ; Create_MVDepan
PUBLIC	?Create_MVMask@@YA?AVAVSValue@@V1@PAXPAVIScriptEnvironment@@@Z ; Create_MVMask
PUBLIC	?Create_MVAnalyse@@YA?AVAVSValue@@V1@PAXPAVIScriptEnvironment@@@Z ; Create_MVAnalyse
PUBLIC	?Create_MVSCDetection@@YA?AVAVSValue@@V1@PAXPAVIScriptEnvironment@@@Z ; Create_MVSCDetection
PUBLIC	?Create_MVCompensate@@YA?AVAVSValue@@V1@PAXPAVIScriptEnvironment@@@Z ; Create_MVCompensate
PUBLIC	?Create_MVShow@@YA?AVAVSValue@@V1@PAXPAVIScriptEnvironment@@@Z ; Create_MVShow
PUBLIC	?_Orphan_all@_Container_base0@std@@QAEXXZ	; std::_Container_base0::_Orphan_all
PUBLIC	??AAVSValue@@QBEABV0@H@Z			; AVSValue::operator[]
PUBLIC	?ArraySize@AVSValue@@QBEHXZ			; AVSValue::ArraySize
PUBLIC	?AsString@AVSValue@@QBEPBDPBD@Z			; AVSValue::AsString
PUBLIC	?AsFloat@AVSValue@@QBENM@Z			; AVSValue::AsFloat
PUBLIC	?AsInt@AVSValue@@QBEHH@Z			; AVSValue::AsInt
PUBLIC	?AsBool@AVSValue@@QBE_N_N@Z			; AVSValue::AsBool
PUBLIC	?AsClip@AVSValue@@QBE?AVPClip@@XZ		; AVSValue::AsClip
PUBLIC	?IsClip@AVSValue@@QBE_NXZ			; AVSValue::IsClip
PUBLIC	?Defined@AVSValue@@QBE_NXZ			; AVSValue::Defined
PUBLIC	??1AVSValue@@QAE@XZ				; AVSValue::~AVSValue
PUBLIC	??0AVSValue@@QAE@PAVIClip@@@Z			; AVSValue::AVSValue
PUBLIC	??1PClip@@QAE@XZ				; PClip::~PClip
PUBLIC	??0PClip@@QAE@PAVIClip@@@Z			; PClip::PClip
PUBLIC	??0PClip@@QAE@ABV0@@Z				; PClip::PClip
PUBLIC	??0PClip@@QAE@XZ				; PClip::PClip
;	COMDAT xdata$x
xdata$x	SEGMENT
__ehfuncinfo$??1PClip@@QAE@XZ DD 019930522H
	DD	00H
	DD	00H
	DD	2 DUP(00H)
	DD	2 DUP(00H)
	DD	00H
	DD	05H
xdata$x	ENDS
;	COMDAT xdata$x
xdata$x	SEGMENT
__ehfuncinfo$??1AVSValue@@QAE@XZ DD 019930522H
	DD	00H
	DD	00H
	DD	2 DUP(00H)
	DD	2 DUP(00H)
	DD	00H
	DD	05H
xdata$x	ENDS
;	COMDAT xdata$x
xdata$x	SEGMENT
__ehfuncinfo$?AsClip@AVSValue@@QBE?AVPClip@@XZ DD 019930522H
	DD	06H
	DD	FLAT:__unwindtable$?AsClip@AVSValue@@QBE?AVPClip@@XZ
	DD	2 DUP(00H)
	DD	2 DUP(00H)
	DD	00H
	DD	01H
__unwindtable$?AsClip@AVSValue@@QBE?AVPClip@@XZ DD 0ffffffffH
	DD	FLAT:__unwindfunclet$?AsClip@AVSValue@@QBE?AVPClip@@XZ$0
	DD	00H
	DD	FLAT:__unwindfunclet$?AsClip@AVSValue@@QBE?AVPClip@@XZ$1
	DD	01H
	DD	FLAT:__unwindfunclet$?AsClip@AVSValue@@QBE?AVPClip@@XZ$2
	DD	01H
	DD	FLAT:__unwindfunclet$?AsClip@AVSValue@@QBE?AVPClip@@XZ$4
	DD	00H
	DD	FLAT:__unwindfunclet$?AsClip@AVSValue@@QBE?AVPClip@@XZ$5
	DD	0ffffffffH
	DD	FLAT:__unwindfunclet$?AsClip@AVSValue@@QBE?AVPClip@@XZ$6
xdata$x	ENDS
;	COMDAT xdata$x
xdata$x	SEGMENT
__ehfuncinfo$?Create_MVShow@@YA?AVAVSValue@@V1@PAXPAVIScriptEnvironment@@@Z DD 019930522H
	DD	04H
	DD	FLAT:__unwindtable$?Create_MVShow@@YA?AVAVSValue@@V1@PAXPAVIScriptEnvironment@@@Z
	DD	2 DUP(00H)
	DD	2 DUP(00H)
	DD	00H
	DD	01H
__unwindtable$?Create_MVShow@@YA?AVAVSValue@@V1@PAXPAVIScriptEnvironment@@@Z DD 0ffffffffH
	DD	FLAT:__unwindfunclet$?Create_MVShow@@YA?AVAVSValue@@V1@PAXPAVIScriptEnvironment@@@Z$0
	DD	00H
	DD	FLAT:__unwindfunclet$?Create_MVShow@@YA?AVAVSValue@@V1@PAXPAVIScriptEnvironment@@@Z$1
	DD	01H
	DD	FLAT:__unwindfunclet$?Create_MVShow@@YA?AVAVSValue@@V1@PAXPAVIScriptEnvironment@@@Z$2
	DD	0ffffffffH
	DD	FLAT:__unwindfunclet$?Create_MVShow@@YA?AVAVSValue@@V1@PAXPAVIScriptEnvironment@@@Z$5
xdata$x	ENDS
;	COMDAT xdata$x
xdata$x	SEGMENT
__ehfuncinfo$?Create_MVCompensate@@YA?AVAVSValue@@V1@PAXPAVIScriptEnvironment@@@Z DD 019930522H
	DD	0cH
	DD	FLAT:__unwindtable$?Create_MVCompensate@@YA?AVAVSValue@@V1@PAXPAVIScriptEnvironment@@@Z
	DD	2 DUP(00H)
	DD	2 DUP(00H)
	DD	00H
	DD	01H
	ORG $+4
__unwindtable$?Create_MVCompensate@@YA?AVAVSValue@@V1@PAXPAVIScriptEnvironment@@@Z DD 0ffffffffH
	DD	FLAT:__unwindfunclet$?Create_MVCompensate@@YA?AVAVSValue@@V1@PAXPAVIScriptEnvironment@@@Z$0
	DD	00H
	DD	FLAT:__unwindfunclet$?Create_MVCompensate@@YA?AVAVSValue@@V1@PAXPAVIScriptEnvironment@@@Z$1
	DD	01H
	DD	FLAT:__unwindfunclet$?Create_MVCompensate@@YA?AVAVSValue@@V1@PAXPAVIScriptEnvironment@@@Z$2
	DD	02H
	DD	FLAT:__unwindfunclet$?Create_MVCompensate@@YA?AVAVSValue@@V1@PAXPAVIScriptEnvironment@@@Z$3
	DD	03H
	DD	FLAT:__unwindfunclet$?Create_MVCompensate@@YA?AVAVSValue@@V1@PAXPAVIScriptEnvironment@@@Z$4
	DD	04H
	DD	FLAT:__unwindfunclet$?Create_MVCompensate@@YA?AVAVSValue@@V1@PAXPAVIScriptEnvironment@@@Z$5
	DD	05H
	DD	FLAT:__unwindfunclet$?Create_MVCompensate@@YA?AVAVSValue@@V1@PAXPAVIScriptEnvironment@@@Z$6
	DD	00H
	DD	FLAT:__unwindfunclet$?Create_MVCompensate@@YA?AVAVSValue@@V1@PAXPAVIScriptEnvironment@@@Z$2
	DD	07H
	DD	FLAT:__unwindfunclet$?Create_MVCompensate@@YA?AVAVSValue@@V1@PAXPAVIScriptEnvironment@@@Z$3
	DD	07H
	DD	FLAT:__unwindfunclet$?Create_MVCompensate@@YA?AVAVSValue@@V1@PAXPAVIScriptEnvironment@@@Z$9
	DD	00H
	DD	FLAT:__unwindfunclet$?Create_MVCompensate@@YA?AVAVSValue@@V1@PAXPAVIScriptEnvironment@@@Z$10
	DD	0ffffffffH
	DD	FLAT:__unwindfunclet$?Create_MVCompensate@@YA?AVAVSValue@@V1@PAXPAVIScriptEnvironment@@@Z$11
xdata$x	ENDS
;	COMDAT xdata$x
xdata$x	SEGMENT
__ehfuncinfo$?Create_MVSCDetection@@YA?AVAVSValue@@V1@PAXPAVIScriptEnvironment@@@Z DD 019930522H
	DD	04H
	DD	FLAT:__unwindtable$?Create_MVSCDetection@@YA?AVAVSValue@@V1@PAXPAVIScriptEnvironment@@@Z
	DD	2 DUP(00H)
	DD	2 DUP(00H)
	DD	00H
	DD	01H
__unwindtable$?Create_MVSCDetection@@YA?AVAVSValue@@V1@PAXPAVIScriptEnvironment@@@Z DD 0ffffffffH
	DD	FLAT:__unwindfunclet$?Create_MVSCDetection@@YA?AVAVSValue@@V1@PAXPAVIScriptEnvironment@@@Z$0
	DD	00H
	DD	FLAT:__unwindfunclet$?Create_MVSCDetection@@YA?AVAVSValue@@V1@PAXPAVIScriptEnvironment@@@Z$1
	DD	01H
	DD	FLAT:__unwindfunclet$?Create_MVSCDetection@@YA?AVAVSValue@@V1@PAXPAVIScriptEnvironment@@@Z$2
	DD	0ffffffffH
	DD	FLAT:__unwindfunclet$?Create_MVSCDetection@@YA?AVAVSValue@@V1@PAXPAVIScriptEnvironment@@@Z$5
xdata$x	ENDS
;	COMDAT xdata$x
xdata$x	SEGMENT
__ehfuncinfo$?Create_MVAnalyse@@YA?AVAVSValue@@V1@PAXPAVIScriptEnvironment@@@Z DD 019930522H
	DD	03H
	DD	FLAT:__unwindtable$?Create_MVAnalyse@@YA?AVAVSValue@@V1@PAXPAVIScriptEnvironment@@@Z
	DD	2 DUP(00H)
	DD	2 DUP(00H)
	DD	00H
	DD	01H
__unwindtable$?Create_MVAnalyse@@YA?AVAVSValue@@V1@PAXPAVIScriptEnvironment@@@Z DD 0ffffffffH
	DD	FLAT:__unwindfunclet$?Create_MVAnalyse@@YA?AVAVSValue@@V1@PAXPAVIScriptEnvironment@@@Z$0
	DD	00H
	DD	FLAT:__unwindfunclet$?Create_MVAnalyse@@YA?AVAVSValue@@V1@PAXPAVIScriptEnvironment@@@Z$1
	DD	0ffffffffH
	DD	FLAT:__unwindfunclet$?Create_MVAnalyse@@YA?AVAVSValue@@V1@PAXPAVIScriptEnvironment@@@Z$4
xdata$x	ENDS
;	COMDAT xdata$x
xdata$x	SEGMENT
__ehfuncinfo$?Create_MVMask@@YA?AVAVSValue@@V1@PAXPAVIScriptEnvironment@@@Z DD 019930522H
	DD	04H
	DD	FLAT:__unwindtable$?Create_MVMask@@YA?AVAVSValue@@V1@PAXPAVIScriptEnvironment@@@Z
	DD	2 DUP(00H)
	DD	2 DUP(00H)
	DD	00H
	DD	01H
__unwindtable$?Create_MVMask@@YA?AVAVSValue@@V1@PAXPAVIScriptEnvironment@@@Z DD 0ffffffffH
	DD	FLAT:__unwindfunclet$?Create_MVMask@@YA?AVAVSValue@@V1@PAXPAVIScriptEnvironment@@@Z$0
	DD	00H
	DD	FLAT:__unwindfunclet$?Create_MVMask@@YA?AVAVSValue@@V1@PAXPAVIScriptEnvironment@@@Z$1
	DD	01H
	DD	FLAT:__unwindfunclet$?Create_MVMask@@YA?AVAVSValue@@V1@PAXPAVIScriptEnvironment@@@Z$2
	DD	0ffffffffH
	DD	FLAT:__unwindfunclet$?Create_MVMask@@YA?AVAVSValue@@V1@PAXPAVIScriptEnvironment@@@Z$5
xdata$x	ENDS
;	COMDAT xdata$x
xdata$x	SEGMENT
__ehfuncinfo$?Create_MVDepan@@YA?AVAVSValue@@V1@PAXPAVIScriptEnvironment@@@Z DD 019930522H
	DD	0bH
	DD	FLAT:__unwindtable$?Create_MVDepan@@YA?AVAVSValue@@V1@PAXPAVIScriptEnvironment@@@Z
	DD	2 DUP(00H)
	DD	2 DUP(00H)
	DD	00H
	DD	01H
	ORG $+4
__unwindtable$?Create_MVDepan@@YA?AVAVSValue@@V1@PAXPAVIScriptEnvironment@@@Z DD 0ffffffffH
	DD	FLAT:__unwindfunclet$?Create_MVDepan@@YA?AVAVSValue@@V1@PAXPAVIScriptEnvironment@@@Z$0
	DD	00H
	DD	FLAT:__unwindfunclet$?Create_MVDepan@@YA?AVAVSValue@@V1@PAXPAVIScriptEnvironment@@@Z$1
	DD	01H
	DD	FLAT:__unwindfunclet$?Create_MVDepan@@YA?AVAVSValue@@V1@PAXPAVIScriptEnvironment@@@Z$2
	DD	02H
	DD	FLAT:__unwindfunclet$?Create_MVDepan@@YA?AVAVSValue@@V1@PAXPAVIScriptEnvironment@@@Z$3
	DD	03H
	DD	FLAT:__unwindfunclet$?Create_MVDepan@@YA?AVAVSValue@@V1@PAXPAVIScriptEnvironment@@@Z$4
	DD	04H
	DD	FLAT:__unwindfunclet$?Create_MVDepan@@YA?AVAVSValue@@V1@PAXPAVIScriptEnvironment@@@Z$5
	DD	00H
	DD	FLAT:__unwindfunclet$?Create_MVDepan@@YA?AVAVSValue@@V1@PAXPAVIScriptEnvironment@@@Z$2
	DD	06H
	DD	FLAT:__unwindfunclet$?Create_MVDepan@@YA?AVAVSValue@@V1@PAXPAVIScriptEnvironment@@@Z$3
	DD	06H
	DD	FLAT:__unwindfunclet$?Create_MVDepan@@YA?AVAVSValue@@V1@PAXPAVIScriptEnvironment@@@Z$8
	DD	00H
	DD	FLAT:__unwindfunclet$?Create_MVDepan@@YA?AVAVSValue@@V1@PAXPAVIScriptEnvironment@@@Z$9
	DD	0ffffffffH
	DD	FLAT:__unwindfunclet$?Create_MVDepan@@YA?AVAVSValue@@V1@PAXPAVIScriptEnvironment@@@Z$10
xdata$x	ENDS
;	COMDAT xdata$x
xdata$x	SEGMENT
__ehfuncinfo$?Create_MVFlow@@YA?AVAVSValue@@V1@PAXPAVIScriptEnvironment@@@Z DD 019930522H
	DD	0cH
	DD	FLAT:__unwindtable$?Create_MVFlow@@YA?AVAVSValue@@V1@PAXPAVIScriptEnvironment@@@Z
	DD	2 DUP(00H)
	DD	2 DUP(00H)
	DD	00H
	DD	01H
	ORG $+4
__unwindtable$?Create_MVFlow@@YA?AVAVSValue@@V1@PAXPAVIScriptEnvironment@@@Z DD 0ffffffffH
	DD	FLAT:__unwindfunclet$?Create_MVFlow@@YA?AVAVSValue@@V1@PAXPAVIScriptEnvironment@@@Z$0
	DD	00H
	DD	FLAT:__unwindfunclet$?Create_MVFlow@@YA?AVAVSValue@@V1@PAXPAVIScriptEnvironment@@@Z$1
	DD	01H
	DD	FLAT:__unwindfunclet$?Create_MVFlow@@YA?AVAVSValue@@V1@PAXPAVIScriptEnvironment@@@Z$2
	DD	02H
	DD	FLAT:__unwindfunclet$?Create_MVFlow@@YA?AVAVSValue@@V1@PAXPAVIScriptEnvironment@@@Z$3
	DD	03H
	DD	FLAT:__unwindfunclet$?Create_MVFlow@@YA?AVAVSValue@@V1@PAXPAVIScriptEnvironment@@@Z$4
	DD	04H
	DD	FLAT:__unwindfunclet$?Create_MVFlow@@YA?AVAVSValue@@V1@PAXPAVIScriptEnvironment@@@Z$5
	DD	05H
	DD	FLAT:__unwindfunclet$?Create_MVFlow@@YA?AVAVSValue@@V1@PAXPAVIScriptEnvironment@@@Z$6
	DD	00H
	DD	FLAT:__unwindfunclet$?Create_MVFlow@@YA?AVAVSValue@@V1@PAXPAVIScriptEnvironment@@@Z$2
	DD	07H
	DD	FLAT:__unwindfunclet$?Create_MVFlow@@YA?AVAVSValue@@V1@PAXPAVIScriptEnvironment@@@Z$3
	DD	07H
	DD	FLAT:__unwindfunclet$?Create_MVFlow@@YA?AVAVSValue@@V1@PAXPAVIScriptEnvironment@@@Z$9
	DD	00H
	DD	FLAT:__unwindfunclet$?Create_MVFlow@@YA?AVAVSValue@@V1@PAXPAVIScriptEnvironment@@@Z$10
	DD	0ffffffffH
	DD	FLAT:__unwindfunclet$?Create_MVFlow@@YA?AVAVSValue@@V1@PAXPAVIScriptEnvironment@@@Z$11
xdata$x	ENDS
;	COMDAT xdata$x
xdata$x	SEGMENT
__ehfuncinfo$?Create_MVFlowInter@@YA?AVAVSValue@@V1@PAXPAVIScriptEnvironment@@@Z DD 019930522H
	DD	0dH
	DD	FLAT:__unwindtable$?Create_MVFlowInter@@YA?AVAVSValue@@V1@PAXPAVIScriptEnvironment@@@Z
	DD	2 DUP(00H)
	DD	2 DUP(00H)
	DD	00H
	DD	01H
	ORG $+4
__unwindtable$?Create_MVFlowInter@@YA?AVAVSValue@@V1@PAXPAVIScriptEnvironment@@@Z DD 0ffffffffH
	DD	FLAT:__unwindfunclet$?Create_MVFlowInter@@YA?AVAVSValue@@V1@PAXPAVIScriptEnvironment@@@Z$0
	DD	00H
	DD	FLAT:__unwindfunclet$?Create_MVFlowInter@@YA?AVAVSValue@@V1@PAXPAVIScriptEnvironment@@@Z$1
	DD	01H
	DD	FLAT:__unwindfunclet$?Create_MVFlowInter@@YA?AVAVSValue@@V1@PAXPAVIScriptEnvironment@@@Z$2
	DD	02H
	DD	FLAT:__unwindfunclet$?Create_MVFlowInter@@YA?AVAVSValue@@V1@PAXPAVIScriptEnvironment@@@Z$3
	DD	03H
	DD	FLAT:__unwindfunclet$?Create_MVFlowInter@@YA?AVAVSValue@@V1@PAXPAVIScriptEnvironment@@@Z$4
	DD	04H
	DD	FLAT:__unwindfunclet$?Create_MVFlowInter@@YA?AVAVSValue@@V1@PAXPAVIScriptEnvironment@@@Z$5
	DD	05H
	DD	FLAT:__unwindfunclet$?Create_MVFlowInter@@YA?AVAVSValue@@V1@PAXPAVIScriptEnvironment@@@Z$6
	DD	06H
	DD	FLAT:__unwindfunclet$?Create_MVFlowInter@@YA?AVAVSValue@@V1@PAXPAVIScriptEnvironment@@@Z$7
	DD	00H
	DD	FLAT:__unwindfunclet$?Create_MVFlowInter@@YA?AVAVSValue@@V1@PAXPAVIScriptEnvironment@@@Z$2
	DD	08H
	DD	FLAT:__unwindfunclet$?Create_MVFlowInter@@YA?AVAVSValue@@V1@PAXPAVIScriptEnvironment@@@Z$3
	DD	08H
	DD	FLAT:__unwindfunclet$?Create_MVFlowInter@@YA?AVAVSValue@@V1@PAXPAVIScriptEnvironment@@@Z$10
	DD	00H
	DD	FLAT:__unwindfunclet$?Create_MVFlowInter@@YA?AVAVSValue@@V1@PAXPAVIScriptEnvironment@@@Z$11
	DD	0ffffffffH
	DD	FLAT:__unwindfunclet$?Create_MVFlowInter@@YA?AVAVSValue@@V1@PAXPAVIScriptEnvironment@@@Z$12
xdata$x	ENDS
;	COMDAT xdata$x
xdata$x	SEGMENT
__ehfuncinfo$?Create_MVFlowFps@@YA?AVAVSValue@@V1@PAXPAVIScriptEnvironment@@@Z DD 019930522H
	DD	06H
	DD	FLAT:__unwindtable$?Create_MVFlowFps@@YA?AVAVSValue@@V1@PAXPAVIScriptEnvironment@@@Z
	DD	2 DUP(00H)
	DD	2 DUP(00H)
	DD	00H
	DD	01H
__unwindtable$?Create_MVFlowFps@@YA?AVAVSValue@@V1@PAXPAVIScriptEnvironment@@@Z DD 0ffffffffH
	DD	FLAT:__unwindfunclet$?Create_MVFlowFps@@YA?AVAVSValue@@V1@PAXPAVIScriptEnvironment@@@Z$0
	DD	00H
	DD	FLAT:__unwindfunclet$?Create_MVFlowFps@@YA?AVAVSValue@@V1@PAXPAVIScriptEnvironment@@@Z$1
	DD	01H
	DD	FLAT:__unwindfunclet$?Create_MVFlowFps@@YA?AVAVSValue@@V1@PAXPAVIScriptEnvironment@@@Z$2
	DD	02H
	DD	FLAT:__unwindfunclet$?Create_MVFlowFps@@YA?AVAVSValue@@V1@PAXPAVIScriptEnvironment@@@Z$3
	DD	03H
	DD	FLAT:__unwindfunclet$?Create_MVFlowFps@@YA?AVAVSValue@@V1@PAXPAVIScriptEnvironment@@@Z$4
	DD	0ffffffffH
	DD	FLAT:__unwindfunclet$?Create_MVFlowFps@@YA?AVAVSValue@@V1@PAXPAVIScriptEnvironment@@@Z$7
xdata$x	ENDS
;	COMDAT xdata$x
xdata$x	SEGMENT
__ehfuncinfo$?Create_MVFlowBlur@@YA?AVAVSValue@@V1@PAXPAVIScriptEnvironment@@@Z DD 019930522H
	DD	06H
	DD	FLAT:__unwindtable$?Create_MVFlowBlur@@YA?AVAVSValue@@V1@PAXPAVIScriptEnvironment@@@Z
	DD	2 DUP(00H)
	DD	2 DUP(00H)
	DD	00H
	DD	01H
__unwindtable$?Create_MVFlowBlur@@YA?AVAVSValue@@V1@PAXPAVIScriptEnvironment@@@Z DD 0ffffffffH
	DD	FLAT:__unwindfunclet$?Create_MVFlowBlur@@YA?AVAVSValue@@V1@PAXPAVIScriptEnvironment@@@Z$0
	DD	00H
	DD	FLAT:__unwindfunclet$?Create_MVFlowBlur@@YA?AVAVSValue@@V1@PAXPAVIScriptEnvironment@@@Z$1
	DD	01H
	DD	FLAT:__unwindfunclet$?Create_MVFlowBlur@@YA?AVAVSValue@@V1@PAXPAVIScriptEnvironment@@@Z$2
	DD	02H
	DD	FLAT:__unwindfunclet$?Create_MVFlowBlur@@YA?AVAVSValue@@V1@PAXPAVIScriptEnvironment@@@Z$3
	DD	03H
	DD	FLAT:__unwindfunclet$?Create_MVFlowBlur@@YA?AVAVSValue@@V1@PAXPAVIScriptEnvironment@@@Z$4
	DD	0ffffffffH
	DD	FLAT:__unwindfunclet$?Create_MVFlowBlur@@YA?AVAVSValue@@V1@PAXPAVIScriptEnvironment@@@Z$7
xdata$x	ENDS
;	COMDAT xdata$x
xdata$x	SEGMENT
__ehfuncinfo$?Create_MVDegrainX@@YA?AVAVSValue@@V1@PAXPAVIScriptEnvironment@@@Z DD 019930522H
	DD	040H
	DD	FLAT:__unwindtable$?Create_MVDegrainX@@YA?AVAVSValue@@V1@PAXPAVIScriptEnvironment@@@Z
	DD	2 DUP(00H)
	DD	2 DUP(00H)
	DD	00H
	DD	01H
	ORG $+4
__unwindtable$?Create_MVDegrainX@@YA?AVAVSValue@@V1@PAXPAVIScriptEnvironment@@@Z DD 0ffffffffH
	DD	FLAT:__unwindfunclet$?Create_MVDegrainX@@YA?AVAVSValue@@V1@PAXPAVIScriptEnvironment@@@Z$0
	DD	00H
	DD	FLAT:__unwindfunclet$?Create_MVDegrainX@@YA?AVAVSValue@@V1@PAXPAVIScriptEnvironment@@@Z$1
	DD	00H
	DD	FLAT:__unwindfunclet$?Create_MVDegrainX@@YA?AVAVSValue@@V1@PAXPAVIScriptEnvironment@@@Z$32
	DD	00H
	DD	FLAT:__unwindfunclet$?Create_MVDegrainX@@YA?AVAVSValue@@V1@PAXPAVIScriptEnvironment@@@Z$2
	DD	03H
	DD	FLAT:__unwindfunclet$?Create_MVDegrainX@@YA?AVAVSValue@@V1@PAXPAVIScriptEnvironment@@@Z$3
	DD	04H
	DD	FLAT:__unwindfunclet$?Create_MVDegrainX@@YA?AVAVSValue@@V1@PAXPAVIScriptEnvironment@@@Z$4
	DD	05H
	DD	FLAT:__unwindfunclet$?Create_MVDegrainX@@YA?AVAVSValue@@V1@PAXPAVIScriptEnvironment@@@Z$5
	DD	06H
	DD	FLAT:__unwindfunclet$?Create_MVDegrainX@@YA?AVAVSValue@@V1@PAXPAVIScriptEnvironment@@@Z$6
	DD	07H
	DD	FLAT:__unwindfunclet$?Create_MVDegrainX@@YA?AVAVSValue@@V1@PAXPAVIScriptEnvironment@@@Z$7
	DD	08H
	DD	FLAT:__unwindfunclet$?Create_MVDegrainX@@YA?AVAVSValue@@V1@PAXPAVIScriptEnvironment@@@Z$8
	DD	09H
	DD	FLAT:__unwindfunclet$?Create_MVDegrainX@@YA?AVAVSValue@@V1@PAXPAVIScriptEnvironment@@@Z$9
	DD	0aH
	DD	FLAT:__unwindfunclet$?Create_MVDegrainX@@YA?AVAVSValue@@V1@PAXPAVIScriptEnvironment@@@Z$10
	DD	0bH
	DD	FLAT:__unwindfunclet$?Create_MVDegrainX@@YA?AVAVSValue@@V1@PAXPAVIScriptEnvironment@@@Z$11
	DD	0cH
	DD	FLAT:__unwindfunclet$?Create_MVDegrainX@@YA?AVAVSValue@@V1@PAXPAVIScriptEnvironment@@@Z$12
	DD	0dH
	DD	FLAT:__unwindfunclet$?Create_MVDegrainX@@YA?AVAVSValue@@V1@PAXPAVIScriptEnvironment@@@Z$13
	DD	0eH
	DD	FLAT:__unwindfunclet$?Create_MVDegrainX@@YA?AVAVSValue@@V1@PAXPAVIScriptEnvironment@@@Z$14
	DD	0fH
	DD	FLAT:__unwindfunclet$?Create_MVDegrainX@@YA?AVAVSValue@@V1@PAXPAVIScriptEnvironment@@@Z$15
	DD	010H
	DD	FLAT:__unwindfunclet$?Create_MVDegrainX@@YA?AVAVSValue@@V1@PAXPAVIScriptEnvironment@@@Z$16
	DD	011H
	DD	FLAT:__unwindfunclet$?Create_MVDegrainX@@YA?AVAVSValue@@V1@PAXPAVIScriptEnvironment@@@Z$17
	DD	012H
	DD	FLAT:__unwindfunclet$?Create_MVDegrainX@@YA?AVAVSValue@@V1@PAXPAVIScriptEnvironment@@@Z$18
	DD	013H
	DD	FLAT:__unwindfunclet$?Create_MVDegrainX@@YA?AVAVSValue@@V1@PAXPAVIScriptEnvironment@@@Z$19
	DD	014H
	DD	FLAT:__unwindfunclet$?Create_MVDegrainX@@YA?AVAVSValue@@V1@PAXPAVIScriptEnvironment@@@Z$20
	DD	015H
	DD	FLAT:__unwindfunclet$?Create_MVDegrainX@@YA?AVAVSValue@@V1@PAXPAVIScriptEnvironment@@@Z$21
	DD	016H
	DD	FLAT:__unwindfunclet$?Create_MVDegrainX@@YA?AVAVSValue@@V1@PAXPAVIScriptEnvironment@@@Z$22
	DD	017H
	DD	FLAT:__unwindfunclet$?Create_MVDegrainX@@YA?AVAVSValue@@V1@PAXPAVIScriptEnvironment@@@Z$23
	DD	018H
	DD	FLAT:__unwindfunclet$?Create_MVDegrainX@@YA?AVAVSValue@@V1@PAXPAVIScriptEnvironment@@@Z$24
	DD	019H
	DD	FLAT:__unwindfunclet$?Create_MVDegrainX@@YA?AVAVSValue@@V1@PAXPAVIScriptEnvironment@@@Z$25
	DD	01aH
	DD	FLAT:__unwindfunclet$?Create_MVDegrainX@@YA?AVAVSValue@@V1@PAXPAVIScriptEnvironment@@@Z$26
	DD	01bH
	DD	FLAT:__unwindfunclet$?Create_MVDegrainX@@YA?AVAVSValue@@V1@PAXPAVIScriptEnvironment@@@Z$27
	DD	01cH
	DD	FLAT:__unwindfunclet$?Create_MVDegrainX@@YA?AVAVSValue@@V1@PAXPAVIScriptEnvironment@@@Z$28
	DD	01dH
	DD	FLAT:__unwindfunclet$?Create_MVDegrainX@@YA?AVAVSValue@@V1@PAXPAVIScriptEnvironment@@@Z$29
	DD	00H
	DD	FLAT:__unwindfunclet$?Create_MVDegrainX@@YA?AVAVSValue@@V1@PAXPAVIScriptEnvironment@@@Z$3
	DD	01fH
	DD	FLAT:__unwindfunclet$?Create_MVDegrainX@@YA?AVAVSValue@@V1@PAXPAVIScriptEnvironment@@@Z$4
	DD	020H
	DD	FLAT:__unwindfunclet$?Create_MVDegrainX@@YA?AVAVSValue@@V1@PAXPAVIScriptEnvironment@@@Z$5
	DD	021H
	DD	FLAT:__unwindfunclet$?Create_MVDegrainX@@YA?AVAVSValue@@V1@PAXPAVIScriptEnvironment@@@Z$6
	DD	022H
	DD	FLAT:__unwindfunclet$?Create_MVDegrainX@@YA?AVAVSValue@@V1@PAXPAVIScriptEnvironment@@@Z$7
	DD	023H
	DD	FLAT:__unwindfunclet$?Create_MVDegrainX@@YA?AVAVSValue@@V1@PAXPAVIScriptEnvironment@@@Z$8
	DD	024H
	DD	FLAT:__unwindfunclet$?Create_MVDegrainX@@YA?AVAVSValue@@V1@PAXPAVIScriptEnvironment@@@Z$9
	DD	025H
	DD	FLAT:__unwindfunclet$?Create_MVDegrainX@@YA?AVAVSValue@@V1@PAXPAVIScriptEnvironment@@@Z$10
	DD	026H
	DD	FLAT:__unwindfunclet$?Create_MVDegrainX@@YA?AVAVSValue@@V1@PAXPAVIScriptEnvironment@@@Z$11
	DD	027H
	DD	FLAT:__unwindfunclet$?Create_MVDegrainX@@YA?AVAVSValue@@V1@PAXPAVIScriptEnvironment@@@Z$12
	DD	028H
	DD	FLAT:__unwindfunclet$?Create_MVDegrainX@@YA?AVAVSValue@@V1@PAXPAVIScriptEnvironment@@@Z$13
	DD	029H
	DD	FLAT:__unwindfunclet$?Create_MVDegrainX@@YA?AVAVSValue@@V1@PAXPAVIScriptEnvironment@@@Z$14
	DD	02aH
	DD	FLAT:__unwindfunclet$?Create_MVDegrainX@@YA?AVAVSValue@@V1@PAXPAVIScriptEnvironment@@@Z$15
	DD	02bH
	DD	FLAT:__unwindfunclet$?Create_MVDegrainX@@YA?AVAVSValue@@V1@PAXPAVIScriptEnvironment@@@Z$16
	DD	02cH
	DD	FLAT:__unwindfunclet$?Create_MVDegrainX@@YA?AVAVSValue@@V1@PAXPAVIScriptEnvironment@@@Z$17
	DD	02dH
	DD	FLAT:__unwindfunclet$?Create_MVDegrainX@@YA?AVAVSValue@@V1@PAXPAVIScriptEnvironment@@@Z$18
	DD	02dH
	DD	FLAT:__unwindfunclet$?Create_MVDegrainX@@YA?AVAVSValue@@V1@PAXPAVIScriptEnvironment@@@Z$33
	DD	02cH
	DD	FLAT:__unwindfunclet$?Create_MVDegrainX@@YA?AVAVSValue@@V1@PAXPAVIScriptEnvironment@@@Z$34
	DD	02bH
	DD	FLAT:__unwindfunclet$?Create_MVDegrainX@@YA?AVAVSValue@@V1@PAXPAVIScriptEnvironment@@@Z$35
	DD	02aH
	DD	FLAT:__unwindfunclet$?Create_MVDegrainX@@YA?AVAVSValue@@V1@PAXPAVIScriptEnvironment@@@Z$36
	DD	029H
	DD	FLAT:__unwindfunclet$?Create_MVDegrainX@@YA?AVAVSValue@@V1@PAXPAVIScriptEnvironment@@@Z$37
	DD	028H
	DD	FLAT:__unwindfunclet$?Create_MVDegrainX@@YA?AVAVSValue@@V1@PAXPAVIScriptEnvironment@@@Z$38
	DD	027H
	DD	FLAT:__unwindfunclet$?Create_MVDegrainX@@YA?AVAVSValue@@V1@PAXPAVIScriptEnvironment@@@Z$39
	DD	026H
	DD	FLAT:__unwindfunclet$?Create_MVDegrainX@@YA?AVAVSValue@@V1@PAXPAVIScriptEnvironment@@@Z$40
	DD	025H
	DD	FLAT:__unwindfunclet$?Create_MVDegrainX@@YA?AVAVSValue@@V1@PAXPAVIScriptEnvironment@@@Z$41
	DD	024H
	DD	FLAT:__unwindfunclet$?Create_MVDegrainX@@YA?AVAVSValue@@V1@PAXPAVIScriptEnvironment@@@Z$42
	DD	023H
	DD	FLAT:__unwindfunclet$?Create_MVDegrainX@@YA?AVAVSValue@@V1@PAXPAVIScriptEnvironment@@@Z$43
	DD	022H
	DD	FLAT:__unwindfunclet$?Create_MVDegrainX@@YA?AVAVSValue@@V1@PAXPAVIScriptEnvironment@@@Z$44
	DD	021H
	DD	FLAT:__unwindfunclet$?Create_MVDegrainX@@YA?AVAVSValue@@V1@PAXPAVIScriptEnvironment@@@Z$45
	DD	020H
	DD	FLAT:__unwindfunclet$?Create_MVDegrainX@@YA?AVAVSValue@@V1@PAXPAVIScriptEnvironment@@@Z$46
	DD	01fH
	DD	FLAT:__unwindfunclet$?Create_MVDegrainX@@YA?AVAVSValue@@V1@PAXPAVIScriptEnvironment@@@Z$47
	DD	00H
	DD	FLAT:__unwindfunclet$?Create_MVDegrainX@@YA?AVAVSValue@@V1@PAXPAVIScriptEnvironment@@@Z$48
	DD	0ffffffffH
	DD	FLAT:__unwindfunclet$?Create_MVDegrainX@@YA?AVAVSValue@@V1@PAXPAVIScriptEnvironment@@@Z$49
xdata$x	ENDS
;	COMDAT xdata$x
xdata$x	SEGMENT
__ehfuncinfo$?Create_MDegrainN@@YA?AVAVSValue@@V1@PAXPAVIScriptEnvironment@@@Z DD 019930522H
	DD	044H
	DD	FLAT:__unwindtable$?Create_MDegrainN@@YA?AVAVSValue@@V1@PAXPAVIScriptEnvironment@@@Z
	DD	2 DUP(00H)
	DD	2 DUP(00H)
	DD	00H
	DD	01H
	ORG $+4
__unwindtable$?Create_MDegrainN@@YA?AVAVSValue@@V1@PAXPAVIScriptEnvironment@@@Z DD 0ffffffffH
	DD	FLAT:__unwindfunclet$?Create_MDegrainN@@YA?AVAVSValue@@V1@PAXPAVIScriptEnvironment@@@Z$0
	DD	00H
	DD	FLAT:__unwindfunclet$?Create_MDegrainN@@YA?AVAVSValue@@V1@PAXPAVIScriptEnvironment@@@Z$1
	DD	00H
	DD	FLAT:__unwindfunclet$?Create_MDegrainN@@YA?AVAVSValue@@V1@PAXPAVIScriptEnvironment@@@Z$36
	DD	00H
	DD	FLAT:__unwindfunclet$?Create_MDegrainN@@YA?AVAVSValue@@V1@PAXPAVIScriptEnvironment@@@Z$2
	DD	03H
	DD	FLAT:__unwindfunclet$?Create_MDegrainN@@YA?AVAVSValue@@V1@PAXPAVIScriptEnvironment@@@Z$3
	DD	04H
	DD	FLAT:__unwindfunclet$?Create_MDegrainN@@YA?AVAVSValue@@V1@PAXPAVIScriptEnvironment@@@Z$4
	DD	05H
	DD	FLAT:__unwindfunclet$?Create_MDegrainN@@YA?AVAVSValue@@V1@PAXPAVIScriptEnvironment@@@Z$5
	DD	06H
	DD	FLAT:__unwindfunclet$?Create_MDegrainN@@YA?AVAVSValue@@V1@PAXPAVIScriptEnvironment@@@Z$6
	DD	07H
	DD	FLAT:__unwindfunclet$?Create_MDegrainN@@YA?AVAVSValue@@V1@PAXPAVIScriptEnvironment@@@Z$7
	DD	08H
	DD	FLAT:__unwindfunclet$?Create_MDegrainN@@YA?AVAVSValue@@V1@PAXPAVIScriptEnvironment@@@Z$8
	DD	09H
	DD	FLAT:__unwindfunclet$?Create_MDegrainN@@YA?AVAVSValue@@V1@PAXPAVIScriptEnvironment@@@Z$9
	DD	0aH
	DD	FLAT:__unwindfunclet$?Create_MDegrainN@@YA?AVAVSValue@@V1@PAXPAVIScriptEnvironment@@@Z$10
	DD	0bH
	DD	FLAT:__unwindfunclet$?Create_MDegrainN@@YA?AVAVSValue@@V1@PAXPAVIScriptEnvironment@@@Z$11
	DD	0cH
	DD	FLAT:__unwindfunclet$?Create_MDegrainN@@YA?AVAVSValue@@V1@PAXPAVIScriptEnvironment@@@Z$12
	DD	0dH
	DD	FLAT:__unwindfunclet$?Create_MDegrainN@@YA?AVAVSValue@@V1@PAXPAVIScriptEnvironment@@@Z$13
	DD	0eH
	DD	FLAT:__unwindfunclet$?Create_MDegrainN@@YA?AVAVSValue@@V1@PAXPAVIScriptEnvironment@@@Z$14
	DD	0fH
	DD	FLAT:__unwindfunclet$?Create_MDegrainN@@YA?AVAVSValue@@V1@PAXPAVIScriptEnvironment@@@Z$15
	DD	010H
	DD	FLAT:__unwindfunclet$?Create_MDegrainN@@YA?AVAVSValue@@V1@PAXPAVIScriptEnvironment@@@Z$16
	DD	011H
	DD	FLAT:__unwindfunclet$?Create_MDegrainN@@YA?AVAVSValue@@V1@PAXPAVIScriptEnvironment@@@Z$17
	DD	012H
	DD	FLAT:__unwindfunclet$?Create_MDegrainN@@YA?AVAVSValue@@V1@PAXPAVIScriptEnvironment@@@Z$18
	DD	013H
	DD	FLAT:__unwindfunclet$?Create_MDegrainN@@YA?AVAVSValue@@V1@PAXPAVIScriptEnvironment@@@Z$19
	DD	014H
	DD	FLAT:__unwindfunclet$?Create_MDegrainN@@YA?AVAVSValue@@V1@PAXPAVIScriptEnvironment@@@Z$20
	DD	015H
	DD	FLAT:__unwindfunclet$?Create_MDegrainN@@YA?AVAVSValue@@V1@PAXPAVIScriptEnvironment@@@Z$21
	DD	016H
	DD	FLAT:__unwindfunclet$?Create_MDegrainN@@YA?AVAVSValue@@V1@PAXPAVIScriptEnvironment@@@Z$22
	DD	017H
	DD	FLAT:__unwindfunclet$?Create_MDegrainN@@YA?AVAVSValue@@V1@PAXPAVIScriptEnvironment@@@Z$23
	DD	018H
	DD	FLAT:__unwindfunclet$?Create_MDegrainN@@YA?AVAVSValue@@V1@PAXPAVIScriptEnvironment@@@Z$24
	DD	019H
	DD	FLAT:__unwindfunclet$?Create_MDegrainN@@YA?AVAVSValue@@V1@PAXPAVIScriptEnvironment@@@Z$25
	DD	01aH
	DD	FLAT:__unwindfunclet$?Create_MDegrainN@@YA?AVAVSValue@@V1@PAXPAVIScriptEnvironment@@@Z$26
	DD	01bH
	DD	FLAT:__unwindfunclet$?Create_MDegrainN@@YA?AVAVSValue@@V1@PAXPAVIScriptEnvironment@@@Z$27
	DD	01cH
	DD	FLAT:__unwindfunclet$?Create_MDegrainN@@YA?AVAVSValue@@V1@PAXPAVIScriptEnvironment@@@Z$28
	DD	01dH
	DD	FLAT:__unwindfunclet$?Create_MDegrainN@@YA?AVAVSValue@@V1@PAXPAVIScriptEnvironment@@@Z$29
	DD	00H
	DD	FLAT:__unwindfunclet$?Create_MDegrainN@@YA?AVAVSValue@@V1@PAXPAVIScriptEnvironment@@@Z$3
	DD	01fH
	DD	FLAT:__unwindfunclet$?Create_MDegrainN@@YA?AVAVSValue@@V1@PAXPAVIScriptEnvironment@@@Z$4
	DD	020H
	DD	FLAT:__unwindfunclet$?Create_MDegrainN@@YA?AVAVSValue@@V1@PAXPAVIScriptEnvironment@@@Z$5
	DD	021H
	DD	FLAT:__unwindfunclet$?Create_MDegrainN@@YA?AVAVSValue@@V1@PAXPAVIScriptEnvironment@@@Z$6
	DD	022H
	DD	FLAT:__unwindfunclet$?Create_MDegrainN@@YA?AVAVSValue@@V1@PAXPAVIScriptEnvironment@@@Z$7
	DD	023H
	DD	FLAT:__unwindfunclet$?Create_MDegrainN@@YA?AVAVSValue@@V1@PAXPAVIScriptEnvironment@@@Z$8
	DD	024H
	DD	FLAT:__unwindfunclet$?Create_MDegrainN@@YA?AVAVSValue@@V1@PAXPAVIScriptEnvironment@@@Z$9
	DD	025H
	DD	FLAT:__unwindfunclet$?Create_MDegrainN@@YA?AVAVSValue@@V1@PAXPAVIScriptEnvironment@@@Z$10
	DD	026H
	DD	FLAT:__unwindfunclet$?Create_MDegrainN@@YA?AVAVSValue@@V1@PAXPAVIScriptEnvironment@@@Z$11
	DD	027H
	DD	FLAT:__unwindfunclet$?Create_MDegrainN@@YA?AVAVSValue@@V1@PAXPAVIScriptEnvironment@@@Z$12
	DD	028H
	DD	FLAT:__unwindfunclet$?Create_MDegrainN@@YA?AVAVSValue@@V1@PAXPAVIScriptEnvironment@@@Z$13
	DD	029H
	DD	FLAT:__unwindfunclet$?Create_MDegrainN@@YA?AVAVSValue@@V1@PAXPAVIScriptEnvironment@@@Z$14
	DD	02aH
	DD	FLAT:__unwindfunclet$?Create_MDegrainN@@YA?AVAVSValue@@V1@PAXPAVIScriptEnvironment@@@Z$15
	DD	02bH
	DD	FLAT:__unwindfunclet$?Create_MDegrainN@@YA?AVAVSValue@@V1@PAXPAVIScriptEnvironment@@@Z$16
	DD	02cH
	DD	FLAT:__unwindfunclet$?Create_MDegrainN@@YA?AVAVSValue@@V1@PAXPAVIScriptEnvironment@@@Z$17
	DD	02dH
	DD	FLAT:__unwindfunclet$?Create_MDegrainN@@YA?AVAVSValue@@V1@PAXPAVIScriptEnvironment@@@Z$18
	DD	02dH
	DD	FLAT:__unwindfunclet$?Create_MDegrainN@@YA?AVAVSValue@@V1@PAXPAVIScriptEnvironment@@@Z$37
	DD	02cH
	DD	FLAT:__unwindfunclet$?Create_MDegrainN@@YA?AVAVSValue@@V1@PAXPAVIScriptEnvironment@@@Z$38
	DD	02bH
	DD	FLAT:__unwindfunclet$?Create_MDegrainN@@YA?AVAVSValue@@V1@PAXPAVIScriptEnvironment@@@Z$39
	DD	02aH
	DD	FLAT:__unwindfunclet$?Create_MDegrainN@@YA?AVAVSValue@@V1@PAXPAVIScriptEnvironment@@@Z$40
	DD	029H
	DD	FLAT:__unwindfunclet$?Create_MDegrainN@@YA?AVAVSValue@@V1@PAXPAVIScriptEnvironment@@@Z$41
	DD	028H
	DD	FLAT:__unwindfunclet$?Create_MDegrainN@@YA?AVAVSValue@@V1@PAXPAVIScriptEnvironment@@@Z$42
	DD	027H
	DD	FLAT:__unwindfunclet$?Create_MDegrainN@@YA?AVAVSValue@@V1@PAXPAVIScriptEnvironment@@@Z$43
	DD	026H
	DD	FLAT:__unwindfunclet$?Create_MDegrainN@@YA?AVAVSValue@@V1@PAXPAVIScriptEnvironment@@@Z$44
	DD	025H
	DD	FLAT:__unwindfunclet$?Create_MDegrainN@@YA?AVAVSValue@@V1@PAXPAVIScriptEnvironment@@@Z$45
	DD	024H
	DD	FLAT:__unwindfunclet$?Create_MDegrainN@@YA?AVAVSValue@@V1@PAXPAVIScriptEnvironment@@@Z$46
	DD	023H
	DD	FLAT:__unwindfunclet$?Create_MDegrainN@@YA?AVAVSValue@@V1@PAXPAVIScriptEnvironment@@@Z$47
	DD	022H
	DD	FLAT:__unwindfunclet$?Create_MDegrainN@@YA?AVAVSValue@@V1@PAXPAVIScriptEnvironment@@@Z$48
	DD	021H
	DD	FLAT:__unwindfunclet$?Create_MDegrainN@@YA?AVAVSValue@@V1@PAXPAVIScriptEnvironment@@@Z$49
	DD	020H
	DD	FLAT:__unwindfunclet$?Create_MDegrainN@@YA?AVAVSValue@@V1@PAXPAVIScriptEnvironment@@@Z$50
	DD	01fH
	DD	FLAT:__unwindfunclet$?Create_MDegrainN@@YA?AVAVSValue@@V1@PAXPAVIScriptEnvironment@@@Z$51
	DD	00H
	DD	FLAT:__unwindfunclet$?Create_MDegrainN@@YA?AVAVSValue@@V1@PAXPAVIScriptEnvironment@@@Z$52
	DD	0ffffffffH
	DD	FLAT:__unwindfunclet$?Create_MDegrainN@@YA?AVAVSValue@@V1@PAXPAVIScriptEnvironment@@@Z$53
	DD	00H
	DD	FLAT:__unwindfunclet$?Create_MDegrainN@@YA?AVAVSValue@@V1@PAXPAVIScriptEnvironment@@@Z$32
	DD	040H
	DD	FLAT:__unwindfunclet$?Create_MDegrainN@@YA?AVAVSValue@@V1@PAXPAVIScriptEnvironment@@@Z$33
	DD	041H
	DD	FLAT:__unwindfunclet$?Create_MDegrainN@@YA?AVAVSValue@@V1@PAXPAVIScriptEnvironment@@@Z$34
	DD	0ffffffffH
	DD	FLAT:__unwindfunclet$?Create_MDegrainN@@YA?AVAVSValue@@V1@PAXPAVIScriptEnvironment@@@Z$54
xdata$x	ENDS
;	COMDAT xdata$x
xdata$x	SEGMENT
__ehfuncinfo$?Create_MVRecalculate@@YA?AVAVSValue@@V1@PAXPAVIScriptEnvironment@@@Z DD 019930522H
	DD	04H
	DD	FLAT:__unwindtable$?Create_MVRecalculate@@YA?AVAVSValue@@V1@PAXPAVIScriptEnvironment@@@Z
	DD	2 DUP(00H)
	DD	2 DUP(00H)
	DD	00H
	DD	01H
__unwindtable$?Create_MVRecalculate@@YA?AVAVSValue@@V1@PAXPAVIScriptEnvironment@@@Z DD 0ffffffffH
	DD	FLAT:__unwindfunclet$?Create_MVRecalculate@@YA?AVAVSValue@@V1@PAXPAVIScriptEnvironment@@@Z$0
	DD	00H
	DD	FLAT:__unwindfunclet$?Create_MVRecalculate@@YA?AVAVSValue@@V1@PAXPAVIScriptEnvironment@@@Z$1
	DD	01H
	DD	FLAT:__unwindfunclet$?Create_MVRecalculate@@YA?AVAVSValue@@V1@PAXPAVIScriptEnvironment@@@Z$2
	DD	0ffffffffH
	DD	FLAT:__unwindfunclet$?Create_MVRecalculate@@YA?AVAVSValue@@V1@PAXPAVIScriptEnvironment@@@Z$5
xdata$x	ENDS
;	COMDAT xdata$x
xdata$x	SEGMENT
__ehfuncinfo$?Create_MVBlockFps@@YA?AVAVSValue@@V1@PAXPAVIScriptEnvironment@@@Z DD 019930522H
	DD	06H
	DD	FLAT:__unwindtable$?Create_MVBlockFps@@YA?AVAVSValue@@V1@PAXPAVIScriptEnvironment@@@Z
	DD	2 DUP(00H)
	DD	2 DUP(00H)
	DD	00H
	DD	01H
__unwindtable$?Create_MVBlockFps@@YA?AVAVSValue@@V1@PAXPAVIScriptEnvironment@@@Z DD 0ffffffffH
	DD	FLAT:__unwindfunclet$?Create_MVBlockFps@@YA?AVAVSValue@@V1@PAXPAVIScriptEnvironment@@@Z$0
	DD	00H
	DD	FLAT:__unwindfunclet$?Create_MVBlockFps@@YA?AVAVSValue@@V1@PAXPAVIScriptEnvironment@@@Z$1
	DD	01H
	DD	FLAT:__unwindfunclet$?Create_MVBlockFps@@YA?AVAVSValue@@V1@PAXPAVIScriptEnvironment@@@Z$2
	DD	02H
	DD	FLAT:__unwindfunclet$?Create_MVBlockFps@@YA?AVAVSValue@@V1@PAXPAVIScriptEnvironment@@@Z$3
	DD	03H
	DD	FLAT:__unwindfunclet$?Create_MVBlockFps@@YA?AVAVSValue@@V1@PAXPAVIScriptEnvironment@@@Z$4
	DD	0ffffffffH
	DD	FLAT:__unwindfunclet$?Create_MVBlockFps@@YA?AVAVSValue@@V1@PAXPAVIScriptEnvironment@@@Z$7
xdata$x	ENDS
;	COMDAT xdata$x
xdata$x	SEGMENT
__ehfuncinfo$?Create_MVSuper@@YA?AVAVSValue@@V1@PAXPAVIScriptEnvironment@@@Z DD 019930522H
	DD	0aH
	DD	FLAT:__unwindtable$?Create_MVSuper@@YA?AVAVSValue@@V1@PAXPAVIScriptEnvironment@@@Z
	DD	2 DUP(00H)
	DD	2 DUP(00H)
	DD	00H
	DD	01H
	ORG $+4
__unwindtable$?Create_MVSuper@@YA?AVAVSValue@@V1@PAXPAVIScriptEnvironment@@@Z DD 0ffffffffH
	DD	FLAT:__unwindfunclet$?Create_MVSuper@@YA?AVAVSValue@@V1@PAXPAVIScriptEnvironment@@@Z$0
	DD	00H
	DD	FLAT:__unwindfunclet$?Create_MVSuper@@YA?AVAVSValue@@V1@PAXPAVIScriptEnvironment@@@Z$1
	DD	01H
	DD	FLAT:__unwindfunclet$?Create_MVSuper@@YA?AVAVSValue@@V1@PAXPAVIScriptEnvironment@@@Z$2
	DD	02H
	DD	FLAT:__unwindfunclet$?Create_MVSuper@@YA?AVAVSValue@@V1@PAXPAVIScriptEnvironment@@@Z$3
	DD	03H
	DD	FLAT:__unwindfunclet$?Create_MVSuper@@YA?AVAVSValue@@V1@PAXPAVIScriptEnvironment@@@Z$4
	DD	00H
	DD	FLAT:__unwindfunclet$?Create_MVSuper@@YA?AVAVSValue@@V1@PAXPAVIScriptEnvironment@@@Z$2
	DD	05H
	DD	FLAT:__unwindfunclet$?Create_MVSuper@@YA?AVAVSValue@@V1@PAXPAVIScriptEnvironment@@@Z$3
	DD	05H
	DD	FLAT:__unwindfunclet$?Create_MVSuper@@YA?AVAVSValue@@V1@PAXPAVIScriptEnvironment@@@Z$7
	DD	00H
	DD	FLAT:__unwindfunclet$?Create_MVSuper@@YA?AVAVSValue@@V1@PAXPAVIScriptEnvironment@@@Z$8
	DD	0ffffffffH
	DD	FLAT:__unwindfunclet$?Create_MVSuper@@YA?AVAVSValue@@V1@PAXPAVIScriptEnvironment@@@Z$9
xdata$x	ENDS
;	COMDAT xdata$x
xdata$x	SEGMENT
__ehfuncinfo$?Create_MStoreVect@@YA?AVAVSValue@@V1@PAXPAVIScriptEnvironment@@@Z DD 019930522H
	DD	06H
	DD	FLAT:__unwindtable$?Create_MStoreVect@@YA?AVAVSValue@@V1@PAXPAVIScriptEnvironment@@@Z
	DD	2 DUP(00H)
	DD	2 DUP(00H)
	DD	00H
	DD	01H
__unwindtable$?Create_MStoreVect@@YA?AVAVSValue@@V1@PAXPAVIScriptEnvironment@@@Z DD 0ffffffffH
	DD	FLAT:__unwindfunclet$?Create_MStoreVect@@YA?AVAVSValue@@V1@PAXPAVIScriptEnvironment@@@Z$0
	DD	00H
	DD	FLAT:__unwindfunclet$?Create_MStoreVect@@YA?AVAVSValue@@V1@PAXPAVIScriptEnvironment@@@Z$1
	DD	01H
	DD	FLAT:__unwindfunclet$?Create_MStoreVect@@YA?AVAVSValue@@V1@PAXPAVIScriptEnvironment@@@Z$2
	DD	01H
	DD	FLAT:__unwindfunclet$?Create_MStoreVect@@YA?AVAVSValue@@V1@PAXPAVIScriptEnvironment@@@Z$7
	DD	01H
	DD	FLAT:__unwindfunclet$?Create_MStoreVect@@YA?AVAVSValue@@V1@PAXPAVIScriptEnvironment@@@Z$3
	DD	0ffffffffH
	DD	FLAT:__unwindfunclet$?Create_MStoreVect@@YA?AVAVSValue@@V1@PAXPAVIScriptEnvironment@@@Z$40
xdata$x	ENDS
;	COMDAT xdata$x
xdata$x	SEGMENT
__ehfuncinfo$?Create_MRestoreVect@@YA?AVAVSValue@@V1@PAXPAVIScriptEnvironment@@@Z DD 019930522H
	DD	03H
	DD	FLAT:__unwindtable$?Create_MRestoreVect@@YA?AVAVSValue@@V1@PAXPAVIScriptEnvironment@@@Z
	DD	2 DUP(00H)
	DD	2 DUP(00H)
	DD	00H
	DD	01H
__unwindtable$?Create_MRestoreVect@@YA?AVAVSValue@@V1@PAXPAVIScriptEnvironment@@@Z DD 0ffffffffH
	DD	FLAT:__unwindfunclet$?Create_MRestoreVect@@YA?AVAVSValue@@V1@PAXPAVIScriptEnvironment@@@Z$0
	DD	00H
	DD	FLAT:__unwindfunclet$?Create_MRestoreVect@@YA?AVAVSValue@@V1@PAXPAVIScriptEnvironment@@@Z$1
	DD	0ffffffffH
	DD	FLAT:__unwindfunclet$?Create_MRestoreVect@@YA?AVAVSValue@@V1@PAXPAVIScriptEnvironment@@@Z$4
xdata$x	ENDS
;	COMDAT xdata$x
xdata$x	SEGMENT
__ehfuncinfo$?Create_MScaleVect@@YA?AVAVSValue@@V1@PAXPAVIScriptEnvironment@@@Z DD 019930522H
	DD	03H
	DD	FLAT:__unwindtable$?Create_MScaleVect@@YA?AVAVSValue@@V1@PAXPAVIScriptEnvironment@@@Z
	DD	2 DUP(00H)
	DD	2 DUP(00H)
	DD	00H
	DD	01H
__unwindtable$?Create_MScaleVect@@YA?AVAVSValue@@V1@PAXPAVIScriptEnvironment@@@Z DD 0ffffffffH
	DD	FLAT:__unwindfunclet$?Create_MScaleVect@@YA?AVAVSValue@@V1@PAXPAVIScriptEnvironment@@@Z$0
	DD	00H
	DD	FLAT:__unwindfunclet$?Create_MScaleVect@@YA?AVAVSValue@@V1@PAXPAVIScriptEnvironment@@@Z$1
	DD	0ffffffffH
	DD	FLAT:__unwindfunclet$?Create_MScaleVect@@YA?AVAVSValue@@V1@PAXPAVIScriptEnvironment@@@Z$4
xdata$x	ENDS
;	COMDAT xdata$x
xdata$x	SEGMENT
__ehfuncinfo$?push_back@?$vector@VPClip@@V?$allocator@VPClip@@@std@@@std@@QAEXABVPClip@@@Z DD 019930522H
	DD	02H
	DD	FLAT:__unwindtable$?push_back@?$vector@VPClip@@V?$allocator@VPClip@@@std@@@std@@QAEXABVPClip@@@Z
	DD	2 DUP(00H)
	DD	2 DUP(00H)
	DD	00H
	DD	01H
__unwindtable$?push_back@?$vector@VPClip@@V?$allocator@VPClip@@@std@@@std@@QAEXABVPClip@@@Z DD 0ffffffffH
	DD	FLAT:__unwindfunclet$?push_back@?$vector@VPClip@@V?$allocator@VPClip@@@std@@@std@@QAEXABVPClip@@@Z$33
	DD	0ffffffffH
	DD	FLAT:__unwindfunclet$?push_back@?$vector@VPClip@@V?$allocator@VPClip@@@std@@@std@@QAEXABVPClip@@@Z$57
xdata$x	ENDS
;	COMDAT xdata$x
xdata$x	SEGMENT
__ehfuncinfo$??0?$vector@VPClip@@V?$allocator@VPClip@@@std@@@std@@QAE@ABV01@@Z DD 019930522H
	DD	02H
	DD	FLAT:__unwindtable$??0?$vector@VPClip@@V?$allocator@VPClip@@@std@@@std@@QAE@ABV01@@Z
	DD	01H
	DD	FLAT:__tryblocktable$??0?$vector@VPClip@@V?$allocator@VPClip@@@std@@@std@@QAE@ABV01@@Z
	DD	2 DUP(00H)
	DD	00H
	DD	01H
__unwindtable$??0?$vector@VPClip@@V?$allocator@VPClip@@@std@@@std@@QAE@ABV01@@Z DD 0ffffffffH
	DD	00H
	DD	0ffffffffH
	DD	00H
__tryblocktable$??0?$vector@VPClip@@V?$allocator@VPClip@@@std@@@std@@QAE@ABV01@@Z DD 00H
	DD	00H
	DD	01H
	DD	01H
	DD	FLAT:__catchsym$??0?$vector@VPClip@@V?$allocator@VPClip@@@std@@@std@@QAE@ABV01@@Z$67
__catchsym$??0?$vector@VPClip@@V?$allocator@VPClip@@@std@@@std@@QAE@ABV01@@Z$67 DD 040H
	DD	00H
	DD	00H
	DD	FLAT:__catch$??0?$vector@VPClip@@V?$allocator@VPClip@@@std@@@std@@QAE@ABV01@@Z$0
xdata$x	ENDS
;	COMDAT xdata$x
xdata$x	SEGMENT
__ehfuncinfo$?_Reallocate@?$vector@VPClip@@V?$allocator@VPClip@@@std@@@std@@IAEXI@Z DD 019930522H
	DD	02H
	DD	FLAT:__unwindtable$?_Reallocate@?$vector@VPClip@@V?$allocator@VPClip@@@std@@@std@@IAEXI@Z
	DD	01H
	DD	FLAT:__tryblocktable$?_Reallocate@?$vector@VPClip@@V?$allocator@VPClip@@@std@@@std@@IAEXI@Z
	DD	2 DUP(00H)
	DD	00H
	DD	01H
__unwindtable$?_Reallocate@?$vector@VPClip@@V?$allocator@VPClip@@@std@@@std@@IAEXI@Z DD 0ffffffffH
	DD	00H
	DD	0ffffffffH
	DD	00H
__tryblocktable$?_Reallocate@?$vector@VPClip@@V?$allocator@VPClip@@@std@@@std@@IAEXI@Z DD 00H
	DD	00H
	DD	01H
	DD	01H
	DD	FLAT:__catchsym$?_Reallocate@?$vector@VPClip@@V?$allocator@VPClip@@@std@@@std@@IAEXI@Z$53
__catchsym$?_Reallocate@?$vector@VPClip@@V?$allocator@VPClip@@@std@@@std@@IAEXI@Z$53 DD 040H
	DD	00H
	DD	00H
	DD	FLAT:__catch$?_Reallocate@?$vector@VPClip@@V?$allocator@VPClip@@@std@@@std@@IAEXI@Z$0
xdata$x	ENDS
;	COMDAT xdata$x
xdata$x	SEGMENT
__ehfuncinfo$??$construct@VPClip@@AAV1@@?$_Wrap_alloc@V?$allocator@VPClip@@@std@@@std@@QAEXPAVPClip@@AAV2@@Z DD 019930522H
	DD	01H
	DD	FLAT:__unwindtable$??$construct@VPClip@@AAV1@@?$_Wrap_alloc@V?$allocator@VPClip@@@std@@@std@@QAEXPAVPClip@@AAV2@@Z
	DD	2 DUP(00H)
	DD	2 DUP(00H)
	DD	00H
	DD	01H
__unwindtable$??$construct@VPClip@@AAV1@@?$_Wrap_alloc@V?$allocator@VPClip@@@std@@@std@@QAEXPAVPClip@@AAV2@@Z DD 0ffffffffH
	DD	FLAT:__unwindfunclet$??$construct@VPClip@@AAV1@@?$_Wrap_alloc@V?$allocator@VPClip@@@std@@@std@@QAEXPAVPClip@@AAV2@@Z$2
xdata$x	ENDS
;	COMDAT xdata$x
xdata$x	SEGMENT
__ehfuncinfo$??$construct@VPClip@@ABV1@@?$_Wrap_alloc@V?$allocator@VPClip@@@std@@@std@@QAEXPAVPClip@@ABV2@@Z DD 019930522H
	DD	01H
	DD	FLAT:__unwindtable$??$construct@VPClip@@ABV1@@?$_Wrap_alloc@V?$allocator@VPClip@@@std@@@std@@QAEXPAVPClip@@ABV2@@Z
	DD	2 DUP(00H)
	DD	2 DUP(00H)
	DD	00H
	DD	01H
__unwindtable$??$construct@VPClip@@ABV1@@?$_Wrap_alloc@V?$allocator@VPClip@@@std@@@std@@QAEXPAVPClip@@ABV2@@Z DD 0ffffffffH
	DD	FLAT:__unwindfunclet$??$construct@VPClip@@ABV1@@?$_Wrap_alloc@V?$allocator@VPClip@@@std@@@std@@QAEXPAVPClip@@ABV2@@Z$2
xdata$x	ENDS
;	COMDAT xdata$x
xdata$x	SEGMENT
__ehfuncinfo$??$construct@VPClip@@AAV1@@?$allocator_traits@V?$allocator@VPClip@@@std@@@std@@SAXAAV?$allocator@VPClip@@@1@PAVPClip@@AAV3@@Z DD 019930522H
	DD	01H
	DD	FLAT:__unwindtable$??$construct@VPClip@@AAV1@@?$allocator_traits@V?$allocator@VPClip@@@std@@@std@@SAXAAV?$allocator@VPClip@@@1@PAVPClip@@AAV3@@Z
	DD	2 DUP(00H)
	DD	2 DUP(00H)
	DD	00H
	DD	01H
__unwindtable$??$construct@VPClip@@AAV1@@?$allocator_traits@V?$allocator@VPClip@@@std@@@std@@SAXAAV?$allocator@VPClip@@@1@PAVPClip@@AAV3@@Z DD 0ffffffffH
	DD	FLAT:__unwindfunclet$??$construct@VPClip@@AAV1@@?$allocator_traits@V?$allocator@VPClip@@@std@@@std@@SAXAAV?$allocator@VPClip@@@1@PAVPClip@@AAV3@@Z$1
xdata$x	ENDS
;	COMDAT xdata$x
xdata$x	SEGMENT
__ehfuncinfo$??$construct@VPClip@@ABV1@@?$allocator_traits@V?$allocator@VPClip@@@std@@@std@@SAXAAV?$allocator@VPClip@@@1@PAVPClip@@ABV3@@Z DD 019930522H
	DD	01H
	DD	FLAT:__unwindtable$??$construct@VPClip@@ABV1@@?$allocator_traits@V?$allocator@VPClip@@@std@@@std@@SAXAAV?$allocator@VPClip@@@1@PAVPClip@@ABV3@@Z
	DD	2 DUP(00H)
	DD	2 DUP(00H)
	DD	00H
	DD	01H
__unwindtable$??$construct@VPClip@@ABV1@@?$allocator_traits@V?$allocator@VPClip@@@std@@@std@@SAXAAV?$allocator@VPClip@@@1@PAVPClip@@ABV3@@Z DD 0ffffffffH
	DD	FLAT:__unwindfunclet$??$construct@VPClip@@ABV1@@?$allocator_traits@V?$allocator@VPClip@@@std@@@std@@SAXAAV?$allocator@VPClip@@@1@PAVPClip@@ABV3@@Z$1
xdata$x	ENDS
;	COMDAT xdata$x
xdata$x	SEGMENT
__ehfuncinfo$??$_Destroy_range1@V?$allocator@VPClip@@@std@@PAVPClip@@@std@@YAXPAVPClip@@0AAU?$_Wrap_alloc@V?$allocator@VPClip@@@std@@@0@U?$integral_constant@_N$0A@@0@@Z DD 019930522H
	DD	01H
	DD	FLAT:__unwindtable$??$_Destroy_range1@V?$allocator@VPClip@@@std@@PAVPClip@@@std@@YAXPAVPClip@@0AAU?$_Wrap_alloc@V?$allocator@VPClip@@@std@@@0@U?$integral_constant@_N$0A@@0@@Z
	DD	2 DUP(00H)
	DD	2 DUP(00H)
	DD	00H
	DD	01H
__unwindtable$??$_Destroy_range1@V?$allocator@VPClip@@@std@@PAVPClip@@@std@@YAXPAVPClip@@0AAU?$_Wrap_alloc@V?$allocator@VPClip@@@std@@@0@U?$integral_constant@_N$0A@@0@@Z DD 0ffffffffH
	DD	FLAT:__unwindfunclet$??$_Destroy_range1@V?$allocator@VPClip@@@std@@PAVPClip@@@std@@YAXPAVPClip@@0AAU?$_Wrap_alloc@V?$allocator@VPClip@@@std@@@0@U?$integral_constant@_N$0A@@0@@Z$1
xdata$x	ENDS
;	COMDAT xdata$x
xdata$x	SEGMENT
__ehfuncinfo$??$construct@VPClip@@AAV1@@?$allocator@VPClip@@@std@@QAEXPAVPClip@@AAV2@@Z DD 019930522H
	DD	01H
	DD	FLAT:__unwindtable$??$construct@VPClip@@AAV1@@?$allocator@VPClip@@@std@@QAEXPAVPClip@@AAV2@@Z
	DD	2 DUP(00H)
	DD	2 DUP(00H)
	DD	00H
	DD	01H
__unwindtable$??$construct@VPClip@@AAV1@@?$allocator@VPClip@@@std@@QAEXPAVPClip@@AAV2@@Z DD 0ffffffffH
	DD	FLAT:__unwindfunclet$??$construct@VPClip@@AAV1@@?$allocator@VPClip@@@std@@QAEXPAVPClip@@AAV2@@Z$0
xdata$x	ENDS
;	COMDAT xdata$x
xdata$x	SEGMENT
__ehfuncinfo$??$construct@VPClip@@ABV1@@?$allocator@VPClip@@@std@@QAEXPAVPClip@@ABV2@@Z DD 019930522H
	DD	01H
	DD	FLAT:__unwindtable$??$construct@VPClip@@ABV1@@?$allocator@VPClip@@@std@@QAEXPAVPClip@@ABV2@@Z
	DD	2 DUP(00H)
	DD	2 DUP(00H)
	DD	00H
	DD	01H
__unwindtable$??$construct@VPClip@@ABV1@@?$allocator@VPClip@@@std@@QAEXPAVPClip@@ABV2@@Z DD 0ffffffffH
	DD	FLAT:__unwindfunclet$??$construct@VPClip@@ABV1@@?$allocator@VPClip@@@std@@QAEXPAVPClip@@ABV2@@Z$0
xdata$x	ENDS
;	COMDAT xdata$x
xdata$x	SEGMENT
__ehfuncinfo$??$destroy@VPClip@@@?$_Wrap_alloc@V?$allocator@VPClip@@@std@@@std@@QAEXPAVPClip@@@Z DD 019930522H
	DD	01H
	DD	FLAT:__unwindtable$??$destroy@VPClip@@@?$_Wrap_alloc@V?$allocator@VPClip@@@std@@@std@@QAEXPAVPClip@@@Z
	DD	2 DUP(00H)
	DD	2 DUP(00H)
	DD	00H
	DD	01H
__unwindtable$??$destroy@VPClip@@@?$_Wrap_alloc@V?$allocator@VPClip@@@std@@@std@@QAEXPAVPClip@@@Z DD 0ffffffffH
	DD	FLAT:__unwindfunclet$??$destroy@VPClip@@@?$_Wrap_alloc@V?$allocator@VPClip@@@std@@@std@@QAEXPAVPClip@@@Z$1
xdata$x	ENDS
;	COMDAT xdata$x
xdata$x	SEGMENT
__ehfuncinfo$??$_Uninitialized_copy_al_unchecked1@PBVPClip@@PAV1@V?$allocator@VPClip@@@std@@@std@@YAPAVPClip@@PBV1@0PAV1@AAU?$_Wrap_alloc@V?$allocator@VPClip@@@std@@@0@U_General_ptr_iterator_tag@0@U_Any_tag@0@@Z DD 019930522H
	DD	03H
	DD	FLAT:__unwindtable$??$_Uninitialized_copy_al_unchecked1@PBVPClip@@PAV1@V?$allocator@VPClip@@@std@@@std@@YAPAVPClip@@PBV1@0PAV1@AAU?$_Wrap_alloc@V?$allocator@VPClip@@@std@@@0@U_General_ptr_iterator_tag@0@U_Any_tag@0@@Z
	DD	01H
	DD	FLAT:__tryblocktable$??$_Uninitialized_copy_al_unchecked1@PBVPClip@@PAV1@V?$allocator@VPClip@@@std@@@std@@YAPAVPClip@@PBV1@0PAV1@AAU?$_Wrap_alloc@V?$allocator@VPClip@@@std@@@0@U_General_ptr_iterator_tag@0@U_Any_tag@0@@Z
	DD	2 DUP(00H)
	DD	00H
	DD	01H
__unwindtable$??$_Uninitialized_copy_al_unchecked1@PBVPClip@@PAV1@V?$allocator@VPClip@@@std@@@std@@YAPAVPClip@@PBV1@0PAV1@AAU?$_Wrap_alloc@V?$allocator@VPClip@@@std@@@0@U_General_ptr_iterator_tag@0@U_Any_tag@0@@Z DD 0ffffffffH
	DD	00H
	DD	00H
	DD	FLAT:__unwindfunclet$??$_Uninitialized_copy_al_unchecked1@PBVPClip@@PAV1@V?$allocator@VPClip@@@std@@@std@@YAPAVPClip@@PBV1@0PAV1@AAU?$_Wrap_alloc@V?$allocator@VPClip@@@std@@@0@U_General_ptr_iterator_tag@0@U_Any_tag@0@@Z$4
	DD	0ffffffffH
	DD	00H
__tryblocktable$??$_Uninitialized_copy_al_unchecked1@PBVPClip@@PAV1@V?$allocator@VPClip@@@std@@@std@@YAPAVPClip@@PBV1@0PAV1@AAU?$_Wrap_alloc@V?$allocator@VPClip@@@std@@@0@U_General_ptr_iterator_tag@0@U_Any_tag@0@@Z DD 00H
	DD	01H
	DD	02H
	DD	01H
	DD	FLAT:__catchsym$??$_Uninitialized_copy_al_unchecked1@PBVPClip@@PAV1@V?$allocator@VPClip@@@std@@@std@@YAPAVPClip@@PBV1@0PAV1@AAU?$_Wrap_alloc@V?$allocator@VPClip@@@std@@@0@U_General_ptr_iterator_tag@0@U_Any_tag@0@@Z$6
__catchsym$??$_Uninitialized_copy_al_unchecked1@PBVPClip@@PAV1@V?$allocator@VPClip@@@std@@@std@@YAPAVPClip@@PBV1@0PAV1@AAU?$_Wrap_alloc@V?$allocator@VPClip@@@std@@@0@U_General_ptr_iterator_tag@0@U_Any_tag@0@@Z$6 DD 040H
	DD	00H
	DD	00H
	DD	FLAT:__catch$??$_Uninitialized_copy_al_unchecked1@PBVPClip@@PAV1@V?$allocator@VPClip@@@std@@@std@@YAPAVPClip@@PBV1@0PAV1@AAU?$_Wrap_alloc@V?$allocator@VPClip@@@std@@@0@U_General_ptr_iterator_tag@0@U_Any_tag@0@@Z$0
xdata$x	ENDS
;	COMDAT xdata$x
xdata$x	SEGMENT
__ehfuncinfo$??$_Uninitialized_move_al_unchecked1@PAVPClip@@PAV1@V?$allocator@VPClip@@@std@@@std@@YAPAVPClip@@PAV1@00AAU?$_Wrap_alloc@V?$allocator@VPClip@@@std@@@0@U_General_ptr_iterator_tag@0@U_Any_tag@0@@Z DD 019930522H
	DD	03H
	DD	FLAT:__unwindtable$??$_Uninitialized_move_al_unchecked1@PAVPClip@@PAV1@V?$allocator@VPClip@@@std@@@std@@YAPAVPClip@@PAV1@00AAU?$_Wrap_alloc@V?$allocator@VPClip@@@std@@@0@U_General_ptr_iterator_tag@0@U_Any_tag@0@@Z
	DD	01H
	DD	FLAT:__tryblocktable$??$_Uninitialized_move_al_unchecked1@PAVPClip@@PAV1@V?$allocator@VPClip@@@std@@@std@@YAPAVPClip@@PAV1@00AAU?$_Wrap_alloc@V?$allocator@VPClip@@@std@@@0@U_General_ptr_iterator_tag@0@U_Any_tag@0@@Z
	DD	2 DUP(00H)
	DD	00H
	DD	01H
__unwindtable$??$_Uninitialized_move_al_unchecked1@PAVPClip@@PAV1@V?$allocator@VPClip@@@std@@@std@@YAPAVPClip@@PAV1@00AAU?$_Wrap_alloc@V?$allocator@VPClip@@@std@@@0@U_General_ptr_iterator_tag@0@U_Any_tag@0@@Z DD 0ffffffffH
	DD	00H
	DD	00H
	DD	FLAT:__unwindfunclet$??$_Uninitialized_move_al_unchecked1@PAVPClip@@PAV1@V?$allocator@VPClip@@@std@@@std@@YAPAVPClip@@PAV1@00AAU?$_Wrap_alloc@V?$allocator@VPClip@@@std@@@0@U_General_ptr_iterator_tag@0@U_Any_tag@0@@Z$5
	DD	0ffffffffH
	DD	00H
__tryblocktable$??$_Uninitialized_move_al_unchecked1@PAVPClip@@PAV1@V?$allocator@VPClip@@@std@@@std@@YAPAVPClip@@PAV1@00AAU?$_Wrap_alloc@V?$allocator@VPClip@@@std@@@0@U_General_ptr_iterator_tag@0@U_Any_tag@0@@Z DD 00H
	DD	01H
	DD	02H
	DD	01H
	DD	FLAT:__catchsym$??$_Uninitialized_move_al_unchecked1@PAVPClip@@PAV1@V?$allocator@VPClip@@@std@@@std@@YAPAVPClip@@PAV1@00AAU?$_Wrap_alloc@V?$allocator@VPClip@@@std@@@0@U_General_ptr_iterator_tag@0@U_Any_tag@0@@Z$7
__catchsym$??$_Uninitialized_move_al_unchecked1@PAVPClip@@PAV1@V?$allocator@VPClip@@@std@@@std@@YAPAVPClip@@PAV1@00AAU?$_Wrap_alloc@V?$allocator@VPClip@@@std@@@0@U_General_ptr_iterator_tag@0@U_Any_tag@0@@Z$7 DD 040H
	DD	00H
	DD	00H
	DD	FLAT:__catch$??$_Uninitialized_move_al_unchecked1@PAVPClip@@PAV1@V?$allocator@VPClip@@@std@@@std@@YAPAVPClip@@PAV1@00AAU?$_Wrap_alloc@V?$allocator@VPClip@@@std@@@0@U_General_ptr_iterator_tag@0@U_Any_tag@0@@Z$0
xdata$x	ENDS
;	COMDAT xdata$x
xdata$x	SEGMENT
__ehfuncinfo$??$destroy@VPClip@@@?$allocator_traits@V?$allocator@VPClip@@@std@@@std@@SAXAAV?$allocator@VPClip@@@1@PAVPClip@@@Z DD 019930522H
	DD	01H
	DD	FLAT:__unwindtable$??$destroy@VPClip@@@?$allocator_traits@V?$allocator@VPClip@@@std@@@std@@SAXAAV?$allocator@VPClip@@@1@PAVPClip@@@Z
	DD	2 DUP(00H)
	DD	2 DUP(00H)
	DD	00H
	DD	01H
__unwindtable$??$destroy@VPClip@@@?$allocator_traits@V?$allocator@VPClip@@@std@@@std@@SAXAAV?$allocator@VPClip@@@1@PAVPClip@@@Z DD 0ffffffffH
	DD	FLAT:__unwindfunclet$??$destroy@VPClip@@@?$allocator_traits@V?$allocator@VPClip@@@std@@@std@@SAXAAV?$allocator@VPClip@@@1@PAVPClip@@@Z$1
xdata$x	ENDS
;	COMDAT xdata$x
xdata$x	SEGMENT
__ehfuncinfo$??$construct@VPClip@@V1@@?$_Wrap_alloc@V?$allocator@VPClip@@@std@@@std@@QAEXPAVPClip@@$$QAV2@@Z DD 019930522H
	DD	01H
	DD	FLAT:__unwindtable$??$construct@VPClip@@V1@@?$_Wrap_alloc@V?$allocator@VPClip@@@std@@@std@@QAEXPAVPClip@@$$QAV2@@Z
	DD	2 DUP(00H)
	DD	2 DUP(00H)
	DD	00H
	DD	01H
__unwindtable$??$construct@VPClip@@V1@@?$_Wrap_alloc@V?$allocator@VPClip@@@std@@@std@@QAEXPAVPClip@@$$QAV2@@Z DD 0ffffffffH
	DD	FLAT:__unwindfunclet$??$construct@VPClip@@V1@@?$_Wrap_alloc@V?$allocator@VPClip@@@std@@@std@@QAEXPAVPClip@@$$QAV2@@Z$2
xdata$x	ENDS
;	COMDAT xdata$x
xdata$x	SEGMENT
__ehfuncinfo$??$destroy@VPClip@@@?$allocator@VPClip@@@std@@QAEXPAVPClip@@@Z DD 019930522H
	DD	01H
	DD	FLAT:__unwindtable$??$destroy@VPClip@@@?$allocator@VPClip@@@std@@QAEXPAVPClip@@@Z
	DD	2 DUP(00H)
	DD	2 DUP(00H)
	DD	00H
	DD	01H
__unwindtable$??$destroy@VPClip@@@?$allocator@VPClip@@@std@@QAEXPAVPClip@@@Z DD 0ffffffffH
	DD	FLAT:__unwindfunclet$??$destroy@VPClip@@@?$allocator@VPClip@@@std@@QAEXPAVPClip@@@Z$1
xdata$x	ENDS
;	COMDAT xdata$x
xdata$x	SEGMENT
__ehfuncinfo$??_GPClip@@QAEPAXI@Z DD 019930522H
	DD	01H
	DD	FLAT:__unwindtable$??_GPClip@@QAEPAXI@Z
	DD	2 DUP(00H)
	DD	2 DUP(00H)
	DD	00H
	DD	05H
__unwindtable$??_GPClip@@QAEPAXI@Z DD 0ffffffffH
	DD	FLAT:__unwindfunclet$??_GPClip@@QAEPAXI@Z$0
xdata$x	ENDS
;	COMDAT xdata$x
xdata$x	SEGMENT
__ehfuncinfo$??$construct@VPClip@@V1@@?$allocator_traits@V?$allocator@VPClip@@@std@@@std@@SAXAAV?$allocator@VPClip@@@1@PAVPClip@@$$QAV3@@Z DD 019930522H
	DD	01H
	DD	FLAT:__unwindtable$??$construct@VPClip@@V1@@?$allocator_traits@V?$allocator@VPClip@@@std@@@std@@SAXAAV?$allocator@VPClip@@@1@PAVPClip@@$$QAV3@@Z
	DD	2 DUP(00H)
	DD	2 DUP(00H)
	DD	00H
	DD	01H
__unwindtable$??$construct@VPClip@@V1@@?$allocator_traits@V?$allocator@VPClip@@@std@@@std@@SAXAAV?$allocator@VPClip@@@1@PAVPClip@@$$QAV3@@Z DD 0ffffffffH
	DD	FLAT:__unwindfunclet$??$construct@VPClip@@V1@@?$allocator_traits@V?$allocator@VPClip@@@std@@@std@@SAXAAV?$allocator@VPClip@@@1@PAVPClip@@$$QAV3@@Z$1
xdata$x	ENDS
;	COMDAT xdata$x
xdata$x	SEGMENT
__ehfuncinfo$??$construct@VPClip@@V1@@?$allocator@VPClip@@@std@@QAEXPAVPClip@@$$QAV2@@Z DD 019930522H
	DD	01H
	DD	FLAT:__unwindtable$??$construct@VPClip@@V1@@?$allocator@VPClip@@@std@@QAEXPAVPClip@@$$QAV2@@Z
	DD	2 DUP(00H)
	DD	2 DUP(00H)
	DD	00H
	DD	01H
__unwindtable$??$construct@VPClip@@V1@@?$allocator@VPClip@@@std@@QAEXPAVPClip@@$$QAV2@@Z DD 0ffffffffH
	DD	FLAT:__unwindfunclet$??$construct@VPClip@@V1@@?$allocator@VPClip@@@std@@QAEXPAVPClip@@$$QAV2@@Z$0
; Function compile flags: /Ogtpy
; File c:\github\mvtools\sources\include\avisynth.h
;	COMDAT ??0PClip@@QAE@XZ
_TEXT	SEGMENT
??0PClip@@QAE@XZ PROC					; PClip::PClip, COMDAT
; _this$ = ecx

; 936  :   PClip() AVS_BakedCode( AVS_LinkCall(PClip_CONSTRUCTOR0)() )

	mov	eax, DWORD PTR ?AVS_linkage@@3PBUAVS_Linkage@@B ; AVS_linkage
	push	esi
	mov	esi, ecx
	test	eax, eax
	je	SHORT $LN5@PClip
	cmp	DWORD PTR [eax], 228			; 000000e4H
	jbe	SHORT $LN5@PClip
	mov	eax, DWORD PTR [eax+228]
	call	eax
$LN5@PClip:
	mov	eax, esi
	pop	esi
	ret	0
??0PClip@@QAE@XZ ENDP					; PClip::PClip
_TEXT	ENDS
; Function compile flags: /Ogtpy
; File c:\github\mvtools\sources\include\avisynth.h
;	COMDAT ??0PClip@@QAE@ABV0@@Z
_TEXT	SEGMENT
_x$ = 8							; size = 4
??0PClip@@QAE@ABV0@@Z PROC				; PClip::PClip, COMDAT
; _this$ = ecx

; 937  :   PClip(const PClip& x) AVS_BakedCode( AVS_LinkCall(PClip_CONSTRUCTOR1)(x) )

	mov	eax, DWORD PTR ?AVS_linkage@@3PBUAVS_Linkage@@B ; AVS_linkage
	push	esi
	mov	esi, ecx
	test	eax, eax
	je	SHORT $LN5@PClip
	cmp	DWORD PTR [eax], 232			; 000000e8H
	jbe	SHORT $LN5@PClip
	push	DWORD PTR _x$[esp]
	mov	eax, DWORD PTR [eax+232]
	call	eax
$LN5@PClip:
	mov	eax, esi
	pop	esi
	ret	4
??0PClip@@QAE@ABV0@@Z ENDP				; PClip::PClip
_TEXT	ENDS
; Function compile flags: /Ogtpy
; File c:\github\mvtools\sources\include\avisynth.h
;	COMDAT ??0PClip@@QAE@PAVIClip@@@Z
_TEXT	SEGMENT
_x$dead$ = 8						; size = 4
??0PClip@@QAE@PAVIClip@@@Z PROC				; PClip::PClip, COMDAT
; _this$ = ecx

; 938  :   PClip(IClip* x) AVS_BakedCode( AVS_LinkCall(PClip_CONSTRUCTOR2)(x) )

	mov	eax, DWORD PTR ?AVS_linkage@@3PBUAVS_Linkage@@B ; AVS_linkage
	push	esi
	mov	esi, ecx
	test	eax, eax
	je	SHORT $LN5@PClip
	cmp	DWORD PTR [eax], 236			; 000000ecH
	jbe	SHORT $LN5@PClip
	mov	eax, DWORD PTR [eax+236]
	push	0
	call	eax
$LN5@PClip:
	mov	eax, esi
	pop	esi
	ret	4
??0PClip@@QAE@PAVIClip@@@Z ENDP				; PClip::PClip
_TEXT	ENDS
; Function compile flags: /Ogtpy
; File c:\github\mvtools\sources\include\avisynth.h
;	COMDAT ??1PClip@@QAE@XZ
_TEXT	SEGMENT
__$EHRec$ = -12						; size = 12
??1PClip@@QAE@XZ PROC					; PClip::~PClip, COMDAT
; _this$ = ecx

; 948  :   ~PClip() AVS_BakedCode( AVS_LinkCall(PClip_DESTRUCTOR)() )

	push	ebp
	mov	ebp, esp
	mov	eax, DWORD PTR fs:0
	push	-1
	push	__ehhandler$??1PClip@@QAE@XZ
	push	eax
	mov	DWORD PTR fs:0, esp
	mov	eax, DWORD PTR ?AVS_linkage@@3PBUAVS_Linkage@@B ; AVS_linkage
	test	eax, eax
	je	SHORT $LN3@PClip
	cmp	DWORD PTR [eax], 248			; 000000f8H
	jbe	SHORT $LN3@PClip
	mov	eax, DWORD PTR [eax+248]
	call	eax
$LN3@PClip:
	mov	ecx, DWORD PTR __$EHRec$[ebp]
	mov	DWORD PTR fs:0, ecx
	mov	esp, ebp
	pop	ebp
	ret	0
_TEXT	ENDS
;	COMDAT text$x
text$x	SEGMENT
__ehhandler$??1PClip@@QAE@XZ:
	mov	eax, OFFSET __ehfuncinfo$??1PClip@@QAE@XZ
	jmp	___CxxFrameHandler3
text$x	ENDS
??1PClip@@QAE@XZ ENDP					; PClip::~PClip
; Function compile flags: /Ogtpy
; File c:\github\mvtools\sources\include\avisynth.h
;	COMDAT ??0AVSValue@@QAE@PAVIClip@@@Z
_TEXT	SEGMENT
_c$ = 8							; size = 4
??0AVSValue@@QAE@PAVIClip@@@Z PROC			; AVSValue::AVSValue, COMDAT
; _this$ = ecx

; 999  :   AVSValue(IClip* c) AVS_BakedCode( AVS_LinkCall(AVSValue_CONSTRUCTOR1)(c) )

	mov	eax, DWORD PTR ?AVS_linkage@@3PBUAVS_Linkage@@B ; AVS_linkage
	push	esi
	mov	esi, ecx
	test	eax, eax
	je	SHORT $LN5@AVSValue
	cmp	DWORD PTR [eax], 280			; 00000118H
	jbe	SHORT $LN5@AVSValue
	push	DWORD PTR _c$[esp]
	mov	eax, DWORD PTR [eax+280]
	call	eax
$LN5@AVSValue:
	mov	eax, esi
	pop	esi
	ret	4
??0AVSValue@@QAE@PAVIClip@@@Z ENDP			; AVSValue::AVSValue
_TEXT	ENDS
; Function compile flags: /Ogtpy
; File c:\github\mvtools\sources\include\avisynth.h
;	COMDAT ??1AVSValue@@QAE@XZ
_TEXT	SEGMENT
__$EHRec$ = -12						; size = 12
??1AVSValue@@QAE@XZ PROC				; AVSValue::~AVSValue, COMDAT
; _this$ = ecx

; 1011 :   ~AVSValue() AVS_BakedCode( AVS_LinkCall(AVSValue_DESTRUCTOR)() )

	push	ebp
	mov	ebp, esp
	mov	eax, DWORD PTR fs:0
	push	-1
	push	__ehhandler$??1AVSValue@@QAE@XZ
	push	eax
	mov	DWORD PTR fs:0, esp
	mov	eax, DWORD PTR ?AVS_linkage@@3PBUAVS_Linkage@@B ; AVS_linkage
	test	eax, eax
	je	SHORT $LN3@AVSValue
	cmp	DWORD PTR [eax], 316			; 0000013cH
	jbe	SHORT $LN3@AVSValue
	mov	eax, DWORD PTR [eax+316]
	call	eax
$LN3@AVSValue:
	mov	ecx, DWORD PTR __$EHRec$[ebp]
	mov	DWORD PTR fs:0, ecx
	mov	esp, ebp
	pop	ebp
	ret	0
_TEXT	ENDS
;	COMDAT text$x
text$x	SEGMENT
__ehhandler$??1AVSValue@@QAE@XZ:
	mov	eax, OFFSET __ehfuncinfo$??1AVSValue@@QAE@XZ
	jmp	___CxxFrameHandler3
text$x	ENDS
??1AVSValue@@QAE@XZ ENDP				; AVSValue::~AVSValue
; Function compile flags: /Ogtpy
; File c:\github\mvtools\sources\include\avisynth.h
;	COMDAT ?Defined@AVSValue@@QBE_NXZ
_TEXT	SEGMENT
?Defined@AVSValue@@QBE_NXZ PROC				; AVSValue::Defined, COMDAT
; _this$ = ecx

; 1017 :   bool Defined() const AVS_BakedCode( return AVS_LinkCall(Defined)() )

	mov	eax, DWORD PTR ?AVS_linkage@@3PBUAVS_Linkage@@B ; AVS_linkage
	test	eax, eax
	je	SHORT $LN3@Defined
	cmp	DWORD PTR [eax], 328			; 00000148H
	jbe	SHORT $LN3@Defined
	mov	eax, DWORD PTR [eax+328]
	call	eax
	movzx	eax, al
	ret	0
$LN3@Defined:
	xor	al, al
	ret	0
?Defined@AVSValue@@QBE_NXZ ENDP				; AVSValue::Defined
_TEXT	ENDS
; Function compile flags: /Ogtpy
; File c:\github\mvtools\sources\include\avisynth.h
;	COMDAT ?IsClip@AVSValue@@QBE_NXZ
_TEXT	SEGMENT
?IsClip@AVSValue@@QBE_NXZ PROC				; AVSValue::IsClip, COMDAT
; _this$ = ecx

; 1018 :   bool IsClip() const AVS_BakedCode( return AVS_LinkCall(IsClip)() )

	mov	eax, DWORD PTR ?AVS_linkage@@3PBUAVS_Linkage@@B ; AVS_linkage
	test	eax, eax
	je	SHORT $LN3@IsClip
	cmp	DWORD PTR [eax], 332			; 0000014cH
	jbe	SHORT $LN3@IsClip
	mov	eax, DWORD PTR [eax+332]
	call	eax
	movzx	eax, al
	ret	0
$LN3@IsClip:
	xor	al, al
	ret	0
?IsClip@AVSValue@@QBE_NXZ ENDP				; AVSValue::IsClip
_TEXT	ENDS
; Function compile flags: /Ogtpy
; File c:\github\mvtools\sources\include\avisynth.h
;	COMDAT ?AsClip@AVSValue@@QBE?AVPClip@@XZ
_TEXT	SEGMENT
$T2 = -28						; size = 4
$T3 = -24						; size = 4
$T4 = -20						; size = 4
$T5 = -16						; size = 4
__$EHRec$ = -12						; size = 12
___$ReturnUdt$ = 8					; size = 4
?AsClip@AVSValue@@QBE?AVPClip@@XZ PROC			; AVSValue::AsClip, COMDAT
; _this$ = ecx

; 1026 :   PClip AsClip() const AVS_BakedCode( return AVS_LinkCall(AsClip)() )

	push	ebp
	mov	ebp, esp
	push	-1
	push	__ehhandler$?AsClip@AVSValue@@QBE?AVPClip@@XZ
	mov	eax, DWORD PTR fs:0
	push	eax
	mov	DWORD PTR fs:0, esp
	sub	esp, 16					; 00000010H
	mov	DWORD PTR $T5[ebp], 0
	mov	edx, DWORD PTR ?AVS_linkage@@3PBUAVS_Linkage@@B ; AVS_linkage
	push	ebx
	push	esi
	test	edx, edx
	je	SHORT $LN22@AsClip
	mov	eax, DWORD PTR [edx]
	cmp	eax, 356				; 00000164H
	jbe	SHORT $LN3@AsClip
	lea	eax, DWORD PTR $T2[ebp]
	push	eax
	mov	eax, DWORD PTR [edx+356]
	call	eax
	mov	DWORD PTR __$EHRec$[ebp+8], 0

; 937  :   PClip(const PClip& x) AVS_BakedCode( AVS_LinkCall(PClip_CONSTRUCTOR1)(x) )

	mov	edx, DWORD PTR ?AVS_linkage@@3PBUAVS_Linkage@@B ; AVS_linkage
	mov	DWORD PTR $T5[ebp], 1
	test	edx, edx
	je	SHORT $LN18@AsClip
	cmp	DWORD PTR [edx], 232			; 000000e8H
	jbe	SHORT $LN18@AsClip
	push	eax
	mov	eax, DWORD PTR [edx+232]
	lea	ecx, DWORD PTR $T3[ebp]
	call	eax
	mov	edx, DWORD PTR ?AVS_linkage@@3PBUAVS_Linkage@@B ; AVS_linkage
$LN18@AsClip:

; 1026 :   PClip AsClip() const AVS_BakedCode( return AVS_LinkCall(AsClip)() )

	lea	eax, DWORD PTR $T3[ebp]
	mov	DWORD PTR __$EHRec$[ebp+8], 1
	mov	ebx, 3
	jmp	SHORT $LN47@AsClip
$LN3@AsClip:

; 938  :   PClip(IClip* x) AVS_BakedCode( AVS_LinkCall(PClip_CONSTRUCTOR2)(x) )

	cmp	eax, 236				; 000000ecH
	jbe	SHORT $LN22@AsClip
	mov	eax, DWORD PTR [edx+236]
	lea	ecx, DWORD PTR $T4[ebp]
	push	0
	call	eax
	mov	edx, DWORD PTR ?AVS_linkage@@3PBUAVS_Linkage@@B ; AVS_linkage
$LN22@AsClip:

; 1026 :   PClip AsClip() const AVS_BakedCode( return AVS_LinkCall(AsClip)() )

	lea	eax, DWORD PTR $T4[ebp]
	mov	DWORD PTR __$EHRec$[ebp+8], 2
	mov	ebx, 4
$LN47@AsClip:

; 937  :   PClip(const PClip& x) AVS_BakedCode( AVS_LinkCall(PClip_CONSTRUCTOR1)(x) )

	mov	esi, DWORD PTR ___$ReturnUdt$[ebp]
	mov	DWORD PTR $T5[ebp], ebx
	test	edx, edx
	je	SHORT $LN26@AsClip
	cmp	DWORD PTR [edx], 232			; 000000e8H
	jbe	SHORT $LN26@AsClip
	push	eax
	mov	eax, DWORD PTR [edx+232]
	mov	ecx, esi
	call	eax
	mov	edx, DWORD PTR ?AVS_linkage@@3PBUAVS_Linkage@@B ; AVS_linkage
$LN26@AsClip:
	or	ebx, 8

; 1026 :   PClip AsClip() const AVS_BakedCode( return AVS_LinkCall(AsClip)() )

	test	bl, 4
	je	SHORT $LN30@AsClip
	and	ebx, -5					; fffffffbH
	mov	DWORD PTR $T5[ebp], ebx

; 948  :   ~PClip() AVS_BakedCode( AVS_LinkCall(PClip_DESTRUCTOR)() )

	mov	DWORD PTR __$EHRec$[ebp+8], 3
	test	edx, edx
	je	SHORT $LN30@AsClip
	cmp	DWORD PTR [edx], 248			; 000000f8H
	jbe	SHORT $LN30@AsClip
	mov	eax, DWORD PTR [edx+248]
	lea	ecx, DWORD PTR $T4[ebp]
	call	eax
	mov	edx, DWORD PTR ?AVS_linkage@@3PBUAVS_Linkage@@B ; AVS_linkage
$LN30@AsClip:

; 1026 :   PClip AsClip() const AVS_BakedCode( return AVS_LinkCall(AsClip)() )

	test	bl, 2
	je	SHORT $LN35@AsClip
	and	ebx, -3					; fffffffdH
	mov	DWORD PTR $T5[ebp], ebx

; 948  :   ~PClip() AVS_BakedCode( AVS_LinkCall(PClip_DESTRUCTOR)() )

	mov	DWORD PTR __$EHRec$[ebp+8], 4
	test	edx, edx
	je	SHORT $LN35@AsClip
	cmp	DWORD PTR [edx], 248			; 000000f8H
	jbe	SHORT $LN35@AsClip
	mov	eax, DWORD PTR [edx+248]
	lea	ecx, DWORD PTR $T3[ebp]
	call	eax
	mov	edx, DWORD PTR ?AVS_linkage@@3PBUAVS_Linkage@@B ; AVS_linkage
$LN35@AsClip:

; 1026 :   PClip AsClip() const AVS_BakedCode( return AVS_LinkCall(AsClip)() )

	mov	DWORD PTR __$EHRec$[ebp+8], -1
	test	bl, 1
	je	SHORT $LN45@AsClip

; 948  :   ~PClip() AVS_BakedCode( AVS_LinkCall(PClip_DESTRUCTOR)() )

	mov	DWORD PTR __$EHRec$[ebp+8], 5
	test	edx, edx
	je	SHORT $LN45@AsClip
	cmp	DWORD PTR [edx], 248			; 000000f8H
	jbe	SHORT $LN45@AsClip
	mov	edx, DWORD PTR [edx+248]
	lea	ecx, DWORD PTR $T2[ebp]
	call	edx
$LN45@AsClip:

; 1026 :   PClip AsClip() const AVS_BakedCode( return AVS_LinkCall(AsClip)() )

	mov	ecx, DWORD PTR __$EHRec$[ebp]
	mov	eax, esi
	pop	esi
	pop	ebx
	mov	DWORD PTR fs:0, ecx
	mov	esp, ebp
	pop	ebp
	ret	4
_TEXT	ENDS
;	COMDAT text$x
text$x	SEGMENT
__unwindfunclet$?AsClip@AVSValue@@QBE?AVPClip@@XZ$0:
	mov	eax, DWORD PTR $T5[ebp]
	and	eax, 1
	je	$LN6@AsClip
	and	DWORD PTR $T5[ebp], -2			; fffffffeH
	lea	ecx, DWORD PTR $T2[ebp]
	jmp	??1PClip@@QAE@XZ			; PClip::~PClip
$LN6@AsClip:
	ret	0
__unwindfunclet$?AsClip@AVSValue@@QBE?AVPClip@@XZ$1:
	mov	eax, DWORD PTR $T5[ebp]
	and	eax, 2
	je	$LN8@AsClip
	and	DWORD PTR $T5[ebp], -3			; fffffffdH
	lea	ecx, DWORD PTR $T3[ebp]
	jmp	??1PClip@@QAE@XZ			; PClip::~PClip
$LN8@AsClip:
	ret	0
__unwindfunclet$?AsClip@AVSValue@@QBE?AVPClip@@XZ$2:
	mov	eax, DWORD PTR $T5[ebp]
	and	eax, 4
	je	$LN10@AsClip
	and	DWORD PTR $T5[ebp], -5			; fffffffbH
	lea	ecx, DWORD PTR $T4[ebp]
	jmp	??1PClip@@QAE@XZ			; PClip::~PClip
$LN10@AsClip:
	ret	0
__unwindfunclet$?AsClip@AVSValue@@QBE?AVPClip@@XZ$4:
	call	DWORD PTR __imp____std_terminate
	ret	0
__unwindfunclet$?AsClip@AVSValue@@QBE?AVPClip@@XZ$5:
	call	DWORD PTR __imp____std_terminate
	ret	0
__unwindfunclet$?AsClip@AVSValue@@QBE?AVPClip@@XZ$6:
	call	DWORD PTR __imp____std_terminate
	ret	0
__ehhandler$?AsClip@AVSValue@@QBE?AVPClip@@XZ:
	mov	eax, OFFSET __ehfuncinfo$?AsClip@AVSValue@@QBE?AVPClip@@XZ
	jmp	___CxxFrameHandler3
text$x	ENDS
?AsClip@AVSValue@@QBE?AVPClip@@XZ ENDP			; AVSValue::AsClip
; Function compile flags: /Ogtpy
; File c:\github\mvtools\sources\include\avisynth.h
;	COMDAT ?AsBool@AVSValue@@QBE_N_N@Z
_TEXT	SEGMENT
_def$ = 8						; size = 1
?AsBool@AVSValue@@QBE_N_N@Z PROC			; AVSValue::AsBool, COMDAT
; _this$ = ecx

; 1034 :   bool AsBool(bool def) const AVS_BakedCode( return AVS_LinkCall(AsBool2)(def) )

	mov	eax, DWORD PTR ?AVS_linkage@@3PBUAVS_Linkage@@B ; AVS_linkage
	test	eax, eax
	je	SHORT $LN3@AsBool
	cmp	DWORD PTR [eax], 376			; 00000178H
	jbe	SHORT $LN3@AsBool
	push	DWORD PTR _def$[esp-4]
	mov	eax, DWORD PTR [eax+376]
	call	eax
	movzx	eax, al
	ret	4
$LN3@AsBool:
	xor	al, al
	ret	4
?AsBool@AVSValue@@QBE_N_N@Z ENDP			; AVSValue::AsBool
_TEXT	ENDS
; Function compile flags: /Ogtpy
; File c:\github\mvtools\sources\include\avisynth.h
;	COMDAT ?AsInt@AVSValue@@QBEHH@Z
_TEXT	SEGMENT
_def$ = 8						; size = 4
?AsInt@AVSValue@@QBEHH@Z PROC				; AVSValue::AsInt, COMDAT
; _this$ = ecx

; 1035 :   int AsInt(int def) const AVS_BakedCode( return AVS_LinkCall(AsInt2)(def) )

	mov	eax, DWORD PTR ?AVS_linkage@@3PBUAVS_Linkage@@B ; AVS_linkage
	test	eax, eax
	je	SHORT $LN3@AsInt
	cmp	DWORD PTR [eax], 380			; 0000017cH
	jbe	SHORT $LN3@AsInt
	mov	eax, DWORD PTR [eax+380]
	jmp	eax
$LN3@AsInt:
	xor	eax, eax
	ret	4
?AsInt@AVSValue@@QBEHH@Z ENDP				; AVSValue::AsInt
_TEXT	ENDS
; Function compile flags: /Ogtpy
; File c:\github\mvtools\sources\include\avisynth.h
;	COMDAT ?AsFloat@AVSValue@@QBENM@Z
_TEXT	SEGMENT
tv71 = -8						; size = 8
?AsFloat@AVSValue@@QBENM@Z PROC				; AVSValue::AsFloat, COMDAT
; _this$ = ecx
; _def$ = xmm1s

; 1037 :   double AsFloat(float def) const AVS_BakedCode( return AVS_LinkCall(AsFloat2)(def) )

	mov	eax, DWORD PTR ?AVS_linkage@@3PBUAVS_Linkage@@B ; AVS_linkage
	sub	esp, 8
	test	eax, eax
	je	SHORT $LN3@AsFloat
	cmp	DWORD PTR [eax], 388			; 00000184H
	jbe	SHORT $LN3@AsFloat
	mov	eax, DWORD PTR [eax+388]
	push	ecx
	movss	DWORD PTR [esp], xmm1
	call	eax
	fstp	QWORD PTR tv71[esp+8]
	movsd	xmm0, QWORD PTR tv71[esp+8]
	add	esp, 8
	ret	0
$LN3@AsFloat:
	xorps	xmm0, xmm0
	add	esp, 8
	ret	0
?AsFloat@AVSValue@@QBENM@Z ENDP				; AVSValue::AsFloat
_TEXT	ENDS
; Function compile flags: /Ogtpy
; File c:\github\mvtools\sources\include\avisynth.h
;	COMDAT ?AsString@AVSValue@@QBEPBDPBD@Z
_TEXT	SEGMENT
_def$dead$ = 8						; size = 4
?AsString@AVSValue@@QBEPBDPBD@Z PROC			; AVSValue::AsString, COMDAT
; _this$ = ecx

; 1039 :   const char* AsString(const char* def) const AVS_BakedCode( return AVS_LinkCall(AsString2)(def) )

	mov	eax, DWORD PTR ?AVS_linkage@@3PBUAVS_Linkage@@B ; AVS_linkage
	test	eax, eax
	je	SHORT $LN3@AsString
	cmp	DWORD PTR [eax], 392			; 00000188H
	jbe	SHORT $LN3@AsString
	mov	DWORD PTR _def$dead$[esp-4], OFFSET ??_C@_00CNPNBAHC@?$AA@
	mov	eax, DWORD PTR [eax+392]
	jmp	eax
$LN3@AsString:
	xor	eax, eax
	ret	4
?AsString@AVSValue@@QBEPBDPBD@Z ENDP			; AVSValue::AsString
_TEXT	ENDS
; Function compile flags: /Ogtpy
; File c:\github\mvtools\sources\include\avisynth.h
;	COMDAT ?ArraySize@AVSValue@@QBEHXZ
_TEXT	SEGMENT
?ArraySize@AVSValue@@QBEHXZ PROC			; AVSValue::ArraySize, COMDAT
; _this$ = ecx

; 1041 :   int ArraySize() const AVS_BakedCode( return AVS_LinkCall(ArraySize)() )

	mov	eax, DWORD PTR ?AVS_linkage@@3PBUAVS_Linkage@@B ; AVS_linkage
	test	eax, eax
	je	SHORT $LN3@ArraySize
	cmp	DWORD PTR [eax], 396			; 0000018cH
	jbe	SHORT $LN3@ArraySize
	mov	eax, DWORD PTR [eax+396]
	jmp	eax
$LN3@ArraySize:
	xor	eax, eax
	ret	0
?ArraySize@AVSValue@@QBEHXZ ENDP			; AVSValue::ArraySize
_TEXT	ENDS
; Function compile flags: /Ogtpy
; File c:\github\mvtools\sources\include\avisynth.h
;	COMDAT ??AAVSValue@@QBEABV0@H@Z
_TEXT	SEGMENT
_index$ = 8						; size = 4
??AAVSValue@@QBEABV0@H@Z PROC				; AVSValue::operator[], COMDAT
; _this$ = ecx

; 1043 :   const AVSValue& operator[](int index) const AVS_BakedCode( return AVS_LinkCallV(AVSValue_OPERATOR_INDEX)(index) )

	mov	eax, DWORD PTR ?AVS_linkage@@3PBUAVS_Linkage@@B ; AVS_linkage
	test	eax, eax
	je	SHORT $LN3@operator
	cmp	DWORD PTR [eax], 324			; 00000144H
	jbe	SHORT $LN3@operator
	mov	eax, DWORD PTR [eax+324]
	jmp	eax
$LN3@operator:
	mov	eax, ecx
	ret	4
??AAVSValue@@QBEABV0@H@Z ENDP				; AVSValue::operator[]
_TEXT	ENDS
; Function compile flags: /Ogtpy
; File c:\program files (x86)\microsoft visual studio 14.0\vc\include\xutility
;	COMDAT ?_Orphan_all@_Container_base0@std@@QAEXXZ
_TEXT	SEGMENT
?_Orphan_all@_Container_base0@std@@QAEXXZ PROC		; std::_Container_base0::_Orphan_all, COMDAT
; _this$dead$ = ecx

; 44   : 		}

	ret	0
?_Orphan_all@_Container_base0@std@@QAEXXZ ENDP		; std::_Container_base0::_Orphan_all
_TEXT	ENDS
; Function compile flags: /Ogtpy
; File c:\github\mvtools\sources\interface.cpp
; File c:\github\mvtools\sources\include\avisynth.h
; File c:\github\mvtools\sources\interface.cpp
; File c:\github\mvtools\sources\include\avisynth.h
; File c:\github\mvtools\sources\interface.cpp
; File c:\github\mvtools\sources\include\avisynth.h
; File c:\github\mvtools\sources\interface.cpp
; File c:\github\mvtools\sources\include\avisynth.h
; File c:\github\mvtools\sources\interface.cpp
; File c:\github\mvtools\sources\include\avisynth.h
; File c:\github\mvtools\sources\interface.cpp
; File c:\github\mvtools\sources\include\avisynth.h
; File c:\github\mvtools\sources\interface.cpp
; File c:\github\mvtools\sources\include\avisynth.h
; File c:\github\mvtools\sources\interface.cpp
; File c:\github\mvtools\sources\include\avisynth.h
; File c:\github\mvtools\sources\interface.cpp
; File c:\github\mvtools\sources\include\avisynth.h
; File c:\github\mvtools\sources\interface.cpp
; File c:\github\mvtools\sources\include\avisynth.h
; File c:\github\mvtools\sources\interface.cpp
; File c:\github\mvtools\sources\include\avisynth.h
; File c:\github\mvtools\sources\interface.cpp
; File c:\github\mvtools\sources\include\avisynth.h
; File c:\github\mvtools\sources\interface.cpp
; File c:\github\mvtools\sources\include\avisynth.h
; File c:\github\mvtools\sources\interface.cpp
; File c:\github\mvtools\sources\include\avisynth.h
; File c:\github\mvtools\sources\interface.cpp
;	COMDAT ?Create_MVShow@@YA?AVAVSValue@@V1@PAXPAVIScriptEnvironment@@@Z
_TEXT	SEGMENT
$T2 = -20						; size = 4
$T3 = -16						; size = 4
__$EHRec$ = -12						; size = 12
___$ReturnUdt$ = 8					; size = 4
_args$ = 12						; size = 8
_user_data$ = 20					; size = 4
$T4 = 24						; size = 4
_env$ = 24						; size = 4
?Create_MVShow@@YA?AVAVSValue@@V1@PAXPAVIScriptEnvironment@@@Z PROC ; Create_MVShow, COMDAT

; 76   : {

	push	ebp
	mov	ebp, esp
	push	-1
	push	__ehhandler$?Create_MVShow@@YA?AVAVSValue@@V1@PAXPAVIScriptEnvironment@@@Z
	mov	eax, DWORD PTR fs:0
	push	eax
	mov	DWORD PTR fs:0, esp
	sub	esp, 12					; 0000000cH
	push	esi
	mov	DWORD PTR $T3[ebp], 0

; 80   : 	return new MVShow(

	push	432					; 000001b0H
	mov	DWORD PTR __$EHRec$[ebp+8], 0
	call	??2@YAPAXI@Z				; operator new
	mov	esi, eax
	add	esp, 4
	mov	DWORD PTR $T2[ebp], esi
	mov	BYTE PTR __$EHRec$[ebp+8], 1
; File c:\github\mvtools\sources\include\avisynth.h

; 1043 :   const AVSValue& operator[](int index) const AVS_BakedCode( return AVS_LinkCallV(AVSValue_OPERATOR_INDEX)(index) )

	mov	eax, DWORD PTR ?AVS_linkage@@3PBUAVS_Linkage@@B ; AVS_linkage
; File c:\github\mvtools\sources\interface.cpp

; 80   : 	return new MVShow(

	push	DWORD PTR _env$[ebp]
; File c:\github\mvtools\sources\include\avisynth.h

; 1043 :   const AVSValue& operator[](int index) const AVS_BakedCode( return AVS_LinkCallV(AVSValue_OPERATOR_INDEX)(index) )

	test	eax, eax
	je	SHORT $LN13@Create_MVS
	cmp	DWORD PTR [eax], 324			; 00000144H
	jbe	SHORT $LN13@Create_MVS
	mov	eax, DWORD PTR [eax+324]
	lea	ecx, DWORD PTR _args$[ebp]
	push	10					; 0000000aH
	call	eax
	mov	ecx, eax
	mov	eax, DWORD PTR ?AVS_linkage@@3PBUAVS_Linkage@@B ; AVS_linkage
	jmp	SHORT $LN14@Create_MVS
$LN13@Create_MVS:
	lea	ecx, DWORD PTR _args$[ebp]
$LN14@Create_MVS:

; 1034 :   bool AsBool(bool def) const AVS_BakedCode( return AVS_LinkCall(AsBool2)(def) )

	test	eax, eax
	je	SHORT $LN17@Create_MVS
	cmp	DWORD PTR [eax], 376			; 00000178H
	jbe	SHORT $LN17@Create_MVS
	mov	eax, DWORD PTR [eax+376]
	push	0
	call	eax
	movzx	ecx, al
	mov	eax, DWORD PTR ?AVS_linkage@@3PBUAVS_Linkage@@B ; AVS_linkage
	jmp	SHORT $LN18@Create_MVS
$LN17@Create_MVS:
	xor	ecx, ecx
$LN18@Create_MVS:
; File c:\github\mvtools\sources\interface.cpp

; 80   : 	return new MVShow(

	push	ecx
; File c:\github\mvtools\sources\include\avisynth.h

; 1043 :   const AVSValue& operator[](int index) const AVS_BakedCode( return AVS_LinkCallV(AVSValue_OPERATOR_INDEX)(index) )

	test	eax, eax
	je	SHORT $LN21@Create_MVS
	cmp	DWORD PTR [eax], 324			; 00000144H
	jbe	SHORT $LN21@Create_MVS
	mov	eax, DWORD PTR [eax+324]
	lea	ecx, DWORD PTR _args$[ebp]
	push	9
	call	eax
	mov	ecx, eax
	mov	eax, DWORD PTR ?AVS_linkage@@3PBUAVS_Linkage@@B ; AVS_linkage
	jmp	SHORT $LN22@Create_MVS
$LN21@Create_MVS:
	lea	ecx, DWORD PTR _args$[ebp]
$LN22@Create_MVS:

; 1034 :   bool AsBool(bool def) const AVS_BakedCode( return AVS_LinkCall(AsBool2)(def) )

	test	eax, eax
	je	SHORT $LN25@Create_MVS
	cmp	DWORD PTR [eax], 376			; 00000178H
	jbe	SHORT $LN25@Create_MVS
	mov	eax, DWORD PTR [eax+376]
	push	1
	call	eax
	movzx	ecx, al
	mov	eax, DWORD PTR ?AVS_linkage@@3PBUAVS_Linkage@@B ; AVS_linkage
	jmp	SHORT $LN26@Create_MVS
$LN25@Create_MVS:
	xor	ecx, ecx
$LN26@Create_MVS:
; File c:\github\mvtools\sources\interface.cpp

; 80   : 	return new MVShow(

	push	ecx
; File c:\github\mvtools\sources\include\avisynth.h

; 1043 :   const AVSValue& operator[](int index) const AVS_BakedCode( return AVS_LinkCallV(AVSValue_OPERATOR_INDEX)(index) )

	test	eax, eax
	je	SHORT $LN29@Create_MVS
	cmp	DWORD PTR [eax], 324			; 00000144H
	jbe	SHORT $LN29@Create_MVS
	mov	eax, DWORD PTR [eax+324]
	lea	ecx, DWORD PTR _args$[ebp]
	push	8
	call	eax
	mov	ecx, eax
	mov	eax, DWORD PTR ?AVS_linkage@@3PBUAVS_Linkage@@B ; AVS_linkage
	jmp	SHORT $LN30@Create_MVS
$LN29@Create_MVS:
	lea	ecx, DWORD PTR _args$[ebp]
$LN30@Create_MVS:

; 1035 :   int AsInt(int def) const AVS_BakedCode( return AVS_LinkCall(AsInt2)(def) )

	test	eax, eax
	je	SHORT $LN33@Create_MVS
	cmp	DWORD PTR [eax], 380			; 0000017cH
	jbe	SHORT $LN33@Create_MVS
	mov	eax, DWORD PTR [eax+380]
	push	130					; 00000082H
	call	eax
	mov	ecx, eax
	mov	eax, DWORD PTR ?AVS_linkage@@3PBUAVS_Linkage@@B ; AVS_linkage
	jmp	SHORT $LN34@Create_MVS
$LN33@Create_MVS:
	xor	ecx, ecx
$LN34@Create_MVS:
; File c:\github\mvtools\sources\interface.cpp

; 80   : 	return new MVShow(

	push	ecx
; File c:\github\mvtools\sources\include\avisynth.h

; 1043 :   const AVSValue& operator[](int index) const AVS_BakedCode( return AVS_LinkCallV(AVSValue_OPERATOR_INDEX)(index) )

	test	eax, eax
	je	SHORT $LN37@Create_MVS
	cmp	DWORD PTR [eax], 324			; 00000144H
	jbe	SHORT $LN37@Create_MVS
	mov	eax, DWORD PTR [eax+324]
	lea	ecx, DWORD PTR _args$[ebp]
	push	7
	call	eax
	mov	ecx, eax
	mov	eax, DWORD PTR ?AVS_linkage@@3PBUAVS_Linkage@@B ; AVS_linkage
	jmp	SHORT $LN38@Create_MVS
$LN37@Create_MVS:
	lea	ecx, DWORD PTR _args$[ebp]
$LN38@Create_MVS:

; 1035 :   int AsInt(int def) const AVS_BakedCode( return AVS_LinkCall(AsInt2)(def) )

	test	eax, eax
	je	SHORT $LN41@Create_MVS
	cmp	DWORD PTR [eax], 380			; 0000017cH
	jbe	SHORT $LN41@Create_MVS
	mov	eax, DWORD PTR [eax+380]
	push	400					; 00000190H
	call	eax
	mov	ecx, eax
	mov	eax, DWORD PTR ?AVS_linkage@@3PBUAVS_Linkage@@B ; AVS_linkage
	jmp	SHORT $LN42@Create_MVS
$LN41@Create_MVS:
	xor	ecx, ecx
$LN42@Create_MVS:
; File c:\github\mvtools\sources\interface.cpp

; 80   : 	return new MVShow(

	push	ecx
; File c:\github\mvtools\sources\include\avisynth.h

; 1043 :   const AVSValue& operator[](int index) const AVS_BakedCode( return AVS_LinkCallV(AVSValue_OPERATOR_INDEX)(index) )

	test	eax, eax
	je	SHORT $LN45@Create_MVS
	cmp	DWORD PTR [eax], 324			; 00000144H
	jbe	SHORT $LN45@Create_MVS
	mov	eax, DWORD PTR [eax+324]
	lea	ecx, DWORD PTR _args$[ebp]
	push	6
	call	eax
	mov	ecx, eax
	mov	eax, DWORD PTR ?AVS_linkage@@3PBUAVS_Linkage@@B ; AVS_linkage
	jmp	SHORT $LN46@Create_MVS
$LN45@Create_MVS:
	lea	ecx, DWORD PTR _args$[ebp]
$LN46@Create_MVS:

; 1035 :   int AsInt(int def) const AVS_BakedCode( return AVS_LinkCall(AsInt2)(def) )

	test	eax, eax
	je	SHORT $LN49@Create_MVS
	cmp	DWORD PTR [eax], 380			; 0000017cH
	jbe	SHORT $LN49@Create_MVS
	mov	eax, DWORD PTR [eax+380]
	push	-1
	call	eax
	mov	ecx, eax
	mov	eax, DWORD PTR ?AVS_linkage@@3PBUAVS_Linkage@@B ; AVS_linkage
	jmp	SHORT $LN50@Create_MVS
$LN49@Create_MVS:
	xor	ecx, ecx
$LN50@Create_MVS:
; File c:\github\mvtools\sources\interface.cpp

; 80   : 	return new MVShow(

	push	ecx
; File c:\github\mvtools\sources\include\avisynth.h

; 1043 :   const AVSValue& operator[](int index) const AVS_BakedCode( return AVS_LinkCallV(AVSValue_OPERATOR_INDEX)(index) )

	test	eax, eax
	je	SHORT $LN53@Create_MVS
	cmp	DWORD PTR [eax], 324			; 00000144H
	jbe	SHORT $LN53@Create_MVS
	mov	eax, DWORD PTR [eax+324]
	lea	ecx, DWORD PTR _args$[ebp]
	push	5
	call	eax
	mov	ecx, eax
	mov	eax, DWORD PTR ?AVS_linkage@@3PBUAVS_Linkage@@B ; AVS_linkage
	jmp	SHORT $LN54@Create_MVS
$LN53@Create_MVS:
	lea	ecx, DWORD PTR _args$[ebp]
$LN54@Create_MVS:

; 1034 :   bool AsBool(bool def) const AVS_BakedCode( return AVS_LinkCall(AsBool2)(def) )

	test	eax, eax
	je	SHORT $LN57@Create_MVS
	cmp	DWORD PTR [eax], 376			; 00000178H
	jbe	SHORT $LN57@Create_MVS
	mov	eax, DWORD PTR [eax+376]
	push	0
	call	eax
	movzx	ecx, al
	mov	eax, DWORD PTR ?AVS_linkage@@3PBUAVS_Linkage@@B ; AVS_linkage
	jmp	SHORT $LN58@Create_MVS
$LN57@Create_MVS:
	xor	ecx, ecx
$LN58@Create_MVS:
; File c:\github\mvtools\sources\interface.cpp

; 80   : 	return new MVShow(

	push	ecx
; File c:\github\mvtools\sources\include\avisynth.h

; 1043 :   const AVSValue& operator[](int index) const AVS_BakedCode( return AVS_LinkCallV(AVSValue_OPERATOR_INDEX)(index) )

	test	eax, eax
	je	SHORT $LN61@Create_MVS
	cmp	DWORD PTR [eax], 324			; 00000144H
	jbe	SHORT $LN61@Create_MVS
	mov	eax, DWORD PTR [eax+324]
	lea	ecx, DWORD PTR _args$[ebp]
	push	4
	call	eax
	mov	ecx, eax
	mov	eax, DWORD PTR ?AVS_linkage@@3PBUAVS_Linkage@@B ; AVS_linkage
	jmp	SHORT $LN62@Create_MVS
$LN61@Create_MVS:
	lea	ecx, DWORD PTR _args$[ebp]
$LN62@Create_MVS:

; 1035 :   int AsInt(int def) const AVS_BakedCode( return AVS_LinkCall(AsInt2)(def) )

	test	eax, eax
	je	SHORT $LN65@Create_MVS
	cmp	DWORD PTR [eax], 380			; 0000017cH
	jbe	SHORT $LN65@Create_MVS
	mov	eax, DWORD PTR [eax+380]
	push	20000					; 00004e20H
	call	eax
	mov	ecx, eax
	mov	eax, DWORD PTR ?AVS_linkage@@3PBUAVS_Linkage@@B ; AVS_linkage
	jmp	SHORT $LN66@Create_MVS
$LN65@Create_MVS:
	xor	ecx, ecx
$LN66@Create_MVS:
; File c:\github\mvtools\sources\interface.cpp

; 80   : 	return new MVShow(

	push	ecx
; File c:\github\mvtools\sources\include\avisynth.h

; 1043 :   const AVSValue& operator[](int index) const AVS_BakedCode( return AVS_LinkCallV(AVSValue_OPERATOR_INDEX)(index) )

	test	eax, eax
	je	SHORT $LN69@Create_MVS
	cmp	DWORD PTR [eax], 324			; 00000144H
	jbe	SHORT $LN69@Create_MVS
	mov	eax, DWORD PTR [eax+324]
	lea	ecx, DWORD PTR _args$[ebp]
	push	3
	call	eax
	mov	ecx, eax
	mov	eax, DWORD PTR ?AVS_linkage@@3PBUAVS_Linkage@@B ; AVS_linkage
	jmp	SHORT $LN70@Create_MVS
$LN69@Create_MVS:
	lea	ecx, DWORD PTR _args$[ebp]
$LN70@Create_MVS:

; 1035 :   int AsInt(int def) const AVS_BakedCode( return AVS_LinkCall(AsInt2)(def) )

	test	eax, eax
	je	SHORT $LN73@Create_MVS
	cmp	DWORD PTR [eax], 380			; 0000017cH
	jbe	SHORT $LN73@Create_MVS
	mov	eax, DWORD PTR [eax+380]
	push	0
	call	eax
	mov	ecx, eax
	mov	eax, DWORD PTR ?AVS_linkage@@3PBUAVS_Linkage@@B ; AVS_linkage
	jmp	SHORT $LN74@Create_MVS
$LN73@Create_MVS:
	xor	ecx, ecx
$LN74@Create_MVS:
; File c:\github\mvtools\sources\interface.cpp

; 80   : 	return new MVShow(

	push	ecx
; File c:\github\mvtools\sources\include\avisynth.h

; 1043 :   const AVSValue& operator[](int index) const AVS_BakedCode( return AVS_LinkCallV(AVSValue_OPERATOR_INDEX)(index) )

	test	eax, eax
	je	SHORT $LN77@Create_MVS
	cmp	DWORD PTR [eax], 324			; 00000144H
	jbe	SHORT $LN77@Create_MVS
	mov	eax, DWORD PTR [eax+324]
	lea	ecx, DWORD PTR _args$[ebp]
	push	2
	call	eax
	mov	ecx, eax
	mov	eax, DWORD PTR ?AVS_linkage@@3PBUAVS_Linkage@@B ; AVS_linkage
	jmp	SHORT $LN78@Create_MVS
$LN77@Create_MVS:
	lea	ecx, DWORD PTR _args$[ebp]
$LN78@Create_MVS:

; 1035 :   int AsInt(int def) const AVS_BakedCode( return AVS_LinkCall(AsInt2)(def) )

	test	eax, eax
	je	SHORT $LN81@Create_MVS
	cmp	DWORD PTR [eax], 380			; 0000017cH
	jbe	SHORT $LN81@Create_MVS
	mov	eax, DWORD PTR [eax+380]
	push	1
	call	eax
	mov	ecx, eax
	mov	eax, DWORD PTR ?AVS_linkage@@3PBUAVS_Linkage@@B ; AVS_linkage
	jmp	SHORT $LN82@Create_MVS
$LN81@Create_MVS:
	xor	ecx, ecx
$LN82@Create_MVS:
; File c:\github\mvtools\sources\interface.cpp

; 80   : 	return new MVShow(

	push	ecx
; File c:\github\mvtools\sources\include\avisynth.h

; 1043 :   const AVSValue& operator[](int index) const AVS_BakedCode( return AVS_LinkCallV(AVSValue_OPERATOR_INDEX)(index) )

	test	eax, eax
	je	SHORT $LN85@Create_MVS
	cmp	DWORD PTR [eax], 324			; 00000144H
	jbe	SHORT $LN85@Create_MVS
	mov	eax, DWORD PTR [eax+324]
	lea	ecx, DWORD PTR _args$[ebp]
	push	1
	call	eax
	mov	ecx, eax
	jmp	SHORT $LN86@Create_MVS
$LN85@Create_MVS:
	lea	ecx, DWORD PTR _args$[ebp]
$LN86@Create_MVS:
; File c:\github\mvtools\sources\interface.cpp

; 80   : 	return new MVShow(

	push	ecx
	mov	eax, esp
	mov	DWORD PTR $T4[ebp], esp
	push	eax
	call	?AsClip@AVSValue@@QBE?AVPClip@@XZ	; AVSValue::AsClip
	mov	BYTE PTR __$EHRec$[ebp+8], 2
; File c:\github\mvtools\sources\include\avisynth.h

; 1043 :   const AVSValue& operator[](int index) const AVS_BakedCode( return AVS_LinkCallV(AVSValue_OPERATOR_INDEX)(index) )

	mov	eax, DWORD PTR ?AVS_linkage@@3PBUAVS_Linkage@@B ; AVS_linkage
	test	eax, eax
	je	SHORT $LN89@Create_MVS
	cmp	DWORD PTR [eax], 324			; 00000144H
	jbe	SHORT $LN89@Create_MVS
	mov	eax, DWORD PTR [eax+324]
	lea	ecx, DWORD PTR _args$[ebp]
	push	0
	call	eax
	mov	ecx, eax
	jmp	SHORT $LN90@Create_MVS
$LN89@Create_MVS:
	lea	ecx, DWORD PTR _args$[ebp]
$LN90@Create_MVS:
; File c:\github\mvtools\sources\interface.cpp

; 80   : 	return new MVShow(

	push	ecx
	push	esp
	call	?AsClip@AVSValue@@QBE?AVPClip@@XZ	; AVSValue::AsClip
	mov	ecx, esi
	mov	BYTE PTR __$EHRec$[ebp+8], 1
	call	??0MVShow@@QAE@VPClip@@0HHH_NHHH11PAVIScriptEnvironment@@@Z ; MVShow::MVShow
; File c:\github\mvtools\sources\include\avisynth.h

; 999  :   AVSValue(IClip* c) AVS_BakedCode( AVS_LinkCall(AVSValue_CONSTRUCTOR1)(c) )

	mov	esi, DWORD PTR ___$ReturnUdt$[ebp]
; File c:\github\mvtools\sources\interface.cpp

; 80   : 	return new MVShow(

	mov	BYTE PTR __$EHRec$[ebp+8], 0
; File c:\github\mvtools\sources\include\avisynth.h

; 999  :   AVSValue(IClip* c) AVS_BakedCode( AVS_LinkCall(AVSValue_CONSTRUCTOR1)(c) )

	mov	edx, DWORD PTR ?AVS_linkage@@3PBUAVS_Linkage@@B ; AVS_linkage
	test	edx, edx
	je	SHORT $LN93@Create_MVS
	cmp	DWORD PTR [edx], 280			; 00000118H
	jbe	SHORT $LN93@Create_MVS
	push	eax
	mov	eax, DWORD PTR [edx+280]
	mov	ecx, esi
	call	eax
	mov	edx, DWORD PTR ?AVS_linkage@@3PBUAVS_Linkage@@B ; AVS_linkage
$LN93@Create_MVS:

; 1011 :   ~AVSValue() AVS_BakedCode( AVS_LinkCall(AVSValue_DESTRUCTOR)() )

	mov	DWORD PTR __$EHRec$[ebp+8], 3
	test	edx, edx
	je	SHORT $LN100@Create_MVS
	cmp	DWORD PTR [edx], 316			; 0000013cH
	jbe	SHORT $LN100@Create_MVS
	mov	edx, DWORD PTR [edx+316]
	lea	ecx, DWORD PTR _args$[ebp]
	call	edx
$LN100@Create_MVS:
; File c:\github\mvtools\sources\interface.cpp

; 94   : }

	mov	ecx, DWORD PTR __$EHRec$[ebp]
	mov	eax, esi
	mov	DWORD PTR fs:0, ecx
	pop	esi
	mov	esp, ebp
	pop	ebp
	ret	0
_TEXT	ENDS
;	COMDAT text$x
text$x	SEGMENT
__unwindfunclet$?Create_MVShow@@YA?AVAVSValue@@V1@PAXPAVIScriptEnvironment@@@Z$0:
	lea	ecx, DWORD PTR _args$[ebp]
	jmp	??1AVSValue@@QAE@XZ			; AVSValue::~AVSValue
__unwindfunclet$?Create_MVShow@@YA?AVAVSValue@@V1@PAXPAVIScriptEnvironment@@@Z$1:
	push	432					; 000001b0H
	mov	eax, DWORD PTR $T2[ebp]
	push	eax
	call	??3@YAXPAXI@Z				; operator delete
	add	esp, 8
	ret	0
__unwindfunclet$?Create_MVShow@@YA?AVAVSValue@@V1@PAXPAVIScriptEnvironment@@@Z$2:
	mov	ecx, DWORD PTR $T4[ebp]
	jmp	??1PClip@@QAE@XZ			; PClip::~PClip
__unwindfunclet$?Create_MVShow@@YA?AVAVSValue@@V1@PAXPAVIScriptEnvironment@@@Z$5:
	call	DWORD PTR __imp____std_terminate
	ret	0
__ehhandler$?Create_MVShow@@YA?AVAVSValue@@V1@PAXPAVIScriptEnvironment@@@Z:
	mov	eax, OFFSET __ehfuncinfo$?Create_MVShow@@YA?AVAVSValue@@V1@PAXPAVIScriptEnvironment@@@Z
	jmp	___CxxFrameHandler3
text$x	ENDS
?Create_MVShow@@YA?AVAVSValue@@V1@PAXPAVIScriptEnvironment@@@Z ENDP ; Create_MVShow
; Function compile flags: /Ogtpy
; File c:\github\mvtools\sources\interface.cpp
; File c:\github\mvtools\sources\include\avisynth.h
; File c:\github\mvtools\sources\interface.cpp
; File c:\github\mvtools\sources\include\avisynth.h
; File c:\github\mvtools\sources\interface.cpp
; File c:\github\mvtools\sources\include\avisynth.h
; File c:\github\mvtools\sources\interface.cpp
; File c:\github\mvtools\sources\include\avisynth.h
; File c:\github\mvtools\sources\interface.cpp
; File c:\github\mvtools\sources\include\avisynth.h
; File c:\github\mvtools\sources\interface.cpp
; File c:\github\mvtools\sources\include\avisynth.h
; File c:\github\mvtools\sources\interface.cpp
; File c:\github\mvtools\sources\include\avisynth.h
; File c:\github\mvtools\sources\interface.cpp
; File c:\github\mvtools\sources\include\avisynth.h
; File c:\github\mvtools\sources\interface.cpp
; File c:\github\mvtools\sources\include\avisynth.h
; File c:\github\mvtools\sources\interface.cpp
; File c:\github\mvtools\sources\include\avisynth.h
; File c:\github\mvtools\sources\interface.cpp
; File c:\github\mvtools\sources\include\avisynth.h
; File c:\github\mvtools\sources\interface.cpp
; File c:\github\mvtools\sources\include\avisynth.h
; File c:\github\mvtools\sources\interface.cpp
; File c:\github\mvtools\sources\include\avisynth.h
; File c:\github\mvtools\sources\interface.cpp
; File c:\github\mvtools\sources\include\avisynth.h
; File c:\github\mvtools\sources\interface.cpp
; File c:\github\mvtools\sources\include\avisynth.h
; File c:\github\mvtools\sources\interface.cpp
; File c:\github\mvtools\sources\include\avisynth.h
; File c:\github\mvtools\sources\interface.cpp
; File c:\github\mvtools\sources\include\avisynth.h
; File c:\github\mvtools\sources\interface.cpp
; File c:\github\mvtools\sources\include\avisynth.h
; File c:\github\mvtools\sources\interface.cpp
; File c:\github\mvtools\sources\include\avisynth.h
; File c:\github\mvtools\sources\interface.cpp
; File c:\github\mvtools\sources\include\avisynth.h
; File c:\github\mvtools\sources\interface.cpp
; File c:\github\mvtools\sources\include\avisynth.h
; File c:\github\mvtools\sources\interface.cpp
; File c:\github\mvtools\sources\include\avisynth.h
; File c:\github\mvtools\sources\interface.cpp
; File c:\github\mvtools\sources\include\avisynth.h
; File c:\github\mvtools\sources\interface.cpp
; File c:\github\mvtools\sources\include\avisynth.h
; File c:\github\mvtools\sources\interface.cpp
; File c:\github\mvtools\sources\include\avisynth.h
; File c:\github\mvtools\sources\interface.cpp
;	COMDAT ?Create_MVCompensate@@YA?AVAVSValue@@V1@PAXPAVIScriptEnvironment@@@Z
_TEXT	SEGMENT
tv553 = -44						; size = 8
tv495 = -44						; size = 8
$T2 = -36						; size = 4
$T3 = -32						; size = 4
$T4 = -28						; size = 4
$T5 = -24						; size = 4
$T6 = -20						; size = 4
$T7 = -16						; size = 4
__$EHRec$ = -12						; size = 12
___$ReturnUdt$ = 8					; size = 4
_args$ = 12						; size = 8
_user_data$ = 20					; size = 4
$T8 = 24						; size = 4
_env$ = 24						; size = 4
?Create_MVCompensate@@YA?AVAVSValue@@V1@PAXPAVIScriptEnvironment@@@Z PROC ; Create_MVCompensate, COMDAT

; 97   : {

	push	ebp
	mov	ebp, esp
	push	-1
	push	__ehhandler$?Create_MVCompensate@@YA?AVAVSValue@@V1@PAXPAVIScriptEnvironment@@@Z
	mov	eax, DWORD PTR fs:0
	push	eax
	mov	DWORD PTR fs:0, esp
	sub	esp, 32					; 00000020H
	push	ebx
	push	esi
	push	edi
	mov	DWORD PTR $T7[ebp], 0
	mov	DWORD PTR __$EHRec$[ebp+8], 0
; File c:\github\mvtools\sources\include\avisynth.h

; 1043 :   const AVSValue& operator[](int index) const AVS_BakedCode( return AVS_LinkCallV(AVSValue_OPERATOR_INDEX)(index) )

	mov	eax, DWORD PTR ?AVS_linkage@@3PBUAVS_Linkage@@B ; AVS_linkage
	test	eax, eax
	je	SHORT $LN23@Create_MVC
	cmp	DWORD PTR [eax], 324			; 00000144H
	jbe	SHORT $LN23@Create_MVC
	mov	eax, DWORD PTR [eax+324]
	lea	ecx, DWORD PTR _args$[ebp]
	push	5
	call	eax
	mov	ecx, eax
	mov	eax, DWORD PTR ?AVS_linkage@@3PBUAVS_Linkage@@B ; AVS_linkage
	jmp	SHORT $LN24@Create_MVC
$LN23@Create_MVC:
	lea	ecx, DWORD PTR _args$[ebp]
$LN24@Create_MVC:

; 1035 :   int AsInt(int def) const AVS_BakedCode( return AVS_LinkCall(AsInt2)(def) )

	test	eax, eax
	je	SHORT $LN27@Create_MVC
	cmp	DWORD PTR [eax], 380			; 0000017cH
	jbe	SHORT $LN27@Create_MVC
	mov	eax, DWORD PTR [eax+380]
	push	10000					; 00002710H
	call	eax
	mov	edi, eax
	jmp	SHORT $LN28@Create_MVC
$LN27@Create_MVC:
	xor	edi, edi
$LN28@Create_MVC:
; File c:\github\mvtools\sources\interface.cpp

; 100  : 	return new MVCompensate(

	push	408					; 00000198H
	call	??2@YAPAXI@Z				; operator new
	add	esp, 4
	mov	DWORD PTR $T5[ebp], eax
	mov	BYTE PTR __$EHRec$[ebp+8], 1
; File c:\github\mvtools\sources\include\avisynth.h

; 1043 :   const AVSValue& operator[](int index) const AVS_BakedCode( return AVS_LinkCallV(AVSValue_OPERATOR_INDEX)(index) )

	mov	eax, DWORD PTR ?AVS_linkage@@3PBUAVS_Linkage@@B ; AVS_linkage
	test	eax, eax
	je	SHORT $LN31@Create_MVC
	cmp	DWORD PTR [eax], 324			; 00000144H
	jbe	SHORT $LN31@Create_MVC
	mov	eax, DWORD PTR [eax+324]
	lea	ecx, DWORD PTR _args$[ebp]
	push	15					; 0000000fH
	call	eax
	mov	ecx, eax
	mov	eax, DWORD PTR ?AVS_linkage@@3PBUAVS_Linkage@@B ; AVS_linkage
	jmp	SHORT $LN32@Create_MVC
$LN31@Create_MVC:
	lea	ecx, DWORD PTR _args$[ebp]
$LN32@Create_MVC:

; 1018 :   bool IsClip() const AVS_BakedCode( return AVS_LinkCall(IsClip)() )

	test	eax, eax
	je	SHORT $LN43@Create_MVC
	cmp	DWORD PTR [eax], 332			; 0000014cH
	jbe	SHORT $LN3@Create_MVC
	mov	eax, DWORD PTR [eax+332]
	call	eax
	movzx	eax, al
; File c:\github\mvtools\sources\interface.cpp

; 100  : 	return new MVCompensate(

	test	al, al
; File c:\github\mvtools\sources\include\avisynth.h

; 1043 :   const AVSValue& operator[](int index) const AVS_BakedCode( return AVS_LinkCallV(AVSValue_OPERATOR_INDEX)(index) )

	mov	eax, DWORD PTR ?AVS_linkage@@3PBUAVS_Linkage@@B ; AVS_linkage
; File c:\github\mvtools\sources\interface.cpp

; 100  : 	return new MVCompensate(

	je	SHORT $LN3@Create_MVC
; File c:\github\mvtools\sources\include\avisynth.h

; 1043 :   const AVSValue& operator[](int index) const AVS_BakedCode( return AVS_LinkCallV(AVSValue_OPERATOR_INDEX)(index) )

	test	eax, eax
	je	SHORT $LN39@Create_MVC
	cmp	DWORD PTR [eax], 324			; 00000144H
	jbe	SHORT $LN39@Create_MVC
	mov	eax, DWORD PTR [eax+324]
	lea	ecx, DWORD PTR _args$[ebp]
	push	16					; 00000010H
	call	eax
	jmp	SHORT $LN40@Create_MVC
$LN39@Create_MVC:
	lea	eax, DWORD PTR _args$[ebp]
$LN40@Create_MVC:
; File c:\github\mvtools\sources\interface.cpp

; 100  : 	return new MVCompensate(

	lea	ecx, DWORD PTR $T4[ebp]
	push	ecx
	mov	ecx, eax
	call	?AsClip@AVSValue@@QBE?AVPClip@@XZ	; AVSValue::AsClip
	mov	esi, eax
	mov	BYTE PTR __$EHRec$[ebp+8], 2
	mov	ebx, 1
	mov	eax, DWORD PTR ?AVS_linkage@@3PBUAVS_Linkage@@B ; AVS_linkage
	jmp	SHORT $LN180@Create_MVC
$LN3@Create_MVC:
; File c:\github\mvtools\sources\include\avisynth.h

; 938  :   PClip(IClip* x) AVS_BakedCode( AVS_LinkCall(PClip_CONSTRUCTOR2)(x) )

	test	eax, eax
	je	SHORT $LN43@Create_MVC
	cmp	DWORD PTR [eax], 236			; 000000ecH
	jbe	SHORT $LN43@Create_MVC
	mov	eax, DWORD PTR [eax+236]
	lea	ecx, DWORD PTR $T6[ebp]
	push	0
	call	eax
	mov	eax, DWORD PTR ?AVS_linkage@@3PBUAVS_Linkage@@B ; AVS_linkage
$LN43@Create_MVC:
; File c:\github\mvtools\sources\interface.cpp

; 100  : 	return new MVCompensate(

	lea	esi, DWORD PTR $T6[ebp]
	mov	DWORD PTR __$EHRec$[ebp+8], 3
	mov	ebx, 2
$LN180@Create_MVC:
	mov	DWORD PTR $T7[ebp], ebx
	push	DWORD PTR _env$[ebp]
; File c:\github\mvtools\sources\include\avisynth.h

; 1043 :   const AVSValue& operator[](int index) const AVS_BakedCode( return AVS_LinkCallV(AVSValue_OPERATOR_INDEX)(index) )

	test	eax, eax
	je	SHORT $LN47@Create_MVC
	cmp	DWORD PTR [eax], 324			; 00000144H
	jbe	SHORT $LN47@Create_MVC
	mov	eax, DWORD PTR [eax+324]
	lea	ecx, DWORD PTR _args$[ebp]
	push	16					; 00000010H
	call	eax
	mov	ecx, eax
	mov	eax, DWORD PTR ?AVS_linkage@@3PBUAVS_Linkage@@B ; AVS_linkage
	jmp	SHORT $LN48@Create_MVC
$LN47@Create_MVC:
	lea	ecx, DWORD PTR _args$[ebp]
$LN48@Create_MVC:

; 1035 :   int AsInt(int def) const AVS_BakedCode( return AVS_LinkCall(AsInt2)(def) )

	test	eax, eax
	je	SHORT $LN51@Create_MVC
	cmp	DWORD PTR [eax], 380			; 0000017cH
	jbe	SHORT $LN51@Create_MVC
	mov	eax, DWORD PTR [eax+380]
	push	edi
	call	eax
	mov	ecx, eax
	mov	eax, DWORD PTR ?AVS_linkage@@3PBUAVS_Linkage@@B ; AVS_linkage
	jmp	SHORT $LN52@Create_MVC
$LN51@Create_MVC:
	xor	ecx, ecx
$LN52@Create_MVC:
; File c:\github\mvtools\sources\interface.cpp

; 100  : 	return new MVCompensate(

	push	ecx
	push	ecx
	mov	DWORD PTR $T8[ebp], esp
	mov	ecx, esp
; File c:\github\mvtools\sources\include\avisynth.h

; 937  :   PClip(const PClip& x) AVS_BakedCode( AVS_LinkCall(PClip_CONSTRUCTOR1)(x) )

	test	eax, eax
	je	SHORT $LN55@Create_MVC
	cmp	DWORD PTR [eax], 232			; 000000e8H
	jbe	SHORT $LN55@Create_MVC
	mov	eax, DWORD PTR [eax+232]
	push	esi
	call	eax
	mov	eax, DWORD PTR ?AVS_linkage@@3PBUAVS_Linkage@@B ; AVS_linkage
$LN55@Create_MVC:
; File c:\github\mvtools\sources\interface.cpp

; 100  : 	return new MVCompensate(

	mov	DWORD PTR __$EHRec$[ebp+8], 4
; File c:\github\mvtools\sources\include\avisynth.h

; 1043 :   const AVSValue& operator[](int index) const AVS_BakedCode( return AVS_LinkCallV(AVSValue_OPERATOR_INDEX)(index) )

	test	eax, eax
	je	SHORT $LN59@Create_MVC
	cmp	DWORD PTR [eax], 324			; 00000144H
	jbe	SHORT $LN59@Create_MVC
	mov	eax, DWORD PTR [eax+324]
	lea	ecx, DWORD PTR _args$[ebp]
	push	14					; 0000000eH
	call	eax
	mov	ecx, eax
	mov	eax, DWORD PTR ?AVS_linkage@@3PBUAVS_Linkage@@B ; AVS_linkage
	jmp	SHORT $LN60@Create_MVC
$LN59@Create_MVC:
	lea	ecx, DWORD PTR _args$[ebp]
$LN60@Create_MVC:

; 1034 :   bool AsBool(bool def) const AVS_BakedCode( return AVS_LinkCall(AsBool2)(def) )

	test	eax, eax
	je	SHORT $LN63@Create_MVC
	cmp	DWORD PTR [eax], 376			; 00000178H
	jbe	SHORT $LN63@Create_MVC
	mov	eax, DWORD PTR [eax+376]
	push	1
	call	eax
	movzx	ecx, al
	mov	eax, DWORD PTR ?AVS_linkage@@3PBUAVS_Linkage@@B ; AVS_linkage
	jmp	SHORT $LN64@Create_MVC
$LN63@Create_MVC:
	xor	ecx, ecx
$LN64@Create_MVC:
; File c:\github\mvtools\sources\interface.cpp

; 100  : 	return new MVCompensate(

	push	ecx
; File c:\github\mvtools\sources\include\avisynth.h

; 1043 :   const AVSValue& operator[](int index) const AVS_BakedCode( return AVS_LinkCallV(AVSValue_OPERATOR_INDEX)(index) )

	test	eax, eax
	je	SHORT $LN67@Create_MVC
	cmp	DWORD PTR [eax], 324			; 00000144H
	jbe	SHORT $LN67@Create_MVC
	mov	eax, DWORD PTR [eax+324]
	lea	ecx, DWORD PTR _args$[ebp]
	push	13					; 0000000dH
	call	eax
	mov	ecx, eax
	mov	eax, DWORD PTR ?AVS_linkage@@3PBUAVS_Linkage@@B ; AVS_linkage
	jmp	SHORT $LN68@Create_MVC
$LN67@Create_MVC:
	lea	ecx, DWORD PTR _args$[ebp]
$LN68@Create_MVC:

; 1035 :   int AsInt(int def) const AVS_BakedCode( return AVS_LinkCall(AsInt2)(def) )

	test	eax, eax
	je	SHORT $LN71@Create_MVC
	cmp	DWORD PTR [eax], 380			; 0000017cH
	jbe	SHORT $LN71@Create_MVC
	mov	eax, DWORD PTR [eax+380]
	push	0
	call	eax
	mov	ecx, eax
	mov	eax, DWORD PTR ?AVS_linkage@@3PBUAVS_Linkage@@B ; AVS_linkage
	jmp	SHORT $LN72@Create_MVC
$LN71@Create_MVC:
	xor	ecx, ecx
$LN72@Create_MVC:
; File c:\github\mvtools\sources\interface.cpp

; 100  : 	return new MVCompensate(

	push	ecx
; File c:\github\mvtools\sources\include\avisynth.h

; 1043 :   const AVSValue& operator[](int index) const AVS_BakedCode( return AVS_LinkCallV(AVSValue_OPERATOR_INDEX)(index) )

	test	eax, eax
	je	SHORT $LN75@Create_MVC
	cmp	DWORD PTR [eax], 324			; 00000144H
	jbe	SHORT $LN75@Create_MVC
	mov	eax, DWORD PTR [eax+324]
	lea	ecx, DWORD PTR _args$[ebp]
	push	12					; 0000000cH
	call	eax
	mov	ecx, eax
	mov	eax, DWORD PTR ?AVS_linkage@@3PBUAVS_Linkage@@B ; AVS_linkage
	jmp	SHORT $LN76@Create_MVC
$LN75@Create_MVC:
	lea	ecx, DWORD PTR _args$[ebp]
$LN76@Create_MVC:

; 1034 :   bool AsBool(bool def) const AVS_BakedCode( return AVS_LinkCall(AsBool2)(def) )

	test	eax, eax
	je	SHORT $LN79@Create_MVC
	cmp	DWORD PTR [eax], 376			; 00000178H
	jbe	SHORT $LN79@Create_MVC
	mov	eax, DWORD PTR [eax+376]
	push	1
	call	eax
	movzx	ecx, al
	mov	eax, DWORD PTR ?AVS_linkage@@3PBUAVS_Linkage@@B ; AVS_linkage
	jmp	SHORT $LN80@Create_MVC
$LN79@Create_MVC:
	xor	ecx, ecx
$LN80@Create_MVC:
; File c:\github\mvtools\sources\interface.cpp

; 100  : 	return new MVCompensate(

	push	ecx
; File c:\github\mvtools\sources\include\avisynth.h

; 1043 :   const AVSValue& operator[](int index) const AVS_BakedCode( return AVS_LinkCallV(AVSValue_OPERATOR_INDEX)(index) )

	test	eax, eax
	je	SHORT $LN83@Create_MVC
	cmp	DWORD PTR [eax], 324			; 00000144H
	jbe	SHORT $LN83@Create_MVC
	mov	eax, DWORD PTR [eax+324]
	lea	ecx, DWORD PTR _args$[ebp]
	push	11					; 0000000bH
	call	eax
	mov	ecx, eax
	mov	eax, DWORD PTR ?AVS_linkage@@3PBUAVS_Linkage@@B ; AVS_linkage
	jmp	SHORT $LN84@Create_MVC
$LN83@Create_MVC:
	lea	ecx, DWORD PTR _args$[ebp]
$LN84@Create_MVC:

; 1034 :   bool AsBool(bool def) const AVS_BakedCode( return AVS_LinkCall(AsBool2)(def) )

	test	eax, eax
	je	SHORT $LN87@Create_MVC
	cmp	DWORD PTR [eax], 376			; 00000178H
	jbe	SHORT $LN87@Create_MVC
	mov	eax, DWORD PTR [eax+376]
	push	0
	call	eax
	movzx	ecx, al
	mov	eax, DWORD PTR ?AVS_linkage@@3PBUAVS_Linkage@@B ; AVS_linkage
	jmp	SHORT $LN88@Create_MVC
$LN87@Create_MVC:
	xor	ecx, ecx
$LN88@Create_MVC:
; File c:\github\mvtools\sources\interface.cpp

; 100  : 	return new MVCompensate(

	push	ecx
; File c:\github\mvtools\sources\include\avisynth.h

; 1043 :   const AVSValue& operator[](int index) const AVS_BakedCode( return AVS_LinkCallV(AVSValue_OPERATOR_INDEX)(index) )

	test	eax, eax
	je	SHORT $LN91@Create_MVC
	cmp	DWORD PTR [eax], 324			; 00000144H
	jbe	SHORT $LN91@Create_MVC
	mov	eax, DWORD PTR [eax+324]
	lea	ecx, DWORD PTR _args$[ebp]
	push	10					; 0000000aH
	call	eax
	mov	ecx, eax
	mov	eax, DWORD PTR ?AVS_linkage@@3PBUAVS_Linkage@@B ; AVS_linkage
	jmp	SHORT $LN92@Create_MVC
$LN91@Create_MVC:
	lea	ecx, DWORD PTR _args$[ebp]
$LN92@Create_MVC:

; 1034 :   bool AsBool(bool def) const AVS_BakedCode( return AVS_LinkCall(AsBool2)(def) )

	test	eax, eax
	je	SHORT $LN95@Create_MVC
	cmp	DWORD PTR [eax], 376			; 00000178H
	jbe	SHORT $LN95@Create_MVC
	mov	eax, DWORD PTR [eax+376]
	push	1
	call	eax
	movzx	ecx, al
	mov	eax, DWORD PTR ?AVS_linkage@@3PBUAVS_Linkage@@B ; AVS_linkage
	jmp	SHORT $LN96@Create_MVC
$LN95@Create_MVC:
	xor	ecx, ecx
$LN96@Create_MVC:
; File c:\github\mvtools\sources\interface.cpp

; 100  : 	return new MVCompensate(

	push	ecx
; File c:\github\mvtools\sources\include\avisynth.h

; 1043 :   const AVSValue& operator[](int index) const AVS_BakedCode( return AVS_LinkCallV(AVSValue_OPERATOR_INDEX)(index) )

	test	eax, eax
	je	SHORT $LN99@Create_MVC
	cmp	DWORD PTR [eax], 324			; 00000144H
	jbe	SHORT $LN99@Create_MVC
	mov	eax, DWORD PTR [eax+324]
	lea	ecx, DWORD PTR _args$[ebp]
	push	9
	call	eax
	mov	ecx, eax
	mov	eax, DWORD PTR ?AVS_linkage@@3PBUAVS_Linkage@@B ; AVS_linkage
	jmp	SHORT $LN100@Create_MVC
$LN99@Create_MVC:
	lea	ecx, DWORD PTR _args$[ebp]
$LN100@Create_MVC:

; 1035 :   int AsInt(int def) const AVS_BakedCode( return AVS_LinkCall(AsInt2)(def) )

	test	eax, eax
	je	SHORT $LN103@Create_MVC
	cmp	DWORD PTR [eax], 380			; 0000017cH
	jbe	SHORT $LN103@Create_MVC
	mov	eax, DWORD PTR [eax+380]
	push	130					; 00000082H
	call	eax
	mov	ecx, eax
	mov	eax, DWORD PTR ?AVS_linkage@@3PBUAVS_Linkage@@B ; AVS_linkage
	jmp	SHORT $LN104@Create_MVC
$LN103@Create_MVC:
	xor	ecx, ecx
$LN104@Create_MVC:
; File c:\github\mvtools\sources\interface.cpp

; 100  : 	return new MVCompensate(

	push	ecx
; File c:\github\mvtools\sources\include\avisynth.h

; 1043 :   const AVSValue& operator[](int index) const AVS_BakedCode( return AVS_LinkCallV(AVSValue_OPERATOR_INDEX)(index) )

	test	eax, eax
	je	SHORT $LN107@Create_MVC
	cmp	DWORD PTR [eax], 324			; 00000144H
	jbe	SHORT $LN107@Create_MVC
	mov	eax, DWORD PTR [eax+324]
	lea	ecx, DWORD PTR _args$[ebp]
	push	8
	call	eax
	mov	ecx, eax
	mov	eax, DWORD PTR ?AVS_linkage@@3PBUAVS_Linkage@@B ; AVS_linkage
	jmp	SHORT $LN108@Create_MVC
$LN107@Create_MVC:
	lea	ecx, DWORD PTR _args$[ebp]
$LN108@Create_MVC:

; 1035 :   int AsInt(int def) const AVS_BakedCode( return AVS_LinkCall(AsInt2)(def) )

	test	eax, eax
	je	SHORT $LN111@Create_MVC
	cmp	DWORD PTR [eax], 380			; 0000017cH
	jbe	SHORT $LN111@Create_MVC
	mov	eax, DWORD PTR [eax+380]
	push	400					; 00000190H
	call	eax
	mov	ecx, eax
	mov	eax, DWORD PTR ?AVS_linkage@@3PBUAVS_Linkage@@B ; AVS_linkage
	jmp	SHORT $LN112@Create_MVC
$LN111@Create_MVC:
	xor	ecx, ecx
$LN112@Create_MVC:
; File c:\github\mvtools\sources\interface.cpp

; 100  : 	return new MVCompensate(

	push	ecx
; File c:\github\mvtools\sources\include\avisynth.h

; 1043 :   const AVSValue& operator[](int index) const AVS_BakedCode( return AVS_LinkCallV(AVSValue_OPERATOR_INDEX)(index) )

	test	eax, eax
	je	SHORT $LN115@Create_MVC
	cmp	DWORD PTR [eax], 324			; 00000144H
	jbe	SHORT $LN115@Create_MVC
	mov	eax, DWORD PTR [eax+324]
	lea	ecx, DWORD PTR _args$[ebp]
	push	7
	call	eax
	mov	ecx, eax
	mov	eax, DWORD PTR ?AVS_linkage@@3PBUAVS_Linkage@@B ; AVS_linkage
	jmp	SHORT $LN116@Create_MVC
$LN115@Create_MVC:
	lea	ecx, DWORD PTR _args$[ebp]
$LN116@Create_MVC:

; 1037 :   double AsFloat(float def) const AVS_BakedCode( return AVS_LinkCall(AsFloat2)(def) )

	test	eax, eax
	je	SHORT $LN119@Create_MVC
	cmp	DWORD PTR [eax], 388			; 00000184H
	jbe	SHORT $LN119@Create_MVC
	mov	eax, DWORD PTR [eax+388]
	push	ecx
	mov	DWORD PTR [esp], 1120403456		; 42c80000H
	call	eax
	mov	eax, DWORD PTR ?AVS_linkage@@3PBUAVS_Linkage@@B ; AVS_linkage
	fstp	QWORD PTR tv495[ebp]
	movsd	xmm0, QWORD PTR tv495[ebp]
	jmp	SHORT $LN120@Create_MVC
$LN119@Create_MVC:
	xorps	xmm0, xmm0
$LN120@Create_MVC:
; File c:\github\mvtools\sources\interface.cpp

; 100  : 	return new MVCompensate(

	sub	esp, 8
	movsd	QWORD PTR [esp], xmm0
; File c:\github\mvtools\sources\include\avisynth.h

; 1043 :   const AVSValue& operator[](int index) const AVS_BakedCode( return AVS_LinkCallV(AVSValue_OPERATOR_INDEX)(index) )

	test	eax, eax
	je	SHORT $LN123@Create_MVC
	cmp	DWORD PTR [eax], 324			; 00000144H
	jbe	SHORT $LN123@Create_MVC
	mov	eax, DWORD PTR [eax+324]
	lea	ecx, DWORD PTR _args$[ebp]
	push	6
	call	eax
	mov	ecx, eax
	mov	eax, DWORD PTR ?AVS_linkage@@3PBUAVS_Linkage@@B ; AVS_linkage
	jmp	SHORT $LN124@Create_MVC
$LN123@Create_MVC:
	lea	ecx, DWORD PTR _args$[ebp]
$LN124@Create_MVC:

; 1034 :   bool AsBool(bool def) const AVS_BakedCode( return AVS_LinkCall(AsBool2)(def) )

	test	eax, eax
	je	SHORT $LN127@Create_MVC
	cmp	DWORD PTR [eax], 376			; 00000178H
	jbe	SHORT $LN127@Create_MVC
	mov	eax, DWORD PTR [eax+376]
	push	0
	call	eax
	movzx	ecx, al
	mov	eax, DWORD PTR ?AVS_linkage@@3PBUAVS_Linkage@@B ; AVS_linkage
	jmp	SHORT $LN128@Create_MVC
$LN127@Create_MVC:
	xor	ecx, ecx
$LN128@Create_MVC:
; File c:\github\mvtools\sources\interface.cpp

; 100  : 	return new MVCompensate(

	push	ecx
	push	edi
; File c:\github\mvtools\sources\include\avisynth.h

; 1043 :   const AVSValue& operator[](int index) const AVS_BakedCode( return AVS_LinkCallV(AVSValue_OPERATOR_INDEX)(index) )

	test	eax, eax
	je	SHORT $LN131@Create_MVC
	cmp	DWORD PTR [eax], 324			; 00000144H
	jbe	SHORT $LN131@Create_MVC
	mov	eax, DWORD PTR [eax+324]
	lea	ecx, DWORD PTR _args$[ebp]
	push	4
	call	eax
	mov	ecx, eax
	mov	eax, DWORD PTR ?AVS_linkage@@3PBUAVS_Linkage@@B ; AVS_linkage
	jmp	SHORT $LN132@Create_MVC
$LN131@Create_MVC:
	lea	ecx, DWORD PTR _args$[ebp]
$LN132@Create_MVC:

; 1037 :   double AsFloat(float def) const AVS_BakedCode( return AVS_LinkCall(AsFloat2)(def) )

	test	eax, eax
	je	SHORT $LN135@Create_MVC
	cmp	DWORD PTR [eax], 388			; 00000184H
	jbe	SHORT $LN135@Create_MVC
	mov	eax, DWORD PTR [eax+388]
	push	ecx
	mov	DWORD PTR [esp], 0
	call	eax
	mov	eax, DWORD PTR ?AVS_linkage@@3PBUAVS_Linkage@@B ; AVS_linkage
	fstp	QWORD PTR tv553[ebp]
	movsd	xmm0, QWORD PTR tv553[ebp]
	jmp	SHORT $LN136@Create_MVC
$LN135@Create_MVC:
	xorps	xmm0, xmm0
$LN136@Create_MVC:
; File c:\github\mvtools\sources\interface.cpp

; 100  : 	return new MVCompensate(

	sub	esp, 8
	movsd	QWORD PTR [esp], xmm0
; File c:\github\mvtools\sources\include\avisynth.h

; 1043 :   const AVSValue& operator[](int index) const AVS_BakedCode( return AVS_LinkCallV(AVSValue_OPERATOR_INDEX)(index) )

	test	eax, eax
	je	SHORT $LN139@Create_MVC
	cmp	DWORD PTR [eax], 324			; 00000144H
	jbe	SHORT $LN139@Create_MVC
	mov	eax, DWORD PTR [eax+324]
	lea	ecx, DWORD PTR _args$[ebp]
	push	3
	call	eax
	mov	ecx, eax
	mov	eax, DWORD PTR ?AVS_linkage@@3PBUAVS_Linkage@@B ; AVS_linkage
	jmp	SHORT $LN140@Create_MVC
$LN139@Create_MVC:
	lea	ecx, DWORD PTR _args$[ebp]
$LN140@Create_MVC:

; 1034 :   bool AsBool(bool def) const AVS_BakedCode( return AVS_LinkCall(AsBool2)(def) )

	test	eax, eax
	je	SHORT $LN143@Create_MVC
	cmp	DWORD PTR [eax], 376			; 00000178H
	jbe	SHORT $LN143@Create_MVC
	mov	eax, DWORD PTR [eax+376]
	push	1
	call	eax
	movzx	ecx, al
	mov	eax, DWORD PTR ?AVS_linkage@@3PBUAVS_Linkage@@B ; AVS_linkage
	jmp	SHORT $LN144@Create_MVC
$LN143@Create_MVC:
	xor	ecx, ecx
$LN144@Create_MVC:
; File c:\github\mvtools\sources\interface.cpp

; 100  : 	return new MVCompensate(

	push	ecx
; File c:\github\mvtools\sources\include\avisynth.h

; 1043 :   const AVSValue& operator[](int index) const AVS_BakedCode( return AVS_LinkCallV(AVSValue_OPERATOR_INDEX)(index) )

	test	eax, eax
	je	SHORT $LN147@Create_MVC
	cmp	DWORD PTR [eax], 324			; 00000144H
	jbe	SHORT $LN147@Create_MVC
	mov	eax, DWORD PTR [eax+324]
	lea	ecx, DWORD PTR _args$[ebp]
	push	2
	call	eax
	mov	ecx, eax
	jmp	SHORT $LN148@Create_MVC
$LN147@Create_MVC:
	lea	ecx, DWORD PTR _args$[ebp]
$LN148@Create_MVC:
; File c:\github\mvtools\sources\interface.cpp

; 100  : 	return new MVCompensate(

	push	ecx
	mov	eax, esp
	mov	DWORD PTR $T3[ebp], esp
	push	eax
	call	?AsClip@AVSValue@@QBE?AVPClip@@XZ	; AVSValue::AsClip
	mov	BYTE PTR __$EHRec$[ebp+8], 5
; File c:\github\mvtools\sources\include\avisynth.h

; 1043 :   const AVSValue& operator[](int index) const AVS_BakedCode( return AVS_LinkCallV(AVSValue_OPERATOR_INDEX)(index) )

	mov	eax, DWORD PTR ?AVS_linkage@@3PBUAVS_Linkage@@B ; AVS_linkage
	test	eax, eax
	je	SHORT $LN151@Create_MVC
	cmp	DWORD PTR [eax], 324			; 00000144H
	jbe	SHORT $LN151@Create_MVC
	mov	eax, DWORD PTR [eax+324]
	lea	ecx, DWORD PTR _args$[ebp]
	push	1
	call	eax
	mov	ecx, eax
	jmp	SHORT $LN152@Create_MVC
$LN151@Create_MVC:
	lea	ecx, DWORD PTR _args$[ebp]
$LN152@Create_MVC:
; File c:\github\mvtools\sources\interface.cpp

; 100  : 	return new MVCompensate(

	push	ecx
	mov	eax, esp
	mov	DWORD PTR $T2[ebp], esp
	push	eax
	call	?AsClip@AVSValue@@QBE?AVPClip@@XZ	; AVSValue::AsClip
	mov	BYTE PTR __$EHRec$[ebp+8], 6
; File c:\github\mvtools\sources\include\avisynth.h

; 1043 :   const AVSValue& operator[](int index) const AVS_BakedCode( return AVS_LinkCallV(AVSValue_OPERATOR_INDEX)(index) )

	mov	eax, DWORD PTR ?AVS_linkage@@3PBUAVS_Linkage@@B ; AVS_linkage
	test	eax, eax
	je	SHORT $LN155@Create_MVC
	cmp	DWORD PTR [eax], 324			; 00000144H
	jbe	SHORT $LN155@Create_MVC
	mov	eax, DWORD PTR [eax+324]
	lea	ecx, DWORD PTR _args$[ebp]
	push	0
	call	eax
	mov	ecx, eax
	jmp	SHORT $LN156@Create_MVC
$LN155@Create_MVC:
	lea	ecx, DWORD PTR _args$[ebp]
$LN156@Create_MVC:
; File c:\github\mvtools\sources\interface.cpp

; 100  : 	return new MVCompensate(

	push	ecx
	push	esp
	call	?AsClip@AVSValue@@QBE?AVPClip@@XZ	; AVSValue::AsClip
	mov	ecx, DWORD PTR $T5[ebp]
	mov	BYTE PTR __$EHRec$[ebp+8], 3
	call	??0MVCompensate@@QAE@VPClip@@00_NNH1NHH111H10HPAVIScriptEnvironment@@@Z ; MVCompensate::MVCompensate
; File c:\github\mvtools\sources\include\avisynth.h

; 999  :   AVSValue(IClip* c) AVS_BakedCode( AVS_LinkCall(AVSValue_CONSTRUCTOR1)(c) )

	mov	esi, DWORD PTR ___$ReturnUdt$[ebp]
; File c:\github\mvtools\sources\interface.cpp

; 100  : 	return new MVCompensate(

	mov	DWORD PTR __$EHRec$[ebp+8], 8
; File c:\github\mvtools\sources\include\avisynth.h

; 999  :   AVSValue(IClip* c) AVS_BakedCode( AVS_LinkCall(AVSValue_CONSTRUCTOR1)(c) )

	mov	edx, DWORD PTR ?AVS_linkage@@3PBUAVS_Linkage@@B ; AVS_linkage
	test	edx, edx
	je	SHORT $LN159@Create_MVC
	cmp	DWORD PTR [edx], 280			; 00000118H
	jbe	SHORT $LN159@Create_MVC
	push	eax
	mov	eax, DWORD PTR [edx+280]
	mov	ecx, esi
	call	eax
	mov	edx, DWORD PTR ?AVS_linkage@@3PBUAVS_Linkage@@B ; AVS_linkage
$LN159@Create_MVC:
	or	ebx, 4
; File c:\github\mvtools\sources\interface.cpp

; 100  : 	return new MVCompensate(

	test	bl, 2
	je	SHORT $LN163@Create_MVC
	and	ebx, -3					; fffffffdH
	mov	DWORD PTR $T7[ebp], ebx
; File c:\github\mvtools\sources\include\avisynth.h

; 948  :   ~PClip() AVS_BakedCode( AVS_LinkCall(PClip_DESTRUCTOR)() )

	mov	DWORD PTR __$EHRec$[ebp+8], 9
	test	edx, edx
	je	SHORT $LN163@Create_MVC
	cmp	DWORD PTR [edx], 248			; 000000f8H
	jbe	SHORT $LN163@Create_MVC
	mov	eax, DWORD PTR [edx+248]
	lea	ecx, DWORD PTR $T6[ebp]
	call	eax
	mov	edx, DWORD PTR ?AVS_linkage@@3PBUAVS_Linkage@@B ; AVS_linkage
$LN163@Create_MVC:
; File c:\github\mvtools\sources\interface.cpp

; 100  : 	return new MVCompensate(

	mov	DWORD PTR __$EHRec$[ebp+8], 0
	test	bl, 1
	je	SHORT $LN168@Create_MVC
; File c:\github\mvtools\sources\include\avisynth.h

; 948  :   ~PClip() AVS_BakedCode( AVS_LinkCall(PClip_DESTRUCTOR)() )

	mov	BYTE PTR __$EHRec$[ebp+8], 10		; 0000000aH
	test	edx, edx
	je	SHORT $LN168@Create_MVC
	cmp	DWORD PTR [edx], 248			; 000000f8H
	jbe	SHORT $LN168@Create_MVC
	mov	eax, DWORD PTR [edx+248]
	lea	ecx, DWORD PTR $T4[ebp]
	call	eax
	mov	edx, DWORD PTR ?AVS_linkage@@3PBUAVS_Linkage@@B ; AVS_linkage
$LN168@Create_MVC:

; 1011 :   ~AVSValue() AVS_BakedCode( AVS_LinkCall(AVSValue_DESTRUCTOR)() )

	mov	DWORD PTR __$EHRec$[ebp+8], 11		; 0000000bH
	test	edx, edx
	je	SHORT $LN176@Create_MVC
	cmp	DWORD PTR [edx], 316			; 0000013cH
	jbe	SHORT $LN176@Create_MVC
	mov	edx, DWORD PTR [edx+316]
	lea	ecx, DWORD PTR _args$[ebp]
	call	edx
$LN176@Create_MVC:
; File c:\github\mvtools\sources\interface.cpp

; 120  : }

	mov	ecx, DWORD PTR __$EHRec$[ebp]
	mov	eax, esi
	pop	edi
	pop	esi
	mov	DWORD PTR fs:0, ecx
	pop	ebx
	mov	esp, ebp
	pop	ebp
	ret	0
_TEXT	ENDS
;	COMDAT text$x
text$x	SEGMENT
__unwindfunclet$?Create_MVCompensate@@YA?AVAVSValue@@V1@PAXPAVIScriptEnvironment@@@Z$0:
	lea	ecx, DWORD PTR _args$[ebp]
	jmp	??1AVSValue@@QAE@XZ			; AVSValue::~AVSValue
__unwindfunclet$?Create_MVCompensate@@YA?AVAVSValue@@V1@PAXPAVIScriptEnvironment@@@Z$1:
	push	408					; 00000198H
	mov	eax, DWORD PTR $T5[ebp]
	push	eax
	call	??3@YAXPAXI@Z				; operator delete
	add	esp, 8
	ret	0
__unwindfunclet$?Create_MVCompensate@@YA?AVAVSValue@@V1@PAXPAVIScriptEnvironment@@@Z$2:
	mov	eax, DWORD PTR $T7[ebp]
	and	eax, 1
	je	$LN10@Create_MVC
	and	DWORD PTR $T7[ebp], -2			; fffffffeH
	lea	ecx, DWORD PTR $T4[ebp]
	jmp	??1PClip@@QAE@XZ			; PClip::~PClip
$LN10@Create_MVC:
	ret	0
__unwindfunclet$?Create_MVCompensate@@YA?AVAVSValue@@V1@PAXPAVIScriptEnvironment@@@Z$3:
	mov	eax, DWORD PTR $T7[ebp]
	and	eax, 2
	je	$LN12@Create_MVC
	and	DWORD PTR $T7[ebp], -3			; fffffffdH
	lea	ecx, DWORD PTR $T6[ebp]
	jmp	??1PClip@@QAE@XZ			; PClip::~PClip
$LN12@Create_MVC:
	ret	0
__unwindfunclet$?Create_MVCompensate@@YA?AVAVSValue@@V1@PAXPAVIScriptEnvironment@@@Z$4:
	mov	ecx, DWORD PTR $T8[ebp]
	jmp	??1PClip@@QAE@XZ			; PClip::~PClip
__unwindfunclet$?Create_MVCompensate@@YA?AVAVSValue@@V1@PAXPAVIScriptEnvironment@@@Z$5:
	mov	ecx, DWORD PTR $T3[ebp]
	jmp	??1PClip@@QAE@XZ			; PClip::~PClip
__unwindfunclet$?Create_MVCompensate@@YA?AVAVSValue@@V1@PAXPAVIScriptEnvironment@@@Z$6:
	mov	ecx, DWORD PTR $T2[ebp]
	jmp	??1PClip@@QAE@XZ			; PClip::~PClip
__unwindfunclet$?Create_MVCompensate@@YA?AVAVSValue@@V1@PAXPAVIScriptEnvironment@@@Z$9:
	call	DWORD PTR __imp____std_terminate
	ret	0
__unwindfunclet$?Create_MVCompensate@@YA?AVAVSValue@@V1@PAXPAVIScriptEnvironment@@@Z$10:
	call	DWORD PTR __imp____std_terminate
	ret	0
__unwindfunclet$?Create_MVCompensate@@YA?AVAVSValue@@V1@PAXPAVIScriptEnvironment@@@Z$11:
	call	DWORD PTR __imp____std_terminate
	ret	0
__ehhandler$?Create_MVCompensate@@YA?AVAVSValue@@V1@PAXPAVIScriptEnvironment@@@Z:
	mov	eax, OFFSET __ehfuncinfo$?Create_MVCompensate@@YA?AVAVSValue@@V1@PAXPAVIScriptEnvironment@@@Z
	jmp	___CxxFrameHandler3
text$x	ENDS
?Create_MVCompensate@@YA?AVAVSValue@@V1@PAXPAVIScriptEnvironment@@@Z ENDP ; Create_MVCompensate
; Function compile flags: /Ogtpy
; File c:\github\mvtools\sources\interface.cpp
; File c:\github\mvtools\sources\include\avisynth.h
; File c:\github\mvtools\sources\interface.cpp
; File c:\github\mvtools\sources\include\avisynth.h
; File c:\github\mvtools\sources\interface.cpp
; File c:\github\mvtools\sources\include\avisynth.h
; File c:\github\mvtools\sources\interface.cpp
; File c:\github\mvtools\sources\include\avisynth.h
; File c:\github\mvtools\sources\interface.cpp
; File c:\github\mvtools\sources\include\avisynth.h
; File c:\github\mvtools\sources\interface.cpp
; File c:\github\mvtools\sources\include\avisynth.h
; File c:\github\mvtools\sources\interface.cpp
; File c:\github\mvtools\sources\include\avisynth.h
; File c:\github\mvtools\sources\interface.cpp
; File c:\github\mvtools\sources\include\avisynth.h
; File c:\github\mvtools\sources\interface.cpp
;	COMDAT ?Create_MVSCDetection@@YA?AVAVSValue@@V1@PAXPAVIScriptEnvironment@@@Z
_TEXT	SEGMENT
tv248 = -32						; size = 8
$T2 = -24						; size = 4
$T3 = -20						; size = 4
$T4 = -16						; size = 4
__$EHRec$ = -12						; size = 12
___$ReturnUdt$ = 8					; size = 4
_args$ = 12						; size = 8
_user_data$ = 20					; size = 4
tv304 = 24						; size = 4
_env$ = 24						; size = 4
?Create_MVSCDetection@@YA?AVAVSValue@@V1@PAXPAVIScriptEnvironment@@@Z PROC ; Create_MVSCDetection, COMDAT

; 123  : {

	push	ebp
	mov	ebp, esp
	push	-1
	push	__ehhandler$?Create_MVSCDetection@@YA?AVAVSValue@@V1@PAXPAVIScriptEnvironment@@@Z
	mov	eax, DWORD PTR fs:0
	push	eax
	mov	DWORD PTR fs:0, esp
	sub	esp, 20					; 00000014H
	push	esi
	mov	DWORD PTR $T4[ebp], 0

; 124  : 	return new MVSCDetection(

	push	400					; 00000190H
	mov	DWORD PTR __$EHRec$[ebp+8], 0
	call	??2@YAPAXI@Z				; operator new
	mov	esi, eax
	add	esp, 4
	mov	DWORD PTR $T3[ebp], esi
	push	DWORD PTR _env$[ebp]
	mov	BYTE PTR __$EHRec$[ebp+8], 1
; File c:\github\mvtools\sources\include\avisynth.h

; 1043 :   const AVSValue& operator[](int index) const AVS_BakedCode( return AVS_LinkCallV(AVSValue_OPERATOR_INDEX)(index) )

	mov	eax, DWORD PTR ?AVS_linkage@@3PBUAVS_Linkage@@B ; AVS_linkage
	test	eax, eax
	je	SHORT $LN13@Create_MVS
	cmp	DWORD PTR [eax], 324			; 00000144H
	jbe	SHORT $LN13@Create_MVS
	mov	eax, DWORD PTR [eax+324]
	lea	ecx, DWORD PTR _args$[ebp]
	push	5
	call	eax
	mov	ecx, eax
	mov	eax, DWORD PTR ?AVS_linkage@@3PBUAVS_Linkage@@B ; AVS_linkage
	jmp	SHORT $LN14@Create_MVS
$LN13@Create_MVS:
	lea	ecx, DWORD PTR _args$[ebp]
$LN14@Create_MVS:

; 1034 :   bool AsBool(bool def) const AVS_BakedCode( return AVS_LinkCall(AsBool2)(def) )

	test	eax, eax
	je	SHORT $LN17@Create_MVS
	cmp	DWORD PTR [eax], 376			; 00000178H
	jbe	SHORT $LN17@Create_MVS
	mov	eax, DWORD PTR [eax+376]
	push	1
	call	eax
	mov	eax, DWORD PTR ?AVS_linkage@@3PBUAVS_Linkage@@B ; AVS_linkage
$LN17@Create_MVS:
; File c:\github\mvtools\sources\interface.cpp

; 124  : 	return new MVSCDetection(

	push	ecx
; File c:\github\mvtools\sources\include\avisynth.h

; 1043 :   const AVSValue& operator[](int index) const AVS_BakedCode( return AVS_LinkCallV(AVSValue_OPERATOR_INDEX)(index) )

	test	eax, eax
	je	SHORT $LN21@Create_MVS
	cmp	DWORD PTR [eax], 324			; 00000144H
	jbe	SHORT $LN21@Create_MVS
	mov	eax, DWORD PTR [eax+324]
	lea	ecx, DWORD PTR _args$[ebp]
	push	4
	call	eax
	mov	ecx, eax
	mov	eax, DWORD PTR ?AVS_linkage@@3PBUAVS_Linkage@@B ; AVS_linkage
	jmp	SHORT $LN22@Create_MVS
$LN21@Create_MVS:
	lea	ecx, DWORD PTR _args$[ebp]
$LN22@Create_MVS:

; 1035 :   int AsInt(int def) const AVS_BakedCode( return AVS_LinkCall(AsInt2)(def) )

	test	eax, eax
	je	SHORT $LN25@Create_MVS
	cmp	DWORD PTR [eax], 380			; 0000017cH
	jbe	SHORT $LN25@Create_MVS
	mov	eax, DWORD PTR [eax+380]
	push	130					; 00000082H
	call	eax
	mov	ecx, eax
	mov	eax, DWORD PTR ?AVS_linkage@@3PBUAVS_Linkage@@B ; AVS_linkage
	jmp	SHORT $LN26@Create_MVS
$LN25@Create_MVS:
	xor	ecx, ecx
$LN26@Create_MVS:
; File c:\github\mvtools\sources\interface.cpp

; 124  : 	return new MVSCDetection(

	push	ecx
; File c:\github\mvtools\sources\include\avisynth.h

; 1043 :   const AVSValue& operator[](int index) const AVS_BakedCode( return AVS_LinkCallV(AVSValue_OPERATOR_INDEX)(index) )

	test	eax, eax
	je	SHORT $LN29@Create_MVS
	cmp	DWORD PTR [eax], 324			; 00000144H
	jbe	SHORT $LN29@Create_MVS
	mov	eax, DWORD PTR [eax+324]
	lea	ecx, DWORD PTR _args$[ebp]
	push	3
	call	eax
	mov	ecx, eax
	mov	eax, DWORD PTR ?AVS_linkage@@3PBUAVS_Linkage@@B ; AVS_linkage
	jmp	SHORT $LN30@Create_MVS
$LN29@Create_MVS:
	lea	ecx, DWORD PTR _args$[ebp]
$LN30@Create_MVS:

; 1035 :   int AsInt(int def) const AVS_BakedCode( return AVS_LinkCall(AsInt2)(def) )

	test	eax, eax
	je	SHORT $LN33@Create_MVS
	cmp	DWORD PTR [eax], 380			; 0000017cH
	jbe	SHORT $LN33@Create_MVS
	mov	eax, DWORD PTR [eax+380]
	push	400					; 00000190H
	call	eax
	mov	ecx, eax
	mov	eax, DWORD PTR ?AVS_linkage@@3PBUAVS_Linkage@@B ; AVS_linkage
	jmp	SHORT $LN34@Create_MVS
$LN33@Create_MVS:
	xor	ecx, ecx
$LN34@Create_MVS:
; File c:\github\mvtools\sources\interface.cpp

; 124  : 	return new MVSCDetection(

	push	ecx
; File c:\github\mvtools\sources\include\avisynth.h

; 1043 :   const AVSValue& operator[](int index) const AVS_BakedCode( return AVS_LinkCallV(AVSValue_OPERATOR_INDEX)(index) )

	test	eax, eax
	je	SHORT $LN37@Create_MVS
	cmp	DWORD PTR [eax], 324			; 00000144H
	jbe	SHORT $LN37@Create_MVS
	mov	eax, DWORD PTR [eax+324]
	lea	ecx, DWORD PTR _args$[ebp]
	push	2
	call	eax
	mov	ecx, eax
	mov	eax, DWORD PTR ?AVS_linkage@@3PBUAVS_Linkage@@B ; AVS_linkage
	jmp	SHORT $LN38@Create_MVS
$LN37@Create_MVS:
	lea	ecx, DWORD PTR _args$[ebp]
$LN38@Create_MVS:

; 1037 :   double AsFloat(float def) const AVS_BakedCode( return AVS_LinkCall(AsFloat2)(def) )

	test	eax, eax
	je	SHORT $LN41@Create_MVS
	cmp	DWORD PTR [eax], 388			; 00000184H
	jbe	SHORT $LN41@Create_MVS
	mov	eax, DWORD PTR [eax+388]
	push	ecx
	mov	DWORD PTR [esp], -971228160		; c61c3c00H
	call	eax
	mov	eax, DWORD PTR ?AVS_linkage@@3PBUAVS_Linkage@@B ; AVS_linkage
	fstp	QWORD PTR tv248[ebp]
	movsd	xmm0, QWORD PTR tv248[ebp]
	jmp	SHORT $LN42@Create_MVS
$LN41@Create_MVS:
	xorps	xmm0, xmm0
$LN42@Create_MVS:
; File c:\github\mvtools\sources\interface.cpp

; 124  : 	return new MVSCDetection(

	cvtpd2ps xmm0, xmm0
	movss	DWORD PTR tv304[ebp], xmm0
; File c:\github\mvtools\sources\include\avisynth.h

; 1043 :   const AVSValue& operator[](int index) const AVS_BakedCode( return AVS_LinkCallV(AVSValue_OPERATOR_INDEX)(index) )

	test	eax, eax
	je	SHORT $LN45@Create_MVS
	cmp	DWORD PTR [eax], 324			; 00000144H
	jbe	SHORT $LN45@Create_MVS
	mov	eax, DWORD PTR [eax+324]
	lea	ecx, DWORD PTR _args$[ebp]
	push	1
	call	eax
	mov	ecx, eax
	jmp	SHORT $LN46@Create_MVS
$LN45@Create_MVS:
	lea	ecx, DWORD PTR _args$[ebp]
$LN46@Create_MVS:
; File c:\github\mvtools\sources\interface.cpp

; 124  : 	return new MVSCDetection(

	push	ecx
	mov	eax, esp
	mov	DWORD PTR $T2[ebp], esp
	push	eax
	call	?AsClip@AVSValue@@QBE?AVPClip@@XZ	; AVSValue::AsClip
	mov	BYTE PTR __$EHRec$[ebp+8], 2
; File c:\github\mvtools\sources\include\avisynth.h

; 1043 :   const AVSValue& operator[](int index) const AVS_BakedCode( return AVS_LinkCallV(AVSValue_OPERATOR_INDEX)(index) )

	mov	eax, DWORD PTR ?AVS_linkage@@3PBUAVS_Linkage@@B ; AVS_linkage
	test	eax, eax
	je	SHORT $LN49@Create_MVS
	cmp	DWORD PTR [eax], 324			; 00000144H
	jbe	SHORT $LN49@Create_MVS
	mov	eax, DWORD PTR [eax+324]
	lea	ecx, DWORD PTR _args$[ebp]
	push	0
	call	eax
	mov	ecx, eax
	jmp	SHORT $LN50@Create_MVS
$LN49@Create_MVS:
	lea	ecx, DWORD PTR _args$[ebp]
$LN50@Create_MVS:
; File c:\github\mvtools\sources\interface.cpp

; 124  : 	return new MVSCDetection(

	push	ecx
	push	esp
	call	?AsClip@AVSValue@@QBE?AVPClip@@XZ	; AVSValue::AsClip
	movss	xmm3, DWORD PTR tv304[ebp]
	mov	ecx, esi
	mov	BYTE PTR __$EHRec$[ebp+8], 1
	call	??0MVSCDetection@@QAE@VPClip@@0MHH_NPAVIScriptEnvironment@@@Z ; MVSCDetection::MVSCDetection
; File c:\github\mvtools\sources\include\avisynth.h

; 999  :   AVSValue(IClip* c) AVS_BakedCode( AVS_LinkCall(AVSValue_CONSTRUCTOR1)(c) )

	mov	esi, DWORD PTR ___$ReturnUdt$[ebp]
; File c:\github\mvtools\sources\interface.cpp

; 124  : 	return new MVSCDetection(

	mov	BYTE PTR __$EHRec$[ebp+8], 0
; File c:\github\mvtools\sources\include\avisynth.h

; 999  :   AVSValue(IClip* c) AVS_BakedCode( AVS_LinkCall(AVSValue_CONSTRUCTOR1)(c) )

	mov	edx, DWORD PTR ?AVS_linkage@@3PBUAVS_Linkage@@B ; AVS_linkage
	test	edx, edx
	je	SHORT $LN53@Create_MVS
	cmp	DWORD PTR [edx], 280			; 00000118H
	jbe	SHORT $LN53@Create_MVS
	push	eax
	mov	eax, DWORD PTR [edx+280]
	mov	ecx, esi
	call	eax
	mov	edx, DWORD PTR ?AVS_linkage@@3PBUAVS_Linkage@@B ; AVS_linkage
$LN53@Create_MVS:

; 1011 :   ~AVSValue() AVS_BakedCode( AVS_LinkCall(AVSValue_DESTRUCTOR)() )

	mov	DWORD PTR __$EHRec$[ebp+8], 3
	test	edx, edx
	je	SHORT $LN60@Create_MVS
	cmp	DWORD PTR [edx], 316			; 0000013cH
	jbe	SHORT $LN60@Create_MVS
	mov	edx, DWORD PTR [edx+316]
	lea	ecx, DWORD PTR _args$[ebp]
	call	edx
$LN60@Create_MVS:
; File c:\github\mvtools\sources\interface.cpp

; 133  : }

	mov	ecx, DWORD PTR __$EHRec$[ebp]
	mov	eax, esi
	mov	DWORD PTR fs:0, ecx
	pop	esi
	mov	esp, ebp
	pop	ebp
	ret	0
_TEXT	ENDS
;	COMDAT text$x
text$x	SEGMENT
__unwindfunclet$?Create_MVSCDetection@@YA?AVAVSValue@@V1@PAXPAVIScriptEnvironment@@@Z$0:
	lea	ecx, DWORD PTR _args$[ebp]
	jmp	??1AVSValue@@QAE@XZ			; AVSValue::~AVSValue
__unwindfunclet$?Create_MVSCDetection@@YA?AVAVSValue@@V1@PAXPAVIScriptEnvironment@@@Z$1:
	push	400					; 00000190H
	mov	eax, DWORD PTR $T3[ebp]
	push	eax
	call	??3@YAXPAXI@Z				; operator delete
	add	esp, 8
	ret	0
__unwindfunclet$?Create_MVSCDetection@@YA?AVAVSValue@@V1@PAXPAVIScriptEnvironment@@@Z$2:
	mov	ecx, DWORD PTR $T2[ebp]
	jmp	??1PClip@@QAE@XZ			; PClip::~PClip
__unwindfunclet$?Create_MVSCDetection@@YA?AVAVSValue@@V1@PAXPAVIScriptEnvironment@@@Z$5:
	call	DWORD PTR __imp____std_terminate
	ret	0
__ehhandler$?Create_MVSCDetection@@YA?AVAVSValue@@V1@PAXPAVIScriptEnvironment@@@Z:
	mov	eax, OFFSET __ehfuncinfo$?Create_MVSCDetection@@YA?AVAVSValue@@V1@PAXPAVIScriptEnvironment@@@Z
	jmp	___CxxFrameHandler3
text$x	ENDS
?Create_MVSCDetection@@YA?AVAVSValue@@V1@PAXPAVIScriptEnvironment@@@Z ENDP ; Create_MVSCDetection
; Function compile flags: /Ogtpy
; File c:\github\mvtools\sources\interface.cpp
; File c:\github\mvtools\sources\include\avisynth.h
; File c:\github\mvtools\sources\interface.cpp
; File c:\github\mvtools\sources\include\avisynth.h
; File c:\github\mvtools\sources\interface.cpp
; File c:\github\mvtools\sources\include\avisynth.h
; File c:\github\mvtools\sources\interface.cpp
; File c:\github\mvtools\sources\include\avisynth.h
; File c:\github\mvtools\sources\interface.cpp
; File c:\github\mvtools\sources\include\avisynth.h
; File c:\github\mvtools\sources\interface.cpp
; File c:\github\mvtools\sources\include\avisynth.h
; File c:\github\mvtools\sources\interface.cpp
; File c:\github\mvtools\sources\include\avisynth.h
; File c:\github\mvtools\sources\interface.cpp
; File c:\github\mvtools\sources\include\avisynth.h
; File c:\github\mvtools\sources\interface.cpp
; File c:\github\mvtools\sources\include\avisynth.h
; File c:\github\mvtools\sources\interface.cpp
; File c:\github\mvtools\sources\include\avisynth.h
; File c:\github\mvtools\sources\interface.cpp
; File c:\github\mvtools\sources\include\avisynth.h
; File c:\github\mvtools\sources\interface.cpp
; File c:\github\mvtools\sources\include\avisynth.h
; File c:\github\mvtools\sources\interface.cpp
; File c:\github\mvtools\sources\include\avisynth.h
; File c:\github\mvtools\sources\interface.cpp
; File c:\github\mvtools\sources\include\avisynth.h
; File c:\github\mvtools\sources\interface.cpp
; File c:\github\mvtools\sources\include\avisynth.h
; File c:\github\mvtools\sources\interface.cpp
; File c:\github\mvtools\sources\include\avisynth.h
; File c:\github\mvtools\sources\interface.cpp
; File c:\github\mvtools\sources\include\avisynth.h
; File c:\github\mvtools\sources\interface.cpp
; File c:\github\mvtools\sources\include\avisynth.h
; File c:\github\mvtools\sources\interface.cpp
; File c:\github\mvtools\sources\include\avisynth.h
; File c:\github\mvtools\sources\interface.cpp
; File c:\github\mvtools\sources\include\avisynth.h
; File c:\github\mvtools\sources\interface.cpp
; File c:\github\mvtools\sources\include\avisynth.h
; File c:\github\mvtools\sources\interface.cpp
; File c:\github\mvtools\sources\include\avisynth.h
; File c:\github\mvtools\sources\interface.cpp
; File c:\github\mvtools\sources\include\avisynth.h
; File c:\github\mvtools\sources\interface.cpp
; File c:\github\mvtools\sources\include\avisynth.h
; File c:\github\mvtools\sources\interface.cpp
; File c:\github\mvtools\sources\include\avisynth.h
; File c:\github\mvtools\sources\interface.cpp
; File c:\github\mvtools\sources\include\avisynth.h
; File c:\github\mvtools\sources\interface.cpp
; File c:\github\mvtools\sources\include\avisynth.h
; File c:\github\mvtools\sources\interface.cpp
; File c:\github\mvtools\sources\include\avisynth.h
; File c:\github\mvtools\sources\interface.cpp
; File c:\github\mvtools\sources\include\avisynth.h
; File c:\github\mvtools\sources\interface.cpp
; File c:\github\mvtools\sources\include\avisynth.h
; File c:\github\mvtools\sources\interface.cpp
;	COMDAT ?Create_MVAnalyse@@YA?AVAVSValue@@V1@PAXPAVIScriptEnvironment@@@Z
_TEXT	SEGMENT
$T2 = -40						; size = 4
_blksize$1$ = -36					; size = 4
_blksizeV$1$ = -32					; size = 4
_overlap$1$ = -28					; size = 4
_lambda$1$ = -24					; size = 4
_global$ = -20						; size = 1
_lsad$1$ = -16						; size = 4
$T3 = -16						; size = 4
__$EHRec$ = -12						; size = 12
___$ReturnUdt$ = 8					; size = 4
_args$ = 12						; size = 8
_user_data$ = 20					; size = 4
_env$ = 24						; size = 4
?Create_MVAnalyse@@YA?AVAVSValue@@V1@PAXPAVIScriptEnvironment@@@Z PROC ; Create_MVAnalyse, COMDAT

; 136  : {

	push	ebp
	mov	ebp, esp
	push	-1
	push	__ehhandler$?Create_MVAnalyse@@YA?AVAVSValue@@V1@PAXPAVIScriptEnvironment@@@Z
	mov	eax, DWORD PTR fs:0
	push	eax
	mov	DWORD PTR fs:0, esp
	sub	esp, 28					; 0000001cH
	push	ebx
	push	esi
	push	edi
	mov	DWORD PTR $T2[ebp], 0
	mov	DWORD PTR __$EHRec$[ebp+8], 0
; File c:\github\mvtools\sources\include\avisynth.h

; 1043 :   const AVSValue& operator[](int index) const AVS_BakedCode( return AVS_LinkCallV(AVSValue_OPERATOR_INDEX)(index) )

	mov	eax, DWORD PTR ?AVS_linkage@@3PBUAVS_Linkage@@B ; AVS_linkage
	test	eax, eax
	je	SHORT $LN14@Create_MVA
	cmp	DWORD PTR [eax], 324			; 00000144H
	jbe	SHORT $LN14@Create_MVA
	mov	eax, DWORD PTR [eax+324]
	lea	ecx, DWORD PTR _args$[ebp]
	push	1
	call	eax
	mov	ecx, eax
	mov	eax, DWORD PTR ?AVS_linkage@@3PBUAVS_Linkage@@B ; AVS_linkage
	jmp	SHORT $LN15@Create_MVA
$LN14@Create_MVA:
	lea	ecx, DWORD PTR _args$[ebp]
$LN15@Create_MVA:

; 1035 :   int AsInt(int def) const AVS_BakedCode( return AVS_LinkCall(AsInt2)(def) )

	test	eax, eax
	je	SHORT $LN18@Create_MVA
	cmp	DWORD PTR [eax], 380			; 0000017cH
	jbe	SHORT $LN18@Create_MVA
	mov	eax, DWORD PTR [eax+380]
	push	8
	call	eax
	mov	ebx, eax
	mov	DWORD PTR _blksize$1$[ebp], eax
	mov	eax, DWORD PTR ?AVS_linkage@@3PBUAVS_Linkage@@B ; AVS_linkage
	jmp	SHORT $LN19@Create_MVA
$LN18@Create_MVA:
	xor	ebx, ebx
	mov	DWORD PTR _blksize$1$[ebp], ebx
$LN19@Create_MVA:

; 1043 :   const AVSValue& operator[](int index) const AVS_BakedCode( return AVS_LinkCallV(AVSValue_OPERATOR_INDEX)(index) )

	test	eax, eax
	je	SHORT $LN22@Create_MVA
	cmp	DWORD PTR [eax], 324			; 00000144H
	jbe	SHORT $LN22@Create_MVA
	mov	eax, DWORD PTR [eax+324]
	lea	ecx, DWORD PTR _args$[ebp]
	push	2
	call	eax
	mov	ecx, eax
	mov	eax, DWORD PTR ?AVS_linkage@@3PBUAVS_Linkage@@B ; AVS_linkage
	jmp	SHORT $LN23@Create_MVA
$LN22@Create_MVA:
	lea	ecx, DWORD PTR _args$[ebp]
$LN23@Create_MVA:

; 1035 :   int AsInt(int def) const AVS_BakedCode( return AVS_LinkCall(AsInt2)(def) )

	test	eax, eax
	je	SHORT $LN26@Create_MVA
	cmp	DWORD PTR [eax], 380			; 0000017cH
	jbe	SHORT $LN26@Create_MVA
	mov	eax, DWORD PTR [eax+380]
	push	ebx
	call	eax
	mov	edi, eax
	mov	DWORD PTR _blksizeV$1$[ebp], eax
	mov	eax, DWORD PTR ?AVS_linkage@@3PBUAVS_Linkage@@B ; AVS_linkage
	jmp	SHORT $LN27@Create_MVA
$LN26@Create_MVA:
	xor	edi, edi
	mov	DWORD PTR _blksizeV$1$[ebp], edi
$LN27@Create_MVA:

; 1043 :   const AVSValue& operator[](int index) const AVS_BakedCode( return AVS_LinkCallV(AVSValue_OPERATOR_INDEX)(index) )

	test	eax, eax
	je	SHORT $LN30@Create_MVA
	cmp	DWORD PTR [eax], 324			; 00000144H
	jbe	SHORT $LN30@Create_MVA
	mov	eax, DWORD PTR [eax+324]
	lea	ecx, DWORD PTR _args$[ebp]
	push	18					; 00000012H
	call	eax
	mov	ecx, eax
	mov	eax, DWORD PTR ?AVS_linkage@@3PBUAVS_Linkage@@B ; AVS_linkage
	jmp	SHORT $LN31@Create_MVA
$LN30@Create_MVA:
	lea	ecx, DWORD PTR _args$[ebp]
$LN31@Create_MVA:

; 1035 :   int AsInt(int def) const AVS_BakedCode( return AVS_LinkCall(AsInt2)(def) )

	test	eax, eax
	je	SHORT $LN34@Create_MVA
	cmp	DWORD PTR [eax], 380			; 0000017cH
	jbe	SHORT $LN34@Create_MVA
	mov	eax, DWORD PTR [eax+380]
	push	0
	call	eax
	mov	DWORD PTR _overlap$1$[ebp], eax
	mov	eax, DWORD PTR ?AVS_linkage@@3PBUAVS_Linkage@@B ; AVS_linkage
	jmp	SHORT $LN35@Create_MVA
$LN34@Create_MVA:
	mov	DWORD PTR _overlap$1$[ebp], 0
$LN35@Create_MVA:

; 1043 :   const AVSValue& operator[](int index) const AVS_BakedCode( return AVS_LinkCallV(AVSValue_OPERATOR_INDEX)(index) )

	test	eax, eax
	je	SHORT $LN38@Create_MVA
	cmp	DWORD PTR [eax], 324			; 00000144H
	jbe	SHORT $LN38@Create_MVA
	mov	eax, DWORD PTR [eax+324]
	lea	ecx, DWORD PTR _args$[ebp]
	push	11					; 0000000bH
	call	eax
	mov	ecx, eax
	mov	eax, DWORD PTR ?AVS_linkage@@3PBUAVS_Linkage@@B ; AVS_linkage
	jmp	SHORT $LN39@Create_MVA
$LN38@Create_MVA:
	lea	ecx, DWORD PTR _args$[ebp]
$LN39@Create_MVA:

; 1034 :   bool AsBool(bool def) const AVS_BakedCode( return AVS_LinkCall(AsBool2)(def) )

	test	eax, eax
	je	$LN86@Create_MVA
	cmp	DWORD PTR [eax], 376			; 00000178H
	jbe	$LN2@Create_MVA
	mov	eax, DWORD PTR [eax+376]
	push	1
	call	eax
; File c:\github\mvtools\sources\interface.cpp

; 148  : 	if (truemotion)

	test	al, al
	je	$LN315@Create_MVA
; File c:\github\mvtools\sources\include\avisynth.h

; 1043 :   const AVSValue& operator[](int index) const AVS_BakedCode( return AVS_LinkCallV(AVSValue_OPERATOR_INDEX)(index) )

	mov	esi, DWORD PTR ?AVS_linkage@@3PBUAVS_Linkage@@B ; AVS_linkage
	test	esi, esi
	je	SHORT $LN46@Create_MVA
	cmp	DWORD PTR [esi], 324			; 00000144H
	jbe	SHORT $LN46@Create_MVA
	mov	eax, DWORD PTR [esi+324]
	lea	ecx, DWORD PTR _args$[ebp]
	push	8
	call	eax
	mov	esi, DWORD PTR ?AVS_linkage@@3PBUAVS_Linkage@@B ; AVS_linkage
	mov	ecx, eax
	jmp	SHORT $LN47@Create_MVA
$LN46@Create_MVA:
	lea	ecx, DWORD PTR _args$[ebp]
$LN47@Create_MVA:

; 1035 :   int AsInt(int def) const AVS_BakedCode( return AVS_LinkCall(AsInt2)(def) )

	test	esi, esi
	je	SHORT $LN50@Create_MVA
	cmp	DWORD PTR [esi], 380			; 0000017cH
	jbe	SHORT $LN50@Create_MVA
; File c:\github\mvtools\sources\interface.cpp

; 150  : 		lambda = args[ 8].AsInt(1000*blksize*blksizeV/64);

	mov	eax, edi
	imul	eax, ebx
	imul	eax, eax, 1000
	cdq
	and	edx, 63					; 0000003fH
	add	eax, edx
	sar	eax, 6
; File c:\github\mvtools\sources\include\avisynth.h

; 1035 :   int AsInt(int def) const AVS_BakedCode( return AVS_LinkCall(AsInt2)(def) )

	push	eax
	mov	eax, DWORD PTR [esi+380]
	call	eax
	mov	esi, DWORD PTR ?AVS_linkage@@3PBUAVS_Linkage@@B ; AVS_linkage
	mov	DWORD PTR _lambda$1$[ebp], eax
	jmp	SHORT $LN51@Create_MVA
$LN50@Create_MVA:
	mov	DWORD PTR _lambda$1$[ebp], 0
$LN51@Create_MVA:

; 1043 :   const AVSValue& operator[](int index) const AVS_BakedCode( return AVS_LinkCallV(AVSValue_OPERATOR_INDEX)(index) )

	test	esi, esi
	je	SHORT $LN54@Create_MVA
	cmp	DWORD PTR [esi], 324			; 00000144H
	jbe	SHORT $LN54@Create_MVA
	mov	eax, DWORD PTR [esi+324]
	lea	ecx, DWORD PTR _args$[ebp]
	push	12					; 0000000cH
	call	eax
	mov	esi, DWORD PTR ?AVS_linkage@@3PBUAVS_Linkage@@B ; AVS_linkage
	jmp	SHORT $LN55@Create_MVA
$LN54@Create_MVA:
	lea	eax, DWORD PTR _args$[ebp]
$LN55@Create_MVA:

; 1035 :   int AsInt(int def) const AVS_BakedCode( return AVS_LinkCall(AsInt2)(def) )

	test	esi, esi
	je	SHORT $LN58@Create_MVA
	cmp	DWORD PTR [esi], 380			; 0000017cH
	jbe	SHORT $LN58@Create_MVA
	mov	ecx, eax
	mov	eax, DWORD PTR [esi+380]
	push	1200					; 000004b0H
	call	eax
	mov	esi, DWORD PTR ?AVS_linkage@@3PBUAVS_Linkage@@B ; AVS_linkage
	mov	DWORD PTR _lsad$1$[ebp], eax
	jmp	SHORT $LN59@Create_MVA
$LN58@Create_MVA:
	mov	DWORD PTR _lsad$1$[ebp], 0
$LN59@Create_MVA:

; 1043 :   const AVSValue& operator[](int index) const AVS_BakedCode( return AVS_LinkCallV(AVSValue_OPERATOR_INDEX)(index) )

	test	esi, esi
	je	SHORT $LN62@Create_MVA
	cmp	DWORD PTR [esi], 324			; 00000144H
	jbe	SHORT $LN62@Create_MVA
	mov	eax, DWORD PTR [esi+324]
	lea	ecx, DWORD PTR _args$[ebp]
	push	15					; 0000000fH
	call	eax
	mov	esi, DWORD PTR ?AVS_linkage@@3PBUAVS_Linkage@@B ; AVS_linkage
	jmp	SHORT $LN63@Create_MVA
$LN62@Create_MVA:
	lea	eax, DWORD PTR _args$[ebp]
$LN63@Create_MVA:

; 1035 :   int AsInt(int def) const AVS_BakedCode( return AVS_LinkCall(AsInt2)(def) )

	test	esi, esi
	je	SHORT $LN66@Create_MVA
	cmp	DWORD PTR [esi], 380			; 0000017cH
	jbe	SHORT $LN66@Create_MVA
	mov	ecx, eax
	mov	eax, DWORD PTR [esi+380]
	push	50					; 00000032H
	call	eax
	mov	esi, DWORD PTR ?AVS_linkage@@3PBUAVS_Linkage@@B ; AVS_linkage
	mov	ebx, eax
	jmp	SHORT $LN67@Create_MVA
$LN66@Create_MVA:
	xor	ebx, ebx
$LN67@Create_MVA:

; 1043 :   const AVSValue& operator[](int index) const AVS_BakedCode( return AVS_LinkCallV(AVSValue_OPERATOR_INDEX)(index) )

	test	esi, esi
	je	SHORT $LN70@Create_MVA
	cmp	DWORD PTR [esi], 324			; 00000144H
	jbe	SHORT $LN70@Create_MVA
	mov	eax, DWORD PTR [esi+324]
	lea	ecx, DWORD PTR _args$[ebp]
	push	13					; 0000000dH
	call	eax
	mov	esi, DWORD PTR ?AVS_linkage@@3PBUAVS_Linkage@@B ; AVS_linkage
	jmp	SHORT $LN71@Create_MVA
$LN70@Create_MVA:
	lea	eax, DWORD PTR _args$[ebp]
$LN71@Create_MVA:

; 1035 :   int AsInt(int def) const AVS_BakedCode( return AVS_LinkCall(AsInt2)(def) )

	test	esi, esi
	je	SHORT $LN74@Create_MVA
	cmp	DWORD PTR [esi], 380			; 0000017cH
	jbe	SHORT $LN74@Create_MVA
	mov	ecx, eax
	mov	eax, DWORD PTR [esi+380]
	push	1
	call	eax
	mov	esi, DWORD PTR ?AVS_linkage@@3PBUAVS_Linkage@@B ; AVS_linkage
	mov	edi, eax
	jmp	SHORT $LN75@Create_MVA
$LN74@Create_MVA:
	xor	edi, edi
$LN75@Create_MVA:

; 1043 :   const AVSValue& operator[](int index) const AVS_BakedCode( return AVS_LinkCallV(AVSValue_OPERATOR_INDEX)(index) )

	test	esi, esi
	je	SHORT $LN78@Create_MVA
	cmp	DWORD PTR [esi], 324			; 00000144H
	jbe	SHORT $LN78@Create_MVA
	mov	eax, DWORD PTR [esi+324]
	lea	ecx, DWORD PTR _args$[ebp]
	push	14					; 0000000eH
	call	eax
	mov	esi, DWORD PTR ?AVS_linkage@@3PBUAVS_Linkage@@B ; AVS_linkage
	jmp	SHORT $LN79@Create_MVA
$LN78@Create_MVA:
	lea	eax, DWORD PTR _args$[ebp]
$LN79@Create_MVA:

; 1034 :   bool AsBool(bool def) const AVS_BakedCode( return AVS_LinkCall(AsBool2)(def) )

	test	esi, esi
	je	SHORT $LN82@Create_MVA
	cmp	DWORD PTR [esi], 376			; 00000178H
	jbe	SHORT $LN82@Create_MVA
	mov	ecx, eax
	mov	eax, DWORD PTR [esi+376]
	push	1
	call	eax
	mov	esi, DWORD PTR _lsad$1$[ebp]
	mov	BYTE PTR _global$[ebp], al
	jmp	SHORT $LN123@Create_MVA
$LN82@Create_MVA:
; File c:\github\mvtools\sources\interface.cpp

; 156  : 	else // old versions 0.9.9.1 compatibility mode

	mov	esi, DWORD PTR _lsad$1$[ebp]
$LN122@Create_MVA:
; File c:\github\mvtools\sources\include\avisynth.h

; 1034 :   bool AsBool(bool def) const AVS_BakedCode( return AVS_LinkCall(AsBool2)(def) )

	mov	BYTE PTR _global$[ebp], 0
$LN123@Create_MVA:
; File c:\github\mvtools\sources\interface.cpp

; 165  :    return new MVAnalyse(

	push	584					; 00000248H
	call	??2@YAPAXI@Z				; operator new
	add	esp, 4
	mov	DWORD PTR $T3[ebp], eax
	push	DWORD PTR _env$[ebp]
	mov	BYTE PTR __$EHRec$[ebp+8], 1
; File c:\github\mvtools\sources\include\avisynth.h

; 1043 :   const AVSValue& operator[](int index) const AVS_BakedCode( return AVS_LinkCallV(AVSValue_OPERATOR_INDEX)(index) )

	mov	eax, DWORD PTR ?AVS_linkage@@3PBUAVS_Linkage@@B ; AVS_linkage
	test	eax, eax
	je	$LN126@Create_MVA
	cmp	DWORD PTR [eax], 324			; 00000144H
	jbe	$LN126@Create_MVA
	mov	eax, DWORD PTR [eax+324]
	lea	ecx, DWORD PTR _args$[ebp]
	push	31					; 0000001fH
	call	eax
	mov	ecx, eax
	mov	eax, DWORD PTR ?AVS_linkage@@3PBUAVS_Linkage@@B ; AVS_linkage
	jmp	$LN127@Create_MVA
$LN315@Create_MVA:
; File c:\github\mvtools\sources\interface.cpp

; 156  : 	else // old versions 0.9.9.1 compatibility mode

	mov	eax, DWORD PTR ?AVS_linkage@@3PBUAVS_Linkage@@B ; AVS_linkage
$LN2@Create_MVA:
; File c:\github\mvtools\sources\include\avisynth.h

; 1043 :   const AVSValue& operator[](int index) const AVS_BakedCode( return AVS_LinkCallV(AVSValue_OPERATOR_INDEX)(index) )

	test	eax, eax
	je	SHORT $LN86@Create_MVA
	cmp	DWORD PTR [eax], 324			; 00000144H
	jbe	SHORT $LN86@Create_MVA
	mov	eax, DWORD PTR [eax+324]
	lea	ecx, DWORD PTR _args$[ebp]
	push	8
	call	eax
	mov	ecx, eax
	mov	eax, DWORD PTR ?AVS_linkage@@3PBUAVS_Linkage@@B ; AVS_linkage
	jmp	SHORT $LN87@Create_MVA
$LN86@Create_MVA:
	lea	ecx, DWORD PTR _args$[ebp]
$LN87@Create_MVA:

; 1035 :   int AsInt(int def) const AVS_BakedCode( return AVS_LinkCall(AsInt2)(def) )

	test	eax, eax
	je	SHORT $LN90@Create_MVA
	cmp	DWORD PTR [eax], 380			; 0000017cH
	jbe	SHORT $LN90@Create_MVA
	mov	eax, DWORD PTR [eax+380]
	push	0
	call	eax
	mov	DWORD PTR _lambda$1$[ebp], eax
	mov	eax, DWORD PTR ?AVS_linkage@@3PBUAVS_Linkage@@B ; AVS_linkage
	jmp	SHORT $LN91@Create_MVA
$LN90@Create_MVA:
	mov	DWORD PTR _lambda$1$[ebp], 0
$LN91@Create_MVA:

; 1043 :   const AVSValue& operator[](int index) const AVS_BakedCode( return AVS_LinkCallV(AVSValue_OPERATOR_INDEX)(index) )

	test	eax, eax
	je	SHORT $LN94@Create_MVA
	cmp	DWORD PTR [eax], 324			; 00000144H
	jbe	SHORT $LN94@Create_MVA
	mov	eax, DWORD PTR [eax+324]
	lea	ecx, DWORD PTR _args$[ebp]
	push	12					; 0000000cH
	call	eax
	mov	ecx, eax
	mov	eax, DWORD PTR ?AVS_linkage@@3PBUAVS_Linkage@@B ; AVS_linkage
	jmp	SHORT $LN95@Create_MVA
$LN94@Create_MVA:
	lea	ecx, DWORD PTR _args$[ebp]
$LN95@Create_MVA:

; 1035 :   int AsInt(int def) const AVS_BakedCode( return AVS_LinkCall(AsInt2)(def) )

	test	eax, eax
	je	SHORT $LN98@Create_MVA
	cmp	DWORD PTR [eax], 380			; 0000017cH
	jbe	SHORT $LN98@Create_MVA
	mov	eax, DWORD PTR [eax+380]
	push	400					; 00000190H
	call	eax
	mov	DWORD PTR _lsad$1$[ebp], eax
	mov	eax, DWORD PTR ?AVS_linkage@@3PBUAVS_Linkage@@B ; AVS_linkage
	mov	esi, DWORD PTR _lsad$1$[ebp]
	jmp	SHORT $LN99@Create_MVA
$LN98@Create_MVA:
	xor	esi, esi
$LN99@Create_MVA:

; 1043 :   const AVSValue& operator[](int index) const AVS_BakedCode( return AVS_LinkCallV(AVSValue_OPERATOR_INDEX)(index) )

	test	eax, eax
	je	SHORT $LN102@Create_MVA
	cmp	DWORD PTR [eax], 324			; 00000144H
	jbe	SHORT $LN102@Create_MVA
	mov	eax, DWORD PTR [eax+324]
	lea	ecx, DWORD PTR _args$[ebp]
	push	15					; 0000000fH
	call	eax
	mov	ecx, eax
	mov	eax, DWORD PTR ?AVS_linkage@@3PBUAVS_Linkage@@B ; AVS_linkage
	jmp	SHORT $LN103@Create_MVA
$LN102@Create_MVA:
	lea	ecx, DWORD PTR _args$[ebp]
$LN103@Create_MVA:

; 1035 :   int AsInt(int def) const AVS_BakedCode( return AVS_LinkCall(AsInt2)(def) )

	test	eax, eax
	je	SHORT $LN106@Create_MVA
	cmp	DWORD PTR [eax], 380			; 0000017cH
	jbe	SHORT $LN106@Create_MVA
	mov	eax, DWORD PTR [eax+380]
	push	0
	call	eax
	mov	ebx, eax
	mov	eax, DWORD PTR ?AVS_linkage@@3PBUAVS_Linkage@@B ; AVS_linkage
	jmp	SHORT $LN107@Create_MVA
$LN106@Create_MVA:
	xor	ebx, ebx
$LN107@Create_MVA:

; 1043 :   const AVSValue& operator[](int index) const AVS_BakedCode( return AVS_LinkCallV(AVSValue_OPERATOR_INDEX)(index) )

	test	eax, eax
	je	SHORT $LN110@Create_MVA
	cmp	DWORD PTR [eax], 324			; 00000144H
	jbe	SHORT $LN110@Create_MVA
	mov	eax, DWORD PTR [eax+324]
	lea	ecx, DWORD PTR _args$[ebp]
	push	13					; 0000000dH
	call	eax
	mov	ecx, eax
	mov	eax, DWORD PTR ?AVS_linkage@@3PBUAVS_Linkage@@B ; AVS_linkage
	jmp	SHORT $LN111@Create_MVA
$LN110@Create_MVA:
	lea	ecx, DWORD PTR _args$[ebp]
$LN111@Create_MVA:

; 1035 :   int AsInt(int def) const AVS_BakedCode( return AVS_LinkCall(AsInt2)(def) )

	test	eax, eax
	je	SHORT $LN114@Create_MVA
	cmp	DWORD PTR [eax], 380			; 0000017cH
	jbe	SHORT $LN114@Create_MVA
	mov	eax, DWORD PTR [eax+380]
	push	0
	call	eax
	mov	edi, eax
	mov	eax, DWORD PTR ?AVS_linkage@@3PBUAVS_Linkage@@B ; AVS_linkage
	jmp	SHORT $LN115@Create_MVA
$LN114@Create_MVA:
	xor	edi, edi
$LN115@Create_MVA:

; 1043 :   const AVSValue& operator[](int index) const AVS_BakedCode( return AVS_LinkCallV(AVSValue_OPERATOR_INDEX)(index) )

	test	eax, eax
	je	SHORT $LN118@Create_MVA
	cmp	DWORD PTR [eax], 324			; 00000144H
	jbe	SHORT $LN118@Create_MVA
	mov	eax, DWORD PTR [eax+324]
	lea	ecx, DWORD PTR _args$[ebp]
	push	14					; 0000000eH
	call	eax
	mov	ecx, eax
	mov	eax, DWORD PTR ?AVS_linkage@@3PBUAVS_Linkage@@B ; AVS_linkage
	jmp	SHORT $LN119@Create_MVA
$LN118@Create_MVA:
	lea	ecx, DWORD PTR _args$[ebp]
$LN119@Create_MVA:

; 1034 :   bool AsBool(bool def) const AVS_BakedCode( return AVS_LinkCall(AsBool2)(def) )

	test	eax, eax
	je	$LN122@Create_MVA
	cmp	DWORD PTR [eax], 376			; 00000178H
	jbe	$LN122@Create_MVA
	mov	eax, DWORD PTR [eax+376]
	push	0
	call	eax
	mov	BYTE PTR _global$[ebp], al
	jmp	$LN123@Create_MVA
$LN126@Create_MVA:

; 1043 :   const AVSValue& operator[](int index) const AVS_BakedCode( return AVS_LinkCallV(AVSValue_OPERATOR_INDEX)(index) )

	lea	ecx, DWORD PTR _args$[ebp]
$LN127@Create_MVA:

; 1034 :   bool AsBool(bool def) const AVS_BakedCode( return AVS_LinkCall(AsBool2)(def) )

	test	eax, eax
	je	SHORT $LN130@Create_MVA
	cmp	DWORD PTR [eax], 376			; 00000178H
	jbe	SHORT $LN130@Create_MVA
	mov	eax, DWORD PTR [eax+376]
	push	1
	call	eax
	movzx	ecx, al
	mov	eax, DWORD PTR ?AVS_linkage@@3PBUAVS_Linkage@@B ; AVS_linkage
	jmp	SHORT $LN131@Create_MVA
$LN130@Create_MVA:
	xor	ecx, ecx
$LN131@Create_MVA:
; File c:\github\mvtools\sources\interface.cpp

; 165  :    return new MVAnalyse(

	push	ecx
; File c:\github\mvtools\sources\include\avisynth.h

; 1043 :   const AVSValue& operator[](int index) const AVS_BakedCode( return AVS_LinkCallV(AVSValue_OPERATOR_INDEX)(index) )

	test	eax, eax
	je	SHORT $LN134@Create_MVA
	cmp	DWORD PTR [eax], 324			; 00000144H
	jbe	SHORT $LN134@Create_MVA
	mov	eax, DWORD PTR [eax+324]
	lea	ecx, DWORD PTR _args$[ebp]
	push	30					; 0000001eH
	call	eax
	mov	ecx, eax
	mov	eax, DWORD PTR ?AVS_linkage@@3PBUAVS_Linkage@@B ; AVS_linkage
	jmp	SHORT $LN135@Create_MVA
$LN134@Create_MVA:
	lea	ecx, DWORD PTR _args$[ebp]
$LN135@Create_MVA:

; 1034 :   bool AsBool(bool def) const AVS_BakedCode( return AVS_LinkCall(AsBool2)(def) )

	test	eax, eax
	je	SHORT $LN138@Create_MVA
	cmp	DWORD PTR [eax], 376			; 00000178H
	jbe	SHORT $LN138@Create_MVA
	mov	eax, DWORD PTR [eax+376]
	push	0
	call	eax
	movzx	ecx, al
	mov	eax, DWORD PTR ?AVS_linkage@@3PBUAVS_Linkage@@B ; AVS_linkage
	jmp	SHORT $LN139@Create_MVA
$LN138@Create_MVA:
	xor	ecx, ecx
$LN139@Create_MVA:
; File c:\github\mvtools\sources\interface.cpp

; 165  :    return new MVAnalyse(

	push	ecx
; File c:\github\mvtools\sources\include\avisynth.h

; 1043 :   const AVSValue& operator[](int index) const AVS_BakedCode( return AVS_LinkCallV(AVSValue_OPERATOR_INDEX)(index) )

	test	eax, eax
	je	SHORT $LN142@Create_MVA
	cmp	DWORD PTR [eax], 324			; 00000144H
	jbe	SHORT $LN142@Create_MVA
	mov	eax, DWORD PTR [eax+324]
	lea	ecx, DWORD PTR _args$[ebp]
	push	29					; 0000001dH
	call	eax
	mov	ecx, eax
	mov	eax, DWORD PTR ?AVS_linkage@@3PBUAVS_Linkage@@B ; AVS_linkage
	jmp	SHORT $LN143@Create_MVA
$LN142@Create_MVA:
	lea	ecx, DWORD PTR _args$[ebp]
$LN143@Create_MVA:

; 1034 :   bool AsBool(bool def) const AVS_BakedCode( return AVS_LinkCall(AsBool2)(def) )

	test	eax, eax
	je	SHORT $LN146@Create_MVA
	cmp	DWORD PTR [eax], 376			; 00000178H
	jbe	SHORT $LN146@Create_MVA
	mov	eax, DWORD PTR [eax+376]
	push	0
	call	eax
	movzx	ecx, al
	mov	eax, DWORD PTR ?AVS_linkage@@3PBUAVS_Linkage@@B ; AVS_linkage
	jmp	SHORT $LN147@Create_MVA
$LN146@Create_MVA:
	xor	ecx, ecx
$LN147@Create_MVA:
; File c:\github\mvtools\sources\interface.cpp

; 165  :    return new MVAnalyse(

	push	ecx
; File c:\github\mvtools\sources\include\avisynth.h

; 1043 :   const AVSValue& operator[](int index) const AVS_BakedCode( return AVS_LinkCallV(AVSValue_OPERATOR_INDEX)(index) )

	test	eax, eax
	je	SHORT $LN150@Create_MVA
	cmp	DWORD PTR [eax], 324			; 00000144H
	jbe	SHORT $LN150@Create_MVA
	mov	eax, DWORD PTR [eax+324]
	lea	ecx, DWORD PTR _args$[ebp]
	push	28					; 0000001cH
	call	eax
	mov	ecx, eax
	mov	eax, DWORD PTR ?AVS_linkage@@3PBUAVS_Linkage@@B ; AVS_linkage
	jmp	SHORT $LN151@Create_MVA
$LN150@Create_MVA:
	lea	ecx, DWORD PTR _args$[ebp]
$LN151@Create_MVA:

; 1034 :   bool AsBool(bool def) const AVS_BakedCode( return AVS_LinkCall(AsBool2)(def) )

	test	eax, eax
	je	SHORT $LN154@Create_MVA
	cmp	DWORD PTR [eax], 376			; 00000178H
	jbe	SHORT $LN154@Create_MVA
	mov	eax, DWORD PTR [eax+376]
	push	0
	call	eax
	movzx	ecx, al
	mov	eax, DWORD PTR ?AVS_linkage@@3PBUAVS_Linkage@@B ; AVS_linkage
	jmp	SHORT $LN155@Create_MVA
$LN154@Create_MVA:
	xor	ecx, ecx
$LN155@Create_MVA:
; File c:\github\mvtools\sources\interface.cpp

; 165  :    return new MVAnalyse(

	push	ecx
; File c:\github\mvtools\sources\include\avisynth.h

; 1043 :   const AVSValue& operator[](int index) const AVS_BakedCode( return AVS_LinkCallV(AVSValue_OPERATOR_INDEX)(index) )

	test	eax, eax
	je	SHORT $LN158@Create_MVA
	cmp	DWORD PTR [eax], 324			; 00000144H
	jbe	SHORT $LN158@Create_MVA
	mov	eax, DWORD PTR [eax+324]
	lea	ecx, DWORD PTR _args$[ebp]
	push	27					; 0000001bH
	call	eax
	mov	ecx, eax
	mov	eax, DWORD PTR ?AVS_linkage@@3PBUAVS_Linkage@@B ; AVS_linkage
	jmp	SHORT $LN159@Create_MVA
$LN158@Create_MVA:
	lea	ecx, DWORD PTR _args$[ebp]
$LN159@Create_MVA:

; 1034 :   bool AsBool(bool def) const AVS_BakedCode( return AVS_LinkCall(AsBool2)(def) )

	test	eax, eax
	je	SHORT $LN162@Create_MVA
	cmp	DWORD PTR [eax], 376			; 00000178H
	jbe	SHORT $LN162@Create_MVA
	mov	eax, DWORD PTR [eax+376]
	push	1
	call	eax
	movzx	ecx, al
	mov	eax, DWORD PTR ?AVS_linkage@@3PBUAVS_Linkage@@B ; AVS_linkage
	jmp	SHORT $LN163@Create_MVA
$LN162@Create_MVA:
	xor	ecx, ecx
$LN163@Create_MVA:
; File c:\github\mvtools\sources\interface.cpp

; 165  :    return new MVAnalyse(

	push	ecx
; File c:\github\mvtools\sources\include\avisynth.h

; 1043 :   const AVSValue& operator[](int index) const AVS_BakedCode( return AVS_LinkCallV(AVSValue_OPERATOR_INDEX)(index) )

	test	eax, eax
	je	SHORT $LN166@Create_MVA
	cmp	DWORD PTR [eax], 324			; 00000144H
	jbe	SHORT $LN166@Create_MVA
	mov	eax, DWORD PTR [eax+324]
	lea	ecx, DWORD PTR _args$[ebp]
	push	26					; 0000001aH
	call	eax
	mov	ecx, eax
	mov	eax, DWORD PTR ?AVS_linkage@@3PBUAVS_Linkage@@B ; AVS_linkage
	jmp	SHORT $LN167@Create_MVA
$LN166@Create_MVA:
	lea	ecx, DWORD PTR _args$[ebp]
$LN167@Create_MVA:

; 1034 :   bool AsBool(bool def) const AVS_BakedCode( return AVS_LinkCall(AsBool2)(def) )

	test	eax, eax
	je	SHORT $LN170@Create_MVA
	cmp	DWORD PTR [eax], 376			; 00000178H
	jbe	SHORT $LN170@Create_MVA
	mov	eax, DWORD PTR [eax+376]
	push	1
	call	eax
	movzx	ecx, al
	mov	eax, DWORD PTR ?AVS_linkage@@3PBUAVS_Linkage@@B ; AVS_linkage
	jmp	SHORT $LN171@Create_MVA
$LN170@Create_MVA:
	xor	ecx, ecx
$LN171@Create_MVA:
; File c:\github\mvtools\sources\interface.cpp

; 165  :    return new MVAnalyse(

	push	ecx
; File c:\github\mvtools\sources\include\avisynth.h

; 1043 :   const AVSValue& operator[](int index) const AVS_BakedCode( return AVS_LinkCallV(AVSValue_OPERATOR_INDEX)(index) )

	test	eax, eax
	je	SHORT $LN174@Create_MVA
	cmp	DWORD PTR [eax], 324			; 00000144H
	jbe	SHORT $LN174@Create_MVA
	mov	eax, DWORD PTR [eax+324]
	lea	ecx, DWORD PTR _args$[ebp]
	push	25					; 00000019H
	call	eax
	mov	ecx, eax
	mov	eax, DWORD PTR ?AVS_linkage@@3PBUAVS_Linkage@@B ; AVS_linkage
	jmp	SHORT $LN175@Create_MVA
$LN174@Create_MVA:
	lea	ecx, DWORD PTR _args$[ebp]
$LN175@Create_MVA:

; 1035 :   int AsInt(int def) const AVS_BakedCode( return AVS_LinkCall(AsInt2)(def) )

	test	eax, eax
	je	SHORT $LN178@Create_MVA
	cmp	DWORD PTR [eax], 380			; 0000017cH
	jbe	SHORT $LN178@Create_MVA
	mov	eax, DWORD PTR [eax+380]
	push	24					; 00000018H
	call	eax
	mov	ecx, eax
	mov	eax, DWORD PTR ?AVS_linkage@@3PBUAVS_Linkage@@B ; AVS_linkage
	jmp	SHORT $LN179@Create_MVA
$LN178@Create_MVA:
	xor	ecx, ecx
$LN179@Create_MVA:
; File c:\github\mvtools\sources\interface.cpp

; 165  :    return new MVAnalyse(

	push	ecx
; File c:\github\mvtools\sources\include\avisynth.h

; 1043 :   const AVSValue& operator[](int index) const AVS_BakedCode( return AVS_LinkCallV(AVSValue_OPERATOR_INDEX)(index) )

	test	eax, eax
	je	SHORT $LN182@Create_MVA
	cmp	DWORD PTR [eax], 324			; 00000144H
	jbe	SHORT $LN182@Create_MVA
	mov	eax, DWORD PTR [eax+324]
	lea	ecx, DWORD PTR _args$[ebp]
	push	24					; 00000018H
	call	eax
	mov	ecx, eax
	mov	eax, DWORD PTR ?AVS_linkage@@3PBUAVS_Linkage@@B ; AVS_linkage
	jmp	SHORT $LN183@Create_MVA
$LN182@Create_MVA:
	lea	ecx, DWORD PTR _args$[ebp]
$LN183@Create_MVA:

; 1035 :   int AsInt(int def) const AVS_BakedCode( return AVS_LinkCall(AsInt2)(def) )

	test	eax, eax
	je	SHORT $LN186@Create_MVA
	cmp	DWORD PTR [eax], 380			; 0000017cH
	jbe	SHORT $LN186@Create_MVA
	mov	eax, DWORD PTR [eax+380]
	push	10000					; 00002710H
	call	eax
	mov	ecx, eax
	mov	eax, DWORD PTR ?AVS_linkage@@3PBUAVS_Linkage@@B ; AVS_linkage
	jmp	SHORT $LN187@Create_MVA
$LN186@Create_MVA:
	xor	ecx, ecx
$LN187@Create_MVA:
; File c:\github\mvtools\sources\interface.cpp

; 165  :    return new MVAnalyse(

	push	ecx
; File c:\github\mvtools\sources\include\avisynth.h

; 1043 :   const AVSValue& operator[](int index) const AVS_BakedCode( return AVS_LinkCallV(AVSValue_OPERATOR_INDEX)(index) )

	test	eax, eax
	je	SHORT $LN190@Create_MVA
	cmp	DWORD PTR [eax], 324			; 00000144H
	jbe	SHORT $LN190@Create_MVA
	mov	eax, DWORD PTR [eax+324]
	lea	ecx, DWORD PTR _args$[ebp]
	push	23					; 00000017H
	call	eax
	mov	ecx, eax
	mov	eax, DWORD PTR ?AVS_linkage@@3PBUAVS_Linkage@@B ; AVS_linkage
	jmp	SHORT $LN191@Create_MVA
$LN190@Create_MVA:
	lea	ecx, DWORD PTR _args$[ebp]
$LN191@Create_MVA:

; 1035 :   int AsInt(int def) const AVS_BakedCode( return AVS_LinkCall(AsInt2)(def) )

	test	eax, eax
	je	SHORT $LN194@Create_MVA
	cmp	DWORD PTR [eax], 380			; 0000017cH
	jbe	SHORT $LN194@Create_MVA
	mov	eax, DWORD PTR [eax+380]
	push	0
	call	eax
	mov	eax, DWORD PTR ?AVS_linkage@@3PBUAVS_Linkage@@B ; AVS_linkage
$LN194@Create_MVA:
; File c:\github\mvtools\sources\interface.cpp

; 165  :    return new MVAnalyse(

	push	ecx
; File c:\github\mvtools\sources\include\avisynth.h

; 1043 :   const AVSValue& operator[](int index) const AVS_BakedCode( return AVS_LinkCallV(AVSValue_OPERATOR_INDEX)(index) )

	test	eax, eax
	je	SHORT $LN198@Create_MVA
	cmp	DWORD PTR [eax], 324			; 00000144H
	jbe	SHORT $LN198@Create_MVA
	mov	eax, DWORD PTR [eax+324]
	lea	ecx, DWORD PTR _args$[ebp]
	push	22					; 00000016H
	call	eax
	mov	ecx, eax
	mov	eax, DWORD PTR ?AVS_linkage@@3PBUAVS_Linkage@@B ; AVS_linkage
	jmp	SHORT $LN199@Create_MVA
$LN198@Create_MVA:
	lea	ecx, DWORD PTR _args$[ebp]
$LN199@Create_MVA:

; 1035 :   int AsInt(int def) const AVS_BakedCode( return AVS_LinkCall(AsInt2)(def) )

	test	eax, eax
	je	SHORT $LN202@Create_MVA
	cmp	DWORD PTR [eax], 380			; 0000017cH
	jbe	SHORT $LN202@Create_MVA
	mov	eax, DWORD PTR [eax+380]
	push	0
	call	eax
	mov	ecx, eax
	mov	eax, DWORD PTR ?AVS_linkage@@3PBUAVS_Linkage@@B ; AVS_linkage
	jmp	SHORT $LN203@Create_MVA
$LN202@Create_MVA:
	xor	ecx, ecx
$LN203@Create_MVA:
; File c:\github\mvtools\sources\interface.cpp

; 165  :    return new MVAnalyse(

	push	ecx
; File c:\github\mvtools\sources\include\avisynth.h

; 1043 :   const AVSValue& operator[](int index) const AVS_BakedCode( return AVS_LinkCallV(AVSValue_OPERATOR_INDEX)(index) )

	test	eax, eax
	je	SHORT $LN206@Create_MVA
	cmp	DWORD PTR [eax], 324			; 00000144H
	jbe	SHORT $LN206@Create_MVA
	mov	eax, DWORD PTR [eax+324]
	lea	ecx, DWORD PTR _args$[ebp]
	push	21					; 00000015H
	call	eax
	mov	ecx, eax
	mov	eax, DWORD PTR ?AVS_linkage@@3PBUAVS_Linkage@@B ; AVS_linkage
	jmp	SHORT $LN207@Create_MVA
$LN206@Create_MVA:
	lea	ecx, DWORD PTR _args$[ebp]
$LN207@Create_MVA:

; 1035 :   int AsInt(int def) const AVS_BakedCode( return AVS_LinkCall(AsInt2)(def) )

	test	eax, eax
	je	SHORT $LN210@Create_MVA
	cmp	DWORD PTR [eax], 380			; 0000017cH
	jbe	SHORT $LN210@Create_MVA
	mov	eax, DWORD PTR [eax+380]
	push	0
	call	eax
	mov	ecx, eax
	mov	eax, DWORD PTR ?AVS_linkage@@3PBUAVS_Linkage@@B ; AVS_linkage
	jmp	SHORT $LN211@Create_MVA
$LN210@Create_MVA:
	xor	ecx, ecx
$LN211@Create_MVA:
; File c:\github\mvtools\sources\interface.cpp

; 165  :    return new MVAnalyse(

	push	ecx
; File c:\github\mvtools\sources\include\avisynth.h

; 1043 :   const AVSValue& operator[](int index) const AVS_BakedCode( return AVS_LinkCallV(AVSValue_OPERATOR_INDEX)(index) )

	test	eax, eax
	je	SHORT $LN214@Create_MVA
	cmp	DWORD PTR [eax], 324			; 00000144H
	jbe	SHORT $LN214@Create_MVA
	mov	eax, DWORD PTR [eax+324]
	lea	ecx, DWORD PTR _args$[ebp]
	push	20					; 00000014H
	call	eax
	mov	ecx, eax
	mov	eax, DWORD PTR ?AVS_linkage@@3PBUAVS_Linkage@@B ; AVS_linkage
	jmp	SHORT $LN215@Create_MVA
$LN214@Create_MVA:
	lea	ecx, DWORD PTR _args$[ebp]
$LN215@Create_MVA:

; 1039 :   const char* AsString(const char* def) const AVS_BakedCode( return AVS_LinkCall(AsString2)(def) )

	test	eax, eax
	je	SHORT $LN218@Create_MVA
	cmp	DWORD PTR [eax], 392			; 00000188H
	jbe	SHORT $LN218@Create_MVA
	mov	eax, DWORD PTR [eax+392]
	push	OFFSET ??_C@_00CNPNBAHC@?$AA@
	call	eax
	mov	ecx, eax
	mov	eax, DWORD PTR ?AVS_linkage@@3PBUAVS_Linkage@@B ; AVS_linkage
	jmp	SHORT $LN219@Create_MVA
$LN218@Create_MVA:
	xor	ecx, ecx
$LN219@Create_MVA:
; File c:\github\mvtools\sources\interface.cpp

; 165  :    return new MVAnalyse(

	push	ecx
; File c:\github\mvtools\sources\include\avisynth.h

; 1043 :   const AVSValue& operator[](int index) const AVS_BakedCode( return AVS_LinkCallV(AVSValue_OPERATOR_INDEX)(index) )

	test	eax, eax
	je	SHORT $LN222@Create_MVA
	cmp	DWORD PTR [eax], 324			; 00000144H
	jbe	SHORT $LN222@Create_MVA
	mov	eax, DWORD PTR [eax+324]
	lea	ecx, DWORD PTR _args$[ebp]
	push	19					; 00000013H
	call	eax
	mov	ecx, eax
	mov	eax, DWORD PTR ?AVS_linkage@@3PBUAVS_Linkage@@B ; AVS_linkage
	jmp	SHORT $LN223@Create_MVA
$LN222@Create_MVA:
	lea	ecx, DWORD PTR _args$[ebp]
$LN223@Create_MVA:

; 1035 :   int AsInt(int def) const AVS_BakedCode( return AVS_LinkCall(AsInt2)(def) )

	test	eax, eax
	je	SHORT $LN226@Create_MVA
	cmp	DWORD PTR [eax], 380			; 0000017cH
	jbe	SHORT $LN226@Create_MVA
	push	DWORD PTR _overlap$1$[ebp]
	mov	eax, DWORD PTR [eax+380]
	call	eax
	mov	ecx, eax
	mov	eax, DWORD PTR ?AVS_linkage@@3PBUAVS_Linkage@@B ; AVS_linkage
	jmp	SHORT $LN227@Create_MVA
$LN226@Create_MVA:
	xor	ecx, ecx
$LN227@Create_MVA:
; File c:\github\mvtools\sources\interface.cpp

; 165  :    return new MVAnalyse(

	push	ecx
	push	DWORD PTR _overlap$1$[ebp]
; File c:\github\mvtools\sources\include\avisynth.h

; 1043 :   const AVSValue& operator[](int index) const AVS_BakedCode( return AVS_LinkCallV(AVSValue_OPERATOR_INDEX)(index) )

	test	eax, eax
	je	SHORT $LN230@Create_MVA
	cmp	DWORD PTR [eax], 324			; 00000144H
	jbe	SHORT $LN230@Create_MVA
	mov	eax, DWORD PTR [eax+324]
	lea	ecx, DWORD PTR _args$[ebp]
	push	17					; 00000011H
	call	eax
	mov	ecx, eax
	mov	eax, DWORD PTR ?AVS_linkage@@3PBUAVS_Linkage@@B ; AVS_linkage
	jmp	SHORT $LN231@Create_MVA
$LN230@Create_MVA:
	lea	ecx, DWORD PTR _args$[ebp]
$LN231@Create_MVA:

; 1035 :   int AsInt(int def) const AVS_BakedCode( return AVS_LinkCall(AsInt2)(def) )

	test	eax, eax
	je	SHORT $LN234@Create_MVA
	cmp	DWORD PTR [eax], 380			; 0000017cH
	jbe	SHORT $LN234@Create_MVA
	mov	eax, DWORD PTR [eax+380]
	push	0
	call	eax
	mov	ecx, eax
	mov	eax, DWORD PTR ?AVS_linkage@@3PBUAVS_Linkage@@B ; AVS_linkage
	jmp	SHORT $LN235@Create_MVA
$LN234@Create_MVA:
	xor	ecx, ecx
$LN235@Create_MVA:
; File c:\github\mvtools\sources\interface.cpp

; 165  :    return new MVAnalyse(

	push	ecx
; File c:\github\mvtools\sources\include\avisynth.h

; 1043 :   const AVSValue& operator[](int index) const AVS_BakedCode( return AVS_LinkCallV(AVSValue_OPERATOR_INDEX)(index) )

	test	eax, eax
	je	SHORT $LN238@Create_MVA
	cmp	DWORD PTR [eax], 324			; 00000144H
	jbe	SHORT $LN238@Create_MVA
	mov	eax, DWORD PTR [eax+324]
	lea	ecx, DWORD PTR _args$[ebp]
	push	16					; 00000010H
	call	eax
	mov	ecx, eax
	mov	eax, DWORD PTR ?AVS_linkage@@3PBUAVS_Linkage@@B ; AVS_linkage
	jmp	SHORT $LN239@Create_MVA
$LN238@Create_MVA:
	lea	ecx, DWORD PTR _args$[ebp]
$LN239@Create_MVA:

; 1035 :   int AsInt(int def) const AVS_BakedCode( return AVS_LinkCall(AsInt2)(def) )

	test	eax, eax
	je	SHORT $LN242@Create_MVA
	cmp	DWORD PTR [eax], 380			; 0000017cH
	jbe	SHORT $LN242@Create_MVA
	mov	eax, DWORD PTR [eax+380]
	push	ebx
	call	eax
	mov	ecx, eax
	mov	eax, DWORD PTR ?AVS_linkage@@3PBUAVS_Linkage@@B ; AVS_linkage
	jmp	SHORT $LN243@Create_MVA
$LN242@Create_MVA:
	xor	ecx, ecx
$LN243@Create_MVA:
; File c:\github\mvtools\sources\interface.cpp

; 165  :    return new MVAnalyse(

	push	ecx
	push	ebx
	push	DWORD PTR _global$[ebp]
	push	edi
	push	esi
; File c:\github\mvtools\sources\include\avisynth.h

; 1043 :   const AVSValue& operator[](int index) const AVS_BakedCode( return AVS_LinkCallV(AVSValue_OPERATOR_INDEX)(index) )

	test	eax, eax
	je	SHORT $LN246@Create_MVA
	cmp	DWORD PTR [eax], 324			; 00000144H
	jbe	SHORT $LN246@Create_MVA
	mov	eax, DWORD PTR [eax+324]
	lea	ecx, DWORD PTR _args$[ebp]
	push	10					; 0000000aH
	call	eax
	mov	ecx, eax
	mov	eax, DWORD PTR ?AVS_linkage@@3PBUAVS_Linkage@@B ; AVS_linkage
	jmp	SHORT $LN247@Create_MVA
$LN246@Create_MVA:
	lea	ecx, DWORD PTR _args$[ebp]
$LN247@Create_MVA:

; 1035 :   int AsInt(int def) const AVS_BakedCode( return AVS_LinkCall(AsInt2)(def) )

	test	eax, eax
	je	SHORT $LN250@Create_MVA
	cmp	DWORD PTR [eax], 380			; 0000017cH
	jbe	SHORT $LN250@Create_MVA
	mov	eax, DWORD PTR [eax+380]
	push	1
	call	eax
	mov	ecx, eax
	mov	eax, DWORD PTR ?AVS_linkage@@3PBUAVS_Linkage@@B ; AVS_linkage
	jmp	SHORT $LN251@Create_MVA
$LN250@Create_MVA:
	xor	ecx, ecx
$LN251@Create_MVA:
; File c:\github\mvtools\sources\interface.cpp

; 165  :    return new MVAnalyse(

	push	ecx
; File c:\github\mvtools\sources\include\avisynth.h

; 1043 :   const AVSValue& operator[](int index) const AVS_BakedCode( return AVS_LinkCallV(AVSValue_OPERATOR_INDEX)(index) )

	test	eax, eax
	je	SHORT $LN254@Create_MVA
	cmp	DWORD PTR [eax], 324			; 00000144H
	jbe	SHORT $LN254@Create_MVA
	mov	eax, DWORD PTR [eax+324]
	lea	ecx, DWORD PTR _args$[ebp]
	push	9
	call	eax
	mov	ecx, eax
	mov	eax, DWORD PTR ?AVS_linkage@@3PBUAVS_Linkage@@B ; AVS_linkage
	jmp	SHORT $LN255@Create_MVA
$LN254@Create_MVA:
	lea	ecx, DWORD PTR _args$[ebp]
$LN255@Create_MVA:

; 1034 :   bool AsBool(bool def) const AVS_BakedCode( return AVS_LinkCall(AsBool2)(def) )

	test	eax, eax
	je	SHORT $LN258@Create_MVA
	cmp	DWORD PTR [eax], 376			; 00000178H
	jbe	SHORT $LN258@Create_MVA
	mov	eax, DWORD PTR [eax+376]
	push	1
	call	eax
	movzx	ecx, al
	mov	eax, DWORD PTR ?AVS_linkage@@3PBUAVS_Linkage@@B ; AVS_linkage
	jmp	SHORT $LN259@Create_MVA
$LN258@Create_MVA:
	xor	ecx, ecx
$LN259@Create_MVA:
; File c:\github\mvtools\sources\interface.cpp

; 165  :    return new MVAnalyse(

	push	ecx
	push	DWORD PTR _lambda$1$[ebp]
; File c:\github\mvtools\sources\include\avisynth.h

; 1043 :   const AVSValue& operator[](int index) const AVS_BakedCode( return AVS_LinkCallV(AVSValue_OPERATOR_INDEX)(index) )

	test	eax, eax
	je	SHORT $LN262@Create_MVA
	cmp	DWORD PTR [eax], 324			; 00000144H
	jbe	SHORT $LN262@Create_MVA
	mov	eax, DWORD PTR [eax+324]
	lea	ecx, DWORD PTR _args$[ebp]
	push	7
	call	eax
	mov	ecx, eax
	mov	eax, DWORD PTR ?AVS_linkage@@3PBUAVS_Linkage@@B ; AVS_linkage
	jmp	SHORT $LN263@Create_MVA
$LN262@Create_MVA:
	lea	ecx, DWORD PTR _args$[ebp]
$LN263@Create_MVA:

; 1034 :   bool AsBool(bool def) const AVS_BakedCode( return AVS_LinkCall(AsBool2)(def) )

	test	eax, eax
	je	SHORT $LN266@Create_MVA
	cmp	DWORD PTR [eax], 376			; 00000178H
	jbe	SHORT $LN266@Create_MVA
	mov	eax, DWORD PTR [eax+376]
	push	0
	call	eax
	movzx	ecx, al
	mov	eax, DWORD PTR ?AVS_linkage@@3PBUAVS_Linkage@@B ; AVS_linkage
	jmp	SHORT $LN267@Create_MVA
$LN266@Create_MVA:
	xor	ecx, ecx
$LN267@Create_MVA:
; File c:\github\mvtools\sources\interface.cpp

; 165  :    return new MVAnalyse(

	push	ecx
; File c:\github\mvtools\sources\include\avisynth.h

; 1043 :   const AVSValue& operator[](int index) const AVS_BakedCode( return AVS_LinkCallV(AVSValue_OPERATOR_INDEX)(index) )

	test	eax, eax
	je	SHORT $LN270@Create_MVA
	cmp	DWORD PTR [eax], 324			; 00000144H
	jbe	SHORT $LN270@Create_MVA
	mov	eax, DWORD PTR [eax+324]
	lea	ecx, DWORD PTR _args$[ebp]
	push	6
	call	eax
	mov	ecx, eax
	mov	eax, DWORD PTR ?AVS_linkage@@3PBUAVS_Linkage@@B ; AVS_linkage
	jmp	SHORT $LN271@Create_MVA
$LN270@Create_MVA:
	lea	ecx, DWORD PTR _args$[ebp]
$LN271@Create_MVA:

; 1035 :   int AsInt(int def) const AVS_BakedCode( return AVS_LinkCall(AsInt2)(def) )

	test	eax, eax
	je	SHORT $LN274@Create_MVA
	cmp	DWORD PTR [eax], 380			; 0000017cH
	jbe	SHORT $LN274@Create_MVA
	mov	eax, DWORD PTR [eax+380]
	push	0
	call	eax
	mov	ecx, eax
	mov	eax, DWORD PTR ?AVS_linkage@@3PBUAVS_Linkage@@B ; AVS_linkage
	jmp	SHORT $LN275@Create_MVA
$LN274@Create_MVA:
	xor	ecx, ecx
$LN275@Create_MVA:
; File c:\github\mvtools\sources\interface.cpp

; 165  :    return new MVAnalyse(

	push	ecx
; File c:\github\mvtools\sources\include\avisynth.h

; 1043 :   const AVSValue& operator[](int index) const AVS_BakedCode( return AVS_LinkCallV(AVSValue_OPERATOR_INDEX)(index) )

	test	eax, eax
	je	SHORT $LN278@Create_MVA
	cmp	DWORD PTR [eax], 324			; 00000144H
	jbe	SHORT $LN278@Create_MVA
	mov	eax, DWORD PTR [eax+324]
	lea	ecx, DWORD PTR _args$[ebp]
	push	5
	call	eax
	mov	ecx, eax
	mov	eax, DWORD PTR ?AVS_linkage@@3PBUAVS_Linkage@@B ; AVS_linkage
	jmp	SHORT $LN279@Create_MVA
$LN278@Create_MVA:
	lea	ecx, DWORD PTR _args$[ebp]
$LN279@Create_MVA:

; 1035 :   int AsInt(int def) const AVS_BakedCode( return AVS_LinkCall(AsInt2)(def) )

	test	eax, eax
	je	SHORT $LN282@Create_MVA
	cmp	DWORD PTR [eax], 380			; 0000017cH
	jbe	SHORT $LN282@Create_MVA
	mov	eax, DWORD PTR [eax+380]
	push	2
	call	eax
	mov	ecx, eax
	mov	eax, DWORD PTR ?AVS_linkage@@3PBUAVS_Linkage@@B ; AVS_linkage
	jmp	SHORT $LN283@Create_MVA
$LN282@Create_MVA:
	xor	ecx, ecx
$LN283@Create_MVA:
; File c:\github\mvtools\sources\interface.cpp

; 165  :    return new MVAnalyse(

	push	ecx
; File c:\github\mvtools\sources\include\avisynth.h

; 1043 :   const AVSValue& operator[](int index) const AVS_BakedCode( return AVS_LinkCallV(AVSValue_OPERATOR_INDEX)(index) )

	test	eax, eax
	je	SHORT $LN286@Create_MVA
	cmp	DWORD PTR [eax], 324			; 00000144H
	jbe	SHORT $LN286@Create_MVA
	mov	eax, DWORD PTR [eax+324]
	lea	ecx, DWORD PTR _args$[ebp]
	push	4
	call	eax
	mov	ecx, eax
	mov	eax, DWORD PTR ?AVS_linkage@@3PBUAVS_Linkage@@B ; AVS_linkage
	jmp	SHORT $LN287@Create_MVA
$LN286@Create_MVA:
	lea	ecx, DWORD PTR _args$[ebp]
$LN287@Create_MVA:

; 1035 :   int AsInt(int def) const AVS_BakedCode( return AVS_LinkCall(AsInt2)(def) )

	test	eax, eax
	je	SHORT $LN290@Create_MVA
	cmp	DWORD PTR [eax], 380			; 0000017cH
	jbe	SHORT $LN290@Create_MVA
	mov	eax, DWORD PTR [eax+380]
	push	4
	call	eax
	mov	ecx, eax
	mov	eax, DWORD PTR ?AVS_linkage@@3PBUAVS_Linkage@@B ; AVS_linkage
	jmp	SHORT $LN291@Create_MVA
$LN290@Create_MVA:
	xor	ecx, ecx
$LN291@Create_MVA:
; File c:\github\mvtools\sources\interface.cpp

; 165  :    return new MVAnalyse(

	push	ecx
; File c:\github\mvtools\sources\include\avisynth.h

; 1043 :   const AVSValue& operator[](int index) const AVS_BakedCode( return AVS_LinkCallV(AVSValue_OPERATOR_INDEX)(index) )

	test	eax, eax
	je	SHORT $LN294@Create_MVA
	cmp	DWORD PTR [eax], 324			; 00000144H
	jbe	SHORT $LN294@Create_MVA
	mov	eax, DWORD PTR [eax+324]
	lea	ecx, DWORD PTR _args$[ebp]
	push	3
	call	eax
	mov	ecx, eax
	mov	eax, DWORD PTR ?AVS_linkage@@3PBUAVS_Linkage@@B ; AVS_linkage
	jmp	SHORT $LN295@Create_MVA
$LN294@Create_MVA:
	lea	ecx, DWORD PTR _args$[ebp]
$LN295@Create_MVA:

; 1035 :   int AsInt(int def) const AVS_BakedCode( return AVS_LinkCall(AsInt2)(def) )

	test	eax, eax
	je	SHORT $LN298@Create_MVA
	cmp	DWORD PTR [eax], 380			; 0000017cH
	jbe	SHORT $LN298@Create_MVA
	mov	eax, DWORD PTR [eax+380]
	push	0
	call	eax
	mov	ecx, eax
	mov	eax, DWORD PTR ?AVS_linkage@@3PBUAVS_Linkage@@B ; AVS_linkage
	jmp	SHORT $LN299@Create_MVA
$LN298@Create_MVA:
	xor	ecx, ecx
$LN299@Create_MVA:
; File c:\github\mvtools\sources\interface.cpp

; 165  :    return new MVAnalyse(

	push	ecx
	push	DWORD PTR _blksizeV$1$[ebp]
	push	DWORD PTR _blksize$1$[ebp]
; File c:\github\mvtools\sources\include\avisynth.h

; 1043 :   const AVSValue& operator[](int index) const AVS_BakedCode( return AVS_LinkCallV(AVSValue_OPERATOR_INDEX)(index) )

	test	eax, eax
	je	SHORT $LN302@Create_MVA
	cmp	DWORD PTR [eax], 324			; 00000144H
	jbe	SHORT $LN302@Create_MVA
	mov	eax, DWORD PTR [eax+324]
	lea	ecx, DWORD PTR _args$[ebp]
	push	0
	call	eax
	mov	ecx, eax
	jmp	SHORT $LN303@Create_MVA
$LN302@Create_MVA:
	lea	ecx, DWORD PTR _args$[ebp]
$LN303@Create_MVA:
; File c:\github\mvtools\sources\interface.cpp

; 165  :    return new MVAnalyse(

	push	ecx
	push	esp
	call	?AsClip@AVSValue@@QBE?AVPClip@@XZ	; AVSValue::AsClip
	mov	ecx, DWORD PTR $T3[ebp]
	call	??0MVAnalyse@@QAE@VPClip@@HHHHHH_NH1HHH1HHHHHPBDHHHHH111111PAVIScriptEnvironment@@@Z ; MVAnalyse::MVAnalyse
; File c:\github\mvtools\sources\include\avisynth.h

; 999  :   AVSValue(IClip* c) AVS_BakedCode( AVS_LinkCall(AVSValue_CONSTRUCTOR1)(c) )

	mov	esi, DWORD PTR ___$ReturnUdt$[ebp]
; File c:\github\mvtools\sources\interface.cpp

; 165  :    return new MVAnalyse(

	mov	BYTE PTR __$EHRec$[ebp+8], 0
; File c:\github\mvtools\sources\include\avisynth.h

; 999  :   AVSValue(IClip* c) AVS_BakedCode( AVS_LinkCall(AVSValue_CONSTRUCTOR1)(c) )

	mov	edx, DWORD PTR ?AVS_linkage@@3PBUAVS_Linkage@@B ; AVS_linkage
	test	edx, edx
	je	SHORT $LN306@Create_MVA
	cmp	DWORD PTR [edx], 280			; 00000118H
	jbe	SHORT $LN306@Create_MVA
	push	eax
	mov	eax, DWORD PTR [edx+280]
	mov	ecx, esi
	call	eax
	mov	edx, DWORD PTR ?AVS_linkage@@3PBUAVS_Linkage@@B ; AVS_linkage
$LN306@Create_MVA:

; 1011 :   ~AVSValue() AVS_BakedCode( AVS_LinkCall(AVSValue_DESTRUCTOR)() )

	mov	DWORD PTR __$EHRec$[ebp+8], 2
	test	edx, edx
	je	SHORT $LN313@Create_MVA
	cmp	DWORD PTR [edx], 316			; 0000013cH
	jbe	SHORT $LN313@Create_MVA
	mov	edx, DWORD PTR [edx+316]
	lea	ecx, DWORD PTR _args$[ebp]
	call	edx
$LN313@Create_MVA:
; File c:\github\mvtools\sources\interface.cpp

; 199  : }

	mov	ecx, DWORD PTR __$EHRec$[ebp]
	mov	eax, esi
	pop	edi
	pop	esi
	mov	DWORD PTR fs:0, ecx
	pop	ebx
	mov	esp, ebp
	pop	ebp
	ret	0
_TEXT	ENDS
;	COMDAT text$x
text$x	SEGMENT
__unwindfunclet$?Create_MVAnalyse@@YA?AVAVSValue@@V1@PAXPAVIScriptEnvironment@@@Z$0:
	lea	ecx, DWORD PTR _args$[ebp]
	jmp	??1AVSValue@@QAE@XZ			; AVSValue::~AVSValue
__unwindfunclet$?Create_MVAnalyse@@YA?AVAVSValue@@V1@PAXPAVIScriptEnvironment@@@Z$1:
	push	584					; 00000248H
	mov	eax, DWORD PTR $T3[ebp]
	push	eax
	call	??3@YAXPAXI@Z				; operator delete
	add	esp, 8
	ret	0
__unwindfunclet$?Create_MVAnalyse@@YA?AVAVSValue@@V1@PAXPAVIScriptEnvironment@@@Z$4:
	call	DWORD PTR __imp____std_terminate
	ret	0
__ehhandler$?Create_MVAnalyse@@YA?AVAVSValue@@V1@PAXPAVIScriptEnvironment@@@Z:
	mov	eax, OFFSET __ehfuncinfo$?Create_MVAnalyse@@YA?AVAVSValue@@V1@PAXPAVIScriptEnvironment@@@Z
	jmp	___CxxFrameHandler3
text$x	ENDS
?Create_MVAnalyse@@YA?AVAVSValue@@V1@PAXPAVIScriptEnvironment@@@Z ENDP ; Create_MVAnalyse
; Function compile flags: /Ogtpy
; File c:\github\mvtools\sources\interface.cpp
; File c:\github\mvtools\sources\include\avisynth.h
; File c:\github\mvtools\sources\interface.cpp
; File c:\github\mvtools\sources\include\avisynth.h
; File c:\github\mvtools\sources\interface.cpp
; File c:\github\mvtools\sources\include\avisynth.h
; File c:\github\mvtools\sources\interface.cpp
; File c:\github\mvtools\sources\include\avisynth.h
; File c:\github\mvtools\sources\interface.cpp
; File c:\github\mvtools\sources\include\avisynth.h
; File c:\github\mvtools\sources\interface.cpp
; File c:\github\mvtools\sources\include\avisynth.h
; File c:\github\mvtools\sources\interface.cpp
; File c:\github\mvtools\sources\include\avisynth.h
; File c:\github\mvtools\sources\interface.cpp
; File c:\github\mvtools\sources\include\avisynth.h
; File c:\github\mvtools\sources\interface.cpp
; File c:\github\mvtools\sources\include\avisynth.h
; File c:\github\mvtools\sources\interface.cpp
; File c:\github\mvtools\sources\include\avisynth.h
; File c:\github\mvtools\sources\interface.cpp
; File c:\github\mvtools\sources\include\avisynth.h
; File c:\github\mvtools\sources\interface.cpp
; File c:\github\mvtools\sources\include\avisynth.h
; File c:\github\mvtools\sources\interface.cpp
; File c:\github\mvtools\sources\include\avisynth.h
; File c:\github\mvtools\sources\interface.cpp
; File c:\github\mvtools\sources\include\avisynth.h
; File c:\github\mvtools\sources\interface.cpp
; File c:\github\mvtools\sources\include\avisynth.h
; File c:\github\mvtools\sources\interface.cpp
;	COMDAT ?Create_MVMask@@YA?AVAVSValue@@V1@PAXPAVIScriptEnvironment@@@Z
_TEXT	SEGMENT
_ml$1$ = -36						; size = 8
_ml$ = -36						; size = 8
tv355 = -28						; size = 8
tv331 = -28						; size = 8
$T2 = -20						; size = 4
$T3 = -16						; size = 4
__$EHRec$ = -12						; size = 12
___$ReturnUdt$ = 8					; size = 4
_args$ = 12						; size = 8
___formal$ = 20						; size = 4
$T4 = 24						; size = 4
_env$ = 24						; size = 4
?Create_MVMask@@YA?AVAVSValue@@V1@PAXPAVIScriptEnvironment@@@Z PROC ; Create_MVMask, COMDAT

; 202  : {

	push	ebp
	mov	ebp, esp
	push	-1
	push	__ehhandler$?Create_MVMask@@YA?AVAVSValue@@V1@PAXPAVIScriptEnvironment@@@Z
	mov	eax, DWORD PTR fs:0
	push	eax
	mov	DWORD PTR fs:0, esp
	sub	esp, 24					; 00000018H
	push	esi
	push	edi
	mov	DWORD PTR $T3[ebp], 0
	mov	DWORD PTR __$EHRec$[ebp+8], 0
; File c:\github\mvtools\sources\include\avisynth.h

; 1043 :   const AVSValue& operator[](int index) const AVS_BakedCode( return AVS_LinkCallV(AVSValue_OPERATOR_INDEX)(index) )

	mov	eax, DWORD PTR ?AVS_linkage@@3PBUAVS_Linkage@@B ; AVS_linkage
	test	eax, eax
	je	SHORT $LN14@Create_MVM
	cmp	DWORD PTR [eax], 324			; 00000144H
	jbe	SHORT $LN14@Create_MVM
	mov	eax, DWORD PTR [eax+324]
	lea	ecx, DWORD PTR _args$[ebp]
	push	2
	call	eax
	mov	ecx, eax
	mov	eax, DWORD PTR ?AVS_linkage@@3PBUAVS_Linkage@@B ; AVS_linkage
	jmp	SHORT $LN15@Create_MVM
$LN14@Create_MVM:
	lea	ecx, DWORD PTR _args$[ebp]
$LN15@Create_MVM:

; 1037 :   double AsFloat(float def) const AVS_BakedCode( return AVS_LinkCall(AsFloat2)(def) )

	mov	esi, DWORD PTR _env$[ebp]
	test	eax, eax
	je	SHORT $LN18@Create_MVM
	cmp	DWORD PTR [eax], 388			; 00000184H
	jbe	SHORT $LN18@Create_MVM
	mov	eax, DWORD PTR [eax+388]
	push	ecx
	mov	DWORD PTR [esp], 1120403456		; 42c80000H
	call	eax
	fstp	QWORD PTR _ml$[ebp]
; File c:\github\mvtools\sources\interface.cpp

; 204  : 	if (ml<=0)

	movsd	xmm1, QWORD PTR _ml$[ebp]
	xorps	xmm0, xmm0
	comisd	xmm0, xmm1
	movsd	QWORD PTR _ml$1$[ebp], xmm1
	jb	SHORT $LN2@Create_MVM
	jmp	SHORT $LN101@Create_MVM
$LN18@Create_MVM:
	xorps	xmm0, xmm0
; File c:\github\mvtools\sources\include\avisynth.h

; 1037 :   double AsFloat(float def) const AVS_BakedCode( return AVS_LinkCall(AsFloat2)(def) )

	movsd	QWORD PTR _ml$1$[ebp], xmm0
$LN101@Create_MVM:
; File c:\github\mvtools\sources\interface.cpp

; 205  : 	   env->ThrowError("MVMask: ML must be > 0.0");

	mov	eax, DWORD PTR [esi]
	push	OFFSET ??_C@_0BJ@OBPMADJF@MVMask?3?5ML?5must?5be?5?$DO?50?40?$AA@
	push	esi
	call	DWORD PTR [eax+20]
	add	esp, 8
$LN2@Create_MVM:

; 208  : 	return new MVMask(

	push	496					; 000001f0H
	call	??2@YAPAXI@Z				; operator new
	mov	edi, eax
	add	esp, 4
	mov	DWORD PTR $T4[ebp], edi
	mov	BYTE PTR __$EHRec$[ebp+8], 1
; File c:\github\mvtools\sources\include\avisynth.h

; 1043 :   const AVSValue& operator[](int index) const AVS_BakedCode( return AVS_LinkCallV(AVSValue_OPERATOR_INDEX)(index) )

	mov	eax, DWORD PTR ?AVS_linkage@@3PBUAVS_Linkage@@B ; AVS_linkage
; File c:\github\mvtools\sources\interface.cpp

; 208  : 	return new MVMask(

	push	esi
; File c:\github\mvtools\sources\include\avisynth.h

; 1043 :   const AVSValue& operator[](int index) const AVS_BakedCode( return AVS_LinkCallV(AVSValue_OPERATOR_INDEX)(index) )

	test	eax, eax
	je	SHORT $LN22@Create_MVM
	cmp	DWORD PTR [eax], 324			; 00000144H
	jbe	SHORT $LN22@Create_MVM
	mov	eax, DWORD PTR [eax+324]
	lea	ecx, DWORD PTR _args$[ebp]
	push	10					; 0000000aH
	call	eax
	mov	ecx, eax
	mov	eax, DWORD PTR ?AVS_linkage@@3PBUAVS_Linkage@@B ; AVS_linkage
	jmp	SHORT $LN23@Create_MVM
$LN22@Create_MVM:
	lea	ecx, DWORD PTR _args$[ebp]
$LN23@Create_MVM:

; 1034 :   bool AsBool(bool def) const AVS_BakedCode( return AVS_LinkCall(AsBool2)(def) )

	test	eax, eax
	je	SHORT $LN26@Create_MVM
	cmp	DWORD PTR [eax], 376			; 00000178H
	jbe	SHORT $LN26@Create_MVM
	mov	eax, DWORD PTR [eax+376]
	push	0
	call	eax
	movzx	ecx, al
	mov	eax, DWORD PTR ?AVS_linkage@@3PBUAVS_Linkage@@B ; AVS_linkage
	jmp	SHORT $LN27@Create_MVM
$LN26@Create_MVM:
	xor	ecx, ecx
$LN27@Create_MVM:
; File c:\github\mvtools\sources\interface.cpp

; 208  : 	return new MVMask(

	push	ecx
; File c:\github\mvtools\sources\include\avisynth.h

; 1043 :   const AVSValue& operator[](int index) const AVS_BakedCode( return AVS_LinkCallV(AVSValue_OPERATOR_INDEX)(index) )

	test	eax, eax
	je	SHORT $LN30@Create_MVM
	cmp	DWORD PTR [eax], 324			; 00000144H
	jbe	SHORT $LN30@Create_MVM
	mov	eax, DWORD PTR [eax+324]
	lea	ecx, DWORD PTR _args$[ebp]
	push	9
	call	eax
	mov	ecx, eax
	mov	eax, DWORD PTR ?AVS_linkage@@3PBUAVS_Linkage@@B ; AVS_linkage
	jmp	SHORT $LN31@Create_MVM
$LN30@Create_MVM:
	lea	ecx, DWORD PTR _args$[ebp]
$LN31@Create_MVM:

; 1034 :   bool AsBool(bool def) const AVS_BakedCode( return AVS_LinkCall(AsBool2)(def) )

	test	eax, eax
	je	SHORT $LN34@Create_MVM
	cmp	DWORD PTR [eax], 376			; 00000178H
	jbe	SHORT $LN34@Create_MVM
	mov	eax, DWORD PTR [eax+376]
	push	1
	call	eax
	movzx	ecx, al
	mov	eax, DWORD PTR ?AVS_linkage@@3PBUAVS_Linkage@@B ; AVS_linkage
	jmp	SHORT $LN35@Create_MVM
$LN34@Create_MVM:
	xor	ecx, ecx
$LN35@Create_MVM:
; File c:\github\mvtools\sources\interface.cpp

; 208  : 	return new MVMask(

	push	ecx
; File c:\github\mvtools\sources\include\avisynth.h

; 1043 :   const AVSValue& operator[](int index) const AVS_BakedCode( return AVS_LinkCallV(AVSValue_OPERATOR_INDEX)(index) )

	test	eax, eax
	je	SHORT $LN38@Create_MVM
	cmp	DWORD PTR [eax], 324			; 00000144H
	jbe	SHORT $LN38@Create_MVM
	mov	eax, DWORD PTR [eax+324]
	lea	ecx, DWORD PTR _args$[ebp]
	push	8
	call	eax
	mov	ecx, eax
	mov	eax, DWORD PTR ?AVS_linkage@@3PBUAVS_Linkage@@B ; AVS_linkage
	jmp	SHORT $LN39@Create_MVM
$LN38@Create_MVM:
	lea	ecx, DWORD PTR _args$[ebp]
$LN39@Create_MVM:

; 1035 :   int AsInt(int def) const AVS_BakedCode( return AVS_LinkCall(AsInt2)(def) )

	test	eax, eax
	je	SHORT $LN42@Create_MVM
	cmp	DWORD PTR [eax], 380			; 0000017cH
	jbe	SHORT $LN42@Create_MVM
	mov	eax, DWORD PTR [eax+380]
	push	130					; 00000082H
	call	eax
	mov	ecx, eax
	mov	eax, DWORD PTR ?AVS_linkage@@3PBUAVS_Linkage@@B ; AVS_linkage
	jmp	SHORT $LN43@Create_MVM
$LN42@Create_MVM:
	xor	ecx, ecx
$LN43@Create_MVM:
; File c:\github\mvtools\sources\interface.cpp

; 208  : 	return new MVMask(

	push	ecx
; File c:\github\mvtools\sources\include\avisynth.h

; 1043 :   const AVSValue& operator[](int index) const AVS_BakedCode( return AVS_LinkCallV(AVSValue_OPERATOR_INDEX)(index) )

	test	eax, eax
	je	SHORT $LN46@Create_MVM
	cmp	DWORD PTR [eax], 324			; 00000144H
	jbe	SHORT $LN46@Create_MVM
	mov	eax, DWORD PTR [eax+324]
	lea	ecx, DWORD PTR _args$[ebp]
	push	7
	call	eax
	mov	ecx, eax
	mov	eax, DWORD PTR ?AVS_linkage@@3PBUAVS_Linkage@@B ; AVS_linkage
	jmp	SHORT $LN47@Create_MVM
$LN46@Create_MVM:
	lea	ecx, DWORD PTR _args$[ebp]
$LN47@Create_MVM:

; 1035 :   int AsInt(int def) const AVS_BakedCode( return AVS_LinkCall(AsInt2)(def) )

	test	eax, eax
	je	SHORT $LN50@Create_MVM
	cmp	DWORD PTR [eax], 380			; 0000017cH
	jbe	SHORT $LN50@Create_MVM
	mov	eax, DWORD PTR [eax+380]
	push	400					; 00000190H
	call	eax
	mov	ecx, eax
	mov	eax, DWORD PTR ?AVS_linkage@@3PBUAVS_Linkage@@B ; AVS_linkage
	jmp	SHORT $LN51@Create_MVM
$LN50@Create_MVM:
	xor	ecx, ecx
$LN51@Create_MVM:
; File c:\github\mvtools\sources\interface.cpp

; 208  : 	return new MVMask(

	push	ecx
; File c:\github\mvtools\sources\include\avisynth.h

; 1043 :   const AVSValue& operator[](int index) const AVS_BakedCode( return AVS_LinkCallV(AVSValue_OPERATOR_INDEX)(index) )

	test	eax, eax
	je	SHORT $LN54@Create_MVM
	cmp	DWORD PTR [eax], 324			; 00000144H
	jbe	SHORT $LN54@Create_MVM
	mov	eax, DWORD PTR [eax+324]
	lea	ecx, DWORD PTR _args$[ebp]
	push	6
	call	eax
	mov	ecx, eax
	mov	eax, DWORD PTR ?AVS_linkage@@3PBUAVS_Linkage@@B ; AVS_linkage
	jmp	SHORT $LN55@Create_MVM
$LN54@Create_MVM:
	lea	ecx, DWORD PTR _args$[ebp]
$LN55@Create_MVM:

; 1035 :   int AsInt(int def) const AVS_BakedCode( return AVS_LinkCall(AsInt2)(def) )

	test	eax, eax
	je	SHORT $LN58@Create_MVM
	cmp	DWORD PTR [eax], 380			; 0000017cH
	jbe	SHORT $LN58@Create_MVM
	mov	eax, DWORD PTR [eax+380]
	push	0
	call	eax
	mov	ecx, eax
	mov	eax, DWORD PTR ?AVS_linkage@@3PBUAVS_Linkage@@B ; AVS_linkage
	jmp	SHORT $LN59@Create_MVM
$LN58@Create_MVM:
	xor	ecx, ecx
$LN59@Create_MVM:
; File c:\github\mvtools\sources\interface.cpp

; 208  : 	return new MVMask(

	push	ecx
; File c:\github\mvtools\sources\include\avisynth.h

; 1043 :   const AVSValue& operator[](int index) const AVS_BakedCode( return AVS_LinkCallV(AVSValue_OPERATOR_INDEX)(index) )

	test	eax, eax
	je	SHORT $LN62@Create_MVM
	cmp	DWORD PTR [eax], 324			; 00000144H
	jbe	SHORT $LN62@Create_MVM
	mov	eax, DWORD PTR [eax+324]
	lea	ecx, DWORD PTR _args$[ebp]
	push	5
	call	eax
	mov	ecx, eax
	mov	eax, DWORD PTR ?AVS_linkage@@3PBUAVS_Linkage@@B ; AVS_linkage
	jmp	SHORT $LN63@Create_MVM
$LN62@Create_MVM:
	lea	ecx, DWORD PTR _args$[ebp]
$LN63@Create_MVM:

; 1037 :   double AsFloat(float def) const AVS_BakedCode( return AVS_LinkCall(AsFloat2)(def) )

	test	eax, eax
	je	SHORT $LN66@Create_MVM
	cmp	DWORD PTR [eax], 388			; 00000184H
	jbe	SHORT $LN66@Create_MVM
	mov	eax, DWORD PTR [eax+388]
	push	ecx
	mov	DWORD PTR [esp], 1120403456		; 42c80000H
	call	eax
	mov	eax, DWORD PTR ?AVS_linkage@@3PBUAVS_Linkage@@B ; AVS_linkage
	fstp	QWORD PTR tv331[ebp]
	movsd	xmm0, QWORD PTR tv331[ebp]
	jmp	SHORT $LN67@Create_MVM
$LN66@Create_MVM:
	xorps	xmm0, xmm0
$LN67@Create_MVM:
; File c:\github\mvtools\sources\interface.cpp

; 208  : 	return new MVMask(

	sub	esp, 8
	movsd	QWORD PTR [esp], xmm0
; File c:\github\mvtools\sources\include\avisynth.h

; 1043 :   const AVSValue& operator[](int index) const AVS_BakedCode( return AVS_LinkCallV(AVSValue_OPERATOR_INDEX)(index) )

	test	eax, eax
	je	SHORT $LN70@Create_MVM
	cmp	DWORD PTR [eax], 324			; 00000144H
	jbe	SHORT $LN70@Create_MVM
	mov	eax, DWORD PTR [eax+324]
	lea	ecx, DWORD PTR _args$[ebp]
	push	4
	call	eax
	mov	ecx, eax
	mov	eax, DWORD PTR ?AVS_linkage@@3PBUAVS_Linkage@@B ; AVS_linkage
	jmp	SHORT $LN71@Create_MVM
$LN70@Create_MVM:
	lea	ecx, DWORD PTR _args$[ebp]
$LN71@Create_MVM:

; 1035 :   int AsInt(int def) const AVS_BakedCode( return AVS_LinkCall(AsInt2)(def) )

	test	eax, eax
	je	SHORT $LN74@Create_MVM
	cmp	DWORD PTR [eax], 380			; 0000017cH
	jbe	SHORT $LN74@Create_MVM
	mov	eax, DWORD PTR [eax+380]
	push	0
	call	eax
	mov	ecx, eax
	mov	eax, DWORD PTR ?AVS_linkage@@3PBUAVS_Linkage@@B ; AVS_linkage
	jmp	SHORT $LN75@Create_MVM
$LN74@Create_MVM:
	xor	ecx, ecx
$LN75@Create_MVM:
; File c:\github\mvtools\sources\interface.cpp

; 208  : 	return new MVMask(

	push	ecx
; File c:\github\mvtools\sources\include\avisynth.h

; 1043 :   const AVSValue& operator[](int index) const AVS_BakedCode( return AVS_LinkCallV(AVSValue_OPERATOR_INDEX)(index) )

	test	eax, eax
	je	SHORT $LN78@Create_MVM
	cmp	DWORD PTR [eax], 324			; 00000144H
	jbe	SHORT $LN78@Create_MVM
	mov	eax, DWORD PTR [eax+324]
	lea	ecx, DWORD PTR _args$[ebp]
	push	3
	call	eax
	mov	ecx, eax
	mov	eax, DWORD PTR ?AVS_linkage@@3PBUAVS_Linkage@@B ; AVS_linkage
	jmp	SHORT $LN79@Create_MVM
$LN78@Create_MVM:
	lea	ecx, DWORD PTR _args$[ebp]
$LN79@Create_MVM:

; 1037 :   double AsFloat(float def) const AVS_BakedCode( return AVS_LinkCall(AsFloat2)(def) )

	test	eax, eax
	je	SHORT $LN82@Create_MVM
	cmp	DWORD PTR [eax], 388			; 00000184H
	jbe	SHORT $LN82@Create_MVM
	mov	eax, DWORD PTR [eax+388]
	push	ecx
	mov	DWORD PTR [esp], 1065353216		; 3f800000H
	call	eax
	mov	eax, DWORD PTR ?AVS_linkage@@3PBUAVS_Linkage@@B ; AVS_linkage
	fstp	QWORD PTR tv355[ebp]
	movsd	xmm0, QWORD PTR tv355[ebp]
	jmp	SHORT $LN83@Create_MVM
$LN82@Create_MVM:
	xorps	xmm0, xmm0
$LN83@Create_MVM:
; File c:\github\mvtools\sources\interface.cpp

; 208  : 	return new MVMask(

	sub	esp, 8
	movsd	QWORD PTR [esp], xmm0
; File c:\github\mvtools\sources\include\avisynth.h

; 1043 :   const AVSValue& operator[](int index) const AVS_BakedCode( return AVS_LinkCallV(AVSValue_OPERATOR_INDEX)(index) )

	test	eax, eax
	je	SHORT $LN86@Create_MVM
	cmp	DWORD PTR [eax], 324			; 00000144H
	jbe	SHORT $LN86@Create_MVM
	mov	eax, DWORD PTR [eax+324]
	lea	ecx, DWORD PTR _args$[ebp]
	push	1
	call	eax
	mov	ecx, eax
	jmp	SHORT $LN87@Create_MVM
$LN86@Create_MVM:
	lea	ecx, DWORD PTR _args$[ebp]
$LN87@Create_MVM:
; File c:\github\mvtools\sources\interface.cpp

; 208  : 	return new MVMask(

	push	ecx
	mov	eax, esp
	mov	DWORD PTR $T2[ebp], esp
	push	eax
	call	?AsClip@AVSValue@@QBE?AVPClip@@XZ	; AVSValue::AsClip
	mov	BYTE PTR __$EHRec$[ebp+8], 2
; File c:\github\mvtools\sources\include\avisynth.h

; 1043 :   const AVSValue& operator[](int index) const AVS_BakedCode( return AVS_LinkCallV(AVSValue_OPERATOR_INDEX)(index) )

	mov	eax, DWORD PTR ?AVS_linkage@@3PBUAVS_Linkage@@B ; AVS_linkage
	test	eax, eax
	je	SHORT $LN90@Create_MVM
	cmp	DWORD PTR [eax], 324			; 00000144H
	jbe	SHORT $LN90@Create_MVM
	mov	eax, DWORD PTR [eax+324]
	lea	ecx, DWORD PTR _args$[ebp]
	push	0
	call	eax
	mov	ecx, eax
	jmp	SHORT $LN91@Create_MVM
$LN90@Create_MVM:
	lea	ecx, DWORD PTR _args$[ebp]
$LN91@Create_MVM:
; File c:\github\mvtools\sources\interface.cpp

; 208  : 	return new MVMask(

	push	ecx
	push	esp
	call	?AsClip@AVSValue@@QBE?AVPClip@@XZ	; AVSValue::AsClip
	movsd	xmm3, QWORD PTR _ml$1$[ebp]
	mov	ecx, edi
	mov	BYTE PTR __$EHRec$[ebp+8], 1
	call	??0MVMask@@QAE@VPClip@@0NNHNHHH_N1PAVIScriptEnvironment@@@Z ; MVMask::MVMask
; File c:\github\mvtools\sources\include\avisynth.h

; 999  :   AVSValue(IClip* c) AVS_BakedCode( AVS_LinkCall(AVSValue_CONSTRUCTOR1)(c) )

	mov	esi, DWORD PTR ___$ReturnUdt$[ebp]
; File c:\github\mvtools\sources\interface.cpp

; 208  : 	return new MVMask(

	mov	BYTE PTR __$EHRec$[ebp+8], 0
; File c:\github\mvtools\sources\include\avisynth.h

; 999  :   AVSValue(IClip* c) AVS_BakedCode( AVS_LinkCall(AVSValue_CONSTRUCTOR1)(c) )

	mov	edx, DWORD PTR ?AVS_linkage@@3PBUAVS_Linkage@@B ; AVS_linkage
	test	edx, edx
	je	SHORT $LN94@Create_MVM
	cmp	DWORD PTR [edx], 280			; 00000118H
	jbe	SHORT $LN94@Create_MVM
	push	eax
	mov	eax, DWORD PTR [edx+280]
	mov	ecx, esi
	call	eax
	mov	edx, DWORD PTR ?AVS_linkage@@3PBUAVS_Linkage@@B ; AVS_linkage
$LN94@Create_MVM:

; 1011 :   ~AVSValue() AVS_BakedCode( AVS_LinkCall(AVSValue_DESTRUCTOR)() )

	mov	DWORD PTR __$EHRec$[ebp+8], 3
	test	edx, edx
	je	SHORT $LN102@Create_MVM
	cmp	DWORD PTR [edx], 316			; 0000013cH
	jbe	SHORT $LN102@Create_MVM
	mov	edx, DWORD PTR [edx+316]
	lea	ecx, DWORD PTR _args$[ebp]
	call	edx
$LN102@Create_MVM:
; File c:\github\mvtools\sources\interface.cpp

; 222  : }

	mov	ecx, DWORD PTR __$EHRec$[ebp]
	mov	eax, esi
	pop	edi
	mov	DWORD PTR fs:0, ecx
	pop	esi
	mov	esp, ebp
	pop	ebp
	ret	0
_TEXT	ENDS
;	COMDAT text$x
text$x	SEGMENT
__unwindfunclet$?Create_MVMask@@YA?AVAVSValue@@V1@PAXPAVIScriptEnvironment@@@Z$0:
	lea	ecx, DWORD PTR _args$[ebp]
	jmp	??1AVSValue@@QAE@XZ			; AVSValue::~AVSValue
__unwindfunclet$?Create_MVMask@@YA?AVAVSValue@@V1@PAXPAVIScriptEnvironment@@@Z$1:
	push	496					; 000001f0H
	mov	eax, DWORD PTR $T4[ebp]
	push	eax
	call	??3@YAXPAXI@Z				; operator delete
	add	esp, 8
	ret	0
__unwindfunclet$?Create_MVMask@@YA?AVAVSValue@@V1@PAXPAVIScriptEnvironment@@@Z$2:
	mov	ecx, DWORD PTR $T2[ebp]
	jmp	??1PClip@@QAE@XZ			; PClip::~PClip
__unwindfunclet$?Create_MVMask@@YA?AVAVSValue@@V1@PAXPAVIScriptEnvironment@@@Z$5:
	call	DWORD PTR __imp____std_terminate
	ret	0
__ehhandler$?Create_MVMask@@YA?AVAVSValue@@V1@PAXPAVIScriptEnvironment@@@Z:
	mov	eax, OFFSET __ehfuncinfo$?Create_MVMask@@YA?AVAVSValue@@V1@PAXPAVIScriptEnvironment@@@Z
	jmp	___CxxFrameHandler3
text$x	ENDS
?Create_MVMask@@YA?AVAVSValue@@V1@PAXPAVIScriptEnvironment@@@Z ENDP ; Create_MVMask
; Function compile flags: /Ogtpy
; File c:\github\mvtools\sources\interface.cpp
; File c:\github\mvtools\sources\include\avisynth.h
; File c:\github\mvtools\sources\interface.cpp
; File c:\github\mvtools\sources\include\avisynth.h
; File c:\github\mvtools\sources\interface.cpp
; File c:\github\mvtools\sources\include\avisynth.h
; File c:\github\mvtools\sources\interface.cpp
; File c:\github\mvtools\sources\include\avisynth.h
; File c:\github\mvtools\sources\interface.cpp
; File c:\github\mvtools\sources\include\avisynth.h
; File c:\github\mvtools\sources\interface.cpp
; File c:\github\mvtools\sources\include\avisynth.h
; File c:\github\mvtools\sources\interface.cpp
; File c:\github\mvtools\sources\include\avisynth.h
; File c:\github\mvtools\sources\interface.cpp
; File c:\github\mvtools\sources\include\avisynth.h
; File c:\github\mvtools\sources\interface.cpp
; File c:\github\mvtools\sources\include\avisynth.h
; File c:\github\mvtools\sources\interface.cpp
; File c:\github\mvtools\sources\include\avisynth.h
; File c:\github\mvtools\sources\interface.cpp
; File c:\github\mvtools\sources\include\avisynth.h
; File c:\github\mvtools\sources\interface.cpp
; File c:\github\mvtools\sources\include\avisynth.h
; File c:\github\mvtools\sources\interface.cpp
; File c:\github\mvtools\sources\include\avisynth.h
; File c:\github\mvtools\sources\interface.cpp
; File c:\github\mvtools\sources\include\avisynth.h
; File c:\github\mvtools\sources\interface.cpp
; File c:\github\mvtools\sources\include\avisynth.h
; File c:\github\mvtools\sources\interface.cpp
; File c:\github\mvtools\sources\include\avisynth.h
; File c:\github\mvtools\sources\interface.cpp
; File c:\github\mvtools\sources\include\avisynth.h
; File c:\github\mvtools\sources\interface.cpp
; File c:\github\mvtools\sources\include\avisynth.h
; File c:\github\mvtools\sources\interface.cpp
; File c:\github\mvtools\sources\include\avisynth.h
; File c:\github\mvtools\sources\interface.cpp
; File c:\github\mvtools\sources\include\avisynth.h
; File c:\github\mvtools\sources\interface.cpp
; File c:\github\mvtools\sources\include\avisynth.h
; File c:\github\mvtools\sources\interface.cpp
; File c:\github\mvtools\sources\include\avisynth.h
; File c:\github\mvtools\sources\interface.cpp
; File c:\github\mvtools\sources\include\avisynth.h
; File c:\github\mvtools\sources\interface.cpp
; File c:\github\mvtools\sources\include\avisynth.h
; File c:\github\mvtools\sources\interface.cpp
;	COMDAT ?Create_MVDepan@@YA?AVAVSValue@@V1@PAXPAVIScriptEnvironment@@@Z
_TEXT	SEGMENT
tv486 = -40						; size = 8
tv474 = -40						; size = 8
tv436 = -40						; size = 8
tv424 = -40						; size = 8
$T2 = -32						; size = 4
$T3 = -28						; size = 4
$T4 = -24						; size = 4
$T5 = -20						; size = 4
$T6 = -16						; size = 4
__$EHRec$ = -12						; size = 12
___$ReturnUdt$ = 8					; size = 4
_args$ = 12						; size = 8
___formal$ = 20						; size = 4
$T7 = 24						; size = 4
_env$ = 24						; size = 4
?Create_MVDepan@@YA?AVAVSValue@@V1@PAXPAVIScriptEnvironment@@@Z PROC ; Create_MVDepan, COMDAT

; 225  : {

	push	ebp
	mov	ebp, esp
	push	-1
	push	__ehhandler$?Create_MVDepan@@YA?AVAVSValue@@V1@PAXPAVIScriptEnvironment@@@Z
	mov	eax, DWORD PTR fs:0
	push	eax
	mov	DWORD PTR fs:0, esp
	sub	esp, 28					; 0000001cH
	push	ebx
	push	esi
	push	edi
	mov	DWORD PTR $T6[ebp], 0

; 226  : 	return new MVDepan(

	push	608					; 00000260H
	mov	DWORD PTR __$EHRec$[ebp+8], 0
	call	??2@YAPAXI@Z				; operator new
	mov	edi, eax
	add	esp, 4
	mov	DWORD PTR $T3[ebp], edi
	mov	BYTE PTR __$EHRec$[ebp+8], 1
; File c:\github\mvtools\sources\include\avisynth.h

; 1043 :   const AVSValue& operator[](int index) const AVS_BakedCode( return AVS_LinkCallV(AVSValue_OPERATOR_INDEX)(index) )

	mov	eax, DWORD PTR ?AVS_linkage@@3PBUAVS_Linkage@@B ; AVS_linkage
	test	eax, eax
	je	SHORT $LN22@Create_MVD
	cmp	DWORD PTR [eax], 324			; 00000144H
	jbe	SHORT $LN22@Create_MVD
	mov	eax, DWORD PTR [eax+324]
	lea	ecx, DWORD PTR _args$[ebp]
	push	2
	call	eax
	mov	ecx, eax
	mov	eax, DWORD PTR ?AVS_linkage@@3PBUAVS_Linkage@@B ; AVS_linkage
	jmp	SHORT $LN23@Create_MVD
$LN22@Create_MVD:
	lea	ecx, DWORD PTR _args$[ebp]
$LN23@Create_MVD:

; 1017 :   bool Defined() const AVS_BakedCode( return AVS_LinkCall(Defined)() )

	test	eax, eax
	je	SHORT $LN34@Create_MVD
	cmp	DWORD PTR [eax], 328			; 00000148H
	jbe	SHORT $LN3@Create_MVD
	mov	eax, DWORD PTR [eax+328]
	call	eax
	movzx	eax, al
; File c:\github\mvtools\sources\interface.cpp

; 226  : 	return new MVDepan(

	test	al, al
; File c:\github\mvtools\sources\include\avisynth.h

; 1043 :   const AVSValue& operator[](int index) const AVS_BakedCode( return AVS_LinkCallV(AVSValue_OPERATOR_INDEX)(index) )

	mov	eax, DWORD PTR ?AVS_linkage@@3PBUAVS_Linkage@@B ; AVS_linkage
; File c:\github\mvtools\sources\interface.cpp

; 226  : 	return new MVDepan(

	je	SHORT $LN3@Create_MVD
; File c:\github\mvtools\sources\include\avisynth.h

; 1043 :   const AVSValue& operator[](int index) const AVS_BakedCode( return AVS_LinkCallV(AVSValue_OPERATOR_INDEX)(index) )

	test	eax, eax
	je	SHORT $LN30@Create_MVD
	cmp	DWORD PTR [eax], 324			; 00000144H
	jbe	SHORT $LN30@Create_MVD
	mov	eax, DWORD PTR [eax+324]
	lea	ecx, DWORD PTR _args$[ebp]
	push	2
	call	eax
	jmp	SHORT $LN31@Create_MVD
$LN30@Create_MVD:
	lea	eax, DWORD PTR _args$[ebp]
$LN31@Create_MVD:
; File c:\github\mvtools\sources\interface.cpp

; 226  : 	return new MVDepan(

	lea	ecx, DWORD PTR $T4[ebp]
	push	ecx
	mov	ecx, eax
	call	?AsClip@AVSValue@@QBE?AVPClip@@XZ	; AVSValue::AsClip
	mov	esi, eax
	mov	BYTE PTR __$EHRec$[ebp+8], 2
	mov	ebx, 1
	mov	eax, DWORD PTR ?AVS_linkage@@3PBUAVS_Linkage@@B ; AVS_linkage
	jmp	SHORT $LN175@Create_MVD
$LN3@Create_MVD:
; File c:\github\mvtools\sources\include\avisynth.h

; 938  :   PClip(IClip* x) AVS_BakedCode( AVS_LinkCall(PClip_CONSTRUCTOR2)(x) )

	test	eax, eax
	je	SHORT $LN34@Create_MVD
	cmp	DWORD PTR [eax], 236			; 000000ecH
	jbe	SHORT $LN34@Create_MVD
	mov	eax, DWORD PTR [eax+236]
	lea	ecx, DWORD PTR $T5[ebp]
	push	0
	call	eax
	mov	eax, DWORD PTR ?AVS_linkage@@3PBUAVS_Linkage@@B ; AVS_linkage
$LN34@Create_MVD:
; File c:\github\mvtools\sources\interface.cpp

; 226  : 	return new MVDepan(

	lea	esi, DWORD PTR $T5[ebp]
	mov	DWORD PTR __$EHRec$[ebp+8], 3
	mov	ebx, 2
$LN175@Create_MVD:
	mov	DWORD PTR $T6[ebp], ebx
	push	DWORD PTR _env$[ebp]
; File c:\github\mvtools\sources\include\avisynth.h

; 1043 :   const AVSValue& operator[](int index) const AVS_BakedCode( return AVS_LinkCallV(AVSValue_OPERATOR_INDEX)(index) )

	test	eax, eax
	je	SHORT $LN38@Create_MVD
	cmp	DWORD PTR [eax], 324			; 00000144H
	jbe	SHORT $LN38@Create_MVD
	mov	eax, DWORD PTR [eax+324]
	lea	ecx, DWORD PTR _args$[ebp]
	push	15					; 0000000fH
	call	eax
	mov	ecx, eax
	mov	eax, DWORD PTR ?AVS_linkage@@3PBUAVS_Linkage@@B ; AVS_linkage
	jmp	SHORT $LN39@Create_MVD
$LN38@Create_MVD:
	lea	ecx, DWORD PTR _args$[ebp]
$LN39@Create_MVD:

; 1034 :   bool AsBool(bool def) const AVS_BakedCode( return AVS_LinkCall(AsBool2)(def) )

	test	eax, eax
	je	SHORT $LN42@Create_MVD
	cmp	DWORD PTR [eax], 376			; 00000178H
	jbe	SHORT $LN42@Create_MVD
	mov	eax, DWORD PTR [eax+376]
	push	0
	call	eax
	movzx	ecx, al
	mov	eax, DWORD PTR ?AVS_linkage@@3PBUAVS_Linkage@@B ; AVS_linkage
	jmp	SHORT $LN43@Create_MVD
$LN42@Create_MVD:
	xor	ecx, ecx
$LN43@Create_MVD:
; File c:\github\mvtools\sources\interface.cpp

; 226  : 	return new MVDepan(

	push	ecx
; File c:\github\mvtools\sources\include\avisynth.h

; 1043 :   const AVSValue& operator[](int index) const AVS_BakedCode( return AVS_LinkCallV(AVSValue_OPERATOR_INDEX)(index) )

	test	eax, eax
	je	SHORT $LN46@Create_MVD
	cmp	DWORD PTR [eax], 324			; 00000144H
	jbe	SHORT $LN46@Create_MVD
	mov	eax, DWORD PTR [eax+324]
	lea	ecx, DWORD PTR _args$[ebp]
	push	14					; 0000000eH
	call	eax
	mov	ecx, eax
	mov	eax, DWORD PTR ?AVS_linkage@@3PBUAVS_Linkage@@B ; AVS_linkage
	jmp	SHORT $LN47@Create_MVD
$LN46@Create_MVD:
	lea	ecx, DWORD PTR _args$[ebp]
$LN47@Create_MVD:

; 1034 :   bool AsBool(bool def) const AVS_BakedCode( return AVS_LinkCall(AsBool2)(def) )

	test	eax, eax
	je	SHORT $LN50@Create_MVD
	cmp	DWORD PTR [eax], 376			; 00000178H
	jbe	SHORT $LN50@Create_MVD
	mov	eax, DWORD PTR [eax+376]
	push	1
	call	eax
	mov	eax, DWORD PTR ?AVS_linkage@@3PBUAVS_Linkage@@B ; AVS_linkage
$LN50@Create_MVD:
; File c:\github\mvtools\sources\interface.cpp

; 226  : 	return new MVDepan(

	push	ecx
; File c:\github\mvtools\sources\include\avisynth.h

; 1043 :   const AVSValue& operator[](int index) const AVS_BakedCode( return AVS_LinkCallV(AVSValue_OPERATOR_INDEX)(index) )

	test	eax, eax
	je	SHORT $LN54@Create_MVD
	cmp	DWORD PTR [eax], 324			; 00000144H
	jbe	SHORT $LN54@Create_MVD
	mov	eax, DWORD PTR [eax+324]
	lea	ecx, DWORD PTR _args$[ebp]
	push	13					; 0000000dH
	call	eax
	mov	ecx, eax
	mov	eax, DWORD PTR ?AVS_linkage@@3PBUAVS_Linkage@@B ; AVS_linkage
	jmp	SHORT $LN55@Create_MVD
$LN54@Create_MVD:
	lea	ecx, DWORD PTR _args$[ebp]
$LN55@Create_MVD:

; 1035 :   int AsInt(int def) const AVS_BakedCode( return AVS_LinkCall(AsInt2)(def) )

	test	eax, eax
	je	SHORT $LN58@Create_MVD
	cmp	DWORD PTR [eax], 380			; 0000017cH
	jbe	SHORT $LN58@Create_MVD
	mov	eax, DWORD PTR [eax+380]
	push	130					; 00000082H
	call	eax
	mov	ecx, eax
	mov	eax, DWORD PTR ?AVS_linkage@@3PBUAVS_Linkage@@B ; AVS_linkage
	jmp	SHORT $LN59@Create_MVD
$LN58@Create_MVD:
	xor	ecx, ecx
$LN59@Create_MVD:
; File c:\github\mvtools\sources\interface.cpp

; 226  : 	return new MVDepan(

	push	ecx
; File c:\github\mvtools\sources\include\avisynth.h

; 1043 :   const AVSValue& operator[](int index) const AVS_BakedCode( return AVS_LinkCallV(AVSValue_OPERATOR_INDEX)(index) )

	test	eax, eax
	je	SHORT $LN62@Create_MVD
	cmp	DWORD PTR [eax], 324			; 00000144H
	jbe	SHORT $LN62@Create_MVD
	mov	eax, DWORD PTR [eax+324]
	lea	ecx, DWORD PTR _args$[ebp]
	push	12					; 0000000cH
	call	eax
	mov	ecx, eax
	mov	eax, DWORD PTR ?AVS_linkage@@3PBUAVS_Linkage@@B ; AVS_linkage
	jmp	SHORT $LN63@Create_MVD
$LN62@Create_MVD:
	lea	ecx, DWORD PTR _args$[ebp]
$LN63@Create_MVD:

; 1035 :   int AsInt(int def) const AVS_BakedCode( return AVS_LinkCall(AsInt2)(def) )

	test	eax, eax
	je	SHORT $LN66@Create_MVD
	cmp	DWORD PTR [eax], 380			; 0000017cH
	jbe	SHORT $LN66@Create_MVD
	mov	eax, DWORD PTR [eax+380]
	push	400					; 00000190H
	call	eax
	mov	ecx, eax
	mov	eax, DWORD PTR ?AVS_linkage@@3PBUAVS_Linkage@@B ; AVS_linkage
	jmp	SHORT $LN67@Create_MVD
$LN66@Create_MVD:
	xor	ecx, ecx
$LN67@Create_MVD:
; File c:\github\mvtools\sources\interface.cpp

; 226  : 	return new MVDepan(

	push	ecx
; File c:\github\mvtools\sources\include\avisynth.h

; 1043 :   const AVSValue& operator[](int index) const AVS_BakedCode( return AVS_LinkCallV(AVSValue_OPERATOR_INDEX)(index) )

	test	eax, eax
	je	SHORT $LN70@Create_MVD
	cmp	DWORD PTR [eax], 324			; 00000144H
	jbe	SHORT $LN70@Create_MVD
	mov	eax, DWORD PTR [eax+324]
	lea	ecx, DWORD PTR _args$[ebp]
	push	11					; 0000000bH
	call	eax
	mov	ecx, eax
	mov	eax, DWORD PTR ?AVS_linkage@@3PBUAVS_Linkage@@B ; AVS_linkage
	jmp	SHORT $LN71@Create_MVD
$LN70@Create_MVD:
	lea	ecx, DWORD PTR _args$[ebp]
$LN71@Create_MVD:

; 1035 :   int AsInt(int def) const AVS_BakedCode( return AVS_LinkCall(AsInt2)(def) )

	test	eax, eax
	je	SHORT $LN74@Create_MVD
	cmp	DWORD PTR [eax], 380			; 0000017cH
	jbe	SHORT $LN74@Create_MVD
	mov	eax, DWORD PTR [eax+380]
	push	0
	call	eax
	mov	ecx, eax
	mov	eax, DWORD PTR ?AVS_linkage@@3PBUAVS_Linkage@@B ; AVS_linkage
	jmp	SHORT $LN75@Create_MVD
$LN74@Create_MVD:
	xor	ecx, ecx
$LN75@Create_MVD:
; File c:\github\mvtools\sources\interface.cpp

; 226  : 	return new MVDepan(

	push	ecx
; File c:\github\mvtools\sources\include\avisynth.h

; 1043 :   const AVSValue& operator[](int index) const AVS_BakedCode( return AVS_LinkCallV(AVSValue_OPERATOR_INDEX)(index) )

	test	eax, eax
	je	SHORT $LN78@Create_MVD
	cmp	DWORD PTR [eax], 324			; 00000144H
	jbe	SHORT $LN78@Create_MVD
	mov	eax, DWORD PTR [eax+324]
	lea	ecx, DWORD PTR _args$[ebp]
	push	10					; 0000000aH
	call	eax
	mov	ecx, eax
	mov	eax, DWORD PTR ?AVS_linkage@@3PBUAVS_Linkage@@B ; AVS_linkage
	jmp	SHORT $LN79@Create_MVD
$LN78@Create_MVD:
	lea	ecx, DWORD PTR _args$[ebp]
$LN79@Create_MVD:

; 1037 :   double AsFloat(float def) const AVS_BakedCode( return AVS_LinkCall(AsFloat2)(def) )

	test	eax, eax
	je	SHORT $LN82@Create_MVD
	cmp	DWORD PTR [eax], 388			; 00000184H
	jbe	SHORT $LN82@Create_MVD
	mov	eax, DWORD PTR [eax+388]
	push	ecx
	mov	DWORD PTR [esp], 1028443341		; 3d4ccccdH
	call	eax
	mov	eax, DWORD PTR ?AVS_linkage@@3PBUAVS_Linkage@@B ; AVS_linkage
	fstp	QWORD PTR tv424[ebp]
	movsd	xmm0, QWORD PTR tv424[ebp]
	jmp	SHORT $LN83@Create_MVD
$LN82@Create_MVD:
	xorps	xmm0, xmm0
$LN83@Create_MVD:
; File c:\github\mvtools\sources\interface.cpp

; 226  : 	return new MVDepan(

	cvtpd2ps xmm0, xmm0
	push	ecx
	movss	DWORD PTR [esp], xmm0
; File c:\github\mvtools\sources\include\avisynth.h

; 1043 :   const AVSValue& operator[](int index) const AVS_BakedCode( return AVS_LinkCallV(AVSValue_OPERATOR_INDEX)(index) )

	test	eax, eax
	je	SHORT $LN86@Create_MVD
	cmp	DWORD PTR [eax], 324			; 00000144H
	jbe	SHORT $LN86@Create_MVD
	mov	eax, DWORD PTR [eax+324]
	lea	ecx, DWORD PTR _args$[ebp]
	push	9
	call	eax
	mov	ecx, eax
	mov	eax, DWORD PTR ?AVS_linkage@@3PBUAVS_Linkage@@B ; AVS_linkage
	jmp	SHORT $LN87@Create_MVD
$LN86@Create_MVD:
	lea	ecx, DWORD PTR _args$[ebp]
$LN87@Create_MVD:

; 1037 :   double AsFloat(float def) const AVS_BakedCode( return AVS_LinkCall(AsFloat2)(def) )

	test	eax, eax
	je	SHORT $LN90@Create_MVD
	cmp	DWORD PTR [eax], 388			; 00000184H
	jbe	SHORT $LN90@Create_MVD
	mov	eax, DWORD PTR [eax+388]
	push	ecx
	mov	DWORD PTR [esp], 1092616192		; 41200000H
	call	eax
	mov	eax, DWORD PTR ?AVS_linkage@@3PBUAVS_Linkage@@B ; AVS_linkage
	fstp	QWORD PTR tv436[ebp]
	movsd	xmm0, QWORD PTR tv436[ebp]
	jmp	SHORT $LN91@Create_MVD
$LN90@Create_MVD:
	xorps	xmm0, xmm0
$LN91@Create_MVD:
; File c:\github\mvtools\sources\interface.cpp

; 226  : 	return new MVDepan(

	cvtpd2ps xmm0, xmm0
	push	ecx
	movss	DWORD PTR [esp], xmm0
; File c:\github\mvtools\sources\include\avisynth.h

; 1043 :   const AVSValue& operator[](int index) const AVS_BakedCode( return AVS_LinkCallV(AVSValue_OPERATOR_INDEX)(index) )

	test	eax, eax
	je	SHORT $LN94@Create_MVD
	cmp	DWORD PTR [eax], 324			; 00000144H
	jbe	SHORT $LN94@Create_MVD
	mov	eax, DWORD PTR [eax+324]
	lea	ecx, DWORD PTR _args$[ebp]
	push	8
	call	eax
	mov	ecx, eax
	mov	eax, DWORD PTR ?AVS_linkage@@3PBUAVS_Linkage@@B ; AVS_linkage
	jmp	SHORT $LN95@Create_MVD
$LN94@Create_MVD:
	lea	ecx, DWORD PTR _args$[ebp]
$LN95@Create_MVD:

; 1039 :   const char* AsString(const char* def) const AVS_BakedCode( return AVS_LinkCall(AsString2)(def) )

	test	eax, eax
	je	SHORT $LN98@Create_MVD
	cmp	DWORD PTR [eax], 392			; 00000188H
	jbe	SHORT $LN98@Create_MVD
	mov	eax, DWORD PTR [eax+392]
	push	OFFSET ??_C@_00CNPNBAHC@?$AA@
	call	eax
	mov	ecx, eax
	mov	eax, DWORD PTR ?AVS_linkage@@3PBUAVS_Linkage@@B ; AVS_linkage
	jmp	SHORT $LN99@Create_MVD
$LN98@Create_MVD:
	xor	ecx, ecx
$LN99@Create_MVD:
; File c:\github\mvtools\sources\interface.cpp

; 226  : 	return new MVDepan(

	push	ecx
; File c:\github\mvtools\sources\include\avisynth.h

; 1043 :   const AVSValue& operator[](int index) const AVS_BakedCode( return AVS_LinkCallV(AVSValue_OPERATOR_INDEX)(index) )

	test	eax, eax
	je	SHORT $LN102@Create_MVD
	cmp	DWORD PTR [eax], 324			; 00000144H
	jbe	SHORT $LN102@Create_MVD
	mov	eax, DWORD PTR [eax+324]
	lea	ecx, DWORD PTR _args$[ebp]
	push	7
	call	eax
	mov	ecx, eax
	mov	eax, DWORD PTR ?AVS_linkage@@3PBUAVS_Linkage@@B ; AVS_linkage
	jmp	SHORT $LN103@Create_MVD
$LN102@Create_MVD:
	lea	ecx, DWORD PTR _args$[ebp]
$LN103@Create_MVD:

; 1034 :   bool AsBool(bool def) const AVS_BakedCode( return AVS_LinkCall(AsBool2)(def) )

	test	eax, eax
	je	SHORT $LN106@Create_MVD
	cmp	DWORD PTR [eax], 376			; 00000178H
	jbe	SHORT $LN106@Create_MVD
	mov	eax, DWORD PTR [eax+376]
	push	0
	call	eax
	movzx	ecx, al
	mov	eax, DWORD PTR ?AVS_linkage@@3PBUAVS_Linkage@@B ; AVS_linkage
	jmp	SHORT $LN107@Create_MVD
$LN106@Create_MVD:
	xor	ecx, ecx
$LN107@Create_MVD:
; File c:\github\mvtools\sources\interface.cpp

; 226  : 	return new MVDepan(

	push	ecx
; File c:\github\mvtools\sources\include\avisynth.h

; 1043 :   const AVSValue& operator[](int index) const AVS_BakedCode( return AVS_LinkCallV(AVSValue_OPERATOR_INDEX)(index) )

	test	eax, eax
	je	SHORT $LN110@Create_MVD
	cmp	DWORD PTR [eax], 324			; 00000144H
	jbe	SHORT $LN110@Create_MVD
	mov	eax, DWORD PTR [eax+324]
	lea	ecx, DWORD PTR _args$[ebp]
	push	6
	call	eax
	mov	ecx, eax
	mov	eax, DWORD PTR ?AVS_linkage@@3PBUAVS_Linkage@@B ; AVS_linkage
	jmp	SHORT $LN111@Create_MVD
$LN110@Create_MVD:
	lea	ecx, DWORD PTR _args$[ebp]
$LN111@Create_MVD:

; 1037 :   double AsFloat(float def) const AVS_BakedCode( return AVS_LinkCall(AsFloat2)(def) )

	test	eax, eax
	je	SHORT $LN114@Create_MVD
	cmp	DWORD PTR [eax], 388			; 00000184H
	jbe	SHORT $LN114@Create_MVD
	mov	eax, DWORD PTR [eax+388]
	push	ecx
	mov	DWORD PTR [esp], 1097859072		; 41700000H
	call	eax
	mov	eax, DWORD PTR ?AVS_linkage@@3PBUAVS_Linkage@@B ; AVS_linkage
	fstp	QWORD PTR tv474[ebp]
	movsd	xmm0, QWORD PTR tv474[ebp]
	jmp	SHORT $LN115@Create_MVD
$LN114@Create_MVD:
	xorps	xmm0, xmm0
$LN115@Create_MVD:
; File c:\github\mvtools\sources\interface.cpp

; 226  : 	return new MVDepan(

	cvtpd2ps xmm0, xmm0
	push	ecx
	movss	DWORD PTR [esp], xmm0
; File c:\github\mvtools\sources\include\avisynth.h

; 1043 :   const AVSValue& operator[](int index) const AVS_BakedCode( return AVS_LinkCallV(AVSValue_OPERATOR_INDEX)(index) )

	test	eax, eax
	je	SHORT $LN118@Create_MVD
	cmp	DWORD PTR [eax], 324			; 00000144H
	jbe	SHORT $LN118@Create_MVD
	mov	eax, DWORD PTR [eax+324]
	lea	ecx, DWORD PTR _args$[ebp]
	push	5
	call	eax
	mov	ecx, eax
	mov	eax, DWORD PTR ?AVS_linkage@@3PBUAVS_Linkage@@B ; AVS_linkage
	jmp	SHORT $LN119@Create_MVD
$LN118@Create_MVD:
	lea	ecx, DWORD PTR _args$[ebp]
$LN119@Create_MVD:

; 1037 :   double AsFloat(float def) const AVS_BakedCode( return AVS_LinkCall(AsFloat2)(def) )

	test	eax, eax
	je	SHORT $LN122@Create_MVD
	cmp	DWORD PTR [eax], 388			; 00000184H
	jbe	SHORT $LN122@Create_MVD
	mov	eax, DWORD PTR [eax+388]
	push	ecx
	mov	DWORD PTR [esp], 1065353216		; 3f800000H
	call	eax
	mov	eax, DWORD PTR ?AVS_linkage@@3PBUAVS_Linkage@@B ; AVS_linkage
	fstp	QWORD PTR tv486[ebp]
	movsd	xmm0, QWORD PTR tv486[ebp]
	jmp	SHORT $LN123@Create_MVD
$LN122@Create_MVD:
	xorps	xmm0, xmm0
$LN123@Create_MVD:
; File c:\github\mvtools\sources\interface.cpp

; 226  : 	return new MVDepan(

	cvtpd2ps xmm0, xmm0
	push	ecx
	movss	DWORD PTR [esp], xmm0
; File c:\github\mvtools\sources\include\avisynth.h

; 1043 :   const AVSValue& operator[](int index) const AVS_BakedCode( return AVS_LinkCallV(AVSValue_OPERATOR_INDEX)(index) )

	test	eax, eax
	je	SHORT $LN126@Create_MVD
	cmp	DWORD PTR [eax], 324			; 00000144H
	jbe	SHORT $LN126@Create_MVD
	mov	eax, DWORD PTR [eax+324]
	lea	ecx, DWORD PTR _args$[ebp]
	push	4
	call	eax
	mov	ecx, eax
	mov	eax, DWORD PTR ?AVS_linkage@@3PBUAVS_Linkage@@B ; AVS_linkage
	jmp	SHORT $LN127@Create_MVD
$LN126@Create_MVD:
	lea	ecx, DWORD PTR _args$[ebp]
$LN127@Create_MVD:

; 1034 :   bool AsBool(bool def) const AVS_BakedCode( return AVS_LinkCall(AsBool2)(def) )

	test	eax, eax
	je	SHORT $LN130@Create_MVD
	cmp	DWORD PTR [eax], 376			; 00000178H
	jbe	SHORT $LN130@Create_MVD
	mov	eax, DWORD PTR [eax+376]
	push	1
	call	eax
	movzx	ecx, al
	mov	eax, DWORD PTR ?AVS_linkage@@3PBUAVS_Linkage@@B ; AVS_linkage
	jmp	SHORT $LN131@Create_MVD
$LN130@Create_MVD:
	xor	ecx, ecx
$LN131@Create_MVD:
; File c:\github\mvtools\sources\interface.cpp

; 226  : 	return new MVDepan(

	push	ecx
; File c:\github\mvtools\sources\include\avisynth.h

; 1043 :   const AVSValue& operator[](int index) const AVS_BakedCode( return AVS_LinkCallV(AVSValue_OPERATOR_INDEX)(index) )

	test	eax, eax
	je	SHORT $LN134@Create_MVD
	cmp	DWORD PTR [eax], 324			; 00000144H
	jbe	SHORT $LN134@Create_MVD
	mov	eax, DWORD PTR [eax+324]
	lea	ecx, DWORD PTR _args$[ebp]
	push	3
	call	eax
	mov	ecx, eax
	mov	eax, DWORD PTR ?AVS_linkage@@3PBUAVS_Linkage@@B ; AVS_linkage
	jmp	SHORT $LN135@Create_MVD
$LN134@Create_MVD:
	lea	ecx, DWORD PTR _args$[ebp]
$LN135@Create_MVD:

; 1034 :   bool AsBool(bool def) const AVS_BakedCode( return AVS_LinkCall(AsBool2)(def) )

	test	eax, eax
	je	SHORT $LN138@Create_MVD
	cmp	DWORD PTR [eax], 376			; 00000178H
	jbe	SHORT $LN138@Create_MVD
	mov	eax, DWORD PTR [eax+376]
	push	1
	call	eax
	movzx	ecx, al
	mov	eax, DWORD PTR ?AVS_linkage@@3PBUAVS_Linkage@@B ; AVS_linkage
	jmp	SHORT $LN139@Create_MVD
$LN138@Create_MVD:
	xor	ecx, ecx
$LN139@Create_MVD:
; File c:\github\mvtools\sources\interface.cpp

; 226  : 	return new MVDepan(

	push	ecx
	push	ecx
	mov	DWORD PTR $T7[ebp], esp
	mov	ecx, esp
; File c:\github\mvtools\sources\include\avisynth.h

; 937  :   PClip(const PClip& x) AVS_BakedCode( AVS_LinkCall(PClip_CONSTRUCTOR1)(x) )

	test	eax, eax
	je	SHORT $LN142@Create_MVD
	cmp	DWORD PTR [eax], 232			; 000000e8H
	jbe	SHORT $LN142@Create_MVD
	mov	eax, DWORD PTR [eax+232]
	push	esi
	call	eax
	mov	eax, DWORD PTR ?AVS_linkage@@3PBUAVS_Linkage@@B ; AVS_linkage
$LN142@Create_MVD:
; File c:\github\mvtools\sources\interface.cpp

; 226  : 	return new MVDepan(

	mov	DWORD PTR __$EHRec$[ebp+8], 4
; File c:\github\mvtools\sources\include\avisynth.h

; 1043 :   const AVSValue& operator[](int index) const AVS_BakedCode( return AVS_LinkCallV(AVSValue_OPERATOR_INDEX)(index) )

	test	eax, eax
	je	SHORT $LN146@Create_MVD
	cmp	DWORD PTR [eax], 324			; 00000144H
	jbe	SHORT $LN146@Create_MVD
	mov	eax, DWORD PTR [eax+324]
	lea	ecx, DWORD PTR _args$[ebp]
	push	1
	call	eax
	mov	ecx, eax
	jmp	SHORT $LN147@Create_MVD
$LN146@Create_MVD:
	lea	ecx, DWORD PTR _args$[ebp]
$LN147@Create_MVD:
; File c:\github\mvtools\sources\interface.cpp

; 226  : 	return new MVDepan(

	push	ecx
	mov	eax, esp
	mov	DWORD PTR $T2[ebp], esp
	push	eax
	call	?AsClip@AVSValue@@QBE?AVPClip@@XZ	; AVSValue::AsClip
	mov	BYTE PTR __$EHRec$[ebp+8], 5
; File c:\github\mvtools\sources\include\avisynth.h

; 1043 :   const AVSValue& operator[](int index) const AVS_BakedCode( return AVS_LinkCallV(AVSValue_OPERATOR_INDEX)(index) )

	mov	eax, DWORD PTR ?AVS_linkage@@3PBUAVS_Linkage@@B ; AVS_linkage
	test	eax, eax
	je	SHORT $LN150@Create_MVD
	cmp	DWORD PTR [eax], 324			; 00000144H
	jbe	SHORT $LN150@Create_MVD
	mov	eax, DWORD PTR [eax+324]
	lea	ecx, DWORD PTR _args$[ebp]
	push	0
	call	eax
	mov	ecx, eax
	jmp	SHORT $LN151@Create_MVD
$LN150@Create_MVD:
	lea	ecx, DWORD PTR _args$[ebp]
$LN151@Create_MVD:
; File c:\github\mvtools\sources\interface.cpp

; 226  : 	return new MVDepan(

	push	ecx
	push	esp
	call	?AsClip@AVSValue@@QBE?AVPClip@@XZ	; AVSValue::AsClip
	mov	ecx, edi
	mov	BYTE PTR __$EHRec$[ebp+8], 3
	call	??0MVDepan@@QAE@VPClip@@00_N1MM1PBDMMHHH11PAVIScriptEnvironment@@@Z ; MVDepan::MVDepan
; File c:\github\mvtools\sources\include\avisynth.h

; 999  :   AVSValue(IClip* c) AVS_BakedCode( AVS_LinkCall(AVSValue_CONSTRUCTOR1)(c) )

	mov	esi, DWORD PTR ___$ReturnUdt$[ebp]
; File c:\github\mvtools\sources\interface.cpp

; 226  : 	return new MVDepan(

	mov	DWORD PTR __$EHRec$[ebp+8], 7
; File c:\github\mvtools\sources\include\avisynth.h

; 999  :   AVSValue(IClip* c) AVS_BakedCode( AVS_LinkCall(AVSValue_CONSTRUCTOR1)(c) )

	mov	edx, DWORD PTR ?AVS_linkage@@3PBUAVS_Linkage@@B ; AVS_linkage
	test	edx, edx
	je	SHORT $LN154@Create_MVD
	cmp	DWORD PTR [edx], 280			; 00000118H
	jbe	SHORT $LN154@Create_MVD
	push	eax
	mov	eax, DWORD PTR [edx+280]
	mov	ecx, esi
	call	eax
	mov	edx, DWORD PTR ?AVS_linkage@@3PBUAVS_Linkage@@B ; AVS_linkage
$LN154@Create_MVD:
	or	ebx, 4
; File c:\github\mvtools\sources\interface.cpp

; 226  : 	return new MVDepan(

	test	bl, 2
	je	SHORT $LN158@Create_MVD
	and	ebx, -3					; fffffffdH
	mov	DWORD PTR $T6[ebp], ebx
; File c:\github\mvtools\sources\include\avisynth.h

; 948  :   ~PClip() AVS_BakedCode( AVS_LinkCall(PClip_DESTRUCTOR)() )

	mov	DWORD PTR __$EHRec$[ebp+8], 8
	test	edx, edx
	je	SHORT $LN158@Create_MVD
	cmp	DWORD PTR [edx], 248			; 000000f8H
	jbe	SHORT $LN158@Create_MVD
	mov	eax, DWORD PTR [edx+248]
	lea	ecx, DWORD PTR $T5[ebp]
	call	eax
	mov	edx, DWORD PTR ?AVS_linkage@@3PBUAVS_Linkage@@B ; AVS_linkage
$LN158@Create_MVD:
; File c:\github\mvtools\sources\interface.cpp

; 226  : 	return new MVDepan(

	mov	DWORD PTR __$EHRec$[ebp+8], 0
	test	bl, 1
	je	SHORT $LN163@Create_MVD
; File c:\github\mvtools\sources\include\avisynth.h

; 948  :   ~PClip() AVS_BakedCode( AVS_LinkCall(PClip_DESTRUCTOR)() )

	mov	BYTE PTR __$EHRec$[ebp+8], 9
	test	edx, edx
	je	SHORT $LN163@Create_MVD
	cmp	DWORD PTR [edx], 248			; 000000f8H
	jbe	SHORT $LN163@Create_MVD
	mov	eax, DWORD PTR [edx+248]
	lea	ecx, DWORD PTR $T4[ebp]
	call	eax
	mov	edx, DWORD PTR ?AVS_linkage@@3PBUAVS_Linkage@@B ; AVS_linkage
$LN163@Create_MVD:

; 1011 :   ~AVSValue() AVS_BakedCode( AVS_LinkCall(AVSValue_DESTRUCTOR)() )

	mov	DWORD PTR __$EHRec$[ebp+8], 10		; 0000000aH
	test	edx, edx
	je	SHORT $LN171@Create_MVD
	cmp	DWORD PTR [edx], 316			; 0000013cH
	jbe	SHORT $LN171@Create_MVD
	mov	edx, DWORD PTR [edx+316]
	lea	ecx, DWORD PTR _args$[ebp]
	call	edx
$LN171@Create_MVD:
; File c:\github\mvtools\sources\interface.cpp

; 245  : }

	mov	ecx, DWORD PTR __$EHRec$[ebp]
	mov	eax, esi
	pop	edi
	pop	esi
	mov	DWORD PTR fs:0, ecx
	pop	ebx
	mov	esp, ebp
	pop	ebp
	ret	0
_TEXT	ENDS
;	COMDAT text$x
text$x	SEGMENT
__unwindfunclet$?Create_MVDepan@@YA?AVAVSValue@@V1@PAXPAVIScriptEnvironment@@@Z$0:
	lea	ecx, DWORD PTR _args$[ebp]
	jmp	??1AVSValue@@QAE@XZ			; AVSValue::~AVSValue
__unwindfunclet$?Create_MVDepan@@YA?AVAVSValue@@V1@PAXPAVIScriptEnvironment@@@Z$1:
	push	608					; 00000260H
	mov	eax, DWORD PTR $T3[ebp]
	push	eax
	call	??3@YAXPAXI@Z				; operator delete
	add	esp, 8
	ret	0
__unwindfunclet$?Create_MVDepan@@YA?AVAVSValue@@V1@PAXPAVIScriptEnvironment@@@Z$2:
	mov	eax, DWORD PTR $T6[ebp]
	and	eax, 1
	je	$LN10@Create_MVD
	and	DWORD PTR $T6[ebp], -2			; fffffffeH
	lea	ecx, DWORD PTR $T4[ebp]
	jmp	??1PClip@@QAE@XZ			; PClip::~PClip
$LN10@Create_MVD:
	ret	0
__unwindfunclet$?Create_MVDepan@@YA?AVAVSValue@@V1@PAXPAVIScriptEnvironment@@@Z$3:
	mov	eax, DWORD PTR $T6[ebp]
	and	eax, 2
	je	$LN12@Create_MVD
	and	DWORD PTR $T6[ebp], -3			; fffffffdH
	lea	ecx, DWORD PTR $T5[ebp]
	jmp	??1PClip@@QAE@XZ			; PClip::~PClip
$LN12@Create_MVD:
	ret	0
__unwindfunclet$?Create_MVDepan@@YA?AVAVSValue@@V1@PAXPAVIScriptEnvironment@@@Z$4:
	mov	ecx, DWORD PTR $T7[ebp]
	jmp	??1PClip@@QAE@XZ			; PClip::~PClip
__unwindfunclet$?Create_MVDepan@@YA?AVAVSValue@@V1@PAXPAVIScriptEnvironment@@@Z$5:
	mov	ecx, DWORD PTR $T2[ebp]
	jmp	??1PClip@@QAE@XZ			; PClip::~PClip
__unwindfunclet$?Create_MVDepan@@YA?AVAVSValue@@V1@PAXPAVIScriptEnvironment@@@Z$8:
	call	DWORD PTR __imp____std_terminate
	ret	0
__unwindfunclet$?Create_MVDepan@@YA?AVAVSValue@@V1@PAXPAVIScriptEnvironment@@@Z$9:
	call	DWORD PTR __imp____std_terminate
	ret	0
__unwindfunclet$?Create_MVDepan@@YA?AVAVSValue@@V1@PAXPAVIScriptEnvironment@@@Z$10:
	call	DWORD PTR __imp____std_terminate
	ret	0
__ehhandler$?Create_MVDepan@@YA?AVAVSValue@@V1@PAXPAVIScriptEnvironment@@@Z:
	mov	eax, OFFSET __ehfuncinfo$?Create_MVDepan@@YA?AVAVSValue@@V1@PAXPAVIScriptEnvironment@@@Z
	jmp	___CxxFrameHandler3
text$x	ENDS
?Create_MVDepan@@YA?AVAVSValue@@V1@PAXPAVIScriptEnvironment@@@Z ENDP ; Create_MVDepan
; Function compile flags: /Ogtpy
; File c:\github\mvtools\sources\interface.cpp
; File c:\github\mvtools\sources\include\avisynth.h
; File c:\github\mvtools\sources\interface.cpp
; File c:\github\mvtools\sources\include\avisynth.h
; File c:\github\mvtools\sources\interface.cpp
; File c:\github\mvtools\sources\include\avisynth.h
; File c:\github\mvtools\sources\interface.cpp
; File c:\github\mvtools\sources\include\avisynth.h
; File c:\github\mvtools\sources\interface.cpp
; File c:\github\mvtools\sources\include\avisynth.h
; File c:\github\mvtools\sources\interface.cpp
; File c:\github\mvtools\sources\include\avisynth.h
; File c:\github\mvtools\sources\interface.cpp
; File c:\github\mvtools\sources\include\avisynth.h
; File c:\github\mvtools\sources\interface.cpp
; File c:\github\mvtools\sources\include\avisynth.h
; File c:\github\mvtools\sources\interface.cpp
; File c:\github\mvtools\sources\include\avisynth.h
; File c:\github\mvtools\sources\interface.cpp
; File c:\github\mvtools\sources\include\avisynth.h
; File c:\github\mvtools\sources\interface.cpp
; File c:\github\mvtools\sources\include\avisynth.h
; File c:\github\mvtools\sources\interface.cpp
; File c:\github\mvtools\sources\include\avisynth.h
; File c:\github\mvtools\sources\interface.cpp
; File c:\github\mvtools\sources\include\avisynth.h
; File c:\github\mvtools\sources\interface.cpp
; File c:\github\mvtools\sources\include\avisynth.h
; File c:\github\mvtools\sources\interface.cpp
; File c:\github\mvtools\sources\include\avisynth.h
; File c:\github\mvtools\sources\interface.cpp
; File c:\github\mvtools\sources\include\avisynth.h
; File c:\github\mvtools\sources\interface.cpp
; File c:\github\mvtools\sources\include\avisynth.h
; File c:\github\mvtools\sources\interface.cpp
; File c:\github\mvtools\sources\include\avisynth.h
; File c:\github\mvtools\sources\interface.cpp
; File c:\github\mvtools\sources\include\avisynth.h
; File c:\github\mvtools\sources\interface.cpp
;	COMDAT ?Create_MVFlow@@YA?AVAVSValue@@V1@PAXPAVIScriptEnvironment@@@Z
_TEXT	SEGMENT
_time$ = -44						; size = 8
$T2 = -36						; size = 4
$T3 = -32						; size = 4
$T4 = -28						; size = 4
$T5 = -24						; size = 4
$T6 = -20						; size = 4
$T7 = -16						; size = 4
__$EHRec$ = -12						; size = 12
___$ReturnUdt$ = 8					; size = 4
_args$ = 12						; size = 8
___formal$ = 20						; size = 4
$T8 = 24						; size = 4
_env$ = 24						; size = 4
?Create_MVFlow@@YA?AVAVSValue@@V1@PAXPAVIScriptEnvironment@@@Z PROC ; Create_MVFlow, COMDAT

; 249  : {

	push	ebp
	mov	ebp, esp
	push	-1
	push	__ehhandler$?Create_MVFlow@@YA?AVAVSValue@@V1@PAXPAVIScriptEnvironment@@@Z
	mov	eax, DWORD PTR fs:0
	push	eax
	mov	DWORD PTR fs:0, esp
	sub	esp, 32					; 00000020H
	push	ebx
	push	esi
	push	edi
	mov	DWORD PTR $T7[ebp], 0
	mov	DWORD PTR __$EHRec$[ebp+8], 0
; File c:\github\mvtools\sources\include\avisynth.h

; 1043 :   const AVSValue& operator[](int index) const AVS_BakedCode( return AVS_LinkCallV(AVSValue_OPERATOR_INDEX)(index) )

	mov	eax, DWORD PTR ?AVS_linkage@@3PBUAVS_Linkage@@B ; AVS_linkage
	test	eax, eax
	je	SHORT $LN25@Create_MVF
	cmp	DWORD PTR [eax], 324			; 00000144H
	jbe	SHORT $LN25@Create_MVF
	mov	eax, DWORD PTR [eax+324]
	lea	ecx, DWORD PTR _args$[ebp]
	push	3
	call	eax
	mov	ecx, eax
	mov	eax, DWORD PTR ?AVS_linkage@@3PBUAVS_Linkage@@B ; AVS_linkage
	jmp	SHORT $LN26@Create_MVF
$LN25@Create_MVF:
	lea	ecx, DWORD PTR _args$[ebp]
$LN26@Create_MVF:

; 1037 :   double AsFloat(float def) const AVS_BakedCode( return AVS_LinkCall(AsFloat2)(def) )

	mov	esi, DWORD PTR _env$[ebp]
	test	eax, eax
	je	SHORT $LN29@Create_MVF
	cmp	DWORD PTR [eax], 388			; 00000184H
	jbe	SHORT $LN29@Create_MVF
	mov	eax, DWORD PTR [eax+388]
	push	ecx
	mov	DWORD PTR [esp], 1120403456		; 42c80000H
	call	eax
	fstp	QWORD PTR _time$[ebp]
; File c:\github\mvtools\sources\interface.cpp

; 251  : 	if (time<0 || time>100)

	movsd	xmm1, QWORD PTR _time$[ebp]
	xorps	xmm0, xmm0
	comisd	xmm0, xmm1
	ja	SHORT $LN3@Create_MVF
	movsd	xmm0, QWORD PTR __real@4059000000000000
	comisd	xmm1, xmm0
	jbe	SHORT $LN2@Create_MVF
$LN3@Create_MVF:

; 252  : 	{
; 253  : 	   env->ThrowError("MVFlow: Time must be from 0 to 100 percent.");

	mov	eax, DWORD PTR [esi]
	push	OFFSET ??_C@_0CM@CLNNBAEJ@MVFlow?3?5Time?5must?5be?5from?50?5to?51@
	push	esi
	call	DWORD PTR [eax+20]
	movsd	xmm1, QWORD PTR _time$[ebp]
	add	esp, 8
	jmp	SHORT $LN135@Create_MVF
$LN29@Create_MVF:
	xorps	xmm1, xmm1
$LN135@Create_MVF:
	movsd	xmm0, QWORD PTR __real@4059000000000000
$LN2@Create_MVF:

; 254  : 	}
; 255  : 	int time256 = int(time*256.0/100.0);

	mulsd	xmm1, QWORD PTR __real@4070000000000000

; 256  : 	return new MVFlow(

	push	504					; 000001f8H
	divsd	xmm1, xmm0
	cvttsd2si edi, xmm1
	call	??2@YAPAXI@Z				; operator new
	add	esp, 4
	mov	DWORD PTR $T6[ebp], eax
	mov	BYTE PTR __$EHRec$[ebp+8], 1
; File c:\github\mvtools\sources\include\avisynth.h

; 1043 :   const AVSValue& operator[](int index) const AVS_BakedCode( return AVS_LinkCallV(AVSValue_OPERATOR_INDEX)(index) )

	mov	eax, DWORD PTR ?AVS_linkage@@3PBUAVS_Linkage@@B ; AVS_linkage
	test	eax, eax
	je	SHORT $LN33@Create_MVF
	cmp	DWORD PTR [eax], 324			; 00000144H
	jbe	SHORT $LN33@Create_MVF
	mov	eax, DWORD PTR [eax+324]
	lea	ecx, DWORD PTR _args$[ebp]
	push	10					; 0000000aH
	call	eax
	mov	ecx, eax
	mov	eax, DWORD PTR ?AVS_linkage@@3PBUAVS_Linkage@@B ; AVS_linkage
	jmp	SHORT $LN34@Create_MVF
$LN33@Create_MVF:
	lea	ecx, DWORD PTR _args$[ebp]
$LN34@Create_MVF:

; 1018 :   bool IsClip() const AVS_BakedCode( return AVS_LinkCall(IsClip)() )

	test	eax, eax
	je	SHORT $LN45@Create_MVF
	cmp	DWORD PTR [eax], 332			; 0000014cH
	jbe	SHORT $LN5@Create_MVF
	mov	eax, DWORD PTR [eax+332]
	call	eax
	movzx	eax, al
; File c:\github\mvtools\sources\interface.cpp

; 256  : 	return new MVFlow(

	test	al, al
; File c:\github\mvtools\sources\include\avisynth.h

; 1043 :   const AVSValue& operator[](int index) const AVS_BakedCode( return AVS_LinkCallV(AVSValue_OPERATOR_INDEX)(index) )

	mov	eax, DWORD PTR ?AVS_linkage@@3PBUAVS_Linkage@@B ; AVS_linkage
; File c:\github\mvtools\sources\interface.cpp

; 256  : 	return new MVFlow(

	je	SHORT $LN5@Create_MVF
; File c:\github\mvtools\sources\include\avisynth.h

; 1043 :   const AVSValue& operator[](int index) const AVS_BakedCode( return AVS_LinkCallV(AVSValue_OPERATOR_INDEX)(index) )

	test	eax, eax
	je	SHORT $LN41@Create_MVF
	cmp	DWORD PTR [eax], 324			; 00000144H
	jbe	SHORT $LN41@Create_MVF
	mov	eax, DWORD PTR [eax+324]
	lea	ecx, DWORD PTR _args$[ebp]
	push	10					; 0000000aH
	call	eax
	jmp	SHORT $LN42@Create_MVF
$LN41@Create_MVF:
	lea	eax, DWORD PTR _args$[ebp]
$LN42@Create_MVF:
; File c:\github\mvtools\sources\interface.cpp

; 256  : 	return new MVFlow(

	lea	ecx, DWORD PTR $T5[ebp]
	push	ecx
	mov	ecx, eax
	call	?AsClip@AVSValue@@QBE?AVPClip@@XZ	; AVSValue::AsClip
	mov	ecx, eax
	mov	BYTE PTR __$EHRec$[ebp+8], 2
	mov	ebx, 1
	mov	eax, DWORD PTR ?AVS_linkage@@3PBUAVS_Linkage@@B ; AVS_linkage
	jmp	SHORT $LN136@Create_MVF
$LN5@Create_MVF:
; File c:\github\mvtools\sources\include\avisynth.h

; 938  :   PClip(IClip* x) AVS_BakedCode( AVS_LinkCall(PClip_CONSTRUCTOR2)(x) )

	test	eax, eax
	je	SHORT $LN45@Create_MVF
	cmp	DWORD PTR [eax], 236			; 000000ecH
	jbe	SHORT $LN45@Create_MVF
	mov	eax, DWORD PTR [eax+236]
	lea	ecx, DWORD PTR $T8[ebp]
	push	0
	call	eax
	mov	eax, DWORD PTR ?AVS_linkage@@3PBUAVS_Linkage@@B ; AVS_linkage
$LN45@Create_MVF:
; File c:\github\mvtools\sources\interface.cpp

; 256  : 	return new MVFlow(

	lea	ecx, DWORD PTR $T8[ebp]
	mov	DWORD PTR __$EHRec$[ebp+8], 3
	mov	ebx, 2
$LN136@Create_MVF:
	mov	DWORD PTR $T7[ebp], ebx
	push	esi
	push	ecx
	mov	DWORD PTR $T4[ebp], esp
	mov	edx, esp
; File c:\github\mvtools\sources\include\avisynth.h

; 937  :   PClip(const PClip& x) AVS_BakedCode( AVS_LinkCall(PClip_CONSTRUCTOR1)(x) )

	test	eax, eax
