; Listing generated by Microsoft (R) Optimizing Compiler Version 19.00.24215.1 

	TITLE	c:\github\mvtools\sources\mdegrainn.cpp
	.686P
	.XMM
	include listing.inc
	.model	flat

INCLUDELIB OLDNAMES

PUBLIC	??_C@_04DNAGLECB@mvbw?$AA@			; `string'
PUBLIC	??_C@_04DKAPBMPN@mvfw?$AA@			; `string'
PUBLIC	??_C@_0CO@DEKDPFLP@MDegrainN?3?5temporal?5radius?5too?5l@ ; `string'
PUBLIC	??_C@_0CP@EGMOGFCC@MDegrainN?3?5temporal?5radius?5must?5@ ; `string'
PUBLIC	??_C@_04HGGBINEM@?$CFs?$CFd?$AA@		; `string'
PUBLIC	??_C@_0CN@LKJJHKJJ@MDegrainN?5?3?5wrong?5source?5or?5supe@ ; `string'
PUBLIC	??_C@_0CM@JJAGFGCG@MDegrainN?5?3?5lsb_flag?5only?5for?58?5@ ; `string'
PUBLIC	??_C@_0FG@FPIOMAPB@MDegrainN?5?3?5no?5valid?5_oversluma_@ ; `string'
PUBLIC	??_C@_0FI@JLEGDAGJ@MDegrainN?5?3?5no?5valid?5_overschrom@ ; `string'
PUBLIC	??_C@_0FC@HLHCAJJK@MDegrainN?5?3?5no?5valid?5_oversluma_@ ; `string'
PUBLIC	??_C@_0FE@LMEDIIDI@MDegrainN?5?3?5no?5valid?5_overschrom@ ; `string'
PUBLIC	??_C@_0FE@HBFDJOBA@MDegrainN?5?3?5no?5valid?5_degrainlum@ ; `string'
PUBLIC	??_C@_0FG@BDEEPEDP@MDegrainN?5?3?5no?5valid?5_degrainchr@ ; `string'
PUBLIC	??_R1A@?0A@EA@IClip@@8				; IClip::`RTTI Base Class Descriptor at (0,-1,0,64)'
PUBLIC	??_R3?$AioAdd@H@conc@@8				; conc::AioAdd<int>::`RTTI Class Hierarchy Descriptor'
PUBLIC	??_R3?$MTSlicer@VMDegrainN@@V1@$0EA@@@8		; MTSlicer<MDegrainN,MDegrainN,64>::`RTTI Class Hierarchy Descriptor'
PUBLIC	??_7IClip@@6B@					; IClip::`vftable'
PUBLIC	??_R1A@?0A@EA@MVFilter@@8			; MVFilter::`RTTI Base Class Descriptor at (0,-1,0,64)'
PUBLIC	??_R2GenericVideoFilter@@8			; GenericVideoFilter::`RTTI Base Class Array'
PUBLIC	??_R4IClip@@6B@					; IClip::`RTTI Complete Object Locator'
PUBLIC	??_R2MVFilter@@8				; MVFilter::`RTTI Base Class Array'
PUBLIC	??_R1A@?0A@EA@?$MTSlicer@VMDegrainN@@V1@$0EA@@@8 ; MTSlicer<MDegrainN,MDegrainN,64>::`RTTI Base Class Descriptor at (0,-1,0,64)'
PUBLIC	?_OptionsStorage@?1??__local_stdio_printf_options@@9@4_KA ; `__local_stdio_printf_options'::`2'::_OptionsStorage
PUBLIC	??_R1EA@?0A@EA@MVFilter@@8			; MVFilter::`RTTI Base Class Descriptor at (64,-1,0,64)'
PUBLIC	??_R0?AV?$MTSlicer@VMDegrainN@@V1@$0EA@@@@8	; MTSlicer<MDegrainN,MDegrainN,64> `RTTI Type Descriptor'
PUBLIC	??_R0?AVMVFilter@@@8				; MVFilter `RTTI Type Descriptor'
PUBLIC	??_R1A@?0A@EA@GenericVideoFilter@@8		; GenericVideoFilter::`RTTI Base Class Descriptor at (0,-1,0,64)'
PUBLIC	??_R0?AVGenericVideoFilter@@@8			; GenericVideoFilter `RTTI Type Descriptor'
PUBLIC	??_R3MDegrainN@@8				; MDegrainN::`RTTI Class Hierarchy Descriptor'
PUBLIC	??_R4?$MTSlicer@VMDegrainN@@V1@$0EA@@@6B@	; MTSlicer<MDegrainN,MDegrainN,64>::`RTTI Complete Object Locator'
PUBLIC	??_R2?$AioAdd@H@conc@@8				; conc::AioAdd<int>::`RTTI Base Class Array'
PUBLIC	??_R2IClip@@8					; IClip::`RTTI Base Class Array'
PUBLIC	??_R4?$AioAdd@H@conc@@6B@			; conc::AioAdd<int>::`RTTI Complete Object Locator'
PUBLIC	??_R2MDegrainN@@8				; MDegrainN::`RTTI Base Class Array'
PUBLIC	??_7?$MTSlicer@VMDegrainN@@V1@$0EA@@@6B@	; MTSlicer<MDegrainN,MDegrainN,64>::`vftable'
PUBLIC	??_R3MVFilter@@8				; MVFilter::`RTTI Class Hierarchy Descriptor'
PUBLIC	??_R0?AVMDegrainN@@@8				; MDegrainN `RTTI Type Descriptor'
PUBLIC	??_7?$AioAdd@H@conc@@6B@			; conc::AioAdd<int>::`vftable'
PUBLIC	??_R2?$MTSlicer@VMDegrainN@@V1@$0EA@@@8		; MTSlicer<MDegrainN,MDegrainN,64>::`RTTI Base Class Array'
PUBLIC	??_7GenericVideoFilter@@6B@			; GenericVideoFilter::`vftable'
PUBLIC	??_R3GenericVideoFilter@@8			; GenericVideoFilter::`RTTI Class Hierarchy Descriptor'
PUBLIC	??_R4MDegrainN@@6B@				; MDegrainN::`RTTI Complete Object Locator'
PUBLIC	??_R4GenericVideoFilter@@6B@			; GenericVideoFilter::`RTTI Complete Object Locator'
PUBLIC	??_R3IClip@@8					; IClip::`RTTI Class Hierarchy Descriptor'
PUBLIC	??_R1A@?0A@EA@?$AioAdd@H@conc@@8		; conc::AioAdd<int>::`RTTI Base Class Descriptor at (0,-1,0,64)'
PUBLIC	??_R0?AV?$AioAdd@H@conc@@@8			; conc::AioAdd<int> `RTTI Type Descriptor'
PUBLIC	??_R1A@?0A@EA@MDegrainN@@8			; MDegrainN::`RTTI Base Class Descriptor at (0,-1,0,64)'
PUBLIC	??_7MDegrainN@@6B@				; MDegrainN::`vftable'
PUBLIC	??_R0?AVIClip@@@8				; IClip `RTTI Type Descriptor'
EXTRN	__imp____stdio_common_vsprintf:PROC
EXTRN	__imp__memmove:PROC
;	COMDAT ?_OptionsStorage@?1??__local_stdio_printf_options@@9@4_KA
_BSS	SEGMENT
?_OptionsStorage@?1??__local_stdio_printf_options@@9@4_KA DQ 01H DUP (?) ; `__local_stdio_printf_options'::`2'::_OptionsStorage
_BSS	ENDS
;	COMDAT ??_R0?AVIClip@@@8
data$r	SEGMENT
??_R0?AVIClip@@@8 DD FLAT:??_7type_info@@6B@		; IClip `RTTI Type Descriptor'
	DD	00H
	DB	'.?AVIClip@@', 00H
data$r	ENDS
;	COMDAT ??_7MDegrainN@@6B@
CONST	SEGMENT
??_7MDegrainN@@6B@ DD FLAT:??_R4MDegrainN@@6B@		; MDegrainN::`vftable'
	DD	FLAT:?GetVersion@IClip@@UAGHXZ
	DD	FLAT:?GetFrame@MDegrainN@@UAG?AVPVideoFrame@@HPAVIScriptEnvironment@@@Z
	DD	FLAT:?GetParity@GenericVideoFilter@@UAG_NH@Z
	DD	FLAT:?GetAudio@GenericVideoFilter@@UAGXPAX_J1PAVIScriptEnvironment@@@Z
	DD	FLAT:?SetCacheHints@MDegrainN@@UAGHHH@Z
	DD	FLAT:?GetVideoInfo@GenericVideoFilter@@UAGABUVideoInfo@@XZ
	DD	FLAT:??_EMDegrainN@@UAEPAXI@Z
CONST	ENDS
;	COMDAT ??_R1A@?0A@EA@MDegrainN@@8
rdata$r	SEGMENT
??_R1A@?0A@EA@MDegrainN@@8 DD FLAT:??_R0?AVMDegrainN@@@8 ; MDegrainN::`RTTI Base Class Descriptor at (0,-1,0,64)'
	DD	03H
	DD	00H
	DD	0ffffffffH
	DD	00H
	DD	040H
	DD	FLAT:??_R3MDegrainN@@8
rdata$r	ENDS
;	COMDAT ??_R0?AV?$AioAdd@H@conc@@@8
data$r	SEGMENT
??_R0?AV?$AioAdd@H@conc@@@8 DD FLAT:??_7type_info@@6B@	; conc::AioAdd<int> `RTTI Type Descriptor'
	DD	00H
	DB	'.?AV?$AioAdd@H@conc@@', 00H
data$r	ENDS
;	COMDAT ??_R1A@?0A@EA@?$AioAdd@H@conc@@8
rdata$r	SEGMENT
??_R1A@?0A@EA@?$AioAdd@H@conc@@8 DD FLAT:??_R0?AV?$AioAdd@H@conc@@@8 ; conc::AioAdd<int>::`RTTI Base Class Descriptor at (0,-1,0,64)'
	DD	00H
	DD	00H
	DD	0ffffffffH
	DD	00H
	DD	040H
	DD	FLAT:??_R3?$AioAdd@H@conc@@8
rdata$r	ENDS
;	COMDAT ??_R3IClip@@8
rdata$r	SEGMENT
??_R3IClip@@8 DD 00H					; IClip::`RTTI Class Hierarchy Descriptor'
	DD	00H
	DD	01H
	DD	FLAT:??_R2IClip@@8
rdata$r	ENDS
;	COMDAT ??_R4GenericVideoFilter@@6B@
rdata$r	SEGMENT
??_R4GenericVideoFilter@@6B@ DD 00H			; GenericVideoFilter::`RTTI Complete Object Locator'
	DD	00H
	DD	00H
	DD	FLAT:??_R0?AVGenericVideoFilter@@@8
	DD	FLAT:??_R3GenericVideoFilter@@8
rdata$r	ENDS
;	COMDAT ??_R4MDegrainN@@6B@
rdata$r	SEGMENT
??_R4MDegrainN@@6B@ DD 00H				; MDegrainN::`RTTI Complete Object Locator'
	DD	00H
	DD	00H
	DD	FLAT:??_R0?AVMDegrainN@@@8
	DD	FLAT:??_R3MDegrainN@@8
rdata$r	ENDS
;	COMDAT ??_R3GenericVideoFilter@@8
rdata$r	SEGMENT
??_R3GenericVideoFilter@@8 DD 00H			; GenericVideoFilter::`RTTI Class Hierarchy Descriptor'
	DD	00H
	DD	02H
	DD	FLAT:??_R2GenericVideoFilter@@8
rdata$r	ENDS
;	COMDAT ??_7GenericVideoFilter@@6B@
CONST	SEGMENT
??_7GenericVideoFilter@@6B@ DD FLAT:??_R4GenericVideoFilter@@6B@ ; GenericVideoFilter::`vftable'
	DD	FLAT:?GetVersion@IClip@@UAGHXZ
	DD	FLAT:?GetFrame@GenericVideoFilter@@UAG?AVPVideoFrame@@HPAVIScriptEnvironment@@@Z
	DD	FLAT:?GetParity@GenericVideoFilter@@UAG_NH@Z
	DD	FLAT:?GetAudio@GenericVideoFilter@@UAGXPAX_J1PAVIScriptEnvironment@@@Z
	DD	FLAT:?SetCacheHints@GenericVideoFilter@@UAGHHH@Z
	DD	FLAT:?GetVideoInfo@GenericVideoFilter@@UAGABUVideoInfo@@XZ
	DD	FLAT:??_EGenericVideoFilter@@UAEPAXI@Z
CONST	ENDS
;	COMDAT ??_R2?$MTSlicer@VMDegrainN@@V1@$0EA@@@8
rdata$r	SEGMENT
??_R2?$MTSlicer@VMDegrainN@@V1@$0EA@@@8 DD FLAT:??_R1A@?0A@EA@?$MTSlicer@VMDegrainN@@V1@$0EA@@@8 ; MTSlicer<MDegrainN,MDegrainN,64>::`RTTI Base Class Array'
rdata$r	ENDS
;	COMDAT ??_7?$AioAdd@H@conc@@6B@
CONST	SEGMENT
??_7?$AioAdd@H@conc@@6B@ DD FLAT:??_R4?$AioAdd@H@conc@@6B@ ; conc::AioAdd<int>::`vftable'
	DD	FLAT:??_E?$AioAdd@H@conc@@UAEPAXI@Z
CONST	ENDS
;	COMDAT ??_R0?AVMDegrainN@@@8
data$r	SEGMENT
??_R0?AVMDegrainN@@@8 DD FLAT:??_7type_info@@6B@	; MDegrainN `RTTI Type Descriptor'
	DD	00H
	DB	'.?AVMDegrainN@@', 00H
data$r	ENDS
;	COMDAT ??_R3MVFilter@@8
rdata$r	SEGMENT
??_R3MVFilter@@8 DD 00H					; MVFilter::`RTTI Class Hierarchy Descriptor'
	DD	00H
	DD	01H
	DD	FLAT:??_R2MVFilter@@8
rdata$r	ENDS
;	COMDAT ?name_0@?L@???0MDegrainN@@QAE@VPClip@@00HHHHHHHH_N11HH1PAVIScriptEnvironment@@@Z@4PAPBDA
CONST	SEGMENT
?name_0@?L@???0MDegrainN@@QAE@VPClip@@00HHHHHHHH_N11HH1PAVIScriptEnvironment@@@Z@4PAPBDA DD FLAT:??_C@_04DNAGLECB@mvbw?$AA@ ; `MDegrainN::MDegrainN'::`11'::name_0
	DD	FLAT:??_C@_04DKAPBMPN@mvfw?$AA@
CONST	ENDS
;	COMDAT ??_7?$MTSlicer@VMDegrainN@@V1@$0EA@@@6B@
CONST	SEGMENT
??_7?$MTSlicer@VMDegrainN@@V1@$0EA@@@6B@ DD FLAT:??_R4?$MTSlicer@VMDegrainN@@V1@$0EA@@@6B@ ; MTSlicer<MDegrainN,MDegrainN,64>::`vftable'
	DD	FLAT:??_E?$MTSlicer@VMDegrainN@@V1@$0EA@@@UAEPAXI@Z
CONST	ENDS
;	COMDAT ??_R2MDegrainN@@8
rdata$r	SEGMENT
??_R2MDegrainN@@8 DD FLAT:??_R1A@?0A@EA@MDegrainN@@8	; MDegrainN::`RTTI Base Class Array'
	DD	FLAT:??_R1A@?0A@EA@GenericVideoFilter@@8
	DD	FLAT:??_R1A@?0A@EA@IClip@@8
	DD	FLAT:??_R1EA@?0A@EA@MVFilter@@8
rdata$r	ENDS
;	COMDAT ??_R4?$AioAdd@H@conc@@6B@
rdata$r	SEGMENT
??_R4?$AioAdd@H@conc@@6B@ DD 00H			; conc::AioAdd<int>::`RTTI Complete Object Locator'
	DD	00H
	DD	00H
	DD	FLAT:??_R0?AV?$AioAdd@H@conc@@@8
	DD	FLAT:??_R3?$AioAdd@H@conc@@8
rdata$r	ENDS
;	COMDAT ??_R2IClip@@8
rdata$r	SEGMENT
??_R2IClip@@8 DD FLAT:??_R1A@?0A@EA@IClip@@8		; IClip::`RTTI Base Class Array'
rdata$r	ENDS
;	COMDAT ??_R2?$AioAdd@H@conc@@8
rdata$r	SEGMENT
??_R2?$AioAdd@H@conc@@8 DD FLAT:??_R1A@?0A@EA@?$AioAdd@H@conc@@8 ; conc::AioAdd<int>::`RTTI Base Class Array'
rdata$r	ENDS
;	COMDAT ??_R4?$MTSlicer@VMDegrainN@@V1@$0EA@@@6B@
rdata$r	SEGMENT
??_R4?$MTSlicer@VMDegrainN@@V1@$0EA@@@6B@ DD 00H	; MTSlicer<MDegrainN,MDegrainN,64>::`RTTI Complete Object Locator'
	DD	00H
	DD	00H
	DD	FLAT:??_R0?AV?$MTSlicer@VMDegrainN@@V1@$0EA@@@@8
	DD	FLAT:??_R3?$MTSlicer@VMDegrainN@@V1@$0EA@@@8
rdata$r	ENDS
;	COMDAT ??_R3MDegrainN@@8
rdata$r	SEGMENT
??_R3MDegrainN@@8 DD 00H				; MDegrainN::`RTTI Class Hierarchy Descriptor'
	DD	01H
	DD	04H
	DD	FLAT:??_R2MDegrainN@@8
rdata$r	ENDS
;	COMDAT ??_R0?AVGenericVideoFilter@@@8
data$r	SEGMENT
??_R0?AVGenericVideoFilter@@@8 DD FLAT:??_7type_info@@6B@ ; GenericVideoFilter `RTTI Type Descriptor'
	DD	00H
	DB	'.?AVGenericVideoFilter@@', 00H
data$r	ENDS
;	COMDAT ??_R1A@?0A@EA@GenericVideoFilter@@8
rdata$r	SEGMENT
??_R1A@?0A@EA@GenericVideoFilter@@8 DD FLAT:??_R0?AVGenericVideoFilter@@@8 ; GenericVideoFilter::`RTTI Base Class Descriptor at (0,-1,0,64)'
	DD	01H
	DD	00H
	DD	0ffffffffH
	DD	00H
	DD	040H
	DD	FLAT:??_R3GenericVideoFilter@@8
rdata$r	ENDS
;	COMDAT ??_R0?AVMVFilter@@@8
data$r	SEGMENT
??_R0?AVMVFilter@@@8 DD FLAT:??_7type_info@@6B@		; MVFilter `RTTI Type Descriptor'
	DD	00H
	DB	'.?AVMVFilter@@', 00H
data$r	ENDS
;	COMDAT ??_R0?AV?$MTSlicer@VMDegrainN@@V1@$0EA@@@@8
data$r	SEGMENT
??_R0?AV?$MTSlicer@VMDegrainN@@V1@$0EA@@@@8 DD FLAT:??_7type_info@@6B@ ; MTSlicer<MDegrainN,MDegrainN,64> `RTTI Type Descriptor'
	DD	00H
	DB	'.?AV?$MTSlicer@VMDegrainN@@V1@$0EA@@@', 00H
data$r	ENDS
;	COMDAT ??_R1EA@?0A@EA@MVFilter@@8
rdata$r	SEGMENT
??_R1EA@?0A@EA@MVFilter@@8 DD FLAT:??_R0?AVMVFilter@@@8	; MVFilter::`RTTI Base Class Descriptor at (64,-1,0,64)'
	DD	00H
	DD	040H
	DD	0ffffffffH
	DD	00H
	DD	040H
	DD	FLAT:??_R3MVFilter@@8
rdata$r	ENDS
;	COMDAT ??_R1A@?0A@EA@?$MTSlicer@VMDegrainN@@V1@$0EA@@@8
rdata$r	SEGMENT
??_R1A@?0A@EA@?$MTSlicer@VMDegrainN@@V1@$0EA@@@8 DD FLAT:??_R0?AV?$MTSlicer@VMDegrainN@@V1@$0EA@@@@8 ; MTSlicer<MDegrainN,MDegrainN,64>::`RTTI Base Class Descriptor at (0,-1,0,64)'
	DD	00H
	DD	00H
	DD	0ffffffffH
	DD	00H
	DD	040H
	DD	FLAT:??_R3?$MTSlicer@VMDegrainN@@V1@$0EA@@@8
rdata$r	ENDS
;	COMDAT ??_R2MVFilter@@8
rdata$r	SEGMENT
??_R2MVFilter@@8 DD FLAT:??_R1A@?0A@EA@MVFilter@@8	; MVFilter::`RTTI Base Class Array'
rdata$r	ENDS
;	COMDAT ??_R4IClip@@6B@
rdata$r	SEGMENT
??_R4IClip@@6B@ DD 00H					; IClip::`RTTI Complete Object Locator'
	DD	00H
	DD	00H
	DD	FLAT:??_R0?AVIClip@@@8
	DD	FLAT:??_R3IClip@@8
rdata$r	ENDS
;	COMDAT ??_R2GenericVideoFilter@@8
rdata$r	SEGMENT
??_R2GenericVideoFilter@@8 DD FLAT:??_R1A@?0A@EA@GenericVideoFilter@@8 ; GenericVideoFilter::`RTTI Base Class Array'
	DD	FLAT:??_R1A@?0A@EA@IClip@@8
rdata$r	ENDS
;	COMDAT ??_R1A@?0A@EA@MVFilter@@8
rdata$r	SEGMENT
??_R1A@?0A@EA@MVFilter@@8 DD FLAT:??_R0?AVMVFilter@@@8	; MVFilter::`RTTI Base Class Descriptor at (0,-1,0,64)'
	DD	00H
	DD	00H
	DD	0ffffffffH
	DD	00H
	DD	040H
	DD	FLAT:??_R3MVFilter@@8
rdata$r	ENDS
;	COMDAT ??_7IClip@@6B@
CONST	SEGMENT
??_7IClip@@6B@ DD FLAT:??_R4IClip@@6B@			; IClip::`vftable'
	DD	FLAT:?GetVersion@IClip@@UAGHXZ
	DD	FLAT:__purecall
	DD	FLAT:__purecall
	DD	FLAT:__purecall
	DD	FLAT:__purecall
	DD	FLAT:__purecall
	DD	FLAT:??_EIClip@@UAEPAXI@Z
CONST	ENDS
;	COMDAT ??_R3?$MTSlicer@VMDegrainN@@V1@$0EA@@@8
rdata$r	SEGMENT
??_R3?$MTSlicer@VMDegrainN@@V1@$0EA@@@8 DD 00H		; MTSlicer<MDegrainN,MDegrainN,64>::`RTTI Class Hierarchy Descriptor'
	DD	00H
	DD	01H
	DD	FLAT:??_R2?$MTSlicer@VMDegrainN@@V1@$0EA@@@8
rdata$r	ENDS
;	COMDAT ??_R3?$AioAdd@H@conc@@8
rdata$r	SEGMENT
??_R3?$AioAdd@H@conc@@8 DD 00H				; conc::AioAdd<int>::`RTTI Class Hierarchy Descriptor'
	DD	00H
	DD	01H
	DD	FLAT:??_R2?$AioAdd@H@conc@@8
rdata$r	ENDS
;	COMDAT ??_R1A@?0A@EA@IClip@@8
rdata$r	SEGMENT
??_R1A@?0A@EA@IClip@@8 DD FLAT:??_R0?AVIClip@@@8	; IClip::`RTTI Base Class Descriptor at (0,-1,0,64)'
	DD	00H
	DD	00H
	DD	0ffffffffH
	DD	00H
	DD	040H
	DD	FLAT:??_R3IClip@@8
rdata$r	ENDS
;	COMDAT ??_C@_0FG@BDEEPEDP@MDegrainN?5?3?5no?5valid?5_degrainchr@
CONST	SEGMENT
??_C@_0FG@BDEEPEDP@MDegrainN?5?3?5no?5valid?5_degrainchr@ DB 'MDegrainN :'
	DB	' no valid _degrainchroma_ptr function for %dx%d, pixelsize=%d'
	DB	', lsb_flag=%d', 00H				; `string'
CONST	ENDS
;	COMDAT ??_C@_0FE@HBFDJOBA@MDegrainN?5?3?5no?5valid?5_degrainlum@
CONST	SEGMENT
??_C@_0FE@HBFDJOBA@MDegrainN?5?3?5no?5valid?5_degrainlum@ DB 'MDegrainN :'
	DB	' no valid _degrainluma_ptr function for %dx%d, pixelsize=%d, '
	DB	'lsb_flag=%d', 00H				; `string'
CONST	ENDS
;	COMDAT ??_C@_0FE@LMEDIIDI@MDegrainN?5?3?5no?5valid?5_overschrom@
CONST	SEGMENT
??_C@_0FE@LMEDIIDI@MDegrainN?5?3?5no?5valid?5_overschrom@ DB 'MDegrainN :'
	DB	' no valid _overschroma_ptr function for %dx%d, pixelsize=%d, '
	DB	'lsb_flag=%d', 00H				; `string'
CONST	ENDS
;	COMDAT ??_C@_0FC@HLHCAJJK@MDegrainN?5?3?5no?5valid?5_oversluma_@
CONST	SEGMENT
??_C@_0FC@HLHCAJJK@MDegrainN?5?3?5no?5valid?5_oversluma_@ DB 'MDegrainN :'
	DB	' no valid _oversluma_ptr function for %dx%d, pixelsize=%d, ls'
	DB	'b_flag=%d', 00H				; `string'
CONST	ENDS
;	COMDAT ??_C@_0FI@JLEGDAGJ@MDegrainN?5?3?5no?5valid?5_overschrom@
CONST	SEGMENT
??_C@_0FI@JLEGDAGJ@MDegrainN?5?3?5no?5valid?5_overschrom@ DB 'MDegrainN :'
	DB	' no valid _overschroma_lsb_ptr function for %dx%d, pixelsize='
	DB	'%d, lsb_flag=%d', 00H			; `string'
CONST	ENDS
;	COMDAT ??_C@_0FG@FPIOMAPB@MDegrainN?5?3?5no?5valid?5_oversluma_@
CONST	SEGMENT
??_C@_0FG@FPIOMAPB@MDegrainN?5?3?5no?5valid?5_oversluma_@ DB 'MDegrainN :'
	DB	' no valid _oversluma_lsb_ptr function for %dx%d, pixelsize=%d'
	DB	', lsb_flag=%d', 00H				; `string'
CONST	ENDS
;	COMDAT ??_C@_0CM@JJAGFGCG@MDegrainN?5?3?5lsb_flag?5only?5for?58?5@
CONST	SEGMENT
??_C@_0CM@JJAGFGCG@MDegrainN?5?3?5lsb_flag?5only?5for?58?5@ DB 'MDegrainN'
	DB	' : lsb_flag only for 8 bit sources', 00H	; `string'
CONST	ENDS
;	COMDAT ??_C@_0CN@LKJJHKJJ@MDegrainN?5?3?5wrong?5source?5or?5supe@
CONST	SEGMENT
??_C@_0CN@LKJJHKJJ@MDegrainN?5?3?5wrong?5source?5or?5supe@ DB 'MDegrainN '
	DB	': wrong source or super frame size', 00H	; `string'
CONST	ENDS
;	COMDAT ??_C@_04HGGBINEM@?$CFs?$CFd?$AA@
CONST	SEGMENT
??_C@_04HGGBINEM@?$CFs?$CFd?$AA@ DB '%s%d', 00H		; `string'
CONST	ENDS
;	COMDAT ??_C@_0CP@EGMOGFCC@MDegrainN?3?5temporal?5radius?5must?5@
CONST	SEGMENT
??_C@_0CP@EGMOGFCC@MDegrainN?3?5temporal?5radius?5must?5@ DB 'MDegrainN: '
	DB	'temporal radius must be at least 1.', 00H	; `string'
CONST	ENDS
;	COMDAT ??_C@_0CO@DEKDPFLP@MDegrainN?3?5temporal?5radius?5too?5l@
CONST	SEGMENT
??_C@_0CO@DEKDPFLP@MDegrainN?3?5temporal?5radius?5too?5l@ DB 'MDegrainN: '
	DB	'temporal radius too large (max %d)', 00H	; `string'
CONST	ENDS
;	COMDAT ??_C@_04DKAPBMPN@mvfw?$AA@
CONST	SEGMENT
??_C@_04DKAPBMPN@mvfw?$AA@ DB 'mvfw', 00H		; `string'
CONST	ENDS
;	COMDAT ??_C@_04DNAGLECB@mvbw?$AA@
CONST	SEGMENT
??_C@_04DNAGLECB@mvbw?$AA@ DB 'mvbw', 00H		; `string'
?piecewise_construct@std@@3Upiecewise_construct_t@1@B	ORG $+1 ; std::piecewise_construct
PUBLIC	??$?0V?$tuple@$$QAV?$tuple@HHHW4arch_t@@@std@@@std@@V?$tuple@$$V@1@$0A@$$Z$S@?$pair@$$CBV?$tuple@HHHW4arch_t@@@std@@P6AXPAE0_NHPBEHQAPBEQAH4H@Z@std@@QAE@AAV?$tuple@$$QAV?$tuple@HHHW4arch_t@@@std@@@1@AAV?$tuple@$$V@1@U?$integer_sequence@I$0A@@1@U?$integer_sequence@I$S@1@@Z ; std::pair<std::tuple<int,int,int,enum arch_t> const ,void (__cdecl*)(unsigned char *,unsigned char *,bool,int,unsigned char const *,int,unsigned char const * * const,int * const,int * const,int)>::pair<std::tuple<int,int,int,enum arch_t> const ,void (__cdecl*)(unsigned char *,unsigned char *,bool,int,unsigned char const *,int,unsigned char const * * const,int * const,int * const,int)><std::tuple<std::tuple<int,int,int,enum arch_t> &&>,std::tuple<>,0>
PUBLIC	??$?0$$QAV?$tuple@HHHW4arch_t@@@std@@$$Z$$V@?$pair@$$CBV?$tuple@HHHW4arch_t@@@std@@P6AXPAE0_NHPBEHQAPBEQAH4H@Z@std@@QAE@Upiecewise_construct_t@1@V?$tuple@$$QAV?$tuple@HHHW4arch_t@@@std@@@1@V?$tuple@$$V@1@@Z ; std::pair<std::tuple<int,int,int,enum arch_t> const ,void (__cdecl*)(unsigned char *,unsigned char *,bool,int,unsigned char const *,int,unsigned char const * * const,int * const,int * const,int)>::pair<std::tuple<int,int,int,enum arch_t> const ,void (__cdecl*)(unsigned char *,unsigned char *,bool,int,unsigned char const *,int,unsigned char const * * const,int * const,int * const,int)><std::tuple<int,int,int,enum arch_t> &&>
PUBLIC	??0?$AtomicInt@H@conc@@QAE@ABV01@@Z		; conc::AtomicInt<int>::AtomicInt<int>
PUBLIC	??0?$SharedPtr@VMVGroupOfFrames@@@@QAE@ABV0@@Z	; SharedPtr<MVGroupOfFrames>::SharedPtr<MVGroupOfFrames>
PUBLIC	??0?$SharedPtr@VMVClip@@@@QAE@ABV0@@Z		; SharedPtr<MVClip>::SharedPtr<MVClip>
PUBLIC	??0MvClipInfo@MDegrainN@@QAE@$$QAV01@@Z		; MDegrainN::MvClipInfo::MvClipInfo
PUBLIC	??$construct@VMvClipInfo@MDegrainN@@V12@@?$allocator@VMvClipInfo@MDegrainN@@@std@@QAEXPAVMvClipInfo@MDegrainN@@$$QAV23@@Z ; std::allocator<MDegrainN::MvClipInfo>::construct<MDegrainN::MvClipInfo,MDegrainN::MvClipInfo>
PUBLIC	??$construct@V?$AtomicInt@H@conc@@V12@@?$allocator@V?$AtomicInt@H@conc@@@std@@QAEXPAV?$AtomicInt@H@conc@@$$QAV23@@Z ; std::allocator<conc::AtomicInt<int> >::construct<conc::AtomicInt<int>,conc::AtomicInt<int> >
PUBLIC	??$construct@U?$pair@$$CBV?$tuple@HHHW4arch_t@@@std@@P6AXPAE0_NHPBEHQAPBEQAH4H@Z@std@@ABUpiecewise_construct_t@2@V?$tuple@$$QAV?$tuple@HHHW4arch_t@@@std@@@2@V?$tuple@$$V@2@@?$allocator@U?$_Tree_node@U?$pair@$$CBV?$tuple@HHHW4arch_t@@@std@@P6AXPAE0_NHPBEHQAPBEQAH4H@Z@std@@PAX@std@@@std@@QAEXPAU?$pair@$$CBV?$tuple@HHHW4arch_t@@@std@@P6AXPAE0_NHPBEHQAPBEQAH4H@Z@1@ABUpiecewise_construct_t@1@$$QAV?$tuple@$$QAV?$tuple@HHHW4arch_t@@@std@@@1@$$QAV?$tuple@$$V@1@@Z ; std::allocator<std::_Tree_node<std::pair<std::tuple<int,int,int,enum arch_t> const ,void (__cdecl*)(unsigned char *,unsigned char *,bool,int,unsigned char const *,int,unsigned char const * * const,int * const,int * const,int)>,void *> >::construct<std::pair<std::tuple<int,int,int,enum arch_t> const ,void (__cdecl*)(unsigned char *,unsigned char *,bool,int,unsigned char const *,int,unsigned char const * * const,int * const,int * const,int)>,std::piecewise_construct_t const &,std::tuple<std::tuple<int,int,int,enum arch_t> &&>,std::tuple<> >
PUBLIC	??$construct@VMvClipInfo@MDegrainN@@V12@@?$allocator_traits@V?$allocator@VMvClipInfo@MDegrainN@@@std@@@std@@SAXAAV?$allocator@VMvClipInfo@MDegrainN@@@1@PAVMvClipInfo@MDegrainN@@$$QAV34@@Z ; std::allocator_traits<std::allocator<MDegrainN::MvClipInfo> >::construct<MDegrainN::MvClipInfo,MDegrainN::MvClipInfo>
PUBLIC	??$forward@VMvClipInfo@MDegrainN@@@std@@YA$$QAVMvClipInfo@MDegrainN@@AAV12@@Z ; std::forward<MDegrainN::MvClipInfo>
PUBLIC	??$construct@V?$AtomicInt@H@conc@@V12@@?$allocator_traits@V?$allocator@V?$AtomicInt@H@conc@@@std@@@std@@SAXAAV?$allocator@V?$AtomicInt@H@conc@@@1@PAV?$AtomicInt@H@conc@@$$QAV34@@Z ; std::allocator_traits<std::allocator<conc::AtomicInt<int> > >::construct<conc::AtomicInt<int>,conc::AtomicInt<int> >
PUBLIC	??$forward@V?$AtomicInt@H@conc@@@std@@YA$$QAV?$AtomicInt@H@conc@@AAV12@@Z ; std::forward<conc::AtomicInt<int> >
PUBLIC	??$_Buynode_if_nil@AAU?$pair@$$CBV?$tuple@HHHW4arch_t@@@std@@P6AXPAE0_NHPBEHQAPBEQAH4H@Z@std@@@?$_Tree@V?$_Tmap_traits@V?$tuple@HHHW4arch_t@@@std@@P6AXPAE0_NHPBEHQAPBEQAH4H@ZU?$less@V?$tuple@HHHW4arch_t@@@std@@@2@V?$allocator@U?$pair@$$CBV?$tuple@HHHW4arch_t@@@std@@P6AXPAE0_NHPBEHQAPBEQAH4H@Z@std@@@2@$0A@@std@@@std@@IAEPAU?$_Tree_node@U?$pair@$$CBV?$tuple@HHHW4arch_t@@@std@@P6AXPAE0_NHPBEHQAPBEQAH4H@Z@std@@PAX@1@PAU21@AAU?$pair@$$CBV?$tuple@HHHW4arch_t@@@std@@P6AXPAE0_NHPBEHQAPBEQAH4H@Z@1@@Z ; std::_Tree<std::_Tmap_traits<std::tuple<int,int,int,enum arch_t>,void (__cdecl*)(unsigned char *,unsigned char *,bool,int,unsigned char const *,int,unsigned char const * * const,int * const,int * const,int),std::less<std::tuple<int,int,int,enum arch_t> >,std::allocator<std::pair<std::tuple<int,int,int,enum arch_t> const ,void (__cdecl*)(unsigned char *,unsigned char *,bool,int,unsigned char const *,int,unsigned char const * * const,int * const,int * const,int)> >,0> >::_Buynode_if_nil<std::pair<std::tuple<int,int,int,enum arch_t> const ,void (__cdecl*)(unsigned char *,unsigned char *,bool,int,unsigned char const *,int,unsigned char const * * const,int * const,int * const,int)> &>
PUBLIC	??$construct@U?$pair@$$CBV?$tuple@HHHW4arch_t@@@std@@P6AXPAE0_NHPBEHQAPBEQAH4H@Z@std@@ABUpiecewise_construct_t@2@V?$tuple@$$QAV?$tuple@HHHW4arch_t@@@std@@@2@V?$tuple@$$V@2@@?$allocator_traits@V?$allocator@U?$_Tree_node@U?$pair@$$CBV?$tuple@HHHW4arch_t@@@std@@P6AXPAE0_NHPBEHQAPBEQAH4H@Z@std@@PAX@std@@@std@@@std@@SAXAAV?$allocator@U?$_Tree_node@U?$pair@$$CBV?$tuple@HHHW4arch_t@@@std@@P6AXPAE0_NHPBEHQAPBEQAH4H@Z@std@@PAX@std@@@1@PAU?$pair@$$CBV?$tuple@HHHW4arch_t@@@std@@P6AXPAE0_NHPBEHQAPBEQAH4H@Z@1@ABUpiecewise_construct_t@1@$$QAV?$tuple@$$QAV?$tuple@HHHW4arch_t@@@std@@@1@$$QAV?$tuple@$$V@1@@Z ; std::allocator_traits<std::allocator<std::_Tree_node<std::pair<std::tuple<int,int,int,enum arch_t> const ,void (__cdecl*)(unsigned char *,unsigned char *,bool,int,unsigned char const *,int,unsigned char const * * const,int * const,int * const,int)>,void *> > >::construct<std::pair<std::tuple<int,int,int,enum arch_t> const ,void (__cdecl*)(unsigned char *,unsigned char *,bool,int,unsigned char const *,int,unsigned char const * * const,int * const,int * const,int)>,std::piecewise_construct_t const &,std::tuple<std::tuple<int,int,int,enum arch_t> &&>,std::tuple<> >
PUBLIC	??0?$AtomicInt@H@conc@@QAE@XZ			; conc::AtomicInt<int>::AtomicInt<int>
PUBLIC	??0?$SharedPtr@VMVGroupOfFrames@@@@QAE@XZ	; SharedPtr<MVGroupOfFrames>::SharedPtr<MVGroupOfFrames>
PUBLIC	??0?$SharedPtr@VMVClip@@@@QAE@XZ		; SharedPtr<MVClip>::SharedPtr<MVClip>
PUBLIC	?max_size@?$allocator@U?$_Tree_node@U?$pair@$$CBV?$tuple@HHHW4arch_t@@@std@@P6AXPAE0_NHPBEHQAPBEQAH4H@Z@std@@PAX@std@@@std@@QBEIXZ ; std::allocator<std::_Tree_node<std::pair<std::tuple<int,int,int,enum arch_t> const ,void (__cdecl*)(unsigned char *,unsigned char *,bool,int,unsigned char const *,int,unsigned char const * * const,int * const,int * const,int)>,void *> >::max_size
PUBLIC	?max_size@?$allocator_traits@V?$allocator@U?$_Tree_node@U?$pair@$$CBV?$tuple@HHHW4arch_t@@@std@@P6AXPAE0_NHPBEHQAPBEQAH4H@Z@std@@PAX@std@@@std@@@std@@SAIABV?$allocator@U?$_Tree_node@U?$pair@$$CBV?$tuple@HHHW4arch_t@@@std@@P6AXPAE0_NHPBEHQAPBEQAH4H@Z@std@@PAX@std@@@2@@Z ; std::allocator_traits<std::allocator<std::_Tree_node<std::pair<std::tuple<int,int,int,enum arch_t> const ,void (__cdecl*)(unsigned char *,unsigned char *,bool,int,unsigned char const *,int,unsigned char const * * const,int * const,int * const,int)>,void *> > >::max_size
PUBLIC	?_Get_first@?$_Compressed_pair@U?$_Wrap_alloc@V?$allocator@U?$_Tree_node@U?$pair@$$CBV?$tuple@HHHW4arch_t@@@std@@P6AXPAE0_NHPBEHQAPBEQAH4H@Z@std@@PAX@std@@@std@@@std@@V?$_Tree_val@U?$_Tree_simple_types@U?$pair@$$CBV?$tuple@HHHW4arch_t@@@std@@P6AXPAE0_NHPBEHQAPBEQAH4H@Z@std@@@std@@@2@$00@std@@QBEABU?$_Wrap_alloc@V?$allocator@U?$_Tree_node@U?$pair@$$CBV?$tuple@HHHW4arch_t@@@std@@P6AXPAE0_NHPBEHQAPBEQAH4H@Z@std@@PAX@std@@@std@@@2@XZ ; std::_Compressed_pair<std::_Wrap_alloc<std::allocator<std::_Tree_node<std::pair<std::tuple<int,int,int,enum arch_t> const ,void (__cdecl*)(unsigned char *,unsigned char *,bool,int,unsigned char const *,int,unsigned char const * * const,int * const,int * const,int)>,void *> > >,std::_Tree_val<std::_Tree_simple_types<std::pair<std::tuple<int,int,int,enum arch_t> const ,void (__cdecl*)(unsigned char *,unsigned char *,bool,int,unsigned char const *,int,unsigned char const * * const,int * const,int * const,int)> > >,1>::_Get_first
PUBLIC	?_Getal@?$_Tree_comp_alloc@V?$_Tmap_traits@V?$tuple@HHHW4arch_t@@@std@@P6AXPAE0_NHPBEHQAPBEQAH4H@ZU?$less@V?$tuple@HHHW4arch_t@@@std@@@2@V?$allocator@U?$pair@$$CBV?$tuple@HHHW4arch_t@@@std@@P6AXPAE0_NHPBEHQAPBEQAH4H@Z@std@@@2@$0A@@std@@@std@@QBEABU?$_Wrap_alloc@V?$allocator@U?$_Tree_node@U?$pair@$$CBV?$tuple@HHHW4arch_t@@@std@@P6AXPAE0_NHPBEHQAPBEQAH4H@Z@std@@PAX@std@@@std@@@2@XZ ; std::_Tree_comp_alloc<std::_Tmap_traits<std::tuple<int,int,int,enum arch_t>,void (__cdecl*)(unsigned char *,unsigned char *,bool,int,unsigned char const *,int,unsigned char const * * const,int * const,int * const,int),std::less<std::tuple<int,int,int,enum arch_t> >,std::allocator<std::pair<std::tuple<int,int,int,enum arch_t> const ,void (__cdecl*)(unsigned char *,unsigned char *,bool,int,unsigned char const *,int,unsigned char const * * const,int * const,int * const,int)> >,0> >::_Getal
PUBLIC	?max_size@?$_Wrap_alloc@V?$allocator@U?$_Tree_node@U?$pair@$$CBV?$tuple@HHHW4arch_t@@@std@@P6AXPAE0_NHPBEHQAPBEQAH4H@Z@std@@PAX@std@@@std@@@std@@QBEIU_Nil@2@@Z ; std::_Wrap_alloc<std::allocator<std::_Tree_node<std::pair<std::tuple<int,int,int,enum arch_t> const ,void (__cdecl*)(unsigned char *,unsigned char *,bool,int,unsigned char const *,int,unsigned char const * * const,int * const,int * const,int)>,void *> > >::max_size
PUBLIC	?max_size@?$_Tree@V?$_Tmap_traits@V?$tuple@HHHW4arch_t@@@std@@P6AXPAE0_NHPBEHQAPBEQAH4H@ZU?$less@V?$tuple@HHHW4arch_t@@@std@@@2@V?$allocator@U?$pair@$$CBV?$tuple@HHHW4arch_t@@@std@@P6AXPAE0_NHPBEHQAPBEQAH4H@Z@std@@@2@$0A@@std@@@std@@QBEIXZ ; std::_Tree<std::_Tmap_traits<std::tuple<int,int,int,enum arch_t>,void (__cdecl*)(unsigned char *,unsigned char *,bool,int,unsigned char const *,int,unsigned char const * * const,int * const,int * const,int),std::less<std::tuple<int,int,int,enum arch_t> >,std::allocator<std::pair<std::tuple<int,int,int,enum arch_t> const ,void (__cdecl*)(unsigned char *,unsigned char *,bool,int,unsigned char const *,int,unsigned char const * * const,int * const,int * const,int)> >,0> >::max_size
PUBLIC	??F?$_Tree_iterator@V?$_Tree_val@U?$_Tree_simple_types@U?$pair@$$CBV?$tuple@HHHW4arch_t@@@std@@P6AXPAE0_NHPBEHQAPBEQAH4H@Z@std@@@std@@@std@@@std@@QAEAAV01@XZ ; std::_Tree_iterator<std::_Tree_val<std::_Tree_simple_types<std::pair<std::tuple<int,int,int,enum arch_t> const ,void (__cdecl*)(unsigned char *,unsigned char *,bool,int,unsigned char const *,int,unsigned char const * * const,int * const,int * const,int)> > > >::operator--
PUBLIC	??1MvClipInfo@MDegrainN@@QAE@XZ			; MDegrainN::MvClipInfo::~MvClipInfo
PUBLIC	??_GMvClipInfo@MDegrainN@@QAEPAXI@Z		; MDegrainN::MvClipInfo::`scalar deleting destructor'
PUBLIC	??0MvClipInfo@MDegrainN@@QAE@XZ			; MDegrainN::MvClipInfo::MvClipInfo
PUBLIC	??$destroy@VMvClipInfo@MDegrainN@@@?$allocator@VMvClipInfo@MDegrainN@@@std@@QAEXPAVMvClipInfo@MDegrainN@@@Z ; std::allocator<MDegrainN::MvClipInfo>::destroy<MDegrainN::MvClipInfo>
PUBLIC	??$construct@VMvClipInfo@MDegrainN@@V12@@?$_Wrap_alloc@V?$allocator@VMvClipInfo@MDegrainN@@@std@@@std@@QAEXPAVMvClipInfo@MDegrainN@@$$QAV23@@Z ; std::_Wrap_alloc<std::allocator<MDegrainN::MvClipInfo> >::construct<MDegrainN::MvClipInfo,MDegrainN::MvClipInfo>
PUBLIC	??$_Copy_memmove@PAGPAG@std@@YAPAGPAG00@Z	; std::_Copy_memmove<unsigned short *,unsigned short *>
PUBLIC	??$_Copy_memmove@PAHPAH@std@@YAPAHPAH00@Z	; std::_Copy_memmove<int *,int *>
PUBLIC	??$construct@V?$AtomicInt@H@conc@@V12@@?$_Wrap_alloc@V?$allocator@V?$AtomicInt@H@conc@@@std@@@std@@QAEXPAV?$AtomicInt@H@conc@@$$QAV23@@Z ; std::_Wrap_alloc<std::allocator<conc::AtomicInt<int> > >::construct<conc::AtomicInt<int>,conc::AtomicInt<int> >
PUBLIC	??$construct@VMvClipInfo@MDegrainN@@$$V@?$allocator@VMvClipInfo@MDegrainN@@@std@@QAEXPAVMvClipInfo@MDegrainN@@@Z ; std::allocator<MDegrainN::MvClipInfo>::construct<MDegrainN::MvClipInfo>
PUBLIC	??$construct@V?$AtomicInt@H@conc@@$$V@?$allocator@V?$AtomicInt@H@conc@@@std@@QAEXPAV?$AtomicInt@H@conc@@@Z ; std::allocator<conc::AtomicInt<int> >::construct<conc::AtomicInt<int> >
PUBLIC	??$_Insert_nohint@AAU?$pair@$$CBV?$tuple@HHHW4arch_t@@@std@@P6AXPAE0_NHPBEHQAPBEQAH4H@Z@std@@PAU?$_Tree_node@U?$pair@$$CBV?$tuple@HHHW4arch_t@@@std@@P6AXPAE0_NHPBEHQAPBEQAH4H@Z@std@@PAX@2@@?$_Tree@V?$_Tmap_traits@V?$tuple@HHHW4arch_t@@@std@@P6AXPAE0_NHPBEHQAPBEQAH4H@ZU?$less@V?$tuple@HHHW4arch_t@@@std@@@2@V?$allocator@U?$pair@$$CBV?$tuple@HHHW4arch_t@@@std@@P6AXPAE0_NHPBEHQAPBEQAH4H@Z@std@@@2@$0A@@std@@@std@@IAE?AU?$pair@V?$_Tree_iterator@V?$_Tree_val@U?$_Tree_simple_types@U?$pair@$$CBV?$tuple@HHHW4arch_t@@@std@@P6AXPAE0_NHPBEHQAPBEQAH4H@Z@std@@@std@@@std@@@std@@_N@1@_NAAU?$pair@$$CBV?$tuple@HHHW4arch_t@@@std@@P6AXPAE0_NHPBEHQAPBEQAH4H@Z@1@PAU?$_Tree_node@U?$pair@$$CBV?$tuple@HHHW4arch_t@@@std@@P6AXPAE0_NHPBEHQAPBEQAH4H@Z@std@@PAX@1@@Z ; std::_Tree<std::_Tmap_traits<std::tuple<int,int,int,enum arch_t>,void (__cdecl*)(unsigned char *,unsigned char *,bool,int,unsigned char const *,int,unsigned char const * * const,int * const,int * const,int),std::less<std::tuple<int,int,int,enum arch_t> >,std::allocator<std::pair<std::tuple<int,int,int,enum arch_t> const ,void (__cdecl*)(unsigned char *,unsigned char *,bool,int,unsigned char const *,int,unsigned char const * * const,int * const,int * const,int)> >,0> >::_Insert_nohint<std::pair<std::tuple<int,int,int,enum arch_t> const ,void (__cdecl*)(unsigned char *,unsigned char *,bool,int,unsigned char const *,int,unsigned char const * * const,int * const,int * const,int)> &,std::_Tree_node<std::pair<std::tuple<int,int,int,enum arch_t> const ,void (__cdecl*)(unsigned char *,unsigned char *,bool,int,unsigned char const *,int,unsigned char const * * const,int * const,int * const,int)>,void *> *>
PUBLIC	??$_Insert_at@AAU?$pair@$$CBV?$tuple@HHHW4arch_t@@@std@@P6AXPAE0_NHPBEHQAPBEQAH4H@Z@std@@PAU?$_Tree_node@U?$pair@$$CBV?$tuple@HHHW4arch_t@@@std@@P6AXPAE0_NHPBEHQAPBEQAH4H@Z@std@@PAX@2@@?$_Tree@V?$_Tmap_traits@V?$tuple@HHHW4arch_t@@@std@@P6AXPAE0_NHPBEHQAPBEQAH4H@ZU?$less@V?$tuple@HHHW4arch_t@@@std@@@2@V?$allocator@U?$pair@$$CBV?$tuple@HHHW4arch_t@@@std@@P6AXPAE0_NHPBEHQAPBEQAH4H@Z@std@@@2@$0A@@std@@@std@@IAE?AV?$_Tree_iterator@V?$_Tree_val@U?$_Tree_simple_types@U?$pair@$$CBV?$tuple@HHHW4arch_t@@@std@@P6AXPAE0_NHPBEHQAPBEQAH4H@Z@std@@@std@@@std@@@1@_NPAU?$_Tree_node@U?$pair@$$CBV?$tuple@HHHW4arch_t@@@std@@P6AXPAE0_NHPBEHQAPBEQAH4H@Z@std@@PAX@1@AAU?$pair@$$CBV?$tuple@HHHW4arch_t@@@std@@P6AXPAE0_NHPBEHQAPBEQAH4H@Z@1@1@Z ; std::_Tree<std::_Tmap_traits<std::tuple<int,int,int,enum arch_t>,void (__cdecl*)(unsigned char *,unsigned char *,bool,int,unsigned char const *,int,unsigned char const * * const,int * const,int * const,int),std::less<std::tuple<int,int,int,enum arch_t> >,std::allocator<std::pair<std::tuple<int,int,int,enum arch_t> const ,void (__cdecl*)(unsigned char *,unsigned char *,bool,int,unsigned char const *,int,unsigned char const * * const,int * const,int * const,int)> >,0> >::_Insert_at<std::pair<std::tuple<int,int,int,enum arch_t> const ,void (__cdecl*)(unsigned char *,unsigned char *,bool,int,unsigned char const *,int,unsigned char const * * const,int * const,int * const,int)> &,std::_Tree_node<std::pair<std::tuple<int,int,int,enum arch_t> const ,void (__cdecl*)(unsigned char *,unsigned char *,bool,int,unsigned char const *,int,unsigned char const * * const,int * const,int * const,int)>,void *> *>
PUBLIC	??$forward@AAU?$pair@$$CBV?$tuple@HHHW4arch_t@@@std@@P6AXPAE0_NHPBEHQAPBEQAH4H@Z@std@@@std@@YAAAU?$pair@$$CBV?$tuple@HHHW4arch_t@@@std@@P6AXPAE0_NHPBEHQAPBEQAH4H@Z@0@AAU10@@Z ; std::forward<std::pair<std::tuple<int,int,int,enum arch_t> const ,void (__cdecl*)(unsigned char *,unsigned char *,bool,int,unsigned char const *,int,unsigned char const * * const,int * const,int * const,int)> &>
PUBLIC	??$construct@U?$pair@$$CBV?$tuple@HHHW4arch_t@@@std@@P6AXPAE0_NHPBEHQAPBEQAH4H@Z@std@@ABUpiecewise_construct_t@2@V?$tuple@$$QAV?$tuple@HHHW4arch_t@@@std@@@2@V?$tuple@$$V@2@@?$_Wrap_alloc@V?$allocator@U?$_Tree_node@U?$pair@$$CBV?$tuple@HHHW4arch_t@@@std@@P6AXPAE0_NHPBEHQAPBEQAH4H@Z@std@@PAX@std@@@std@@@std@@QAEXPAU?$pair@$$CBV?$tuple@HHHW4arch_t@@@std@@P6AXPAE0_NHPBEHQAPBEQAH4H@Z@1@ABUpiecewise_construct_t@1@$$QAV?$tuple@$$QAV?$tuple@HHHW4arch_t@@@std@@@1@$$QAV?$tuple@$$V@1@@Z ; std::_Wrap_alloc<std::allocator<std::_Tree_node<std::pair<std::tuple<int,int,int,enum arch_t> const ,void (__cdecl*)(unsigned char *,unsigned char *,bool,int,unsigned char const *,int,unsigned char const * * const,int * const,int * const,int)>,void *> > >::construct<std::pair<std::tuple<int,int,int,enum arch_t> const ,void (__cdecl*)(unsigned char *,unsigned char *,bool,int,unsigned char const *,int,unsigned char const * * const,int * const,int * const,int)>,std::piecewise_construct_t const &,std::tuple<std::tuple<int,int,int,enum arch_t> &&>,std::tuple<> >
PUBLIC	??$move@AAVMvClipInfo@MDegrainN@@@std@@YA$$QAVMvClipInfo@MDegrainN@@AAV12@@Z ; std::move<MDegrainN::MvClipInfo &>
PUBLIC	??$move@AAV?$AtomicInt@H@conc@@@std@@YA$$QAV?$AtomicInt@H@conc@@AAV12@@Z ; std::move<conc::AtomicInt<int> &>
PUBLIC	?_Mysize@?$_Tree_comp_alloc@V?$_Tmap_traits@V?$tuple@HHHW4arch_t@@@std@@P6AXPAE0_NHPBEHQAPBEQAH4H@ZU?$less@V?$tuple@HHHW4arch_t@@@std@@@2@V?$allocator@U?$pair@$$CBV?$tuple@HHHW4arch_t@@@std@@P6AXPAE0_NHPBEHQAPBEQAH4H@Z@std@@@2@$0A@@std@@@std@@QBEABIXZ ; std::_Tree_comp_alloc<std::_Tmap_traits<std::tuple<int,int,int,enum arch_t>,void (__cdecl*)(unsigned char *,unsigned char *,bool,int,unsigned char const *,int,unsigned char const * * const,int * const,int * const,int),std::less<std::tuple<int,int,int,enum arch_t> >,std::allocator<std::pair<std::tuple<int,int,int,enum arch_t> const ,void (__cdecl*)(unsigned char *,unsigned char *,bool,int,unsigned char const *,int,unsigned char const * * const,int * const,int * const,int)> >,0> >::_Mysize
PUBLIC	??0?$_Tree_unchecked_const_iterator@V?$_Tree_val@U?$_Tree_simple_types@U?$pair@$$CBV?$tuple@HHHW4arch_t@@@std@@P6AXPAE0_NHPBEHQAPBEQAH4H@Z@std@@@std@@@std@@U_Iterator_base0@2@@std@@QAE@XZ ; std::_Tree_unchecked_const_iterator<std::_Tree_val<std::_Tree_simple_types<std::pair<std::tuple<int,int,int,enum arch_t> const ,void (__cdecl*)(unsigned char *,unsigned char *,bool,int,unsigned char const *,int,unsigned char const * * const,int * const,int * const,int)> > >,std::_Iterator_base0>::_Tree_unchecked_const_iterator<std::_Tree_val<std::_Tree_simple_types<std::pair<std::tuple<int,int,int,enum arch_t> const ,void (__cdecl*)(unsigned char *,unsigned char *,bool,int,unsigned char const *,int,unsigned char const * * const,int * const,int * const,int)> > >,std::_Iterator_base0>
PUBLIC	??F?$_Tree_unchecked_const_iterator@V?$_Tree_val@U?$_Tree_simple_types@U?$pair@$$CBV?$tuple@HHHW4arch_t@@@std@@P6AXPAE0_NHPBEHQAPBEQAH4H@Z@std@@@std@@@std@@U_Iterator_base0@2@@std@@QAEAAV01@XZ ; std::_Tree_unchecked_const_iterator<std::_Tree_val<std::_Tree_simple_types<std::pair<std::tuple<int,int,int,enum arch_t> const ,void (__cdecl*)(unsigned char *,unsigned char *,bool,int,unsigned char const *,int,unsigned char const * * const,int * const,int * const,int)> > >,std::_Iterator_base0>::operator--
PUBLIC	?size@?$_Tree@V?$_Tmap_traits@V?$tuple@HHHW4arch_t@@@std@@P6AXPAE0_NHPBEHQAPBEQAH4H@ZU?$less@V?$tuple@HHHW4arch_t@@@std@@@2@V?$allocator@U?$pair@$$CBV?$tuple@HHHW4arch_t@@@std@@P6AXPAE0_NHPBEHQAPBEQAH4H@Z@std@@@2@$0A@@std@@@std@@QBEIXZ ; std::_Tree<std::_Tmap_traits<std::tuple<int,int,int,enum arch_t>,void (__cdecl*)(unsigned char *,unsigned char *,bool,int,unsigned char const *,int,unsigned char const * * const,int * const,int * const,int),std::less<std::tuple<int,int,int,enum arch_t> >,std::allocator<std::pair<std::tuple<int,int,int,enum arch_t> const ,void (__cdecl*)(unsigned char *,unsigned char *,bool,int,unsigned char const *,int,unsigned char const * * const,int * const,int * const,int)> >,0> >::size
PUBLIC	?_Destroy_if_not_nil@?$_Tree@V?$_Tmap_traits@V?$tuple@HHHW4arch_t@@@std@@P6AXPAE0_NHPBEHQAPBEQAH4H@ZU?$less@V?$tuple@HHHW4arch_t@@@std@@@2@V?$allocator@U?$pair@$$CBV?$tuple@HHHW4arch_t@@@std@@P6AXPAE0_NHPBEHQAPBEQAH4H@Z@std@@@2@$0A@@std@@@std@@IAEXPAU?$_Tree_node@U?$pair@$$CBV?$tuple@HHHW4arch_t@@@std@@P6AXPAE0_NHPBEHQAPBEQAH4H@Z@std@@PAX@2@@Z ; std::_Tree<std::_Tmap_traits<std::tuple<int,int,int,enum arch_t>,void (__cdecl*)(unsigned char *,unsigned char *,bool,int,unsigned char const *,int,unsigned char const * * const,int * const,int * const,int),std::less<std::tuple<int,int,int,enum arch_t> >,std::allocator<std::pair<std::tuple<int,int,int,enum arch_t> const ,void (__cdecl*)(unsigned char *,unsigned char *,bool,int,unsigned char const *,int,unsigned char const * * const,int * const,int * const,int)> >,0> >::_Destroy_if_not_nil
PUBLIC	?_Buynode0@?$_Tree_comp_alloc@V?$_Tmap_traits@V?$tuple@HHHW4arch_t@@@std@@P6AXPAE0_NHPBEHQAPBEQAH4H@ZU?$less@V?$tuple@HHHW4arch_t@@@std@@@2@V?$allocator@U?$pair@$$CBV?$tuple@HHHW4arch_t@@@std@@P6AXPAE0_NHPBEHQAPBEQAH4H@Z@std@@@2@$0A@@std@@@std@@QAEPAU?$_Tree_node@U?$pair@$$CBV?$tuple@HHHW4arch_t@@@std@@P6AXPAE0_NHPBEHQAPBEQAH4H@Z@std@@PAX@2@XZ ; std::_Tree_comp_alloc<std::_Tmap_traits<std::tuple<int,int,int,enum arch_t>,void (__cdecl*)(unsigned char *,unsigned char *,bool,int,unsigned char const *,int,unsigned char const * * const,int * const,int * const,int),std::less<std::tuple<int,int,int,enum arch_t> >,std::allocator<std::pair<std::tuple<int,int,int,enum arch_t> const ,void (__cdecl*)(unsigned char *,unsigned char *,bool,int,unsigned char const *,int,unsigned char const * * const,int * const,int * const,int)> >,0> >::_Buynode0
PUBLIC	?_Freenode0@?$_Tree_comp_alloc@V?$_Tmap_traits@V?$tuple@HHHW4arch_t@@@std@@P6AXPAE0_NHPBEHQAPBEQAH4H@ZU?$less@V?$tuple@HHHW4arch_t@@@std@@@2@V?$allocator@U?$pair@$$CBV?$tuple@HHHW4arch_t@@@std@@P6AXPAE0_NHPBEHQAPBEQAH4H@Z@std@@@2@$0A@@std@@@std@@QAEXPAU?$_Tree_node@U?$pair@$$CBV?$tuple@HHHW4arch_t@@@std@@P6AXPAE0_NHPBEHQAPBEQAH4H@Z@std@@PAX@2@@Z ; std::_Tree_comp_alloc<std::_Tmap_traits<std::tuple<int,int,int,enum arch_t>,void (__cdecl*)(unsigned char *,unsigned char *,bool,int,unsigned char const *,int,unsigned char const * * const,int * const,int * const,int),std::less<std::tuple<int,int,int,enum arch_t> >,std::allocator<std::pair<std::tuple<int,int,int,enum arch_t> const ,void (__cdecl*)(unsigned char *,unsigned char *,bool,int,unsigned char const *,int,unsigned char const * * const,int * const,int * const,int)> >,0> >::_Freenode0
PUBLIC	??0?$_Tree_const_iterator@V?$_Tree_val@U?$_Tree_simple_types@U?$pair@$$CBV?$tuple@HHHW4arch_t@@@std@@P6AXPAE0_NHPBEHQAPBEQAH4H@Z@std@@@std@@@std@@@std@@QAE@XZ ; std::_Tree_const_iterator<std::_Tree_val<std::_Tree_simple_types<std::pair<std::tuple<int,int,int,enum arch_t> const ,void (__cdecl*)(unsigned char *,unsigned char *,bool,int,unsigned char const *,int,unsigned char const * * const,int * const,int * const,int)> > > >::_Tree_const_iterator<std::_Tree_val<std::_Tree_simple_types<std::pair<std::tuple<int,int,int,enum arch_t> const ,void (__cdecl*)(unsigned char *,unsigned char *,bool,int,unsigned char const *,int,unsigned char const * * const,int * const,int * const,int)> > > >
PUBLIC	??F?$_Tree_const_iterator@V?$_Tree_val@U?$_Tree_simple_types@U?$pair@$$CBV?$tuple@HHHW4arch_t@@@std@@P6AXPAE0_NHPBEHQAPBEQAH4H@Z@std@@@std@@@std@@@std@@QAEAAV01@XZ ; std::_Tree_const_iterator<std::_Tree_val<std::_Tree_simple_types<std::pair<std::tuple<int,int,int,enum arch_t> const ,void (__cdecl*)(unsigned char *,unsigned char *,bool,int,unsigned char const *,int,unsigned char const * * const,int * const,int * const,int)> > > >::operator--
PUBLIC	??$destroy@VMvClipInfo@MDegrainN@@@?$allocator_traits@V?$allocator@VMvClipInfo@MDegrainN@@@std@@@std@@SAXAAV?$allocator@VMvClipInfo@MDegrainN@@@1@PAVMvClipInfo@MDegrainN@@@Z ; std::allocator_traits<std::allocator<MDegrainN::MvClipInfo> >::destroy<MDegrainN::MvClipInfo>
PUBLIC	??$_Uninitialized_move_al_unchecked1@PAVMvClipInfo@MDegrainN@@PAV12@V?$allocator@VMvClipInfo@MDegrainN@@@std@@@std@@YAPAVMvClipInfo@MDegrainN@@PAV12@00AAU?$_Wrap_alloc@V?$allocator@VMvClipInfo@MDegrainN@@@std@@@0@U_General_ptr_iterator_tag@0@U_Any_tag@0@@Z ; std::_Uninitialized_move_al_unchecked1<MDegrainN::MvClipInfo *,MDegrainN::MvClipInfo *,std::allocator<MDegrainN::MvClipInfo> >
PUBLIC	??$_Ptr_move_cat@VMvClipInfo@MDegrainN@@V12@@std@@YA?AU_General_ptr_iterator_tag@0@ABQAVMvClipInfo@MDegrainN@@0@Z ; std::_Ptr_move_cat<MDegrainN::MvClipInfo,MDegrainN::MvClipInfo>
PUBLIC	??$_Uninitialized_move_al_unchecked1@GGV?$allocator@G@std@@@std@@YAPAGPAG00AAU?$_Wrap_alloc@V?$allocator@G@std@@@0@U_Really_trivial_ptr_iterator_tag@0@U?$integral_constant@_N$00@0@@Z ; std::_Uninitialized_move_al_unchecked1<unsigned short,unsigned short,std::allocator<unsigned short> >
PUBLIC	??$_Ptr_move_cat@GG@std@@YA?AU_Really_trivial_ptr_iterator_tag@0@ABQAG0@Z ; std::_Ptr_move_cat<unsigned short,unsigned short>
PUBLIC	??$_Uninitialized_move_al_unchecked1@HHV?$allocator@H@std@@@std@@YAPAHPAH00AAU?$_Wrap_alloc@V?$allocator@H@std@@@0@U_Really_trivial_ptr_iterator_tag@0@U?$integral_constant@_N$00@0@@Z ; std::_Uninitialized_move_al_unchecked1<int,int,std::allocator<int> >
PUBLIC	??$_Ptr_move_cat@HH@std@@YA?AU_Really_trivial_ptr_iterator_tag@0@ABQAH0@Z ; std::_Ptr_move_cat<int,int>
PUBLIC	??$_Uninitialized_move_al_unchecked1@PAV?$AtomicInt@H@conc@@PAV12@V?$allocator@V?$AtomicInt@H@conc@@@std@@@std@@YAPAV?$AtomicInt@H@conc@@PAV12@00AAU?$_Wrap_alloc@V?$allocator@V?$AtomicInt@H@conc@@@std@@@0@U_General_ptr_iterator_tag@0@U_Any_tag@0@@Z ; std::_Uninitialized_move_al_unchecked1<conc::AtomicInt<int> *,conc::AtomicInt<int> *,std::allocator<conc::AtomicInt<int> > >
PUBLIC	??$_Ptr_move_cat@V?$AtomicInt@H@conc@@V12@@std@@YA?AU_General_ptr_iterator_tag@0@ABQAV?$AtomicInt@H@conc@@0@Z ; std::_Ptr_move_cat<conc::AtomicInt<int>,conc::AtomicInt<int> >
PUBLIC	??$construct@VMvClipInfo@MDegrainN@@$$V@?$allocator_traits@V?$allocator@VMvClipInfo@MDegrainN@@@std@@@std@@SAXAAV?$allocator@VMvClipInfo@MDegrainN@@@1@PAVMvClipInfo@MDegrainN@@@Z ; std::allocator_traits<std::allocator<MDegrainN::MvClipInfo> >::construct<MDegrainN::MvClipInfo>
PUBLIC	??$construct@V?$AtomicInt@H@conc@@$$V@?$allocator_traits@V?$allocator@V?$AtomicInt@H@conc@@@std@@@std@@SAXAAV?$allocator@V?$AtomicInt@H@conc@@@1@PAV?$AtomicInt@H@conc@@@Z ; std::allocator_traits<std::allocator<conc::AtomicInt<int> > >::construct<conc::AtomicInt<int> >
PUBLIC	??$forward@AAV?$_Tree_iterator@V?$_Tree_val@U?$_Tree_simple_types@U?$pair@$$CBV?$tuple@HHHW4arch_t@@@std@@P6AXPAE0_NHPBEHQAPBEQAH4H@Z@std@@@std@@@std@@@std@@@std@@YAAAV?$_Tree_iterator@V?$_Tree_val@U?$_Tree_simple_types@U?$pair@$$CBV?$tuple@HHHW4arch_t@@@std@@P6AXPAE0_NHPBEHQAPBEQAH4H@Z@std@@@std@@@std@@@0@AAV10@@Z ; std::forward<std::_Tree_iterator<std::_Tree_val<std::_Tree_simple_types<std::pair<std::tuple<int,int,int,enum arch_t> const ,void (__cdecl*)(unsigned char *,unsigned char *,bool,int,unsigned char const *,int,unsigned char const * * const,int * const,int * const,int)> > > > &>
PUBLIC	??$forward@V?$_Tree_iterator@V?$_Tree_val@U?$_Tree_simple_types@U?$pair@$$CBV?$tuple@HHHW4arch_t@@@std@@P6AXPAE0_NHPBEHQAPBEQAH4H@Z@std@@@std@@@std@@@std@@@std@@YA$$QAV?$_Tree_iterator@V?$_Tree_val@U?$_Tree_simple_types@U?$pair@$$CBV?$tuple@HHHW4arch_t@@@std@@P6AXPAE0_NHPBEHQAPBEQAH4H@Z@std@@@std@@@std@@@0@AAV10@@Z ; std::forward<std::_Tree_iterator<std::_Tree_val<std::_Tree_simple_types<std::pair<std::tuple<int,int,int,enum arch_t> const ,void (__cdecl*)(unsigned char *,unsigned char *,bool,int,unsigned char const *,int,unsigned char const * * const,int * const,int * const,int)> > > > >
PUBLIC	??$_Insert_hint@AAU?$pair@$$CBV?$tuple@HHHW4arch_t@@@std@@P6AXPAE0_NHPBEHQAPBEQAH4H@Z@std@@PAU?$_Tree_node@U?$pair@$$CBV?$tuple@HHHW4arch_t@@@std@@P6AXPAE0_NHPBEHQAPBEQAH4H@Z@std@@PAX@2@@?$_Tree@V?$_Tmap_traits@V?$tuple@HHHW4arch_t@@@std@@P6AXPAE0_NHPBEHQAPBEQAH4H@ZU?$less@V?$tuple@HHHW4arch_t@@@std@@@2@V?$allocator@U?$pair@$$CBV?$tuple@HHHW4arch_t@@@std@@P6AXPAE0_NHPBEHQAPBEQAH4H@Z@std@@@2@$0A@@std@@@std@@IAE?AV?$_Tree_iterator@V?$_Tree_val@U?$_Tree_simple_types@U?$pair@$$CBV?$tuple@HHHW4arch_t@@@std@@P6AXPAE0_NHPBEHQAPBEQAH4H@Z@std@@@std@@@std@@@1@V?$_Tree_const_iterator@V?$_Tree_val@U?$_Tree_simple_types@U?$pair@$$CBV?$tuple@HHHW4arch_t@@@std@@P6AXPAE0_NHPBEHQAPBEQAH4H@Z@std@@@std@@@std@@@1@AAU?$pair@$$CBV?$tuple@HHHW4arch_t@@@std@@P6AXPAE0_NHPBEHQAPBEQAH4H@Z@1@PAU?$_Tree_node@U?$pair@$$CBV?$tuple@HHHW4arch_t@@@std@@P6AXPAE0_NHPBEHQAPBEQAH4H@Z@std@@PAX@1@@Z ; std::_Tree<std::_Tmap_traits<std::tuple<int,int,int,enum arch_t>,void (__cdecl*)(unsigned char *,unsigned char *,bool,int,unsigned char const *,int,unsigned char const * * const,int * const,int * const,int),std::less<std::tuple<int,int,int,enum arch_t> >,std::allocator<std::pair<std::tuple<int,int,int,enum arch_t> const ,void (__cdecl*)(unsigned char *,unsigned char *,bool,int,unsigned char const *,int,unsigned char const * * const,int * const,int * const,int)> >,0> >::_Insert_hint<std::pair<std::tuple<int,int,int,enum arch_t> const ,void (__cdecl*)(unsigned char *,unsigned char *,bool,int,unsigned char const *,int,unsigned char const * * const,int * const,int * const,int)> &,std::_Tree_node<std::pair<std::tuple<int,int,int,enum arch_t> const ,void (__cdecl*)(unsigned char *,unsigned char *,bool,int,unsigned char const *,int,unsigned char const * * const,int * const,int * const,int)>,void *> *>
PUBLIC	??$_Buynode@ABUpiecewise_construct_t@std@@V?$tuple@$$QAV?$tuple@HHHW4arch_t@@@std@@@2@V?$tuple@$$V@2@@?$_Tree_comp_alloc@V?$_Tmap_traits@V?$tuple@HHHW4arch_t@@@std@@P6AXPAE0_NHPBEHQAPBEQAH4H@ZU?$less@V?$tuple@HHHW4arch_t@@@std@@@2@V?$allocator@U?$pair@$$CBV?$tuple@HHHW4arch_t@@@std@@P6AXPAE0_NHPBEHQAPBEQAH4H@Z@std@@@2@$0A@@std@@@std@@QAEPAU?$_Tree_node@U?$pair@$$CBV?$tuple@HHHW4arch_t@@@std@@P6AXPAE0_NHPBEHQAPBEQAH4H@Z@std@@PAX@1@ABUpiecewise_construct_t@1@$$QAV?$tuple@$$QAV?$tuple@HHHW4arch_t@@@std@@@1@$$QAV?$tuple@$$V@1@@Z ; std::_Tree_comp_alloc<std::_Tmap_traits<std::tuple<int,int,int,enum arch_t>,void (__cdecl*)(unsigned char *,unsigned char *,bool,int,unsigned char const *,int,unsigned char const * * const,int * const,int * const,int),std::less<std::tuple<int,int,int,enum arch_t> >,std::allocator<std::pair<std::tuple<int,int,int,enum arch_t> const ,void (__cdecl*)(unsigned char *,unsigned char *,bool,int,unsigned char const *,int,unsigned char const * * const,int * const,int * const,int)> >,0> >::_Buynode<std::piecewise_construct_t const &,std::tuple<std::tuple<int,int,int,enum arch_t> &&>,std::tuple<> >
PUBLIC	?cas@?$AtomicMem@$01@conc@@SAHACHHH@Z		; conc::AtomicMem<2>::cas
PUBLIC	?_Get_first@?$_Compressed_pair@U?$less@V?$tuple@HHHW4arch_t@@@std@@@std@@V?$_Compressed_pair@U?$_Wrap_alloc@V?$allocator@U?$_Tree_node@U?$pair@$$CBV?$tuple@HHHW4arch_t@@@std@@P6AXPAE0_NHPBEHQAPBEQAH4H@Z@std@@PAX@std@@@std@@@std@@V?$_Tree_val@U?$_Tree_simple_types@U?$pair@$$CBV?$tuple@HHHW4arch_t@@@std@@P6AXPAE0_NHPBEHQAPBEQAH4H@Z@std@@@std@@@2@$00@2@$00@std@@QBEABU?$less@V?$tuple@HHHW4arch_t@@@std@@@2@XZ ; std::_Compressed_pair<std::less<std::tuple<int,int,int,enum arch_t> >,std::_Compressed_pair<std::_Wrap_alloc<std::allocator<std::_Tree_node<std::pair<std::tuple<int,int,int,enum arch_t> const ,void (__cdecl*)(unsigned char *,unsigned char *,bool,int,unsigned char const *,int,unsigned char const * * const,int * const,int * const,int)>,void *> > >,std::_Tree_val<std::_Tree_simple_types<std::pair<std::tuple<int,int,int,enum arch_t> const ,void (__cdecl*)(unsigned char *,unsigned char *,bool,int,unsigned char const *,int,unsigned char const * * const,int * const,int * const,int)> > >,1>,1>::_Get_first
PUBLIC	?_Getcomp@?$_Tree_comp_alloc@V?$_Tmap_traits@V?$tuple@HHHW4arch_t@@@std@@P6AXPAE0_NHPBEHQAPBEQAH4H@ZU?$less@V?$tuple@HHHW4arch_t@@@std@@@2@V?$allocator@U?$pair@$$CBV?$tuple@HHHW4arch_t@@@std@@P6AXPAE0_NHPBEHQAPBEQAH4H@Z@std@@@2@$0A@@std@@@std@@QBEABU?$less@V?$tuple@HHHW4arch_t@@@std@@@2@XZ ; std::_Tree_comp_alloc<std::_Tmap_traits<std::tuple<int,int,int,enum arch_t>,void (__cdecl*)(unsigned char *,unsigned char *,bool,int,unsigned char const *,int,unsigned char const * * const,int * const,int * const,int),std::less<std::tuple<int,int,int,enum arch_t> >,std::allocator<std::pair<std::tuple<int,int,int,enum arch_t> const ,void (__cdecl*)(unsigned char *,unsigned char *,bool,int,unsigned char const *,int,unsigned char const * * const,int * const,int * const,int)> >,0> >::_Getcomp
PUBLIC	?_Compare@?$_Tree@V?$_Tmap_traits@V?$tuple@HHHW4arch_t@@@std@@P6AXPAE0_NHPBEHQAPBEQAH4H@ZU?$less@V?$tuple@HHHW4arch_t@@@std@@@2@V?$allocator@U?$pair@$$CBV?$tuple@HHHW4arch_t@@@std@@P6AXPAE0_NHPBEHQAPBEQAH4H@Z@std@@@2@$0A@@std@@@std@@IBE_NABV?$tuple@HHHW4arch_t@@@2@0@Z ; std::_Tree<std::_Tmap_traits<std::tuple<int,int,int,enum arch_t>,void (__cdecl*)(unsigned char *,unsigned char *,bool,int,unsigned char const *,int,unsigned char const * * const,int * const,int * const,int),std::less<std::tuple<int,int,int,enum arch_t> >,std::allocator<std::pair<std::tuple<int,int,int,enum arch_t> const ,void (__cdecl*)(unsigned char *,unsigned char *,bool,int,unsigned char const *,int,unsigned char const * * const,int * const,int * const,int)> >,0> >::_Compare
PUBLIC	??$_Kfn@$$CBV?$tuple@HHHW4arch_t@@@std@@P6AXPAE0_NHPBEHQAPBEQAH4H@Z@?$_Tmap_traits@V?$tuple@HHHW4arch_t@@@std@@P6AXPAE0_NHPBEHQAPBEQAH4H@ZU?$less@V?$tuple@HHHW4arch_t@@@std@@@2@V?$allocator@U?$pair@$$CBV?$tuple@HHHW4arch_t@@@std@@P6AXPAE0_NHPBEHQAPBEQAH4H@Z@std@@@2@$0A@@std@@SAABV?$tuple@HHHW4arch_t@@@1@ABU?$pair@$$CBV?$tuple@HHHW4arch_t@@@std@@P6AXPAE0_NHPBEHQAPBEQAH4H@Z@1@@Z ; std::_Tmap_traits<std::tuple<int,int,int,enum arch_t>,void (__cdecl*)(unsigned char *,unsigned char *,bool,int,unsigned char const *,int,unsigned char const * * const,int * const,int * const,int),std::less<std::tuple<int,int,int,enum arch_t> >,std::allocator<std::pair<std::tuple<int,int,int,enum arch_t> const ,void (__cdecl*)(unsigned char *,unsigned char *,bool,int,unsigned char const *,int,unsigned char const * * const,int * const,int * const,int)> >,0>::_Kfn<std::tuple<int,int,int,enum arch_t> const ,void (__cdecl*)(unsigned char *,unsigned char *,bool,int,unsigned char const *,int,unsigned char const * * const,int * const,int * const,int)>
PUBLIC	??$_Lbound@V?$tuple@HHHW4arch_t@@@std@@@?$_Tree@V?$_Tmap_traits@V?$tuple@HHHW4arch_t@@@std@@P6AXPAE0_NHPBEHQAPBEQAH4H@ZU?$less@V?$tuple@HHHW4arch_t@@@std@@@2@V?$allocator@U?$pair@$$CBV?$tuple@HHHW4arch_t@@@std@@P6AXPAE0_NHPBEHQAPBEQAH4H@Z@std@@@2@$0A@@std@@@std@@IBEPAU?$_Tree_node@U?$pair@$$CBV?$tuple@HHHW4arch_t@@@std@@P6AXPAE0_NHPBEHQAPBEQAH4H@Z@std@@PAX@1@ABV?$tuple@HHHW4arch_t@@@1@@Z ; std::_Tree<std::_Tmap_traits<std::tuple<int,int,int,enum arch_t>,void (__cdecl*)(unsigned char *,unsigned char *,bool,int,unsigned char const *,int,unsigned char const * * const,int * const,int * const,int),std::less<std::tuple<int,int,int,enum arch_t> >,std::allocator<std::pair<std::tuple<int,int,int,enum arch_t> const ,void (__cdecl*)(unsigned char *,unsigned char *,bool,int,unsigned char const *,int,unsigned char const * * const,int * const,int * const,int)> >,0> >::_Lbound<std::tuple<int,int,int,enum arch_t> >
PUBLIC	??$construct@PAU?$_Tree_node@U?$pair@$$CBV?$tuple@HHHW4arch_t@@@std@@P6AXPAE0_NHPBEHQAPBEQAH4H@Z@std@@PAX@std@@AAPAU12@@?$allocator@U?$_Tree_node@U?$pair@$$CBV?$tuple@HHHW4arch_t@@@std@@P6AXPAE0_NHPBEHQAPBEQAH4H@Z@std@@PAX@std@@@std@@QAEXPAPAU?$_Tree_node@U?$pair@$$CBV?$tuple@HHHW4arch_t@@@std@@P6AXPAE0_NHPBEHQAPBEQAH4H@Z@std@@PAX@1@AAPAU21@@Z ; std::allocator<std::_Tree_node<std::pair<std::tuple<int,int,int,enum arch_t> const ,void (__cdecl*)(unsigned char *,unsigned char *,bool,int,unsigned char const *,int,unsigned char const * * const,int * const,int * const,int)>,void *> >::construct<std::_Tree_node<std::pair<std::tuple<int,int,int,enum arch_t> const ,void (__cdecl*)(unsigned char *,unsigned char *,bool,int,unsigned char const *,int,unsigned char const * * const,int * const,int * const,int)>,void *> *,std::_Tree_node<std::pair<std::tuple<int,int,int,enum arch_t> const ,void (__cdecl*)(unsigned char *,unsigned char *,bool,int,unsigned char const *,int,unsigned char const * * const,int * const,int * const,int)>,void *> * &>
PUBLIC	??$destroy@U?$pair@$$CBV?$tuple@HHHW4arch_t@@@std@@P6AXPAE0_NHPBEHQAPBEQAH4H@Z@std@@@?$allocator@U?$_Tree_node@U?$pair@$$CBV?$tuple@HHHW4arch_t@@@std@@P6AXPAE0_NHPBEHQAPBEQAH4H@Z@std@@PAX@std@@@std@@QAEXPAU?$pair@$$CBV?$tuple@HHHW4arch_t@@@std@@P6AXPAE0_NHPBEHQAPBEQAH4H@Z@1@@Z ; std::allocator<std::_Tree_node<std::pair<std::tuple<int,int,int,enum arch_t> const ,void (__cdecl*)(unsigned char *,unsigned char *,bool,int,unsigned char const *,int,unsigned char const * * const,int * const,int * const,int)>,void *> >::destroy<std::pair<std::tuple<int,int,int,enum arch_t> const ,void (__cdecl*)(unsigned char *,unsigned char *,bool,int,unsigned char const *,int,unsigned char const * * const,int * const,int * const,int)> >
PUBLIC	??$destroy@VMvClipInfo@MDegrainN@@@?$_Wrap_alloc@V?$allocator@VMvClipInfo@MDegrainN@@@std@@@std@@QAEXPAVMvClipInfo@MDegrainN@@@Z ; std::_Wrap_alloc<std::allocator<MDegrainN::MvClipInfo> >::destroy<MDegrainN::MvClipInfo>
PUBLIC	??$_Rechecked@PAVMvClipInfo@MDegrainN@@PAV12@@std@@YAAAPAVMvClipInfo@MDegrainN@@AAPAV12@PAV12@@Z ; std::_Rechecked<MDegrainN::MvClipInfo *,MDegrainN::MvClipInfo *>
PUBLIC	??$_Uninitialized_move_al_unchecked@PAVMvClipInfo@MDegrainN@@PAV12@V?$allocator@VMvClipInfo@MDegrainN@@@std@@@std@@YAPAVMvClipInfo@MDegrainN@@PAV12@00AAU?$_Wrap_alloc@V?$allocator@VMvClipInfo@MDegrainN@@@std@@@0@@Z ; std::_Uninitialized_move_al_unchecked<MDegrainN::MvClipInfo *,MDegrainN::MvClipInfo *,std::allocator<MDegrainN::MvClipInfo> >
PUBLIC	??$_Unchecked@PAVMvClipInfo@MDegrainN@@@std@@YAPAVMvClipInfo@MDegrainN@@PAV12@@Z ; std::_Unchecked<MDegrainN::MvClipInfo *>
PUBLIC	??$_Uninitialized_move_al_unchecked@PAGPAGV?$allocator@G@std@@@std@@YAPAGPAG00AAU?$_Wrap_alloc@V?$allocator@G@std@@@0@@Z ; std::_Uninitialized_move_al_unchecked<unsigned short *,unsigned short *,std::allocator<unsigned short> >
PUBLIC	??$_Rechecked@PAHPAH@std@@YAAAPAHAAPAHPAH@Z	; std::_Rechecked<int *,int *>
PUBLIC	??$_Uninitialized_move_al_unchecked@PAHPAHV?$allocator@H@std@@@std@@YAPAHPAH00AAU?$_Wrap_alloc@V?$allocator@H@std@@@0@@Z ; std::_Uninitialized_move_al_unchecked<int *,int *,std::allocator<int> >
PUBLIC	??$_Unchecked@PAH@std@@YAPAHPAH@Z		; std::_Unchecked<int *>
PUBLIC	??$_Rechecked@PAV?$AtomicInt@H@conc@@PAV12@@std@@YAAAPAV?$AtomicInt@H@conc@@AAPAV12@PAV12@@Z ; std::_Rechecked<conc::AtomicInt<int> *,conc::AtomicInt<int> *>
PUBLIC	??$_Uninitialized_move_al_unchecked@PAV?$AtomicInt@H@conc@@PAV12@V?$allocator@V?$AtomicInt@H@conc@@@std@@@std@@YAPAV?$AtomicInt@H@conc@@PAV12@00AAU?$_Wrap_alloc@V?$allocator@V?$AtomicInt@H@conc@@@std@@@0@@Z ; std::_Uninitialized_move_al_unchecked<conc::AtomicInt<int> *,conc::AtomicInt<int> *,std::allocator<conc::AtomicInt<int> > >
PUBLIC	??$_Unchecked@PAV?$AtomicInt@H@conc@@@std@@YAPAV?$AtomicInt@H@conc@@PAV12@@Z ; std::_Unchecked<conc::AtomicInt<int> *>
PUBLIC	??$destroy@PAU?$_Tree_node@U?$pair@$$CBV?$tuple@HHHW4arch_t@@@std@@P6AXPAE0_NHPBEHQAPBEQAH4H@Z@std@@PAX@std@@@?$allocator@U?$_Tree_node@U?$pair@$$CBV?$tuple@HHHW4arch_t@@@std@@P6AXPAE0_NHPBEHQAPBEQAH4H@Z@std@@PAX@std@@@std@@QAEXPAPAU?$_Tree_node@U?$pair@$$CBV?$tuple@HHHW4arch_t@@@std@@P6AXPAE0_NHPBEHQAPBEQAH4H@Z@std@@PAX@1@@Z ; std::allocator<std::_Tree_node<std::pair<std::tuple<int,int,int,enum arch_t> const ,void (__cdecl*)(unsigned char *,unsigned char *,bool,int,unsigned char const *,int,unsigned char const * * const,int * const,int * const,int)>,void *> >::destroy<std::_Tree_node<std::pair<std::tuple<int,int,int,enum arch_t> const ,void (__cdecl*)(unsigned char *,unsigned char *,bool,int,unsigned char const *,int,unsigned char const * * const,int * const,int * const,int)>,void *> *>
PUBLIC	??$construct@VMvClipInfo@MDegrainN@@$$V@?$_Wrap_alloc@V?$allocator@VMvClipInfo@MDegrainN@@@std@@@std@@QAEXPAVMvClipInfo@MDegrainN@@@Z ; std::_Wrap_alloc<std::allocator<MDegrainN::MvClipInfo> >::construct<MDegrainN::MvClipInfo>
PUBLIC	??$construct@V?$AtomicInt@H@conc@@$$V@?$_Wrap_alloc@V?$allocator@V?$AtomicInt@H@conc@@@std@@@std@@QAEXPAV?$AtomicInt@H@conc@@@Z ; std::_Wrap_alloc<std::allocator<conc::AtomicInt<int> > >::construct<conc::AtomicInt<int> >
PUBLIC	??$?0AAV?$_Tree_iterator@V?$_Tree_val@U?$_Tree_simple_types@U?$pair@$$CBV?$tuple@HHHW4arch_t@@@std@@P6AXPAE0_NHPBEHQAPBEQAH4H@Z@std@@@std@@@std@@@std@@_NX$0A@@?$pair@V?$_Tree_iterator@V?$_Tree_val@U?$_Tree_simple_types@U?$pair@$$CBV?$tuple@HHHW4arch_t@@@std@@P6AXPAE0_NHPBEHQAPBEQAH4H@Z@std@@@std@@@std@@@std@@_N@std@@QAE@AAV?$_Tree_iterator@V?$_Tree_val@U?$_Tree_simple_types@U?$pair@$$CBV?$tuple@HHHW4arch_t@@@std@@P6AXPAE0_NHPBEHQAPBEQAH4H@Z@std@@@std@@@std@@@1@$$QA_N@Z ; std::pair<std::_Tree_iterator<std::_Tree_val<std::_Tree_simple_types<std::pair<std::tuple<int,int,int,enum arch_t> const ,void (__cdecl*)(unsigned char *,unsigned char *,bool,int,unsigned char const *,int,unsigned char const * * const,int * const,int * const,int)> > > >,bool>::pair<std::_Tree_iterator<std::_Tree_val<std::_Tree_simple_types<std::pair<std::tuple<int,int,int,enum arch_t> const ,void (__cdecl*)(unsigned char *,unsigned char *,bool,int,unsigned char const *,int,unsigned char const * * const,int * const,int * const,int)> > > >,bool><std::_Tree_iterator<std::_Tree_val<std::_Tree_simple_types<std::pair<std::tuple<int,int,int,enum arch_t> const ,void (__cdecl*)(unsigned char *,unsigned char *,bool,int,unsigned char const *,int,unsigned char const * * const,int * const,int * const,int)> > > > &,bool,void,0>
PUBLIC	??$?0V?$_Tree_iterator@V?$_Tree_val@U?$_Tree_simple_types@U?$pair@$$CBV?$tuple@HHHW4arch_t@@@std@@P6AXPAE0_NHPBEHQAPBEQAH4H@Z@std@@@std@@@std@@@std@@_NX$0A@@?$pair@V?$_Tree_iterator@V?$_Tree_val@U?$_Tree_simple_types@U?$pair@$$CBV?$tuple@HHHW4arch_t@@@std@@P6AXPAE0_NHPBEHQAPBEQAH4H@Z@std@@@std@@@std@@@std@@_N@std@@QAE@$$QAV?$_Tree_iterator@V?$_Tree_val@U?$_Tree_simple_types@U?$pair@$$CBV?$tuple@HHHW4arch_t@@@std@@P6AXPAE0_NHPBEHQAPBEQAH4H@Z@std@@@std@@@std@@@1@$$QA_N@Z ; std::pair<std::_Tree_iterator<std::_Tree_val<std::_Tree_simple_types<std::pair<std::tuple<int,int,int,enum arch_t> const ,void (__cdecl*)(unsigned char *,unsigned char *,bool,int,unsigned char const *,int,unsigned char const * * const,int * const,int * const,int)> > > >,bool>::pair<std::_Tree_iterator<std::_Tree_val<std::_Tree_simple_types<std::pair<std::tuple<int,int,int,enum arch_t> const ,void (__cdecl*)(unsigned char *,unsigned char *,bool,int,unsigned char const *,int,unsigned char const * * const,int * const,int * const,int)> > > >,bool><std::_Tree_iterator<std::_Tree_val<std::_Tree_simple_types<std::pair<std::tuple<int,int,int,enum arch_t> const ,void (__cdecl*)(unsigned char *,unsigned char *,bool,int,unsigned char const *,int,unsigned char const * * const,int * const,int * const,int)> > > >,bool,void,0>
PUBLIC	??$emplace_hint@ABUpiecewise_construct_t@std@@V?$tuple@$$QAV?$tuple@HHHW4arch_t@@@std@@@2@V?$tuple@$$V@2@@?$_Tree@V?$_Tmap_traits@V?$tuple@HHHW4arch_t@@@std@@P6AXPAE0_NHPBEHQAPBEQAH4H@ZU?$less@V?$tuple@HHHW4arch_t@@@std@@@2@V?$allocator@U?$pair@$$CBV?$tuple@HHHW4arch_t@@@std@@P6AXPAE0_NHPBEHQAPBEQAH4H@Z@std@@@2@$0A@@std@@@std@@QAE?AV?$_Tree_iterator@V?$_Tree_val@U?$_Tree_simple_types@U?$pair@$$CBV?$tuple@HHHW4arch_t@@@std@@P6AXPAE0_NHPBEHQAPBEQAH4H@Z@std@@@std@@@std@@@1@V?$_Tree_const_iterator@V?$_Tree_val@U?$_Tree_simple_types@U?$pair@$$CBV?$tuple@HHHW4arch_t@@@std@@P6AXPAE0_NHPBEHQAPBEQAH4H@Z@std@@@std@@@std@@@1@ABUpiecewise_construct_t@1@$$QAV?$tuple@$$QAV?$tuple@HHHW4arch_t@@@std@@@1@$$QAV?$tuple@$$V@1@@Z ; std::_Tree<std::_Tmap_traits<std::tuple<int,int,int,enum arch_t>,void (__cdecl*)(unsigned char *,unsigned char *,bool,int,unsigned char const *,int,unsigned char const * * const,int * const,int * const,int),std::less<std::tuple<int,int,int,enum arch_t> >,std::allocator<std::pair<std::tuple<int,int,int,enum arch_t> const ,void (__cdecl*)(unsigned char *,unsigned char *,bool,int,unsigned char const *,int,unsigned char const * * const,int * const,int * const,int)> >,0> >::emplace_hint<std::piecewise_construct_t const &,std::tuple<std::tuple<int,int,int,enum arch_t> &&>,std::tuple<> >
PUBLIC	??$process_chroma_overlap_slice@$01@MDegrainN@@AAEXHH@Z ; MDegrainN::process_chroma_overlap_slice<2>
PUBLIC	??$process_chroma_overlap_slice@$00@MDegrainN@@AAEXHH@Z ; MDegrainN::process_chroma_overlap_slice<1>
PUBLIC	??$_Unfancy@VMvClipInfo@MDegrainN@@@std@@YAPAVMvClipInfo@MDegrainN@@PAV12@@Z ; std::_Unfancy<MDegrainN::MvClipInfo>
PUBLIC	??$_Unfancy@V?$AtomicInt@H@conc@@@std@@YAPAV?$AtomicInt@H@conc@@PAV12@@Z ; std::_Unfancy<conc::AtomicInt<int> >
PUBLIC	??R?$AioAdd@H@conc@@QBEHH@Z			; conc::AioAdd<int>::operator()
PUBLIC	?cas@?$AtomicInt@H@conc@@QAEHHH@Z		; conc::AtomicInt<int>::cas
PUBLIC	??B?$AtomicInt@H@conc@@QBEHXZ			; conc::AtomicInt<int>::operator int
PUBLIC	?_Kfn@?$_Tree@V?$_Tmap_traits@V?$tuple@HHHW4arch_t@@@std@@P6AXPAE0_NHPBEHQAPBEQAH4H@ZU?$less@V?$tuple@HHHW4arch_t@@@std@@@2@V?$allocator@U?$pair@$$CBV?$tuple@HHHW4arch_t@@@std@@P6AXPAE0_NHPBEHQAPBEQAH4H@Z@std@@@2@$0A@@std@@@std@@IBEABV?$tuple@HHHW4arch_t@@@2@ABU?$pair@$$CBV?$tuple@HHHW4arch_t@@@std@@P6AXPAE0_NHPBEHQAPBEQAH4H@Z@2@@Z ; std::_Tree<std::_Tmap_traits<std::tuple<int,int,int,enum arch_t>,void (__cdecl*)(unsigned char *,unsigned char *,bool,int,unsigned char const *,int,unsigned char const * * const,int * const,int * const,int),std::less<std::tuple<int,int,int,enum arch_t> >,std::allocator<std::pair<std::tuple<int,int,int,enum arch_t> const ,void (__cdecl*)(unsigned char *,unsigned char *,bool,int,unsigned char const *,int,unsigned char const * * const,int * const,int * const,int)> >,0> >::_Kfn
PUBLIC	??0?$allocator@U?$_Tree_node@U?$pair@$$CBV?$tuple@HHHW4arch_t@@@std@@P6AXPAE0_NHPBEHQAPBEQAH4H@Z@std@@PAX@std@@@std@@QAE@XZ ; std::allocator<std::_Tree_node<std::pair<std::tuple<int,int,int,enum arch_t> const ,void (__cdecl*)(unsigned char *,unsigned char *,bool,int,unsigned char const *,int,unsigned char const * * const,int * const,int * const,int)>,void *> >::allocator<std::_Tree_node<std::pair<std::tuple<int,int,int,enum arch_t> const ,void (__cdecl*)(unsigned char *,unsigned char *,bool,int,unsigned char const *,int,unsigned char const * * const,int * const,int * const,int)>,void *> >
PUBLIC	?_Get_first@?$_Compressed_pair@U?$less@V?$tuple@HHHW4arch_t@@@std@@@std@@V?$_Compressed_pair@U?$_Wrap_alloc@V?$allocator@U?$_Tree_node@U?$pair@$$CBV?$tuple@HHHW4arch_t@@@std@@P6AXPAE0_NHPBEHQAPBEQAH4H@Z@std@@PAX@std@@@std@@@std@@V?$_Tree_val@U?$_Tree_simple_types@U?$pair@$$CBV?$tuple@HHHW4arch_t@@@std@@P6AXPAE0_NHPBEHQAPBEQAH4H@Z@std@@@std@@@2@$00@2@$00@std@@QAEAAU?$less@V?$tuple@HHHW4arch_t@@@std@@@2@XZ ; std::_Compressed_pair<std::less<std::tuple<int,int,int,enum arch_t> >,std::_Compressed_pair<std::_Wrap_alloc<std::allocator<std::_Tree_node<std::pair<std::tuple<int,int,int,enum arch_t> const ,void (__cdecl*)(unsigned char *,unsigned char *,bool,int,unsigned char const *,int,unsigned char const * * const,int * const,int * const,int)>,void *> > >,std::_Tree_val<std::_Tree_simple_types<std::pair<std::tuple<int,int,int,enum arch_t> const ,void (__cdecl*)(unsigned char *,unsigned char *,bool,int,unsigned char const *,int,unsigned char const * * const,int * const,int * const,int)> > >,1>,1>::_Get_first
PUBLIC	?lower_bound@?$_Tree@V?$_Tmap_traits@V?$tuple@HHHW4arch_t@@@std@@P6AXPAE0_NHPBEHQAPBEQAH4H@ZU?$less@V?$tuple@HHHW4arch_t@@@std@@@2@V?$allocator@U?$pair@$$CBV?$tuple@HHHW4arch_t@@@std@@P6AXPAE0_NHPBEHQAPBEQAH4H@Z@std@@@2@$0A@@std@@@std@@QAE?AV?$_Tree_iterator@V?$_Tree_val@U?$_Tree_simple_types@U?$pair@$$CBV?$tuple@HHHW4arch_t@@@std@@P6AXPAE0_NHPBEHQAPBEQAH4H@Z@std@@@std@@@std@@@2@ABV?$tuple@HHHW4arch_t@@@2@@Z ; std::_Tree<std::_Tmap_traits<std::tuple<int,int,int,enum arch_t>,void (__cdecl*)(unsigned char *,unsigned char *,bool,int,unsigned char const *,int,unsigned char const * * const,int * const,int * const,int),std::less<std::tuple<int,int,int,enum arch_t> >,std::allocator<std::pair<std::tuple<int,int,int,enum arch_t> const ,void (__cdecl*)(unsigned char *,unsigned char *,bool,int,unsigned char const *,int,unsigned char const * * const,int * const,int * const,int)> >,0> >::lower_bound
PUBLIC	?_Key@?$_Tree@V?$_Tmap_traits@V?$tuple@HHHW4arch_t@@@std@@P6AXPAE0_NHPBEHQAPBEQAH4H@ZU?$less@V?$tuple@HHHW4arch_t@@@std@@@2@V?$allocator@U?$pair@$$CBV?$tuple@HHHW4arch_t@@@std@@P6AXPAE0_NHPBEHQAPBEQAH4H@Z@std@@@2@$0A@@std@@@std@@IBEABV?$tuple@HHHW4arch_t@@@2@PAU?$_Tree_node@U?$pair@$$CBV?$tuple@HHHW4arch_t@@@std@@P6AXPAE0_NHPBEHQAPBEQAH4H@Z@std@@PAX@2@@Z ; std::_Tree<std::_Tmap_traits<std::tuple<int,int,int,enum arch_t>,void (__cdecl*)(unsigned char *,unsigned char *,bool,int,unsigned char const *,int,unsigned char const * * const,int * const,int * const,int),std::less<std::tuple<int,int,int,enum arch_t> >,std::allocator<std::pair<std::tuple<int,int,int,enum arch_t> const ,void (__cdecl*)(unsigned char *,unsigned char *,bool,int,unsigned char const *,int,unsigned char const * * const,int * const,int * const,int)> >,0> >::_Key
PUBLIC	?_Getcomp@?$_Tree_comp_alloc@V?$_Tmap_traits@V?$tuple@HHHW4arch_t@@@std@@P6AXPAE0_NHPBEHQAPBEQAH4H@ZU?$less@V?$tuple@HHHW4arch_t@@@std@@@2@V?$allocator@U?$pair@$$CBV?$tuple@HHHW4arch_t@@@std@@P6AXPAE0_NHPBEHQAPBEQAH4H@Z@std@@@2@$0A@@std@@@std@@QAEAAU?$less@V?$tuple@HHHW4arch_t@@@std@@@2@XZ ; std::_Tree_comp_alloc<std::_Tmap_traits<std::tuple<int,int,int,enum arch_t>,void (__cdecl*)(unsigned char *,unsigned char *,bool,int,unsigned char const *,int,unsigned char const * * const,int * const,int * const,int),std::less<std::tuple<int,int,int,enum arch_t> >,std::allocator<std::pair<std::tuple<int,int,int,enum arch_t> const ,void (__cdecl*)(unsigned char *,unsigned char *,bool,int,unsigned char const *,int,unsigned char const * * const,int * const,int * const,int)> >,0> >::_Getcomp
PUBLIC	??0?$_Wrap_alloc@V?$allocator@U?$_Tree_node@U?$pair@$$CBV?$tuple@HHHW4arch_t@@@std@@P6AXPAE0_NHPBEHQAPBEQAH4H@Z@std@@PAX@std@@@std@@@std@@QAE@XZ ; std::_Wrap_alloc<std::allocator<std::_Tree_node<std::pair<std::tuple<int,int,int,enum arch_t> const ,void (__cdecl*)(unsigned char *,unsigned char *,bool,int,unsigned char const *,int,unsigned char const * * const,int * const,int * const,int)>,void *> > >::_Wrap_alloc<std::allocator<std::_Tree_node<std::pair<std::tuple<int,int,int,enum arch_t> const ,void (__cdecl*)(unsigned char *,unsigned char *,bool,int,unsigned char const *,int,unsigned char const * * const,int * const,int * const,int)>,void *> > >
PUBLIC	??0?$_Tree_val@U?$_Tree_simple_types@U?$pair@$$CBV?$tuple@HHHW4arch_t@@@std@@P6AXPAE0_NHPBEHQAPBEQAH4H@Z@std@@@std@@@std@@QAE@XZ ; std::_Tree_val<std::_Tree_simple_types<std::pair<std::tuple<int,int,int,enum arch_t> const ,void (__cdecl*)(unsigned char *,unsigned char *,bool,int,unsigned char const *,int,unsigned char const * * const,int * const,int * const,int)> > >::_Tree_val<std::_Tree_simple_types<std::pair<std::tuple<int,int,int,enum arch_t> const ,void (__cdecl*)(unsigned char *,unsigned char *,bool,int,unsigned char const *,int,unsigned char const * * const,int * const,int * const,int)> > >
PUBLIC	??_GMVGroupOfFrames@@QAEPAXI@Z			; MVGroupOfFrames::`scalar deleting destructor'
PUBLIC	??$construct@PAU?$_Tree_node@U?$pair@$$CBV?$tuple@HHHW4arch_t@@@std@@P6AXPAE0_NHPBEHQAPBEQAH4H@Z@std@@PAX@std@@AAPAU12@@?$allocator_traits@V?$allocator@U?$_Tree_node@U?$pair@$$CBV?$tuple@HHHW4arch_t@@@std@@P6AXPAE0_NHPBEHQAPBEQAH4H@Z@std@@PAX@std@@@std@@@std@@SAXAAV?$allocator@U?$_Tree_node@U?$pair@$$CBV?$tuple@HHHW4arch_t@@@std@@P6AXPAE0_NHPBEHQAPBEQAH4H@Z@std@@PAX@std@@@1@PAPAU?$_Tree_node@U?$pair@$$CBV?$tuple@HHHW4arch_t@@@std@@P6AXPAE0_NHPBEHQAPBEQAH4H@Z@std@@PAX@1@AAPAU31@@Z ; std::allocator_traits<std::allocator<std::_Tree_node<std::pair<std::tuple<int,int,int,enum arch_t> const ,void (__cdecl*)(unsigned char *,unsigned char *,bool,int,unsigned char const *,int,unsigned char const * * const,int * const,int * const,int)>,void *> > >::construct<std::_Tree_node<std::pair<std::tuple<int,int,int,enum arch_t> const ,void (__cdecl*)(unsigned char *,unsigned char *,bool,int,unsigned char const *,int,unsigned char const * * const,int * const,int * const,int)>,void *> *,std::_Tree_node<std::pair<std::tuple<int,int,int,enum arch_t> const ,void (__cdecl*)(unsigned char *,unsigned char *,bool,int,unsigned char const *,int,unsigned char const * * const,int * const,int * const,int)>,void *> * &>
PUBLIC	??$forward@AAPAU?$_Tree_node@U?$pair@$$CBV?$tuple@HHHW4arch_t@@@std@@P6AXPAE0_NHPBEHQAPBEQAH4H@Z@std@@PAX@std@@@std@@YAAAPAU?$_Tree_node@U?$pair@$$CBV?$tuple@HHHW4arch_t@@@std@@P6AXPAE0_NHPBEHQAPBEQAH4H@Z@std@@PAX@0@AAPAU10@@Z ; std::forward<std::_Tree_node<std::pair<std::tuple<int,int,int,enum arch_t> const ,void (__cdecl*)(unsigned char *,unsigned char *,bool,int,unsigned char const *,int,unsigned char const * * const,int * const,int * const,int)>,void *> * &>
PUBLIC	??$destroy@U?$pair@$$CBV?$tuple@HHHW4arch_t@@@std@@P6AXPAE0_NHPBEHQAPBEQAH4H@Z@std@@@?$allocator_traits@V?$allocator@U?$_Tree_node@U?$pair@$$CBV?$tuple@HHHW4arch_t@@@std@@P6AXPAE0_NHPBEHQAPBEQAH4H@Z@std@@PAX@std@@@std@@@std@@SAXAAV?$allocator@U?$_Tree_node@U?$pair@$$CBV?$tuple@HHHW4arch_t@@@std@@P6AXPAE0_NHPBEHQAPBEQAH4H@Z@std@@PAX@std@@@1@PAU?$pair@$$CBV?$tuple@HHHW4arch_t@@@std@@P6AXPAE0_NHPBEHQAPBEQAH4H@Z@1@@Z ; std::allocator_traits<std::allocator<std::_Tree_node<std::pair<std::tuple<int,int,int,enum arch_t> const ,void (__cdecl*)(unsigned char *,unsigned char *,bool,int,unsigned char const *,int,unsigned char const * * const,int * const,int * const,int)>,void *> > >::destroy<std::pair<std::tuple<int,int,int,enum arch_t> const ,void (__cdecl*)(unsigned char *,unsigned char *,bool,int,unsigned char const *,int,unsigned char const * * const,int * const,int * const,int)> >
PUBLIC	??$_Destroy_range1@V?$allocator@VMvClipInfo@MDegrainN@@@std@@PAVMvClipInfo@MDegrainN@@@std@@YAXPAVMvClipInfo@MDegrainN@@0AAU?$_Wrap_alloc@V?$allocator@VMvClipInfo@MDegrainN@@@std@@@0@U?$integral_constant@_N$0A@@0@@Z ; std::_Destroy_range1<std::allocator<MDegrainN::MvClipInfo>,MDegrainN::MvClipInfo *>
PUBLIC	??$_Uninitialized_move@PAVMvClipInfo@MDegrainN@@PAV12@V?$allocator@VMvClipInfo@MDegrainN@@@std@@@std@@YAPAVMvClipInfo@MDegrainN@@PAV12@00AAU?$_Wrap_alloc@V?$allocator@VMvClipInfo@MDegrainN@@@std@@@0@@Z ; std::_Uninitialized_move<MDegrainN::MvClipInfo *,MDegrainN::MvClipInfo *,std::allocator<MDegrainN::MvClipInfo> >
PUBLIC	??$_Destroy_range1@V?$allocator@G@std@@PAG@std@@YAXPAG0AAU?$_Wrap_alloc@V?$allocator@G@std@@@0@U?$integral_constant@_N$00@0@@Z ; std::_Destroy_range1<std::allocator<unsigned short>,unsigned short *>
PUBLIC	??$_Uninitialized_move@PAGPAGV?$allocator@G@std@@@std@@YAPAGPAG00AAU?$_Wrap_alloc@V?$allocator@G@std@@@0@@Z ; std::_Uninitialized_move<unsigned short *,unsigned short *,std::allocator<unsigned short> >
PUBLIC	??$_Destroy_range1@V?$allocator@H@std@@PAH@std@@YAXPAH0AAU?$_Wrap_alloc@V?$allocator@H@std@@@0@U?$integral_constant@_N$00@0@@Z ; std::_Destroy_range1<std::allocator<int>,int *>
PUBLIC	??$_Uninitialized_move@PAHPAHV?$allocator@H@std@@@std@@YAPAHPAH00AAU?$_Wrap_alloc@V?$allocator@H@std@@@0@@Z ; std::_Uninitialized_move<int *,int *,std::allocator<int> >
PUBLIC	??$_Destroy_range1@V?$allocator@V?$AtomicInt@H@conc@@@std@@PAV?$AtomicInt@H@conc@@@std@@YAXPAV?$AtomicInt@H@conc@@0AAU?$_Wrap_alloc@V?$allocator@V?$AtomicInt@H@conc@@@std@@@0@U?$integral_constant@_N$00@0@@Z ; std::_Destroy_range1<std::allocator<conc::AtomicInt<int> >,conc::AtomicInt<int> *>
PUBLIC	??$_Uninitialized_move@PAV?$AtomicInt@H@conc@@PAV12@V?$allocator@V?$AtomicInt@H@conc@@@std@@@std@@YAPAV?$AtomicInt@H@conc@@PAV12@00AAU?$_Wrap_alloc@V?$allocator@V?$AtomicInt@H@conc@@@std@@@0@@Z ; std::_Uninitialized_move<conc::AtomicInt<int> *,conc::AtomicInt<int> *,std::allocator<conc::AtomicInt<int> > >
PUBLIC	??$?0$$V@?$_Compressed_pair@U?$_Wrap_alloc@V?$allocator@U?$_Tree_node@U?$pair@$$CBV?$tuple@HHHW4arch_t@@@std@@P6AXPAE0_NHPBEHQAPBEQAH4H@Z@std@@PAX@std@@@std@@@std@@V?$_Tree_val@U?$_Tree_simple_types@U?$pair@$$CBV?$tuple@HHHW4arch_t@@@std@@P6AXPAE0_NHPBEHQAPBEQAH4H@Z@std@@@std@@@2@$00@std@@QAE@U_Zero_then_variadic_args_t@1@@Z ; std::_Compressed_pair<std::_Wrap_alloc<std::allocator<std::_Tree_node<std::pair<std::tuple<int,int,int,enum arch_t> const ,void (__cdecl*)(unsigned char *,unsigned char *,bool,int,unsigned char const *,int,unsigned char const * * const,int * const,int * const,int)>,void *> > >,std::_Tree_val<std::_Tree_simple_types<std::pair<std::tuple<int,int,int,enum arch_t> const ,void (__cdecl*)(unsigned char *,unsigned char *,bool,int,unsigned char const *,int,unsigned char const * * const,int * const,int * const,int)> > >,1>::_Compressed_pair<std::_Wrap_alloc<std::allocator<std::_Tree_node<std::pair<std::tuple<int,int,int,enum arch_t> const ,void (__cdecl*)(unsigned char *,unsigned char *,bool,int,unsigned char const *,int,unsigned char const * * const,int * const,int * const,int)>,void *> > >,std::_Tree_val<std::_Tree_simple_types<std::pair<std::tuple<int,int,int,enum arch_t> const ,void (__cdecl*)(unsigned char *,unsigned char *,bool,int,unsigned char const *,int,unsigned char const * * const,int * const,int * const,int)> > >,1><>
PUBLIC	??$destroy@PAU?$_Tree_node@U?$pair@$$CBV?$tuple@HHHW4arch_t@@@std@@P6AXPAE0_NHPBEHQAPBEQAH4H@Z@std@@PAX@std@@@?$allocator_traits@V?$allocator@U?$_Tree_node@U?$pair@$$CBV?$tuple@HHHW4arch_t@@@std@@P6AXPAE0_NHPBEHQAPBEQAH4H@Z@std@@PAX@std@@@std@@@std@@SAXAAV?$allocator@U?$_Tree_node@U?$pair@$$CBV?$tuple@HHHW4arch_t@@@std@@P6AXPAE0_NHPBEHQAPBEQAH4H@Z@std@@PAX@std@@@1@PAPAU?$_Tree_node@U?$pair@$$CBV?$tuple@HHHW4arch_t@@@std@@P6AXPAE0_NHPBEHQAPBEQAH4H@Z@std@@PAX@1@@Z ; std::allocator_traits<std::allocator<std::_Tree_node<std::pair<std::tuple<int,int,int,enum arch_t> const ,void (__cdecl*)(unsigned char *,unsigned char *,bool,int,unsigned char const *,int,unsigned char const * * const,int * const,int * const,int)>,void *> > >::destroy<std::_Tree_node<std::pair<std::tuple<int,int,int,enum arch_t> const ,void (__cdecl*)(unsigned char *,unsigned char *,bool,int,unsigned char const *,int,unsigned char const * * const,int * const,int * const,int)>,void *> *>
PUBLIC	??$_Uninitialized_default_fill_n1@PAVMvClipInfo@MDegrainN@@IV?$allocator@VMvClipInfo@MDegrainN@@@std@@@std@@YAXPAVMvClipInfo@MDegrainN@@IAAU?$_Wrap_alloc@V?$allocator@VMvClipInfo@MDegrainN@@@std@@@0@U?$integral_constant@_N$0A@@0@@Z ; std::_Uninitialized_default_fill_n1<MDegrainN::MvClipInfo *,unsigned int,std::allocator<MDegrainN::MvClipInfo> >
PUBLIC	??$_Uninitialized_default_fill_n1@PAGIV?$allocator@G@std@@@std@@YAXPAGIAAU?$_Wrap_alloc@V?$allocator@G@std@@@0@U?$integral_constant@_N$00@0@@Z ; std::_Uninitialized_default_fill_n1<unsigned short *,unsigned int,std::allocator<unsigned short> >
PUBLIC	??$_Uninitialized_default_fill_n1@PAHIV?$allocator@H@std@@@std@@YAXPAHIAAU?$_Wrap_alloc@V?$allocator@H@std@@@0@U?$integral_constant@_N$00@0@@Z ; std::_Uninitialized_default_fill_n1<int *,unsigned int,std::allocator<int> >
PUBLIC	??$_Uninitialized_default_fill_n1@PAV?$AtomicInt@H@conc@@IV?$allocator@V?$AtomicInt@H@conc@@@std@@@std@@YAXPAV?$AtomicInt@H@conc@@IAAU?$_Wrap_alloc@V?$allocator@V?$AtomicInt@H@conc@@@std@@@0@U?$integral_constant@_N$0A@@0@@Z ; std::_Uninitialized_default_fill_n1<conc::AtomicInt<int> *,unsigned int,std::allocator<conc::AtomicInt<int> > >
PUBLIC	??$_Try_emplace@V?$tuple@HHHW4arch_t@@@std@@$$V@?$map@V?$tuple@HHHW4arch_t@@@std@@P6AXPAE0_NHPBEHQAPBEQAH4H@ZU?$less@V?$tuple@HHHW4arch_t@@@std@@@2@V?$allocator@U?$pair@$$CBV?$tuple@HHHW4arch_t@@@std@@P6AXPAE0_NHPBEHQAPBEQAH4H@Z@std@@@2@@std@@QAE?AU?$pair@V?$_Tree_iterator@V?$_Tree_val@U?$_Tree_simple_types@U?$pair@$$CBV?$tuple@HHHW4arch_t@@@std@@P6AXPAE0_NHPBEHQAPBEQAH4H@Z@std@@@std@@@std@@@std@@_N@1@$$QAV?$tuple@HHHW4arch_t@@@1@@Z ; std::map<std::tuple<int,int,int,enum arch_t>,void (__cdecl*)(unsigned char *,unsigned char *,bool,int,unsigned char const *,int,unsigned char const * * const,int * const,int * const,int),std::less<std::tuple<int,int,int,enum arch_t> >,std::allocator<std::pair<std::tuple<int,int,int,enum arch_t> const ,void (__cdecl*)(unsigned char *,unsigned char *,bool,int,unsigned char const *,int,unsigned char const * * const,int * const,int * const,int)> > >::_Try_emplace<std::tuple<int,int,int,enum arch_t> >
PUBLIC	??$exec_both@H$$CBV?$AioAdd@H@conc@@@AtomicIntOp@conc@@SAXAAV?$AtomicInt@H@1@ABV?$AioAdd@H@1@AAH2@Z ; conc::AtomicIntOp::exec_both<int,conc::AioAdd<int> const >
PUBLIC	??$process_chroma_overlap_slice@$01@MDegrainN@@AAEXAAVTaskData@?$MTSlicer@VMDegrainN@@V1@$0EA@@@@Z ; MDegrainN::process_chroma_overlap_slice<2>
PUBLIC	??$process_chroma_normal_slice@$01@MDegrainN@@AAEXAAVTaskData@?$MTSlicer@VMDegrainN@@V1@$0EA@@@@Z ; MDegrainN::process_chroma_normal_slice<2>
PUBLIC	??$process_chroma_overlap_slice@$00@MDegrainN@@AAEXAAVTaskData@?$MTSlicer@VMDegrainN@@V1@$0EA@@@@Z ; MDegrainN::process_chroma_overlap_slice<1>
PUBLIC	??$process_chroma_normal_slice@$00@MDegrainN@@AAEXAAVTaskData@?$MTSlicer@VMDegrainN@@V1@$0EA@@@@Z ; MDegrainN::process_chroma_normal_slice<1>
PUBLIC	??A?$Array@VTaskData@?$MTSlicer@VMDegrainN@@V1@$0EA@@@$0EA@@conc@@QAEAAVTaskData@?$MTSlicer@VMDegrainN@@V1@$0EA@@@J@Z ; conc::Array<MTSlicer<MDegrainN,MDegrainN,64>::TaskData,64>::operator[]
PUBLIC	?redirect_task@?$MTSlicer@VMDegrainN@@V1@$0EA@@@CAXPAVTaskDispatcher@avstp@@PAX@Z ; MTSlicer<MDegrainN,MDegrainN,64>::redirect_task
PUBLIC	?destroy_complete@?$SharedPtr@VMVGroupOfFrames@@@@AAEXXZ ; SharedPtr<MVGroupOfFrames>::destroy_complete
PUBLIC	?add_ref@?$SharedPtr@VMVGroupOfFrames@@@@AAEXXZ	; SharedPtr<MVGroupOfFrames>::add_ref
PUBLIC	?destroy_complete@?$SharedPtr@VMVClip@@@@AAEXXZ	; SharedPtr<MVClip>::destroy_complete
PUBLIC	?add_ref@?$SharedPtr@VMVClip@@@@AAEXXZ		; SharedPtr<MVClip>::add_ref
PUBLIC	??0?$allocator@VMvClipInfo@MDegrainN@@@std@@QAE@XZ ; std::allocator<MDegrainN::MvClipInfo>::allocator<MDegrainN::MvClipInfo>
PUBLIC	??0?$allocator@G@std@@QAE@XZ			; std::allocator<unsigned short>::allocator<unsigned short>
PUBLIC	??0?$allocator@H@std@@QAE@XZ			; std::allocator<int>::allocator<int>
PUBLIC	??0?$allocator@V?$AtomicInt@H@conc@@@std@@QAE@XZ ; std::allocator<conc::AtomicInt<int> >::allocator<conc::AtomicInt<int> >
PUBLIC	??0?$_Wrap_alloc@V?$allocator@VMvClipInfo@MDegrainN@@@std@@@std@@QAE@XZ ; std::_Wrap_alloc<std::allocator<MDegrainN::MvClipInfo> >::_Wrap_alloc<std::allocator<MDegrainN::MvClipInfo> >
PUBLIC	??0?$_Vector_val@U?$_Simple_types@VMvClipInfo@MDegrainN@@@std@@@std@@QAE@XZ ; std::_Vector_val<std::_Simple_types<MDegrainN::MvClipInfo> >::_Vector_val<std::_Simple_types<MDegrainN::MvClipInfo> >
PUBLIC	??0?$auto_ptr_ref@VYUY2Planes@@@std@@QAE@PAVYUY2Planes@@@Z ; std::auto_ptr_ref<YUY2Planes>::auto_ptr_ref<YUY2Planes>
PUBLIC	??0?$auto_ptr_ref@VOverlapWindows@@@std@@QAE@PAVOverlapWindows@@@Z ; std::auto_ptr_ref<OverlapWindows>::auto_ptr_ref<OverlapWindows>
PUBLIC	??0?$_Wrap_alloc@V?$allocator@G@std@@@std@@QAE@XZ ; std::_Wrap_alloc<std::allocator<unsigned short> >::_Wrap_alloc<std::allocator<unsigned short> >
PUBLIC	??0?$_Vector_val@U?$_Simple_types@G@std@@@std@@QAE@XZ ; std::_Vector_val<std::_Simple_types<unsigned short> >::_Vector_val<std::_Simple_types<unsigned short> >
PUBLIC	??0?$_Wrap_alloc@V?$allocator@H@std@@@std@@QAE@XZ ; std::_Wrap_alloc<std::allocator<int> >::_Wrap_alloc<std::allocator<int> >
PUBLIC	??0?$_Vector_val@U?$_Simple_types@H@std@@@std@@QAE@XZ ; std::_Vector_val<std::_Simple_types<int> >::_Vector_val<std::_Simple_types<int> >
PUBLIC	??0?$_Wrap_alloc@V?$allocator@V?$AtomicInt@H@conc@@@std@@@std@@QAE@XZ ; std::_Wrap_alloc<std::allocator<conc::AtomicInt<int> > >::_Wrap_alloc<std::allocator<conc::AtomicInt<int> > >
PUBLIC	??0?$_Vector_val@U?$_Simple_types@V?$AtomicInt@H@conc@@@std@@@std@@QAE@XZ ; std::_Vector_val<std::_Simple_types<conc::AtomicInt<int> > >::_Vector_val<std::_Simple_types<conc::AtomicInt<int> > >
PUBLIC	?access@?$MTSlicer_Access@VMDegrainN@@V1@@@SAPAVMDegrainN@@PAV2@@Z ; MTSlicer_Access<MDegrainN,MDegrainN>::access
PUBLIC	??_G?$MTSlicer@VMDegrainN@@V1@$0EA@@@UAEPAXI@Z	; MTSlicer<MDegrainN,MDegrainN,64>::`scalar deleting destructor'
PUBLIC	??$construct@PAU?$_Tree_node@U?$pair@$$CBV?$tuple@HHHW4arch_t@@@std@@P6AXPAE0_NHPBEHQAPBEQAH4H@Z@std@@PAX@std@@AAPAU12@@?$_Wrap_alloc@V?$allocator@U?$_Tree_node@U?$pair@$$CBV?$tuple@HHHW4arch_t@@@std@@P6AXPAE0_NHPBEHQAPBEQAH4H@Z@std@@PAX@std@@@std@@@std@@QAEXPAPAU?$_Tree_node@U?$pair@$$CBV?$tuple@HHHW4arch_t@@@std@@P6AXPAE0_NHPBEHQAPBEQAH4H@Z@std@@PAX@1@AAPAU21@@Z ; std::_Wrap_alloc<std::allocator<std::_Tree_node<std::pair<std::tuple<int,int,int,enum arch_t> const ,void (__cdecl*)(unsigned char *,unsigned char *,bool,int,unsigned char const *,int,unsigned char const * * const,int * const,int * const,int)>,void *> > >::construct<std::_Tree_node<std::pair<std::tuple<int,int,int,enum arch_t> const ,void (__cdecl*)(unsigned char *,unsigned char *,bool,int,unsigned char const *,int,unsigned char const * * const,int * const,int * const,int)>,void *> *,std::_Tree_node<std::pair<std::tuple<int,int,int,enum arch_t> const ,void (__cdecl*)(unsigned char *,unsigned char *,bool,int,unsigned char const *,int,unsigned char const * * const,int * const,int * const,int)>,void *> * &>
PUBLIC	??$destroy@U?$pair@$$CBV?$tuple@HHHW4arch_t@@@std@@P6AXPAE0_NHPBEHQAPBEQAH4H@Z@std@@@?$_Wrap_alloc@V?$allocator@U?$_Tree_node@U?$pair@$$CBV?$tuple@HHHW4arch_t@@@std@@P6AXPAE0_NHPBEHQAPBEQAH4H@Z@std@@PAX@std@@@std@@@std@@QAEXPAU?$pair@$$CBV?$tuple@HHHW4arch_t@@@std@@P6AXPAE0_NHPBEHQAPBEQAH4H@Z@1@@Z ; std::_Wrap_alloc<std::allocator<std::_Tree_node<std::pair<std::tuple<int,int,int,enum arch_t> const ,void (__cdecl*)(unsigned char *,unsigned char *,bool,int,unsigned char const *,int,unsigned char const * * const,int * const,int * const,int)>,void *> > >::destroy<std::pair<std::tuple<int,int,int,enum arch_t> const ,void (__cdecl*)(unsigned char *,unsigned char *,bool,int,unsigned char const *,int,unsigned char const * * const,int * const,int * const,int)> >
PUBLIC	??$_Destroy_range@V?$allocator@VMvClipInfo@MDegrainN@@@std@@PAVMvClipInfo@MDegrainN@@@std@@YAXPAVMvClipInfo@MDegrainN@@0AAU?$_Wrap_alloc@V?$allocator@VMvClipInfo@MDegrainN@@@std@@@0@@Z ; std::_Destroy_range<std::allocator<MDegrainN::MvClipInfo>,MDegrainN::MvClipInfo *>
PUBLIC	??$_Umove@PAVMvClipInfo@MDegrainN@@@?$vector@VMvClipInfo@MDegrainN@@V?$allocator@VMvClipInfo@MDegrainN@@@std@@@std@@IAEPAVMvClipInfo@MDegrainN@@PAV23@00@Z ; std::vector<MDegrainN::MvClipInfo,std::allocator<MDegrainN::MvClipInfo> >::_Umove<MDegrainN::MvClipInfo *>
PUBLIC	??$_Destroy_range@V?$allocator@G@std@@PAG@std@@YAXPAG0AAU?$_Wrap_alloc@V?$allocator@G@std@@@0@@Z ; std::_Destroy_range<std::allocator<unsigned short>,unsigned short *>
PUBLIC	??$_Umove@PAG@?$vector@GV?$allocator@G@std@@@std@@IAEPAGPAG00@Z ; std::vector<unsigned short,std::allocator<unsigned short> >::_Umove<unsigned short *>
PUBLIC	??$_Destroy_range@V?$allocator@H@std@@PAH@std@@YAXPAH0AAU?$_Wrap_alloc@V?$allocator@H@std@@@0@@Z ; std::_Destroy_range<std::allocator<int>,int *>
PUBLIC	??$_Umove@PAH@?$vector@HV?$allocator@H@std@@@std@@IAEPAHPAH00@Z ; std::vector<int,std::allocator<int> >::_Umove<int *>
PUBLIC	??$_Destroy_range@V?$allocator@V?$AtomicInt@H@conc@@@std@@PAV?$AtomicInt@H@conc@@@std@@YAXPAV?$AtomicInt@H@conc@@0AAU?$_Wrap_alloc@V?$allocator@V?$AtomicInt@H@conc@@@std@@@0@@Z ; std::_Destroy_range<std::allocator<conc::AtomicInt<int> >,conc::AtomicInt<int> *>
PUBLIC	??$_Umove@PAV?$AtomicInt@H@conc@@@?$vector@V?$AtomicInt@H@conc@@V?$allocator@V?$AtomicInt@H@conc@@@std@@@std@@IAEPAV?$AtomicInt@H@conc@@PAV23@00@Z ; std::vector<conc::AtomicInt<int>,std::allocator<conc::AtomicInt<int> > >::_Umove<conc::AtomicInt<int> *>
PUBLIC	??$?0ABU?$less@V?$tuple@HHHW4arch_t@@@std@@@std@@U_Zero_then_variadic_args_t@1@@?$_Compressed_pair@U?$less@V?$tuple@HHHW4arch_t@@@std@@@std@@V?$_Compressed_pair@U?$_Wrap_alloc@V?$allocator@U?$_Tree_node@U?$pair@$$CBV?$tuple@HHHW4arch_t@@@std@@P6AXPAE0_NHPBEHQAPBEQAH4H@Z@std@@PAX@std@@@std@@@std@@V?$_Tree_val@U?$_Tree_simple_types@U?$pair@$$CBV?$tuple@HHHW4arch_t@@@std@@P6AXPAE0_NHPBEHQAPBEQAH4H@Z@std@@@std@@@2@$00@2@$00@std@@QAE@U_One_then_variadic_args_t@1@ABU?$less@V?$tuple@HHHW4arch_t@@@std@@@1@$$QAU_Zero_then_variadic_args_t@1@@Z ; std::_Compressed_pair<std::less<std::tuple<int,int,int,enum arch_t> >,std::_Compressed_pair<std::_Wrap_alloc<std::allocator<std::_Tree_node<std::pair<std::tuple<int,int,int,enum arch_t> const ,void (__cdecl*)(unsigned char *,unsigned char *,bool,int,unsigned char const *,int,unsigned char const * * const,int * const,int * const,int)>,void *> > >,std::_Tree_val<std::_Tree_simple_types<std::pair<std::tuple<int,int,int,enum arch_t> const ,void (__cdecl*)(unsigned char *,unsigned char *,bool,int,unsigned char const *,int,unsigned char const * * const,int * const,int * const,int)> > >,1>,1>::_Compressed_pair<std::less<std::tuple<int,int,int,enum arch_t> >,std::_Compressed_pair<std::_Wrap_alloc<std::allocator<std::_Tree_node<std::pair<std::tuple<int,int,int,enum arch_t> const ,void (__cdecl*)(unsigned char *,unsigned char *,bool,int,unsigned char const *,int,unsigned char const * * const,int * const,int * const,int)>,void *> > >,std::_Tree_val<std::_Tree_simple_types<std::pair<std::tuple<int,int,int,enum arch_t> const ,void (__cdecl*)(unsigned char *,unsigned char *,bool,int,unsigned char const *,int,unsigned char const * * const,int * const,int * const,int)> > >,1>,1><std::less<std::tuple<int,int,int,enum arch_t> > const &,std::_Zero_then_variadic_args_t>
PUBLIC	??$destroy@PAU?$_Tree_node@U?$pair@$$CBV?$tuple@HHHW4arch_t@@@std@@P6AXPAE0_NHPBEHQAPBEQAH4H@Z@std@@PAX@std@@@?$_Wrap_alloc@V?$allocator@U?$_Tree_node@U?$pair@$$CBV?$tuple@HHHW4arch_t@@@std@@P6AXPAE0_NHPBEHQAPBEQAH4H@Z@std@@PAX@std@@@std@@@std@@QAEXPAPAU?$_Tree_node@U?$pair@$$CBV?$tuple@HHHW4arch_t@@@std@@P6AXPAE0_NHPBEHQAPBEQAH4H@Z@std@@PAX@1@@Z ; std::_Wrap_alloc<std::allocator<std::_Tree_node<std::pair<std::tuple<int,int,int,enum arch_t> const ,void (__cdecl*)(unsigned char *,unsigned char *,bool,int,unsigned char const *,int,unsigned char const * * const,int * const,int * const,int)>,void *> > >::destroy<std::_Tree_node<std::pair<std::tuple<int,int,int,enum arch_t> const ,void (__cdecl*)(unsigned char *,unsigned char *,bool,int,unsigned char const *,int,unsigned char const * * const,int * const,int * const,int)>,void *> *>
PUBLIC	??$addressof@PAU?$_Tree_node@U?$pair@$$CBV?$tuple@HHHW4arch_t@@@std@@P6AXPAE0_NHPBEHQAPBEQAH4H@Z@std@@PAX@std@@@std@@YAPAPAU?$_Tree_node@U?$pair@$$CBV?$tuple@HHHW4arch_t@@@std@@P6AXPAE0_NHPBEHQAPBEQAH4H@Z@std@@PAX@0@AAPAU10@@Z ; std::addressof<std::_Tree_node<std::pair<std::tuple<int,int,int,enum arch_t> const ,void (__cdecl*)(unsigned char *,unsigned char *,bool,int,unsigned char const *,int,unsigned char const * * const,int * const,int * const,int)>,void *> *>
PUBLIC	??$addressof@U?$pair@$$CBV?$tuple@HHHW4arch_t@@@std@@P6AXPAE0_NHPBEHQAPBEQAH4H@Z@std@@@std@@YAPAU?$pair@$$CBV?$tuple@HHHW4arch_t@@@std@@P6AXPAE0_NHPBEHQAPBEQAH4H@Z@0@AAU10@@Z ; std::addressof<std::pair<std::tuple<int,int,int,enum arch_t> const ,void (__cdecl*)(unsigned char *,unsigned char *,bool,int,unsigned char const *,int,unsigned char const * * const,int * const,int * const,int)> >
PUBLIC	??$?0$$V@?$_Compressed_pair@U?$_Wrap_alloc@V?$allocator@VMvClipInfo@MDegrainN@@@std@@@std@@V?$_Vector_val@U?$_Simple_types@VMvClipInfo@MDegrainN@@@std@@@2@$00@std@@QAE@U_Zero_then_variadic_args_t@1@@Z ; std::_Compressed_pair<std::_Wrap_alloc<std::allocator<MDegrainN::MvClipInfo> >,std::_Vector_val<std::_Simple_types<MDegrainN::MvClipInfo> >,1>::_Compressed_pair<std::_Wrap_alloc<std::allocator<MDegrainN::MvClipInfo> >,std::_Vector_val<std::_Simple_types<MDegrainN::MvClipInfo> >,1><>
PUBLIC	??$?0$$V@?$_Compressed_pair@U?$_Wrap_alloc@V?$allocator@G@std@@@std@@V?$_Vector_val@U?$_Simple_types@G@std@@@2@$00@std@@QAE@U_Zero_then_variadic_args_t@1@@Z ; std::_Compressed_pair<std::_Wrap_alloc<std::allocator<unsigned short> >,std::_Vector_val<std::_Simple_types<unsigned short> >,1>::_Compressed_pair<std::_Wrap_alloc<std::allocator<unsigned short> >,std::_Vector_val<std::_Simple_types<unsigned short> >,1><>
PUBLIC	??$?0$$V@?$_Compressed_pair@U?$_Wrap_alloc@V?$allocator@H@std@@@std@@V?$_Vector_val@U?$_Simple_types@H@std@@@2@$00@std@@QAE@U_Zero_then_variadic_args_t@1@@Z ; std::_Compressed_pair<std::_Wrap_alloc<std::allocator<int> >,std::_Vector_val<std::_Simple_types<int> >,1>::_Compressed_pair<std::_Wrap_alloc<std::allocator<int> >,std::_Vector_val<std::_Simple_types<int> >,1><>
PUBLIC	??$?0$$V@?$_Compressed_pair@U?$_Wrap_alloc@V?$allocator@V?$AtomicInt@H@conc@@@std@@@std@@V?$_Vector_val@U?$_Simple_types@V?$AtomicInt@H@conc@@@std@@@2@$00@std@@QAE@U_Zero_then_variadic_args_t@1@@Z ; std::_Compressed_pair<std::_Wrap_alloc<std::allocator<conc::AtomicInt<int> > >,std::_Vector_val<std::_Simple_types<conc::AtomicInt<int> > >,1>::_Compressed_pair<std::_Wrap_alloc<std::allocator<conc::AtomicInt<int> > >,std::_Vector_val<std::_Simple_types<conc::AtomicInt<int> > >,1><>
PUBLIC	??$_Uninitialized_default_fill_n@PAVMvClipInfo@MDegrainN@@IV?$allocator@VMvClipInfo@MDegrainN@@@std@@@std@@YAXPAVMvClipInfo@MDegrainN@@IAAU?$_Wrap_alloc@V?$allocator@VMvClipInfo@MDegrainN@@@std@@@0@@Z ; std::_Uninitialized_default_fill_n<MDegrainN::MvClipInfo *,unsigned int,std::allocator<MDegrainN::MvClipInfo> >
PUBLIC	??$_Uninitialized_default_fill_n@PAGIV?$allocator@G@std@@@std@@YAXPAGIAAU?$_Wrap_alloc@V?$allocator@G@std@@@0@@Z ; std::_Uninitialized_default_fill_n<unsigned short *,unsigned int,std::allocator<unsigned short> >
PUBLIC	??$_Uninitialized_default_fill_n@PAHIV?$allocator@H@std@@@std@@YAXPAHIAAU?$_Wrap_alloc@V?$allocator@H@std@@@0@@Z ; std::_Uninitialized_default_fill_n<int *,unsigned int,std::allocator<int> >
PUBLIC	??$_Uninitialized_default_fill_n@PAV?$AtomicInt@H@conc@@IV?$allocator@V?$AtomicInt@H@conc@@@std@@@std@@YAXPAV?$AtomicInt@H@conc@@IAAU?$_Wrap_alloc@V?$allocator@V?$AtomicInt@H@conc@@@std@@@0@@Z ; std::_Uninitialized_default_fill_n<conc::AtomicInt<int> *,unsigned int,std::allocator<conc::AtomicInt<int> > >
PUBLIC	??$try_emplace@$$V@?$map@V?$tuple@HHHW4arch_t@@@std@@P6AXPAE0_NHPBEHQAPBEQAH4H@ZU?$less@V?$tuple@HHHW4arch_t@@@std@@@2@V?$allocator@U?$pair@$$CBV?$tuple@HHHW4arch_t@@@std@@P6AXPAE0_NHPBEHQAPBEQAH4H@Z@std@@@2@@std@@QAE?AU?$pair@V?$_Tree_iterator@V?$_Tree_val@U?$_Tree_simple_types@U?$pair@$$CBV?$tuple@HHHW4arch_t@@@std@@P6AXPAE0_NHPBEHQAPBEQAH4H@Z@std@@@std@@@std@@@std@@_N@1@$$QAV?$tuple@HHHW4arch_t@@@1@@Z ; std::map<std::tuple<int,int,int,enum arch_t>,void (__cdecl*)(unsigned char *,unsigned char *,bool,int,unsigned char const *,int,unsigned char const * * const,int * const,int * const,int),std::less<std::tuple<int,int,int,enum arch_t> >,std::allocator<std::pair<std::tuple<int,int,int,enum arch_t> const ,void (__cdecl*)(unsigned char *,unsigned char *,bool,int,unsigned char const *,int,unsigned char const * * const,int * const,int * const,int)> > >::try_emplace<>
PUBLIC	??$exec_new@H$$CBV?$AioAdd@H@conc@@@AtomicIntOp@conc@@SAHAAV?$AtomicInt@H@1@ABV?$AioAdd@H@1@@Z ; conc::AtomicIntOp::exec_new<int,conc::AioAdd<int> const >
PUBLIC	??0?$AioAdd@H@conc@@QAE@H@Z			; conc::AioAdd<int>::AioAdd<int>
PUBLIC	??$process_chroma@$01@MDegrainN@@AAEXH@Z	; MDegrainN::process_chroma<2>
PUBLIC	??$process_chroma@$00@MDegrainN@@AAEXH@Z	; MDegrainN::process_chroma<1>
PUBLIC	??$DegrainN_sse2@$01$01@@YAXPAE0_NHPBEHQAPBEQAH4H@Z ; DegrainN_sse2<2,2>
PUBLIC	??$DegrainN_sse2@$01$03@@YAXPAE0_NHPBEHQAPBEQAH4H@Z ; DegrainN_sse2<2,4>
PUBLIC	??$DegrainN_sse2@$03$01@@YAXPAE0_NHPBEHQAPBEQAH4H@Z ; DegrainN_sse2<4,2>
PUBLIC	??$DegrainN_sse2@$03$03@@YAXPAE0_NHPBEHQAPBEQAH4H@Z ; DegrainN_sse2<4,4>
PUBLIC	??$DegrainN_sse2@$03$07@@YAXPAE0_NHPBEHQAPBEQAH4H@Z ; DegrainN_sse2<4,8>
PUBLIC	??$DegrainN_sse2@$07$00@@YAXPAE0_NHPBEHQAPBEQAH4H@Z ; DegrainN_sse2<8,1>
PUBLIC	??$DegrainN_sse2@$07$01@@YAXPAE0_NHPBEHQAPBEQAH4H@Z ; DegrainN_sse2<8,2>
PUBLIC	??$DegrainN_sse2@$07$03@@YAXPAE0_NHPBEHQAPBEQAH4H@Z ; DegrainN_sse2<8,4>
PUBLIC	??$DegrainN_sse2@$07$07@@YAXPAE0_NHPBEHQAPBEQAH4H@Z ; DegrainN_sse2<8,8>
PUBLIC	??$DegrainN_sse2@$07$0BA@@@YAXPAE0_NHPBEHQAPBEQAH4H@Z ; DegrainN_sse2<8,16>
PUBLIC	??$DegrainN_sse2@$0BA@$01@@YAXPAE0_NHPBEHQAPBEQAH4H@Z ; DegrainN_sse2<16,2>
PUBLIC	??$DegrainN_sse2@$0BA@$03@@YAXPAE0_NHPBEHQAPBEQAH4H@Z ; DegrainN_sse2<16,4>
PUBLIC	??$DegrainN_sse2@$0BA@$07@@YAXPAE0_NHPBEHQAPBEQAH4H@Z ; DegrainN_sse2<16,8>
PUBLIC	??$DegrainN_sse2@$0BA@$0BA@@@YAXPAE0_NHPBEHQAPBEQAH4H@Z ; DegrainN_sse2<16,16>
PUBLIC	??$DegrainN_sse2@$0BA@$0CA@@@YAXPAE0_NHPBEHQAPBEQAH4H@Z ; DegrainN_sse2<16,32>
PUBLIC	??$DegrainN_sse2@$0CA@$07@@YAXPAE0_NHPBEHQAPBEQAH4H@Z ; DegrainN_sse2<32,8>
PUBLIC	??$DegrainN_sse2@$0CA@$0BA@@@YAXPAE0_NHPBEHQAPBEQAH4H@Z ; DegrainN_sse2<32,16>
PUBLIC	??$DegrainN_sse2@$0CA@$0CA@@@YAXPAE0_NHPBEHQAPBEQAH4H@Z ; DegrainN_sse2<32,32>
PUBLIC	??$DegrainN_C@G$01$01@@YAXPAE0_NHPBEHQAPBEQAH4H@Z ; DegrainN_C<unsigned short,2,2>
PUBLIC	??$DegrainN_C@G$01$03@@YAXPAE0_NHPBEHQAPBEQAH4H@Z ; DegrainN_C<unsigned short,2,4>
PUBLIC	??$DegrainN_C@G$03$01@@YAXPAE0_NHPBEHQAPBEQAH4H@Z ; DegrainN_C<unsigned short,4,2>
PUBLIC	??$DegrainN_C@G$03$03@@YAXPAE0_NHPBEHQAPBEQAH4H@Z ; DegrainN_C<unsigned short,4,4>
PUBLIC	??$DegrainN_C@G$03$07@@YAXPAE0_NHPBEHQAPBEQAH4H@Z ; DegrainN_C<unsigned short,4,8>
PUBLIC	??$DegrainN_C@G$07$00@@YAXPAE0_NHPBEHQAPBEQAH4H@Z ; DegrainN_C<unsigned short,8,1>
PUBLIC	??$DegrainN_C@G$07$01@@YAXPAE0_NHPBEHQAPBEQAH4H@Z ; DegrainN_C<unsigned short,8,2>
PUBLIC	??$DegrainN_C@G$07$03@@YAXPAE0_NHPBEHQAPBEQAH4H@Z ; DegrainN_C<unsigned short,8,4>
PUBLIC	??$DegrainN_C@G$07$07@@YAXPAE0_NHPBEHQAPBEQAH4H@Z ; DegrainN_C<unsigned short,8,8>
PUBLIC	??$DegrainN_C@G$07$0BA@@@YAXPAE0_NHPBEHQAPBEQAH4H@Z ; DegrainN_C<unsigned short,8,16>
PUBLIC	??$DegrainN_C@G$0BA@$01@@YAXPAE0_NHPBEHQAPBEQAH4H@Z ; DegrainN_C<unsigned short,16,2>
PUBLIC	??$DegrainN_C@G$0BA@$03@@YAXPAE0_NHPBEHQAPBEQAH4H@Z ; DegrainN_C<unsigned short,16,4>
PUBLIC	??$DegrainN_C@G$0BA@$07@@YAXPAE0_NHPBEHQAPBEQAH4H@Z ; DegrainN_C<unsigned short,16,8>
PUBLIC	??$DegrainN_C@G$0BA@$0BA@@@YAXPAE0_NHPBEHQAPBEQAH4H@Z ; DegrainN_C<unsigned short,16,16>
PUBLIC	??$DegrainN_C@G$0BA@$0CA@@@YAXPAE0_NHPBEHQAPBEQAH4H@Z ; DegrainN_C<unsigned short,16,32>
PUBLIC	??$DegrainN_C@G$0CA@$07@@YAXPAE0_NHPBEHQAPBEQAH4H@Z ; DegrainN_C<unsigned short,32,8>
PUBLIC	??$DegrainN_C@G$0CA@$0BA@@@YAXPAE0_NHPBEHQAPBEQAH4H@Z ; DegrainN_C<unsigned short,32,16>
PUBLIC	??$DegrainN_C@G$0CA@$0CA@@@YAXPAE0_NHPBEHQAPBEQAH4H@Z ; DegrainN_C<unsigned short,32,32>
PUBLIC	??$DegrainN_C@E$01$01@@YAXPAE0_NHPBEHQAPBEQAH4H@Z ; DegrainN_C<unsigned char,2,2>
PUBLIC	??$DegrainN_C@E$01$03@@YAXPAE0_NHPBEHQAPBEQAH4H@Z ; DegrainN_C<unsigned char,2,4>
PUBLIC	??$DegrainN_C@E$03$01@@YAXPAE0_NHPBEHQAPBEQAH4H@Z ; DegrainN_C<unsigned char,4,2>
PUBLIC	??$DegrainN_C@E$03$03@@YAXPAE0_NHPBEHQAPBEQAH4H@Z ; DegrainN_C<unsigned char,4,4>
PUBLIC	??$DegrainN_C@E$03$07@@YAXPAE0_NHPBEHQAPBEQAH4H@Z ; DegrainN_C<unsigned char,4,8>
PUBLIC	??$DegrainN_C@E$07$00@@YAXPAE0_NHPBEHQAPBEQAH4H@Z ; DegrainN_C<unsigned char,8,1>
PUBLIC	??$DegrainN_C@E$07$01@@YAXPAE0_NHPBEHQAPBEQAH4H@Z ; DegrainN_C<unsigned char,8,2>
PUBLIC	??$DegrainN_C@E$07$03@@YAXPAE0_NHPBEHQAPBEQAH4H@Z ; DegrainN_C<unsigned char,8,4>
PUBLIC	??$DegrainN_C@E$07$07@@YAXPAE0_NHPBEHQAPBEQAH4H@Z ; DegrainN_C<unsigned char,8,8>
PUBLIC	??$DegrainN_C@E$07$0BA@@@YAXPAE0_NHPBEHQAPBEQAH4H@Z ; DegrainN_C<unsigned char,8,16>
PUBLIC	??$DegrainN_C@E$0BA@$01@@YAXPAE0_NHPBEHQAPBEQAH4H@Z ; DegrainN_C<unsigned char,16,2>
PUBLIC	??$DegrainN_C@E$0BA@$03@@YAXPAE0_NHPBEHQAPBEQAH4H@Z ; DegrainN_C<unsigned char,16,4>
PUBLIC	??$DegrainN_C@E$0BA@$07@@YAXPAE0_NHPBEHQAPBEQAH4H@Z ; DegrainN_C<unsigned char,16,8>
PUBLIC	??$DegrainN_C@E$0BA@$0BA@@@YAXPAE0_NHPBEHQAPBEQAH4H@Z ; DegrainN_C<unsigned char,16,16>
PUBLIC	??$DegrainN_C@E$0BA@$0CA@@@YAXPAE0_NHPBEHQAPBEQAH4H@Z ; DegrainN_C<unsigned char,16,32>
PUBLIC	??$DegrainN_C@E$0CA@$07@@YAXPAE0_NHPBEHQAPBEQAH4H@Z ; DegrainN_C<unsigned char,32,8>
PUBLIC	??$DegrainN_C@E$0CA@$0BA@@@YAXPAE0_NHPBEHQAPBEQAH4H@Z ; DegrainN_C<unsigned char,32,16>
PUBLIC	??$DegrainN_C@E$0CA@$0CA@@@YAXPAE0_NHPBEHQAPBEQAH4H@Z ; DegrainN_C<unsigned char,32,32>
PUBLIC	??$GetAbsolutePointerPel@$01@MVPlane@@QBEPBEHH@Z ; MVPlane::GetAbsolutePointerPel<2>
PUBLIC	??$GetAbsolutePointerPel@$00@MVPlane@@QBEPBEHH@Z ; MVPlane::GetAbsolutePointerPel<1>
PUBLIC	??$?BVOverlapWindows@@@?$auto_ptr@VOverlapWindows@@@std@@QAE?AU?$auto_ptr_ref@VOverlapWindows@@@1@XZ ; std::auto_ptr<OverlapWindows>::operator<OverlapWindows> std::auto_ptr_ref<OverlapWindows>
PUBLIC	??$?BVYUY2Planes@@@?$auto_ptr@VYUY2Planes@@@std@@QAE?AU?$auto_ptr_ref@VYUY2Planes@@@1@XZ ; std::auto_ptr<YUY2Planes>::operator<YUY2Planes> std::auto_ptr_ref<YUY2Planes>
PUBLIC	?wait@?$MTSlicer@VMDegrainN@@V1@$0EA@@@QAEXXZ	; MTSlicer<MDegrainN,MDegrainN,64>::wait
PUBLIC	?start@?$MTSlicer@VMDegrainN@@V1@$0EA@@@QAEXHAAVMDegrainN@@P82@AEXAAVTaskData@1@@ZH@Z ; MTSlicer<MDegrainN,MDegrainN,64>::start
PUBLIC	??1?$MTSlicer@VMDegrainN@@V1@$0EA@@@UAE@XZ	; MTSlicer<MDegrainN,MDegrainN,64>::~MTSlicer<MDegrainN,MDegrainN,64>
PUBLIC	??0?$MTSlicer@VMDegrainN@@V1@$0EA@@@QAE@_N@Z	; MTSlicer<MDegrainN,MDegrainN,64>::MTSlicer<MDegrainN,MDegrainN,64>
PUBLIC	??D?$SharedPtr@VMVGroupOfFrames@@@@QBEAAVMVGroupOfFrames@@XZ ; SharedPtr<MVGroupOfFrames>::operator*
PUBLIC	??4?$SharedPtr@VMVGroupOfFrames@@@@QAEAAV0@ABV0@@Z ; SharedPtr<MVGroupOfFrames>::operator=
PUBLIC	??1?$SharedPtr@VMVGroupOfFrames@@@@QAE@XZ	; SharedPtr<MVGroupOfFrames>::~SharedPtr<MVGroupOfFrames>
PUBLIC	??0?$SharedPtr@VMVGroupOfFrames@@@@QAE@PAVMVGroupOfFrames@@@Z ; SharedPtr<MVGroupOfFrames>::SharedPtr<MVGroupOfFrames>
PUBLIC	??D?$SharedPtr@VMVClip@@@@QBEAAVMVClip@@XZ	; SharedPtr<MVClip>::operator*
PUBLIC	??C?$SharedPtr@VMVClip@@@@QBEPAVMVClip@@XZ	; SharedPtr<MVClip>::operator->
PUBLIC	??4?$SharedPtr@VMVClip@@@@QAEAAV0@ABV0@@Z	; SharedPtr<MVClip>::operator=
PUBLIC	??1?$SharedPtr@VMVClip@@@@QAE@XZ		; SharedPtr<MVClip>::~SharedPtr<MVClip>
PUBLIC	??0?$SharedPtr@VMVClip@@@@QAE@PAVMVClip@@@Z	; SharedPtr<MVClip>::SharedPtr<MVClip>
PUBLIC	??$__vcrt_va_start_verify_argument_type@QBD@@YAXXZ ; __vcrt_va_start_verify_argument_type<char const * const>
PUBLIC	?allocate@?$allocator@U?$_Tree_node@U?$pair@$$CBV?$tuple@HHHW4arch_t@@@std@@P6AXPAE0_NHPBEHQAPBEQAH4H@Z@std@@PAX@std@@@std@@QAEPAU?$_Tree_node@U?$pair@$$CBV?$tuple@HHHW4arch_t@@@std@@P6AXPAE0_NHPBEHQAPBEQAH4H@Z@std@@PAX@2@I@Z ; std::allocator<std::_Tree_node<std::pair<std::tuple<int,int,int,enum arch_t> const ,void (__cdecl*)(unsigned char *,unsigned char *,bool,int,unsigned char const *,int,unsigned char const * * const,int * const,int * const,int)>,void *> >::allocate
PUBLIC	?_Get_second@?$_Compressed_pair@U?$_Wrap_alloc@V?$allocator@U?$_Tree_node@U?$pair@$$CBV?$tuple@HHHW4arch_t@@@std@@P6AXPAE0_NHPBEHQAPBEQAH4H@Z@std@@PAX@std@@@std@@@std@@V?$_Tree_val@U?$_Tree_simple_types@U?$pair@$$CBV?$tuple@HHHW4arch_t@@@std@@P6AXPAE0_NHPBEHQAPBEQAH4H@Z@std@@@std@@@2@$00@std@@QBEABV?$_Tree_val@U?$_Tree_simple_types@U?$pair@$$CBV?$tuple@HHHW4arch_t@@@std@@P6AXPAE0_NHPBEHQAPBEQAH4H@Z@std@@@std@@@2@XZ ; std::_Compressed_pair<std::_Wrap_alloc<std::allocator<std::_Tree_node<std::pair<std::tuple<int,int,int,enum arch_t> const ,void (__cdecl*)(unsigned char *,unsigned char *,bool,int,unsigned char const *,int,unsigned char const * * const,int * const,int * const,int)>,void *> > >,std::_Tree_val<std::_Tree_simple_types<std::pair<std::tuple<int,int,int,enum arch_t> const ,void (__cdecl*)(unsigned char *,unsigned char *,bool,int,unsigned char const *,int,unsigned char const * * const,int * const,int * const,int)> > >,1>::_Get_second
PUBLIC	?_Get_second@?$_Compressed_pair@U?$less@V?$tuple@HHHW4arch_t@@@std@@@std@@V?$_Compressed_pair@U?$_Wrap_alloc@V?$allocator@U?$_Tree_node@U?$pair@$$CBV?$tuple@HHHW4arch_t@@@std@@P6AXPAE0_NHPBEHQAPBEQAH4H@Z@std@@PAX@std@@@std@@@std@@V?$_Tree_val@U?$_Tree_simple_types@U?$pair@$$CBV?$tuple@HHHW4arch_t@@@std@@P6AXPAE0_NHPBEHQAPBEQAH4H@Z@std@@@std@@@2@$00@2@$00@std@@QBEABV?$_Compressed_pair@U?$_Wrap_alloc@V?$allocator@U?$_Tree_node@U?$pair@$$CBV?$tuple@HHHW4arch_t@@@std@@P6AXPAE0_NHPBEHQAPBEQAH4H@Z@std@@PAX@std@@@std@@@std@@V?$_Tree_val@U?$_Tree_simple_types@U?$pair@$$CBV?$tuple@HHHW4arch_t@@@std@@P6AXPAE0_NHPBEHQAPBEQAH4H@Z@std@@@std@@@2@$00@2@XZ ; std::_Compressed_pair<std::less<std::tuple<int,int,int,enum arch_t> >,std::_Compressed_pair<std::_Wrap_alloc<std::allocator<std::_Tree_node<std::pair<std::tuple<int,int,int,enum arch_t> const ,void (__cdecl*)(unsigned char *,unsigned char *,bool,int,unsigned char const *,int,unsigned char const * * const,int * const,int * const,int)>,void *> > >,std::_Tree_val<std::_Tree_simple_types<std::pair<std::tuple<int,int,int,enum arch_t> const ,void (__cdecl*)(unsigned char *,unsigned char *,bool,int,unsigned char const *,int,unsigned char const * * const,int * const,int * const,int)> > >,1>,1>::_Get_second
PUBLIC	?max_size@?$allocator@VMvClipInfo@MDegrainN@@@std@@QBEIXZ ; std::allocator<MDegrainN::MvClipInfo>::max_size
PUBLIC	?max_size@?$allocator@G@std@@QBEIXZ		; std::allocator<unsigned short>::max_size
PUBLIC	?max_size@?$allocator@H@std@@QBEIXZ		; std::allocator<int>::max_size
PUBLIC	?max_size@?$allocator@V?$AtomicInt@H@conc@@@std@@QBEIXZ ; std::allocator<conc::AtomicInt<int> >::max_size
PUBLIC	?_Get_data@?$_Tree_comp_alloc@V?$_Tmap_traits@V?$tuple@HHHW4arch_t@@@std@@P6AXPAE0_NHPBEHQAPBEQAH4H@ZU?$less@V?$tuple@HHHW4arch_t@@@std@@@2@V?$allocator@U?$pair@$$CBV?$tuple@HHHW4arch_t@@@std@@P6AXPAE0_NHPBEHQAPBEQAH4H@Z@std@@@2@$0A@@std@@@std@@QBEABV?$_Tree_val@U?$_Tree_simple_types@U?$pair@$$CBV?$tuple@HHHW4arch_t@@@std@@P6AXPAE0_NHPBEHQAPBEQAH4H@Z@std@@@std@@@2@XZ ; std::_Tree_comp_alloc<std::_Tmap_traits<std::tuple<int,int,int,enum arch_t>,void (__cdecl*)(unsigned char *,unsigned char *,bool,int,unsigned char const *,int,unsigned char const * * const,int * const,int * const,int),std::less<std::tuple<int,int,int,enum arch_t> >,std::allocator<std::pair<std::tuple<int,int,int,enum arch_t> const ,void (__cdecl*)(unsigned char *,unsigned char *,bool,int,unsigned char const *,int,unsigned char const * * const,int * const,int * const,int)> >,0> >::_Get_data
PUBLIC	?allocate@?$_Wrap_alloc@V?$allocator@U?$_Tree_node@U?$pair@$$CBV?$tuple@HHHW4arch_t@@@std@@P6AXPAE0_NHPBEHQAPBEQAH4H@Z@std@@PAX@std@@@std@@@std@@QAEPAU?$_Tree_node@U?$pair@$$CBV?$tuple@HHHW4arch_t@@@std@@P6AXPAE0_NHPBEHQAPBEQAH4H@Z@std@@PAX@2@I@Z ; std::_Wrap_alloc<std::allocator<std::_Tree_node<std::pair<std::tuple<int,int,int,enum arch_t> const ,void (__cdecl*)(unsigned char *,unsigned char *,bool,int,unsigned char const *,int,unsigned char const * * const,int * const,int * const,int)>,void *> > >::allocate
PUBLIC	?_Color@?$_Tree_val@U?$_Tree_simple_types@U?$pair@$$CBV?$tuple@HHHW4arch_t@@@std@@P6AXPAE0_NHPBEHQAPBEQAH4H@Z@std@@@std@@@std@@SAAADPAU?$_Tree_node@U?$pair@$$CBV?$tuple@HHHW4arch_t@@@std@@P6AXPAE0_NHPBEHQAPBEQAH4H@Z@std@@PAX@2@@Z ; std::_Tree_val<std::_Tree_simple_types<std::pair<std::tuple<int,int,int,enum arch_t> const ,void (__cdecl*)(unsigned char *,unsigned char *,bool,int,unsigned char const *,int,unsigned char const * * const,int * const,int * const,int)> > >::_Color
PUBLIC	?_Isnil@?$_Tree_val@U?$_Tree_simple_types@U?$pair@$$CBV?$tuple@HHHW4arch_t@@@std@@P6AXPAE0_NHPBEHQAPBEQAH4H@Z@std@@@std@@@std@@SAAADPAU?$_Tree_node@U?$pair@$$CBV?$tuple@HHHW4arch_t@@@std@@P6AXPAE0_NHPBEHQAPBEQAH4H@Z@std@@PAX@2@@Z ; std::_Tree_val<std::_Tree_simple_types<std::pair<std::tuple<int,int,int,enum arch_t> const ,void (__cdecl*)(unsigned char *,unsigned char *,bool,int,unsigned char const *,int,unsigned char const * * const,int * const,int * const,int)> > >::_Isnil
PUBLIC	?_Max@?$_Tree_val@U?$_Tree_simple_types@U?$pair@$$CBV?$tuple@HHHW4arch_t@@@std@@P6AXPAE0_NHPBEHQAPBEQAH4H@Z@std@@@std@@@std@@SAPAU?$_Tree_node@U?$pair@$$CBV?$tuple@HHHW4arch_t@@@std@@P6AXPAE0_NHPBEHQAPBEQAH4H@Z@std@@PAX@2@PAU32@@Z ; std::_Tree_val<std::_Tree_simple_types<std::pair<std::tuple<int,int,int,enum arch_t> const ,void (__cdecl*)(unsigned char *,unsigned char *,bool,int,unsigned char const *,int,unsigned char const * * const,int * const,int * const,int)> > >::_Max
PUBLIC	?_Min@?$_Tree_val@U?$_Tree_simple_types@U?$pair@$$CBV?$tuple@HHHW4arch_t@@@std@@P6AXPAE0_NHPBEHQAPBEQAH4H@Z@std@@@std@@@std@@SAPAU?$_Tree_node@U?$pair@$$CBV?$tuple@HHHW4arch_t@@@std@@P6AXPAE0_NHPBEHQAPBEQAH4H@Z@std@@PAX@2@PAU32@@Z ; std::_Tree_val<std::_Tree_simple_types<std::pair<std::tuple<int,int,int,enum arch_t> const ,void (__cdecl*)(unsigned char *,unsigned char *,bool,int,unsigned char const *,int,unsigned char const * * const,int * const,int * const,int)> > >::_Min
PUBLIC	??0?$_Tree_unchecked_const_iterator@V?$_Tree_val@U?$_Tree_simple_types@U?$pair@$$CBV?$tuple@HHHW4arch_t@@@std@@P6AXPAE0_NHPBEHQAPBEQAH4H@Z@std@@@std@@@std@@U_Iterator_base0@2@@std@@QAE@PAU?$_Tree_node@U?$pair@$$CBV?$tuple@HHHW4arch_t@@@std@@P6AXPAE0_NHPBEHQAPBEQAH4H@Z@std@@PAX@1@PBV?$_Tree_val@U?$_Tree_simple_types@U?$pair@$$CBV?$tuple@HHHW4arch_t@@@std@@P6AXPAE0_NHPBEHQAPBEQAH4H@Z@std@@@std@@@1@@Z ; std::_Tree_unchecked_const_iterator<std::_Tree_val<std::_Tree_simple_types<std::pair<std::tuple<int,int,int,enum arch_t> const ,void (__cdecl*)(unsigned char *,unsigned char *,bool,int,unsigned char const *,int,unsigned char const * * const,int * const,int * const,int)> > >,std::_Iterator_base0>::_Tree_unchecked_const_iterator<std::_Tree_val<std::_Tree_simple_types<std::pair<std::tuple<int,int,int,enum arch_t> const ,void (__cdecl*)(unsigned char *,unsigned char *,bool,int,unsigned char const *,int,unsigned char const * * const,int * const,int * const,int)> > >,std::_Iterator_base0>
PUBLIC	??E?$_Tree_unchecked_const_iterator@V?$_Tree_val@U?$_Tree_simple_types@U?$pair@$$CBV?$tuple@HHHW4arch_t@@@std@@P6AXPAE0_NHPBEHQAPBEQAH4H@Z@std@@@std@@@std@@U_Iterator_base0@2@@std@@QAEAAV01@XZ ; std::_Tree_unchecked_const_iterator<std::_Tree_val<std::_Tree_simple_types<std::pair<std::tuple<int,int,int,enum arch_t> const ,void (__cdecl*)(unsigned char *,unsigned char *,bool,int,unsigned char const *,int,unsigned char const * * const,int * const,int * const,int)> > >,std::_Iterator_base0>::operator++
PUBLIC	?allocate@?$allocator@VMvClipInfo@MDegrainN@@@std@@QAEPAVMvClipInfo@MDegrainN@@I@Z ; std::allocator<MDegrainN::MvClipInfo>::allocate
PUBLIC	?max_size@?$allocator_traits@V?$allocator@VMvClipInfo@MDegrainN@@@std@@@std@@SAIABV?$allocator@VMvClipInfo@MDegrainN@@@2@@Z ; std::allocator_traits<std::allocator<MDegrainN::MvClipInfo> >::max_size
PUBLIC	?_Get_first@?$_Compressed_pair@U?$_Wrap_alloc@V?$allocator@VMvClipInfo@MDegrainN@@@std@@@std@@V?$_Vector_val@U?$_Simple_types@VMvClipInfo@MDegrainN@@@std@@@2@$00@std@@QBEABU?$_Wrap_alloc@V?$allocator@VMvClipInfo@MDegrainN@@@std@@@2@XZ ; std::_Compressed_pair<std::_Wrap_alloc<std::allocator<MDegrainN::MvClipInfo> >,std::_Vector_val<std::_Simple_types<MDegrainN::MvClipInfo> >,1>::_Get_first
PUBLIC	?_Get_second@?$_Compressed_pair@U?$_Wrap_alloc@V?$allocator@VMvClipInfo@MDegrainN@@@std@@@std@@V?$_Vector_val@U?$_Simple_types@VMvClipInfo@MDegrainN@@@std@@@2@$00@std@@QBEABV?$_Vector_val@U?$_Simple_types@VMvClipInfo@MDegrainN@@@std@@@2@XZ ; std::_Compressed_pair<std::_Wrap_alloc<std::allocator<MDegrainN::MvClipInfo> >,std::_Vector_val<std::_Simple_types<MDegrainN::MvClipInfo> >,1>::_Get_second
PUBLIC	?allocate@?$allocator@G@std@@QAEPAGI@Z		; std::allocator<unsigned short>::allocate
PUBLIC	?max_size@?$allocator_traits@V?$allocator@G@std@@@std@@SAIABV?$allocator@G@2@@Z ; std::allocator_traits<std::allocator<unsigned short> >::max_size
PUBLIC	?_Get_first@?$_Compressed_pair@U?$_Wrap_alloc@V?$allocator@G@std@@@std@@V?$_Vector_val@U?$_Simple_types@G@std@@@2@$00@std@@QBEABU?$_Wrap_alloc@V?$allocator@G@std@@@2@XZ ; std::_Compressed_pair<std::_Wrap_alloc<std::allocator<unsigned short> >,std::_Vector_val<std::_Simple_types<unsigned short> >,1>::_Get_first
PUBLIC	?allocate@?$allocator@H@std@@QAEPAHI@Z		; std::allocator<int>::allocate
PUBLIC	?max_size@?$allocator_traits@V?$allocator@H@std@@@std@@SAIABV?$allocator@H@2@@Z ; std::allocator_traits<std::allocator<int> >::max_size
PUBLIC	?_Get_first@?$_Compressed_pair@U?$_Wrap_alloc@V?$allocator@H@std@@@std@@V?$_Vector_val@U?$_Simple_types@H@std@@@2@$00@std@@QBEABU?$_Wrap_alloc@V?$allocator@H@std@@@2@XZ ; std::_Compressed_pair<std::_Wrap_alloc<std::allocator<int> >,std::_Vector_val<std::_Simple_types<int> >,1>::_Get_first
PUBLIC	?allocate@?$allocator@V?$AtomicInt@H@conc@@@std@@QAEPAV?$AtomicInt@H@conc@@I@Z ; std::allocator<conc::AtomicInt<int> >::allocate
PUBLIC	?max_size@?$allocator_traits@V?$allocator@V?$AtomicInt@H@conc@@@std@@@std@@SAIABV?$allocator@V?$AtomicInt@H@conc@@@2@@Z ; std::allocator_traits<std::allocator<conc::AtomicInt<int> > >::max_size
PUBLIC	?_Get_first@?$_Compressed_pair@U?$_Wrap_alloc@V?$allocator@V?$AtomicInt@H@conc@@@std@@@std@@V?$_Vector_val@U?$_Simple_types@V?$AtomicInt@H@conc@@@std@@@2@$00@std@@QBEABU?$_Wrap_alloc@V?$allocator@V?$AtomicInt@H@conc@@@std@@@2@XZ ; std::_Compressed_pair<std::_Wrap_alloc<std::allocator<conc::AtomicInt<int> > >,std::_Vector_val<std::_Simple_types<conc::AtomicInt<int> > >,1>::_Get_first
PUBLIC	?_Erase@?$_Tree@V?$_Tmap_traits@V?$tuple@HHHW4arch_t@@@std@@P6AXPAE0_NHPBEHQAPBEQAH4H@ZU?$less@V?$tuple@HHHW4arch_t@@@std@@@2@V?$allocator@U?$pair@$$CBV?$tuple@HHHW4arch_t@@@std@@P6AXPAE0_NHPBEHQAPBEQAH4H@Z@std@@@2@$0A@@std@@@std@@IAEXPAU?$_Tree_node@U?$pair@$$CBV?$tuple@HHHW4arch_t@@@std@@P6AXPAE0_NHPBEHQAPBEQAH4H@Z@std@@PAX@2@@Z ; std::_Tree<std::_Tmap_traits<std::tuple<int,int,int,enum arch_t>,void (__cdecl*)(unsigned char *,unsigned char *,bool,int,unsigned char const *,int,unsigned char const * * const,int * const,int * const,int),std::less<std::tuple<int,int,int,enum arch_t> >,std::allocator<std::pair<std::tuple<int,int,int,enum arch_t> const ,void (__cdecl*)(unsigned char *,unsigned char *,bool,int,unsigned char const *,int,unsigned char const * * const,int * const,int * const,int)> >,0> >::_Erase
PUBLIC	?_Lrotate@?$_Tree@V?$_Tmap_traits@V?$tuple@HHHW4arch_t@@@std@@P6AXPAE0_NHPBEHQAPBEQAH4H@ZU?$less@V?$tuple@HHHW4arch_t@@@std@@@2@V?$allocator@U?$pair@$$CBV?$tuple@HHHW4arch_t@@@std@@P6AXPAE0_NHPBEHQAPBEQAH4H@Z@std@@@2@$0A@@std@@@std@@IAEXPAU?$_Tree_node@U?$pair@$$CBV?$tuple@HHHW4arch_t@@@std@@P6AXPAE0_NHPBEHQAPBEQAH4H@Z@std@@PAX@2@@Z ; std::_Tree<std::_Tmap_traits<std::tuple<int,int,int,enum arch_t>,void (__cdecl*)(unsigned char *,unsigned char *,bool,int,unsigned char const *,int,unsigned char const * * const,int * const,int * const,int),std::less<std::tuple<int,int,int,enum arch_t> >,std::allocator<std::pair<std::tuple<int,int,int,enum arch_t> const ,void (__cdecl*)(unsigned char *,unsigned char *,bool,int,unsigned char const *,int,unsigned char const * * const,int * const,int * const,int)> >,0> >::_Lrotate
PUBLIC	?_Rmost@?$_Tree@V?$_Tmap_traits@V?$tuple@HHHW4arch_t@@@std@@P6AXPAE0_NHPBEHQAPBEQAH4H@ZU?$less@V?$tuple@HHHW4arch_t@@@std@@@2@V?$allocator@U?$pair@$$CBV?$tuple@HHHW4arch_t@@@std@@P6AXPAE0_NHPBEHQAPBEQAH4H@Z@std@@@2@$0A@@std@@@std@@IBEAAPAU?$_Tree_node@U?$pair@$$CBV?$tuple@HHHW4arch_t@@@std@@P6AXPAE0_NHPBEHQAPBEQAH4H@Z@std@@PAX@2@XZ ; std::_Tree<std::_Tmap_traits<std::tuple<int,int,int,enum arch_t>,void (__cdecl*)(unsigned char *,unsigned char *,bool,int,unsigned char const *,int,unsigned char const * * const,int * const,int * const,int),std::less<std::tuple<int,int,int,enum arch_t> >,std::allocator<std::pair<std::tuple<int,int,int,enum arch_t> const ,void (__cdecl*)(unsigned char *,unsigned char *,bool,int,unsigned char const *,int,unsigned char const * * const,int * const,int * const,int)> >,0> >::_Rmost
PUBLIC	?_Root@?$_Tree@V?$_Tmap_traits@V?$tuple@HHHW4arch_t@@@std@@P6AXPAE0_NHPBEHQAPBEQAH4H@ZU?$less@V?$tuple@HHHW4arch_t@@@std@@@2@V?$allocator@U?$pair@$$CBV?$tuple@HHHW4arch_t@@@std@@P6AXPAE0_NHPBEHQAPBEQAH4H@Z@std@@@2@$0A@@std@@@std@@IBEAAPAU?$_Tree_node@U?$pair@$$CBV?$tuple@HHHW4arch_t@@@std@@P6AXPAE0_NHPBEHQAPBEQAH4H@Z@std@@PAX@2@XZ ; std::_Tree<std::_Tmap_traits<std::tuple<int,int,int,enum arch_t>,void (__cdecl*)(unsigned char *,unsigned char *,bool,int,unsigned char const *,int,unsigned char const * * const,int * const,int * const,int),std::less<std::tuple<int,int,int,enum arch_t> >,std::allocator<std::pair<std::tuple<int,int,int,enum arch_t> const ,void (__cdecl*)(unsigned char *,unsigned char *,bool,int,unsigned char const *,int,unsigned char const * * const,int * const,int * const,int)> >,0> >::_Root
PUBLIC	?_Rrotate@?$_Tree@V?$_Tmap_traits@V?$tuple@HHHW4arch_t@@@std@@P6AXPAE0_NHPBEHQAPBEQAH4H@ZU?$less@V?$tuple@HHHW4arch_t@@@std@@@2@V?$allocator@U?$pair@$$CBV?$tuple@HHHW4arch_t@@@std@@P6AXPAE0_NHPBEHQAPBEQAH4H@Z@std@@@2@$0A@@std@@@std@@IAEXPAU?$_Tree_node@U?$pair@$$CBV?$tuple@HHHW4arch_t@@@std@@P6AXPAE0_NHPBEHQAPBEQAH4H@Z@std@@PAX@2@@Z ; std::_Tree<std::_Tmap_traits<std::tuple<int,int,int,enum arch_t>,void (__cdecl*)(unsigned char *,unsigned char *,bool,int,unsigned char const *,int,unsigned char const * * const,int * const,int * const,int),std::less<std::tuple<int,int,int,enum arch_t> >,std::allocator<std::pair<std::tuple<int,int,int,enum arch_t> const ,void (__cdecl*)(unsigned char *,unsigned char *,bool,int,unsigned char const *,int,unsigned char const * * const,int * const,int * const,int)> >,0> >::_Rrotate
PUBLIC	?_Color@?$_Tree_comp_alloc@V?$_Tmap_traits@V?$tuple@HHHW4arch_t@@@std@@P6AXPAE0_NHPBEHQAPBEQAH4H@ZU?$less@V?$tuple@HHHW4arch_t@@@std@@@2@V?$allocator@U?$pair@$$CBV?$tuple@HHHW4arch_t@@@std@@P6AXPAE0_NHPBEHQAPBEQAH4H@Z@std@@@2@$0A@@std@@@std@@SAAADPAU?$_Tree_node@U?$pair@$$CBV?$tuple@HHHW4arch_t@@@std@@P6AXPAE0_NHPBEHQAPBEQAH4H@Z@std@@PAX@2@@Z ; std::_Tree_comp_alloc<std::_Tmap_traits<std::tuple<int,int,int,enum arch_t>,void (__cdecl*)(unsigned char *,unsigned char *,bool,int,unsigned char const *,int,unsigned char const * * const,int * const,int * const,int),std::less<std::tuple<int,int,int,enum arch_t> >,std::allocator<std::pair<std::tuple<int,int,int,enum arch_t> const ,void (__cdecl*)(unsigned char *,unsigned char *,bool,int,unsigned char const *,int,unsigned char const * * const,int * const,int * const,int)> >,0> >::_Color
PUBLIC	?_Isnil@?$_Tree_comp_alloc@V?$_Tmap_traits@V?$tuple@HHHW4arch_t@@@std@@P6AXPAE0_NHPBEHQAPBEQAH4H@ZU?$less@V?$tuple@HHHW4arch_t@@@std@@@2@V?$allocator@U?$pair@$$CBV?$tuple@HHHW4arch_t@@@std@@P6AXPAE0_NHPBEHQAPBEQAH4H@Z@std@@@2@$0A@@std@@@std@@SAAADPAU?$_Tree_node@U?$pair@$$CBV?$tuple@HHHW4arch_t@@@std@@P6AXPAE0_NHPBEHQAPBEQAH4H@Z@std@@PAX@2@@Z ; std::_Tree_comp_alloc<std::_Tmap_traits<std::tuple<int,int,int,enum arch_t>,void (__cdecl*)(unsigned char *,unsigned char *,bool,int,unsigned char const *,int,unsigned char const * * const,int * const,int * const,int),std::less<std::tuple<int,int,int,enum arch_t> >,std::allocator<std::pair<std::tuple<int,int,int,enum arch_t> const ,void (__cdecl*)(unsigned char *,unsigned char *,bool,int,unsigned char const *,int,unsigned char const * * const,int * const,int * const,int)> >,0> >::_Isnil
PUBLIC	?_Myval@?$_Tree_comp_alloc@V?$_Tmap_traits@V?$tuple@HHHW4arch_t@@@std@@P6AXPAE0_NHPBEHQAPBEQAH4H@ZU?$less@V?$tuple@HHHW4arch_t@@@std@@@2@V?$allocator@U?$pair@$$CBV?$tuple@HHHW4arch_t@@@std@@P6AXPAE0_NHPBEHQAPBEQAH4H@Z@std@@@2@$0A@@std@@@std@@SAAAU?$pair@$$CBV?$tuple@HHHW4arch_t@@@std@@P6AXPAE0_NHPBEHQAPBEQAH4H@Z@2@PAU?$_Tree_node@U?$pair@$$CBV?$tuple@HHHW4arch_t@@@std@@P6AXPAE0_NHPBEHQAPBEQAH4H@Z@std@@PAX@2@@Z ; std::_Tree_comp_alloc<std::_Tmap_traits<std::tuple<int,int,int,enum arch_t>,void (__cdecl*)(unsigned char *,unsigned char *,bool,int,unsigned char const *,int,unsigned char const * * const,int * const,int * const,int),std::less<std::tuple<int,int,int,enum arch_t> >,std::allocator<std::pair<std::tuple<int,int,int,enum arch_t> const ,void (__cdecl*)(unsigned char *,unsigned char *,bool,int,unsigned char const *,int,unsigned char const * * const,int * const,int * const,int)> >,0> >::_Myval
PUBLIC	?_Max@?$_Tree_comp_alloc@V?$_Tmap_traits@V?$tuple@HHHW4arch_t@@@std@@P6AXPAE0_NHPBEHQAPBEQAH4H@ZU?$less@V?$tuple@HHHW4arch_t@@@std@@@2@V?$allocator@U?$pair@$$CBV?$tuple@HHHW4arch_t@@@std@@P6AXPAE0_NHPBEHQAPBEQAH4H@Z@std@@@2@$0A@@std@@@std@@SAPAU?$_Tree_node@U?$pair@$$CBV?$tuple@HHHW4arch_t@@@std@@P6AXPAE0_NHPBEHQAPBEQAH4H@Z@std@@PAX@2@PAU32@@Z ; std::_Tree_comp_alloc<std::_Tmap_traits<std::tuple<int,int,int,enum arch_t>,void (__cdecl*)(unsigned char *,unsigned char *,bool,int,unsigned char const *,int,unsigned char const * * const,int * const,int * const,int),std::less<std::tuple<int,int,int,enum arch_t> >,std::allocator<std::pair<std::tuple<int,int,int,enum arch_t> const ,void (__cdecl*)(unsigned char *,unsigned char *,bool,int,unsigned char const *,int,unsigned char const * * const,int * const,int * const,int)> >,0> >::_Max
PUBLIC	?_Min@?$_Tree_comp_alloc@V?$_Tmap_traits@V?$tuple@HHHW4arch_t@@@std@@P6AXPAE0_NHPBEHQAPBEQAH4H@ZU?$less@V?$tuple@HHHW4arch_t@@@std@@@2@V?$allocator@U?$pair@$$CBV?$tuple@HHHW4arch_t@@@std@@P6AXPAE0_NHPBEHQAPBEQAH4H@Z@std@@@2@$0A@@std@@@std@@SAPAU?$_Tree_node@U?$pair@$$CBV?$tuple@HHHW4arch_t@@@std@@P6AXPAE0_NHPBEHQAPBEQAH4H@Z@std@@PAX@2@PAU32@@Z ; std::_Tree_comp_alloc<std::_Tmap_traits<std::tuple<int,int,int,enum arch_t>,void (__cdecl*)(unsigned char *,unsigned char *,bool,int,unsigned char const *,int,unsigned char const * * const,int * const,int * const,int),std::less<std::tuple<int,int,int,enum arch_t> >,std::allocator<std::pair<std::tuple<int,int,int,enum arch_t> const ,void (__cdecl*)(unsigned char *,unsigned char *,bool,int,unsigned char const *,int,unsigned char const * * const,int * const,int * const,int)> >,0> >::_Min
PUBLIC	?_Buyheadnode@?$_Tree_comp_alloc@V?$_Tmap_traits@V?$tuple@HHHW4arch_t@@@std@@P6AXPAE0_NHPBEHQAPBEQAH4H@ZU?$less@V?$tuple@HHHW4arch_t@@@std@@@2@V?$allocator@U?$pair@$$CBV?$tuple@HHHW4arch_t@@@std@@P6AXPAE0_NHPBEHQAPBEQAH4H@Z@std@@@2@$0A@@std@@@std@@QAEPAU?$_Tree_node@U?$pair@$$CBV?$tuple@HHHW4arch_t@@@std@@P6AXPAE0_NHPBEHQAPBEQAH4H@Z@std@@PAX@2@XZ ; std::_Tree_comp_alloc<std::_Tmap_traits<std::tuple<int,int,int,enum arch_t>,void (__cdecl*)(unsigned char *,unsigned char *,bool,int,unsigned char const *,int,unsigned char const * * const,int * const,int * const,int),std::less<std::tuple<int,int,int,enum arch_t> >,std::allocator<std::pair<std::tuple<int,int,int,enum arch_t> const ,void (__cdecl*)(unsigned char *,unsigned char *,bool,int,unsigned char const *,int,unsigned char const * * const,int * const,int * const,int)> >,0> >::_Buyheadnode
PUBLIC	?_Myhead@?$_Tree_comp_alloc@V?$_Tmap_traits@V?$tuple@HHHW4arch_t@@@std@@P6AXPAE0_NHPBEHQAPBEQAH4H@ZU?$less@V?$tuple@HHHW4arch_t@@@std@@@2@V?$allocator@U?$pair@$$CBV?$tuple@HHHW4arch_t@@@std@@P6AXPAE0_NHPBEHQAPBEQAH4H@Z@std@@@2@$0A@@std@@@std@@QBEABQAU?$_Tree_node@U?$pair@$$CBV?$tuple@HHHW4arch_t@@@std@@P6AXPAE0_NHPBEHQAPBEQAH4H@Z@std@@PAX@2@XZ ; std::_Tree_comp_alloc<std::_Tmap_traits<std::tuple<int,int,int,enum arch_t>,void (__cdecl*)(unsigned char *,unsigned char *,bool,int,unsigned char const *,int,unsigned char const * * const,int * const,int * const,int),std::less<std::tuple<int,int,int,enum arch_t> >,std::allocator<std::pair<std::tuple<int,int,int,enum arch_t> const ,void (__cdecl*)(unsigned char *,unsigned char *,bool,int,unsigned char const *,int,unsigned char const * * const,int * const,int * const,int)> >,0> >::_Myhead
PUBLIC	?_Mysize@?$_Tree_comp_alloc@V?$_Tmap_traits@V?$tuple@HHHW4arch_t@@@std@@P6AXPAE0_NHPBEHQAPBEQAH4H@ZU?$less@V?$tuple@HHHW4arch_t@@@std@@@2@V?$allocator@U?$pair@$$CBV?$tuple@HHHW4arch_t@@@std@@P6AXPAE0_NHPBEHQAPBEQAH4H@Z@std@@@2@$0A@@std@@@std@@QAEAAIXZ ; std::_Tree_comp_alloc<std::_Tmap_traits<std::tuple<int,int,int,enum arch_t>,void (__cdecl*)(unsigned char *,unsigned char *,bool,int,unsigned char const *,int,unsigned char const * * const,int * const,int * const,int),std::less<std::tuple<int,int,int,enum arch_t> >,std::allocator<std::pair<std::tuple<int,int,int,enum arch_t> const ,void (__cdecl*)(unsigned char *,unsigned char *,bool,int,unsigned char const *,int,unsigned char const * * const,int * const,int * const,int)> >,0> >::_Mysize
PUBLIC	?deallocate@?$allocator@U?$_Tree_node@U?$pair@$$CBV?$tuple@HHHW4arch_t@@@std@@P6AXPAE0_NHPBEHQAPBEQAH4H@Z@std@@PAX@std@@@std@@QAEXPAU?$_Tree_node@U?$pair@$$CBV?$tuple@HHHW4arch_t@@@std@@P6AXPAE0_NHPBEHQAPBEQAH4H@Z@std@@PAX@2@I@Z ; std::allocator<std::_Tree_node<std::pair<std::tuple<int,int,int,enum arch_t> const ,void (__cdecl*)(unsigned char *,unsigned char *,bool,int,unsigned char const *,int,unsigned char const * * const,int * const,int * const,int)>,void *> >::deallocate
PUBLIC	?_Left@?$_Tree_val@U?$_Tree_simple_types@U?$pair@$$CBV?$tuple@HHHW4arch_t@@@std@@P6AXPAE0_NHPBEHQAPBEQAH4H@Z@std@@@std@@@std@@SAAAPAU?$_Tree_node@U?$pair@$$CBV?$tuple@HHHW4arch_t@@@std@@P6AXPAE0_NHPBEHQAPBEQAH4H@Z@std@@PAX@2@PAU32@@Z ; std::_Tree_val<std::_Tree_simple_types<std::pair<std::tuple<int,int,int,enum arch_t> const ,void (__cdecl*)(unsigned char *,unsigned char *,bool,int,unsigned char const *,int,unsigned char const * * const,int * const,int * const,int)> > >::_Left
PUBLIC	?_Parent@?$_Tree_val@U?$_Tree_simple_types@U?$pair@$$CBV?$tuple@HHHW4arch_t@@@std@@P6AXPAE0_NHPBEHQAPBEQAH4H@Z@std@@@std@@@std@@SAAAPAU?$_Tree_node@U?$pair@$$CBV?$tuple@HHHW4arch_t@@@std@@P6AXPAE0_NHPBEHQAPBEQAH4H@Z@std@@PAX@2@PAU32@@Z ; std::_Tree_val<std::_Tree_simple_types<std::pair<std::tuple<int,int,int,enum arch_t> const ,void (__cdecl*)(unsigned char *,unsigned char *,bool,int,unsigned char const *,int,unsigned char const * * const,int * const,int * const,int)> > >::_Parent
PUBLIC	?_Right@?$_Tree_val@U?$_Tree_simple_types@U?$pair@$$CBV?$tuple@HHHW4arch_t@@@std@@P6AXPAE0_NHPBEHQAPBEQAH4H@Z@std@@@std@@@std@@SAAAPAU?$_Tree_node@U?$pair@$$CBV?$tuple@HHHW4arch_t@@@std@@P6AXPAE0_NHPBEHQAPBEQAH4H@Z@std@@PAX@2@PAU32@@Z ; std::_Tree_val<std::_Tree_simple_types<std::pair<std::tuple<int,int,int,enum arch_t> const ,void (__cdecl*)(unsigned char *,unsigned char *,bool,int,unsigned char const *,int,unsigned char const * * const,int * const,int * const,int)> > >::_Right
PUBLIC	?_Myval@?$_Tree_val@U?$_Tree_simple_types@U?$pair@$$CBV?$tuple@HHHW4arch_t@@@std@@P6AXPAE0_NHPBEHQAPBEQAH4H@Z@std@@@std@@@std@@SAAAU?$pair@$$CBV?$tuple@HHHW4arch_t@@@std@@P6AXPAE0_NHPBEHQAPBEQAH4H@Z@2@PAU?$_Tree_node@U?$pair@$$CBV?$tuple@HHHW4arch_t@@@std@@P6AXPAE0_NHPBEHQAPBEQAH4H@Z@std@@PAX@2@@Z ; std::_Tree_val<std::_Tree_simple_types<std::pair<std::tuple<int,int,int,enum arch_t> const ,void (__cdecl*)(unsigned char *,unsigned char *,bool,int,unsigned char const *,int,unsigned char const * * const,int * const,int * const,int)> > >::_Myval
PUBLIC	??0?$_Tree_const_iterator@V?$_Tree_val@U?$_Tree_simple_types@U?$pair@$$CBV?$tuple@HHHW4arch_t@@@std@@P6AXPAE0_NHPBEHQAPBEQAH4H@Z@std@@@std@@@std@@@std@@QAE@PAU?$_Tree_node@U?$pair@$$CBV?$tuple@HHHW4arch_t@@@std@@P6AXPAE0_NHPBEHQAPBEQAH4H@Z@std@@PAX@1@PBV?$_Tree_val@U?$_Tree_simple_types@U?$pair@$$CBV?$tuple@HHHW4arch_t@@@std@@P6AXPAE0_NHPBEHQAPBEQAH4H@Z@std@@@std@@@1@@Z ; std::_Tree_const_iterator<std::_Tree_val<std::_Tree_simple_types<std::pair<std::tuple<int,int,int,enum arch_t> const ,void (__cdecl*)(unsigned char *,unsigned char *,bool,int,unsigned char const *,int,unsigned char const * * const,int * const,int * const,int)> > > >::_Tree_const_iterator<std::_Tree_val<std::_Tree_simple_types<std::pair<std::tuple<int,int,int,enum arch_t> const ,void (__cdecl*)(unsigned char *,unsigned char *,bool,int,unsigned char const *,int,unsigned char const * * const,int * const,int * const,int)> > > >
PUBLIC	??E?$_Tree_const_iterator@V?$_Tree_val@U?$_Tree_simple_types@U?$pair@$$CBV?$tuple@HHHW4arch_t@@@std@@P6AXPAE0_NHPBEHQAPBEQAH4H@Z@std@@@std@@@std@@@std@@QAEAAV01@XZ ; std::_Tree_const_iterator<std::_Tree_val<std::_Tree_simple_types<std::pair<std::tuple<int,int,int,enum arch_t> const ,void (__cdecl*)(unsigned char *,unsigned char *,bool,int,unsigned char const *,int,unsigned char const * * const,int * const,int * const,int)> > > >::operator++
PUBLIC	?_Get_first@?$_Compressed_pair@U?$_Wrap_alloc@V?$allocator@U?$_Tree_node@U?$pair@$$CBV?$tuple@HHHW4arch_t@@@std@@P6AXPAE0_NHPBEHQAPBEQAH4H@Z@std@@PAX@std@@@std@@@std@@V?$_Tree_val@U?$_Tree_simple_types@U?$pair@$$CBV?$tuple@HHHW4arch_t@@@std@@P6AXPAE0_NHPBEHQAPBEQAH4H@Z@std@@@std@@@2@$00@std@@QAEAAU?$_Wrap_alloc@V?$allocator@U?$_Tree_node@U?$pair@$$CBV?$tuple@HHHW4arch_t@@@std@@P6AXPAE0_NHPBEHQAPBEQAH4H@Z@std@@PAX@std@@@std@@@2@XZ ; std::_Compressed_pair<std::_Wrap_alloc<std::allocator<std::_Tree_node<std::pair<std::tuple<int,int,int,enum arch_t> const ,void (__cdecl*)(unsigned char *,unsigned char *,bool,int,unsigned char const *,int,unsigned char const * * const,int * const,int * const,int)>,void *> > >,std::_Tree_val<std::_Tree_simple_types<std::pair<std::tuple<int,int,int,enum arch_t> const ,void (__cdecl*)(unsigned char *,unsigned char *,bool,int,unsigned char const *,int,unsigned char const * * const,int * const,int * const,int)> > >,1>::_Get_first
PUBLIC	?_Get_second@?$_Compressed_pair@U?$_Wrap_alloc@V?$allocator@U?$_Tree_node@U?$pair@$$CBV?$tuple@HHHW4arch_t@@@std@@P6AXPAE0_NHPBEHQAPBEQAH4H@Z@std@@PAX@std@@@std@@@std@@V?$_Tree_val@U?$_Tree_simple_types@U?$pair@$$CBV?$tuple@HHHW4arch_t@@@std@@P6AXPAE0_NHPBEHQAPBEQAH4H@Z@std@@@std@@@2@$00@std@@QAEAAV?$_Tree_val@U?$_Tree_simple_types@U?$pair@$$CBV?$tuple@HHHW4arch_t@@@std@@P6AXPAE0_NHPBEHQAPBEQAH4H@Z@std@@@std@@@2@XZ ; std::_Compressed_pair<std::_Wrap_alloc<std::allocator<std::_Tree_node<std::pair<std::tuple<int,int,int,enum arch_t> const ,void (__cdecl*)(unsigned char *,unsigned char *,bool,int,unsigned char const *,int,unsigned char const * * const,int * const,int * const,int)>,void *> > >,std::_Tree_val<std::_Tree_simple_types<std::pair<std::tuple<int,int,int,enum arch_t> const ,void (__cdecl*)(unsigned char *,unsigned char *,bool,int,unsigned char const *,int,unsigned char const * * const,int * const,int * const,int)> > >,1>::_Get_second
PUBLIC	?_Get_second@?$_Compressed_pair@U?$less@V?$tuple@HHHW4arch_t@@@std@@@std@@V?$_Compressed_pair@U?$_Wrap_alloc@V?$allocator@U?$_Tree_node@U?$pair@$$CBV?$tuple@HHHW4arch_t@@@std@@P6AXPAE0_NHPBEHQAPBEQAH4H@Z@std@@PAX@std@@@std@@@std@@V?$_Tree_val@U?$_Tree_simple_types@U?$pair@$$CBV?$tuple@HHHW4arch_t@@@std@@P6AXPAE0_NHPBEHQAPBEQAH4H@Z@std@@@std@@@2@$00@2@$00@std@@QAEAAV?$_Compressed_pair@U?$_Wrap_alloc@V?$allocator@U?$_Tree_node@U?$pair@$$CBV?$tuple@HHHW4arch_t@@@std@@P6AXPAE0_NHPBEHQAPBEQAH4H@Z@std@@PAX@std@@@std@@@std@@V?$_Tree_val@U?$_Tree_simple_types@U?$pair@$$CBV?$tuple@HHHW4arch_t@@@std@@P6AXPAE0_NHPBEHQAPBEQAH4H@Z@std@@@std@@@2@$00@2@XZ ; std::_Compressed_pair<std::less<std::tuple<int,int,int,enum arch_t> >,std::_Compressed_pair<std::_Wrap_alloc<std::allocator<std::_Tree_node<std::pair<std::tuple<int,int,int,enum arch_t> const ,void (__cdecl*)(unsigned char *,unsigned char *,bool,int,unsigned char const *,int,unsigned char const * * const,int * const,int * const,int)>,void *> > >,std::_Tree_val<std::_Tree_simple_types<std::pair<std::tuple<int,int,int,enum arch_t> const ,void (__cdecl*)(unsigned char *,unsigned char *,bool,int,unsigned char const *,int,unsigned char const * * const,int * const,int * const,int)> > >,1>,1>::_Get_second
PUBLIC	?_Mynode@?$_Tree_unchecked_const_iterator@V?$_Tree_val@U?$_Tree_simple_types@U?$pair@$$CBV?$tuple@HHHW4arch_t@@@std@@P6AXPAE0_NHPBEHQAPBEQAH4H@Z@std@@@std@@@std@@U_Iterator_base0@2@@std@@QBEPAU?$_Tree_node@U?$pair@$$CBV?$tuple@HHHW4arch_t@@@std@@P6AXPAE0_NHPBEHQAPBEQAH4H@Z@std@@PAX@2@XZ ; std::_Tree_unchecked_const_iterator<std::_Tree_val<std::_Tree_simple_types<std::pair<std::tuple<int,int,int,enum arch_t> const ,void (__cdecl*)(unsigned char *,unsigned char *,bool,int,unsigned char const *,int,unsigned char const * * const,int * const,int * const,int)> > >,std::_Iterator_base0>::_Mynode
PUBLIC	?deallocate@?$allocator@VMvClipInfo@MDegrainN@@@std@@QAEXPAVMvClipInfo@MDegrainN@@I@Z ; std::allocator<MDegrainN::MvClipInfo>::deallocate
PUBLIC	?capacity@?$vector@VMvClipInfo@MDegrainN@@V?$allocator@VMvClipInfo@MDegrainN@@@std@@@std@@QBEIXZ ; std::vector<MDegrainN::MvClipInfo,std::allocator<MDegrainN::MvClipInfo> >::capacity
PUBLIC	?_Getal@?$_Vector_alloc@U?$_Vec_base_types@VMvClipInfo@MDegrainN@@V?$allocator@VMvClipInfo@MDegrainN@@@std@@@std@@@std@@QBEABU?$_Wrap_alloc@V?$allocator@VMvClipInfo@MDegrainN@@@std@@@2@XZ ; std::_Vector_alloc<std::_Vec_base_types<MDegrainN::MvClipInfo,std::allocator<MDegrainN::MvClipInfo> > >::_Getal
PUBLIC	?_Get_data@?$_Vector_alloc@U?$_Vec_base_types@VMvClipInfo@MDegrainN@@V?$allocator@VMvClipInfo@MDegrainN@@@std@@@std@@@std@@QBEABV?$_Vector_val@U?$_Simple_types@VMvClipInfo@MDegrainN@@@std@@@2@XZ ; std::_Vector_alloc<std::_Vec_base_types<MDegrainN::MvClipInfo,std::allocator<MDegrainN::MvClipInfo> > >::_Get_data
PUBLIC	?_Myend@?$_Vector_alloc@U?$_Vec_base_types@VMvClipInfo@MDegrainN@@V?$allocator@VMvClipInfo@MDegrainN@@@std@@@std@@@std@@QBEABQAVMvClipInfo@MDegrainN@@XZ ; std::_Vector_alloc<std::_Vec_base_types<MDegrainN::MvClipInfo,std::allocator<MDegrainN::MvClipInfo> > >::_Myend
PUBLIC	?allocate@?$_Wrap_alloc@V?$allocator@VMvClipInfo@MDegrainN@@@std@@@std@@QAEPAVMvClipInfo@MDegrainN@@I@Z ; std::_Wrap_alloc<std::allocator<MDegrainN::MvClipInfo> >::allocate
PUBLIC	?max_size@?$_Wrap_alloc@V?$allocator@VMvClipInfo@MDegrainN@@@std@@@std@@QBEIU_Nil@2@@Z ; std::_Wrap_alloc<std::allocator<MDegrainN::MvClipInfo> >::max_size
PUBLIC	?_Get_second@?$_Compressed_pair@U?$_Wrap_alloc@V?$allocator@VMvClipInfo@MDegrainN@@@std@@@std@@V?$_Vector_val@U?$_Simple_types@VMvClipInfo@MDegrainN@@@std@@@2@$00@std@@QAEAAV?$_Vector_val@U?$_Simple_types@VMvClipInfo@MDegrainN@@@std@@@2@XZ ; std::_Compressed_pair<std::_Wrap_alloc<std::allocator<MDegrainN::MvClipInfo> >,std::_Vector_val<std::_Simple_types<MDegrainN::MvClipInfo> >,1>::_Get_second
PUBLIC	?deallocate@?$allocator@G@std@@QAEXPAGI@Z	; std::allocator<unsigned short>::deallocate
PUBLIC	?capacity@?$vector@GV?$allocator@G@std@@@std@@QBEIXZ ; std::vector<unsigned short,std::allocator<unsigned short> >::capacity
PUBLIC	?_Getal@?$_Vector_alloc@U?$_Vec_base_types@GV?$allocator@G@std@@@std@@@std@@QBEABU?$_Wrap_alloc@V?$allocator@G@std@@@2@XZ ; std::_Vector_alloc<std::_Vec_base_types<unsigned short,std::allocator<unsigned short> > >::_Getal
PUBLIC	?_Myend@?$_Vector_alloc@U?$_Vec_base_types@GV?$allocator@G@std@@@std@@@std@@QBEABQAGXZ ; std::_Vector_alloc<std::_Vec_base_types<unsigned short,std::allocator<unsigned short> > >::_Myend
PUBLIC	?allocate@?$_Wrap_alloc@V?$allocator@G@std@@@std@@QAEPAGI@Z ; std::_Wrap_alloc<std::allocator<unsigned short> >::allocate
PUBLIC	?max_size@?$_Wrap_alloc@V?$allocator@G@std@@@std@@QBEIU_Nil@2@@Z ; std::_Wrap_alloc<std::allocator<unsigned short> >::max_size
PUBLIC	?_Get_second@?$_Compressed_pair@U?$_Wrap_alloc@V?$allocator@G@std@@@std@@V?$_Vector_val@U?$_Simple_types@G@std@@@2@$00@std@@QAEAAV?$_Vector_val@U?$_Simple_types@G@std@@@2@XZ ; std::_Compressed_pair<std::_Wrap_alloc<std::allocator<unsigned short> >,std::_Vector_val<std::_Simple_types<unsigned short> >,1>::_Get_second
PUBLIC	?_Get_second@?$_Compressed_pair@U?$_Wrap_alloc@V?$allocator@G@std@@@std@@V?$_Vector_val@U?$_Simple_types@G@std@@@2@$00@std@@QBEABV?$_Vector_val@U?$_Simple_types@G@std@@@2@XZ ; std::_Compressed_pair<std::_Wrap_alloc<std::allocator<unsigned short> >,std::_Vector_val<std::_Simple_types<unsigned short> >,1>::_Get_second
PUBLIC	?deallocate@?$allocator@H@std@@QAEXPAHI@Z	; std::allocator<int>::deallocate
PUBLIC	?capacity@?$vector@HV?$allocator@H@std@@@std@@QBEIXZ ; std::vector<int,std::allocator<int> >::capacity
PUBLIC	?_Getal@?$_Vector_alloc@U?$_Vec_base_types@HV?$allocator@H@std@@@std@@@std@@QBEABU?$_Wrap_alloc@V?$allocator@H@std@@@2@XZ ; std::_Vector_alloc<std::_Vec_base_types<int,std::allocator<int> > >::_Getal
PUBLIC	?_Myend@?$_Vector_alloc@U?$_Vec_base_types@HV?$allocator@H@std@@@std@@@std@@QBEABQAHXZ ; std::_Vector_alloc<std::_Vec_base_types<int,std::allocator<int> > >::_Myend
PUBLIC	?allocate@?$_Wrap_alloc@V?$allocator@H@std@@@std@@QAEPAHI@Z ; std::_Wrap_alloc<std::allocator<int> >::allocate
PUBLIC	?max_size@?$_Wrap_alloc@V?$allocator@H@std@@@std@@QBEIU_Nil@2@@Z ; std::_Wrap_alloc<std::allocator<int> >::max_size
PUBLIC	?_Get_second@?$_Compressed_pair@U?$_Wrap_alloc@V?$allocator@H@std@@@std@@V?$_Vector_val@U?$_Simple_types@H@std@@@2@$00@std@@QAEAAV?$_Vector_val@U?$_Simple_types@H@std@@@2@XZ ; std::_Compressed_pair<std::_Wrap_alloc<std::allocator<int> >,std::_Vector_val<std::_Simple_types<int> >,1>::_Get_second
PUBLIC	?_Get_second@?$_Compressed_pair@U?$_Wrap_alloc@V?$allocator@H@std@@@std@@V?$_Vector_val@U?$_Simple_types@H@std@@@2@$00@std@@QBEABV?$_Vector_val@U?$_Simple_types@H@std@@@2@XZ ; std::_Compressed_pair<std::_Wrap_alloc<std::allocator<int> >,std::_Vector_val<std::_Simple_types<int> >,1>::_Get_second
PUBLIC	?deallocate@?$allocator@V?$AtomicInt@H@conc@@@std@@QAEXPAV?$AtomicInt@H@conc@@I@Z ; std::allocator<conc::AtomicInt<int> >::deallocate
PUBLIC	?capacity@?$vector@V?$AtomicInt@H@conc@@V?$allocator@V?$AtomicInt@H@conc@@@std@@@std@@QBEIXZ ; std::vector<conc::AtomicInt<int>,std::allocator<conc::AtomicInt<int> > >::capacity
PUBLIC	?_Getal@?$_Vector_alloc@U?$_Vec_base_types@V?$AtomicInt@H@conc@@V?$allocator@V?$AtomicInt@H@conc@@@std@@@std@@@std@@QBEABU?$_Wrap_alloc@V?$allocator@V?$AtomicInt@H@conc@@@std@@@2@XZ ; std::_Vector_alloc<std::_Vec_base_types<conc::AtomicInt<int>,std::allocator<conc::AtomicInt<int> > > >::_Getal
PUBLIC	?_Myend@?$_Vector_alloc@U?$_Vec_base_types@V?$AtomicInt@H@conc@@V?$allocator@V?$AtomicInt@H@conc@@@std@@@std@@@std@@QBEABQAV?$AtomicInt@H@conc@@XZ ; std::_Vector_alloc<std::_Vec_base_types<conc::AtomicInt<int>,std::allocator<conc::AtomicInt<int> > > >::_Myend
PUBLIC	?allocate@?$_Wrap_alloc@V?$allocator@V?$AtomicInt@H@conc@@@std@@@std@@QAEPAV?$AtomicInt@H@conc@@I@Z ; std::_Wrap_alloc<std::allocator<conc::AtomicInt<int> > >::allocate
PUBLIC	?max_size@?$_Wrap_alloc@V?$allocator@V?$AtomicInt@H@conc@@@std@@@std@@QBEIU_Nil@2@@Z ; std::_Wrap_alloc<std::allocator<conc::AtomicInt<int> > >::max_size
PUBLIC	?_Get_second@?$_Compressed_pair@U?$_Wrap_alloc@V?$allocator@V?$AtomicInt@H@conc@@@std@@@std@@V?$_Vector_val@U?$_Simple_types@V?$AtomicInt@H@conc@@@std@@@2@$00@std@@QAEAAV?$_Vector_val@U?$_Simple_types@V?$AtomicInt@H@conc@@@std@@@2@XZ ; std::_Compressed_pair<std::_Wrap_alloc<std::allocator<conc::AtomicInt<int> > >,std::_Vector_val<std::_Simple_types<conc::AtomicInt<int> > >,1>::_Get_second
PUBLIC	?_Get_second@?$_Compressed_pair@U?$_Wrap_alloc@V?$allocator@V?$AtomicInt@H@conc@@@std@@@std@@V?$_Vector_val@U?$_Simple_types@V?$AtomicInt@H@conc@@@std@@@2@$00@std@@QBEABV?$_Vector_val@U?$_Simple_types@V?$AtomicInt@H@conc@@@std@@@2@XZ ; std::_Compressed_pair<std::_Wrap_alloc<std::allocator<conc::AtomicInt<int> > >,std::_Vector_val<std::_Simple_types<conc::AtomicInt<int> > >,1>::_Get_second
PUBLIC	?erase@?$_Tree@V?$_Tmap_traits@V?$tuple@HHHW4arch_t@@@std@@P6AXPAE0_NHPBEHQAPBEQAH4H@ZU?$less@V?$tuple@HHHW4arch_t@@@std@@@2@V?$allocator@U?$pair@$$CBV?$tuple@HHHW4arch_t@@@std@@P6AXPAE0_NHPBEHQAPBEQAH4H@Z@std@@@2@$0A@@std@@@std@@QAE?AV?$_Tree_iterator@V?$_Tree_val@U?$_Tree_simple_types@U?$pair@$$CBV?$tuple@HHHW4arch_t@@@std@@P6AXPAE0_NHPBEHQAPBEQAH4H@Z@std@@@std@@@std@@@2@V?$_Tree_const_iterator@V?$_Tree_val@U?$_Tree_simple_types@U?$pair@$$CBV?$tuple@HHHW4arch_t@@@std@@P6AXPAE0_NHPBEHQAPBEQAH4H@Z@std@@@std@@@std@@@2@@Z ; std::_Tree<std::_Tmap_traits<std::tuple<int,int,int,enum arch_t>,void (__cdecl*)(unsigned char *,unsigned char *,bool,int,unsigned char const *,int,unsigned char const * * const,int * const,int * const,int),std::less<std::tuple<int,int,int,enum arch_t> >,std::allocator<std::pair<std::tuple<int,int,int,enum arch_t> const ,void (__cdecl*)(unsigned char *,unsigned char *,bool,int,unsigned char const *,int,unsigned char const * * const,int * const,int * const,int)> >,0> >::erase
PUBLIC	?clear@?$_Tree@V?$_Tmap_traits@V?$tuple@HHHW4arch_t@@@std@@P6AXPAE0_NHPBEHQAPBEQAH4H@ZU?$less@V?$tuple@HHHW4arch_t@@@std@@@2@V?$allocator@U?$pair@$$CBV?$tuple@HHHW4arch_t@@@std@@P6AXPAE0_NHPBEHQAPBEQAH4H@Z@std@@@2@$0A@@std@@@std@@QAEXXZ ; std::_Tree<std::_Tmap_traits<std::tuple<int,int,int,enum arch_t>,void (__cdecl*)(unsigned char *,unsigned char *,bool,int,unsigned char const *,int,unsigned char const * * const,int * const,int * const,int),std::less<std::tuple<int,int,int,enum arch_t> >,std::allocator<std::pair<std::tuple<int,int,int,enum arch_t> const ,void (__cdecl*)(unsigned char *,unsigned char *,bool,int,unsigned char const *,int,unsigned char const * * const,int * const,int * const,int)> >,0> >::clear
PUBLIC	?_Lmost@?$_Tree@V?$_Tmap_traits@V?$tuple@HHHW4arch_t@@@std@@P6AXPAE0_NHPBEHQAPBEQAH4H@ZU?$less@V?$tuple@HHHW4arch_t@@@std@@@2@V?$allocator@U?$pair@$$CBV?$tuple@HHHW4arch_t@@@std@@P6AXPAE0_NHPBEHQAPBEQAH4H@Z@std@@@2@$0A@@std@@@std@@IBEAAPAU?$_Tree_node@U?$pair@$$CBV?$tuple@HHHW4arch_t@@@std@@P6AXPAE0_NHPBEHQAPBEQAH4H@Z@std@@PAX@2@XZ ; std::_Tree<std::_Tmap_traits<std::tuple<int,int,int,enum arch_t>,void (__cdecl*)(unsigned char *,unsigned char *,bool,int,unsigned char const *,int,unsigned char const * * const,int * const,int * const,int),std::less<std::tuple<int,int,int,enum arch_t> >,std::allocator<std::pair<std::tuple<int,int,int,enum arch_t> const ,void (__cdecl*)(unsigned char *,unsigned char *,bool,int,unsigned char const *,int,unsigned char const * * const,int * const,int * const,int)> >,0> >::_Lmost
PUBLIC	?_Left@?$_Tree_comp_alloc@V?$_Tmap_traits@V?$tuple@HHHW4arch_t@@@std@@P6AXPAE0_NHPBEHQAPBEQAH4H@ZU?$less@V?$tuple@HHHW4arch_t@@@std@@@2@V?$allocator@U?$pair@$$CBV?$tuple@HHHW4arch_t@@@std@@P6AXPAE0_NHPBEHQAPBEQAH4H@Z@std@@@2@$0A@@std@@@std@@SAAAPAU?$_Tree_node@U?$pair@$$CBV?$tuple@HHHW4arch_t@@@std@@P6AXPAE0_NHPBEHQAPBEQAH4H@Z@std@@PAX@2@PAU32@@Z ; std::_Tree_comp_alloc<std::_Tmap_traits<std::tuple<int,int,int,enum arch_t>,void (__cdecl*)(unsigned char *,unsigned char *,bool,int,unsigned char const *,int,unsigned char const * * const,int * const,int * const,int),std::less<std::tuple<int,int,int,enum arch_t> >,std::allocator<std::pair<std::tuple<int,int,int,enum arch_t> const ,void (__cdecl*)(unsigned char *,unsigned char *,bool,int,unsigned char const *,int,unsigned char const * * const,int * const,int * const,int)> >,0> >::_Left
PUBLIC	?_Parent@?$_Tree_comp_alloc@V?$_Tmap_traits@V?$tuple@HHHW4arch_t@@@std@@P6AXPAE0_NHPBEHQAPBEQAH4H@ZU?$less@V?$tuple@HHHW4arch_t@@@std@@@2@V?$allocator@U?$pair@$$CBV?$tuple@HHHW4arch_t@@@std@@P6AXPAE0_NHPBEHQAPBEQAH4H@Z@std@@@2@$0A@@std@@@std@@SAAAPAU?$_Tree_node@U?$pair@$$CBV?$tuple@HHHW4arch_t@@@std@@P6AXPAE0_NHPBEHQAPBEQAH4H@Z@std@@PAX@2@PAU32@@Z ; std::_Tree_comp_alloc<std::_Tmap_traits<std::tuple<int,int,int,enum arch_t>,void (__cdecl*)(unsigned char *,unsigned char *,bool,int,unsigned char const *,int,unsigned char const * * const,int * const,int * const,int),std::less<std::tuple<int,int,int,enum arch_t> >,std::allocator<std::pair<std::tuple<int,int,int,enum arch_t> const ,void (__cdecl*)(unsigned char *,unsigned char *,bool,int,unsigned char const *,int,unsigned char const * * const,int * const,int * const,int)> >,0> >::_Parent
PUBLIC	?_Right@?$_Tree_comp_alloc@V?$_Tmap_traits@V?$tuple@HHHW4arch_t@@@std@@P6AXPAE0_NHPBEHQAPBEQAH4H@ZU?$less@V?$tuple@HHHW4arch_t@@@std@@@2@V?$allocator@U?$pair@$$CBV?$tuple@HHHW4arch_t@@@std@@P6AXPAE0_NHPBEHQAPBEQAH4H@Z@std@@@2@$0A@@std@@@std@@SAAAPAU?$_Tree_node@U?$pair@$$CBV?$tuple@HHHW4arch_t@@@std@@P6AXPAE0_NHPBEHQAPBEQAH4H@Z@std@@PAX@2@PAU32@@Z ; std::_Tree_comp_alloc<std::_Tmap_traits<std::tuple<int,int,int,enum arch_t>,void (__cdecl*)(unsigned char *,unsigned char *,bool,int,unsigned char const *,int,unsigned char const * * const,int * const,int * const,int),std::less<std::tuple<int,int,int,enum arch_t> >,std::allocator<std::pair<std::tuple<int,int,int,enum arch_t> const ,void (__cdecl*)(unsigned char *,unsigned char *,bool,int,unsigned char const *,int,unsigned char const * * const,int * const,int * const,int)> >,0> >::_Right
PUBLIC	?_Construct@?$_Tree_comp_alloc@V?$_Tmap_traits@V?$tuple@HHHW4arch_t@@@std@@P6AXPAE0_NHPBEHQAPBEQAH4H@ZU?$less@V?$tuple@HHHW4arch_t@@@std@@@2@V?$allocator@U?$pair@$$CBV?$tuple@HHHW4arch_t@@@std@@P6AXPAE0_NHPBEHQAPBEQAH4H@Z@std@@@2@$0A@@std@@@std@@QAEXXZ ; std::_Tree_comp_alloc<std::_Tmap_traits<std::tuple<int,int,int,enum arch_t>,void (__cdecl*)(unsigned char *,unsigned char *,bool,int,unsigned char const *,int,unsigned char const * * const,int * const,int * const,int),std::less<std::tuple<int,int,int,enum arch_t> >,std::allocator<std::pair<std::tuple<int,int,int,enum arch_t> const ,void (__cdecl*)(unsigned char *,unsigned char *,bool,int,unsigned char const *,int,unsigned char const * * const,int * const,int * const,int)> >,0> >::_Construct
PUBLIC	?_Getal@?$_Tree_comp_alloc@V?$_Tmap_traits@V?$tuple@HHHW4arch_t@@@std@@P6AXPAE0_NHPBEHQAPBEQAH4H@ZU?$less@V?$tuple@HHHW4arch_t@@@std@@@2@V?$allocator@U?$pair@$$CBV?$tuple@HHHW4arch_t@@@std@@P6AXPAE0_NHPBEHQAPBEQAH4H@Z@std@@@2@$0A@@std@@@std@@QAEAAU?$_Wrap_alloc@V?$allocator@U?$_Tree_node@U?$pair@$$CBV?$tuple@HHHW4arch_t@@@std@@P6AXPAE0_NHPBEHQAPBEQAH4H@Z@std@@PAX@std@@@std@@@2@XZ ; std::_Tree_comp_alloc<std::_Tmap_traits<std::tuple<int,int,int,enum arch_t>,void (__cdecl*)(unsigned char *,unsigned char *,bool,int,unsigned char const *,int,unsigned char const * * const,int * const,int * const,int),std::less<std::tuple<int,int,int,enum arch_t> >,std::allocator<std::pair<std::tuple<int,int,int,enum arch_t> const ,void (__cdecl*)(unsigned char *,unsigned char *,bool,int,unsigned char const *,int,unsigned char const * * const,int * const,int * const,int)> >,0> >::_Getal
PUBLIC	?_Get_data@?$_Tree_comp_alloc@V?$_Tmap_traits@V?$tuple@HHHW4arch_t@@@std@@P6AXPAE0_NHPBEHQAPBEQAH4H@ZU?$less@V?$tuple@HHHW4arch_t@@@std@@@2@V?$allocator@U?$pair@$$CBV?$tuple@HHHW4arch_t@@@std@@P6AXPAE0_NHPBEHQAPBEQAH4H@Z@std@@@2@$0A@@std@@@std@@QAEAAV?$_Tree_val@U?$_Tree_simple_types@U?$pair@$$CBV?$tuple@HHHW4arch_t@@@std@@P6AXPAE0_NHPBEHQAPBEQAH4H@Z@std@@@std@@@2@XZ ; std::_Tree_comp_alloc<std::_Tmap_traits<std::tuple<int,int,int,enum arch_t>,void (__cdecl*)(unsigned char *,unsigned char *,bool,int,unsigned char const *,int,unsigned char const * * const,int * const,int * const,int),std::less<std::tuple<int,int,int,enum arch_t> >,std::allocator<std::pair<std::tuple<int,int,int,enum arch_t> const ,void (__cdecl*)(unsigned char *,unsigned char *,bool,int,unsigned char const *,int,unsigned char const * * const,int * const,int * const,int)> >,0> >::_Get_data
PUBLIC	?deallocate@?$_Wrap_alloc@V?$allocator@U?$_Tree_node@U?$pair@$$CBV?$tuple@HHHW4arch_t@@@std@@P6AXPAE0_NHPBEHQAPBEQAH4H@Z@std@@PAX@std@@@std@@@std@@QAEXPAU?$_Tree_node@U?$pair@$$CBV?$tuple@HHHW4arch_t@@@std@@P6AXPAE0_NHPBEHQAPBEQAH4H@Z@std@@PAX@2@I@Z ; std::_Wrap_alloc<std::allocator<std::_Tree_node<std::pair<std::tuple<int,int,int,enum arch_t> const ,void (__cdecl*)(unsigned char *,unsigned char *,bool,int,unsigned char const *,int,unsigned char const * * const,int * const,int * const,int)>,void *> > >::deallocate
PUBLIC	??D?$_Tree_const_iterator@V?$_Tree_val@U?$_Tree_simple_types@U?$pair@$$CBV?$tuple@HHHW4arch_t@@@std@@P6AXPAE0_NHPBEHQAPBEQAH4H@Z@std@@@std@@@std@@@std@@QBEABU?$pair@$$CBV?$tuple@HHHW4arch_t@@@std@@P6AXPAE0_NHPBEHQAPBEQAH4H@Z@1@XZ ; std::_Tree_const_iterator<std::_Tree_val<std::_Tree_simple_types<std::pair<std::tuple<int,int,int,enum arch_t> const ,void (__cdecl*)(unsigned char *,unsigned char *,bool,int,unsigned char const *,int,unsigned char const * * const,int * const,int * const,int)> > > >::operator*
PUBLIC	??E?$_Tree_const_iterator@V?$_Tree_val@U?$_Tree_simple_types@U?$pair@$$CBV?$tuple@HHHW4arch_t@@@std@@P6AXPAE0_NHPBEHQAPBEQAH4H@Z@std@@@std@@@std@@@std@@QAE?AV01@H@Z ; std::_Tree_const_iterator<std::_Tree_val<std::_Tree_simple_types<std::pair<std::tuple<int,int,int,enum arch_t> const ,void (__cdecl*)(unsigned char *,unsigned char *,bool,int,unsigned char const *,int,unsigned char const * * const,int * const,int * const,int)> > > >::operator++
PUBLIC	??8?$_Tree_const_iterator@V?$_Tree_val@U?$_Tree_simple_types@U?$pair@$$CBV?$tuple@HHHW4arch_t@@@std@@P6AXPAE0_NHPBEHQAPBEQAH4H@Z@std@@@std@@@std@@@std@@QBE_NABV01@@Z ; std::_Tree_const_iterator<std::_Tree_val<std::_Tree_simple_types<std::pair<std::tuple<int,int,int,enum arch_t> const ,void (__cdecl*)(unsigned char *,unsigned char *,bool,int,unsigned char const *,int,unsigned char const * * const,int * const,int * const,int)> > > >::operator==
PUBLIC	??9?$_Tree_const_iterator@V?$_Tree_val@U?$_Tree_simple_types@U?$pair@$$CBV?$tuple@HHHW4arch_t@@@std@@P6AXPAE0_NHPBEHQAPBEQAH4H@Z@std@@@std@@@std@@@std@@QBE_NABV01@@Z ; std::_Tree_const_iterator<std::_Tree_val<std::_Tree_simple_types<std::pair<std::tuple<int,int,int,enum arch_t> const ,void (__cdecl*)(unsigned char *,unsigned char *,bool,int,unsigned char const *,int,unsigned char const * * const,int * const,int * const,int)> > > >::operator!=
PUBLIC	??0?$_Tree_iterator@V?$_Tree_val@U?$_Tree_simple_types@U?$pair@$$CBV?$tuple@HHHW4arch_t@@@std@@P6AXPAE0_NHPBEHQAPBEQAH4H@Z@std@@@std@@@std@@@std@@QAE@PAU?$_Tree_node@U?$pair@$$CBV?$tuple@HHHW4arch_t@@@std@@P6AXPAE0_NHPBEHQAPBEQAH4H@Z@std@@PAX@1@PBV?$_Tree_val@U?$_Tree_simple_types@U?$pair@$$CBV?$tuple@HHHW4arch_t@@@std@@P6AXPAE0_NHPBEHQAPBEQAH4H@Z@std@@@std@@@1@@Z ; std::_Tree_iterator<std::_Tree_val<std::_Tree_simple_types<std::pair<std::tuple<int,int,int,enum arch_t> const ,void (__cdecl*)(unsigned char *,unsigned char *,bool,int,unsigned char const *,int,unsigned char const * * const,int * const,int * const,int)> > > >::_Tree_iterator<std::_Tree_val<std::_Tree_simple_types<std::pair<std::tuple<int,int,int,enum arch_t> const ,void (__cdecl*)(unsigned char *,unsigned char *,bool,int,unsigned char const *,int,unsigned char const * * const,int * const,int * const,int)> > > >
PUBLIC	?_Unused_capacity@?$vector@VMvClipInfo@MDegrainN@@V?$allocator@VMvClipInfo@MDegrainN@@@std@@@std@@QBEIXZ ; std::vector<MDegrainN::MvClipInfo,std::allocator<MDegrainN::MvClipInfo> >::_Unused_capacity
PUBLIC	?max_size@?$vector@VMvClipInfo@MDegrainN@@V?$allocator@VMvClipInfo@MDegrainN@@@std@@@std@@QBEIXZ ; std::vector<MDegrainN::MvClipInfo,std::allocator<MDegrainN::MvClipInfo> >::max_size
PUBLIC	?_Destroy@?$vector@VMvClipInfo@MDegrainN@@V?$allocator@VMvClipInfo@MDegrainN@@@std@@@std@@IAEXPAVMvClipInfo@MDegrainN@@0@Z ; std::vector<MDegrainN::MvClipInfo,std::allocator<MDegrainN::MvClipInfo> >::_Destroy
PUBLIC	?_Grow_to@?$vector@VMvClipInfo@MDegrainN@@V?$allocator@VMvClipInfo@MDegrainN@@@std@@@std@@IBEII@Z ; std::vector<MDegrainN::MvClipInfo,std::allocator<MDegrainN::MvClipInfo> >::_Grow_to
PUBLIC	?_Reallocate@?$vector@VMvClipInfo@MDegrainN@@V?$allocator@VMvClipInfo@MDegrainN@@@std@@@std@@IAEXI@Z ; std::vector<MDegrainN::MvClipInfo,std::allocator<MDegrainN::MvClipInfo> >::_Reallocate
PUBLIC	?_Xlen@?$vector@VMvClipInfo@MDegrainN@@V?$allocator@VMvClipInfo@MDegrainN@@@std@@@std@@IBEXXZ ; std::vector<MDegrainN::MvClipInfo,std::allocator<MDegrainN::MvClipInfo> >::_Xlen
PUBLIC	?_Orphan_all@?$_Vector_alloc@U?$_Vec_base_types@VMvClipInfo@MDegrainN@@V?$allocator@VMvClipInfo@MDegrainN@@@std@@@std@@@std@@QAEXXZ ; std::_Vector_alloc<std::_Vec_base_types<MDegrainN::MvClipInfo,std::allocator<MDegrainN::MvClipInfo> > >::_Orphan_all
PUBLIC	?_Get_data@?$_Vector_alloc@U?$_Vec_base_types@VMvClipInfo@MDegrainN@@V?$allocator@VMvClipInfo@MDegrainN@@@std@@@std@@@std@@QAEAAV?$_Vector_val@U?$_Simple_types@VMvClipInfo@MDegrainN@@@std@@@2@XZ ; std::_Vector_alloc<std::_Vec_base_types<MDegrainN::MvClipInfo,std::allocator<MDegrainN::MvClipInfo> > >::_Get_data
PUBLIC	?_Myfirst@?$_Vector_alloc@U?$_Vec_base_types@VMvClipInfo@MDegrainN@@V?$allocator@VMvClipInfo@MDegrainN@@@std@@@std@@@std@@QBEABQAVMvClipInfo@MDegrainN@@XZ ; std::_Vector_alloc<std::_Vec_base_types<MDegrainN::MvClipInfo,std::allocator<MDegrainN::MvClipInfo> > >::_Myfirst
PUBLIC	?_Mylast@?$_Vector_alloc@U?$_Vec_base_types@VMvClipInfo@MDegrainN@@V?$allocator@VMvClipInfo@MDegrainN@@@std@@@std@@@std@@QBEABQAVMvClipInfo@MDegrainN@@XZ ; std::_Vector_alloc<std::_Vec_base_types<MDegrainN::MvClipInfo,std::allocator<MDegrainN::MvClipInfo> > >::_Mylast
PUBLIC	?_Myend@?$_Vector_alloc@U?$_Vec_base_types@VMvClipInfo@MDegrainN@@V?$allocator@VMvClipInfo@MDegrainN@@@std@@@std@@@std@@QAEAAPAVMvClipInfo@MDegrainN@@XZ ; std::_Vector_alloc<std::_Vec_base_types<MDegrainN::MvClipInfo,std::allocator<MDegrainN::MvClipInfo> > >::_Myend
PUBLIC	?deallocate@?$_Wrap_alloc@V?$allocator@VMvClipInfo@MDegrainN@@@std@@@std@@QAEXPAVMvClipInfo@MDegrainN@@I@Z ; std::_Wrap_alloc<std::allocator<MDegrainN::MvClipInfo> >::deallocate
PUBLIC	?_Get_first@?$_Compressed_pair@U?$_Wrap_alloc@V?$allocator@VMvClipInfo@MDegrainN@@@std@@@std@@V?$_Vector_val@U?$_Simple_types@VMvClipInfo@MDegrainN@@@std@@@2@$00@std@@QAEAAU?$_Wrap_alloc@V?$allocator@VMvClipInfo@MDegrainN@@@std@@@2@XZ ; std::_Compressed_pair<std::_Wrap_alloc<std::allocator<MDegrainN::MvClipInfo> >,std::_Vector_val<std::_Simple_types<MDegrainN::MvClipInfo> >,1>::_Get_first
PUBLIC	?_Unused_capacity@?$vector@GV?$allocator@G@std@@@std@@QBEIXZ ; std::vector<unsigned short,std::allocator<unsigned short> >::_Unused_capacity
PUBLIC	?max_size@?$vector@GV?$allocator@G@std@@@std@@QBEIXZ ; std::vector<unsigned short,std::allocator<unsigned short> >::max_size
PUBLIC	?_Destroy@?$vector@GV?$allocator@G@std@@@std@@IAEXPAG0@Z ; std::vector<unsigned short,std::allocator<unsigned short> >::_Destroy
PUBLIC	?_Grow_to@?$vector@GV?$allocator@G@std@@@std@@IBEII@Z ; std::vector<unsigned short,std::allocator<unsigned short> >::_Grow_to
PUBLIC	?_Reallocate@?$vector@GV?$allocator@G@std@@@std@@IAEXI@Z ; std::vector<unsigned short,std::allocator<unsigned short> >::_Reallocate
PUBLIC	?_Xlen@?$vector@GV?$allocator@G@std@@@std@@IBEXXZ ; std::vector<unsigned short,std::allocator<unsigned short> >::_Xlen
PUBLIC	?_Orphan_all@?$_Vector_alloc@U?$_Vec_base_types@GV?$allocator@G@std@@@std@@@std@@QAEXXZ ; std::_Vector_alloc<std::_Vec_base_types<unsigned short,std::allocator<unsigned short> > >::_Orphan_all
PUBLIC	?_Get_data@?$_Vector_alloc@U?$_Vec_base_types@GV?$allocator@G@std@@@std@@@std@@QAEAAV?$_Vector_val@U?$_Simple_types@G@std@@@2@XZ ; std::_Vector_alloc<std::_Vec_base_types<unsigned short,std::allocator<unsigned short> > >::_Get_data
PUBLIC	?_Get_data@?$_Vector_alloc@U?$_Vec_base_types@GV?$allocator@G@std@@@std@@@std@@QBEABV?$_Vector_val@U?$_Simple_types@G@std@@@2@XZ ; std::_Vector_alloc<std::_Vec_base_types<unsigned short,std::allocator<unsigned short> > >::_Get_data
PUBLIC	?_Myend@?$_Vector_alloc@U?$_Vec_base_types@GV?$allocator@G@std@@@std@@@std@@QAEAAPAGXZ ; std::_Vector_alloc<std::_Vec_base_types<unsigned short,std::allocator<unsigned short> > >::_Myend
PUBLIC	?deallocate@?$_Wrap_alloc@V?$allocator@G@std@@@std@@QAEXPAGI@Z ; std::_Wrap_alloc<std::allocator<unsigned short> >::deallocate
PUBLIC	?_Get_first@?$_Compressed_pair@U?$_Wrap_alloc@V?$allocator@G@std@@@std@@V?$_Vector_val@U?$_Simple_types@G@std@@@2@$00@std@@QAEAAU?$_Wrap_alloc@V?$allocator@G@std@@@2@XZ ; std::_Compressed_pair<std::_Wrap_alloc<std::allocator<unsigned short> >,std::_Vector_val<std::_Simple_types<unsigned short> >,1>::_Get_first
PUBLIC	?_Unused_capacity@?$vector@HV?$allocator@H@std@@@std@@QBEIXZ ; std::vector<int,std::allocator<int> >::_Unused_capacity
PUBLIC	?max_size@?$vector@HV?$allocator@H@std@@@std@@QBEIXZ ; std::vector<int,std::allocator<int> >::max_size
PUBLIC	?_Destroy@?$vector@HV?$allocator@H@std@@@std@@IAEXPAH0@Z ; std::vector<int,std::allocator<int> >::_Destroy
PUBLIC	?_Grow_to@?$vector@HV?$allocator@H@std@@@std@@IBEII@Z ; std::vector<int,std::allocator<int> >::_Grow_to
PUBLIC	?_Reallocate@?$vector@HV?$allocator@H@std@@@std@@IAEXI@Z ; std::vector<int,std::allocator<int> >::_Reallocate
PUBLIC	?_Xlen@?$vector@HV?$allocator@H@std@@@std@@IBEXXZ ; std::vector<int,std::allocator<int> >::_Xlen
PUBLIC	?_Orphan_all@?$_Vector_alloc@U?$_Vec_base_types@HV?$allocator@H@std@@@std@@@std@@QAEXXZ ; std::_Vector_alloc<std::_Vec_base_types<int,std::allocator<int> > >::_Orphan_all
PUBLIC	?_Get_data@?$_Vector_alloc@U?$_Vec_base_types@HV?$allocator@H@std@@@std@@@std@@QAEAAV?$_Vector_val@U?$_Simple_types@H@std@@@2@XZ ; std::_Vector_alloc<std::_Vec_base_types<int,std::allocator<int> > >::_Get_data
PUBLIC	?_Get_data@?$_Vector_alloc@U?$_Vec_base_types@HV?$allocator@H@std@@@std@@@std@@QBEABV?$_Vector_val@U?$_Simple_types@H@std@@@2@XZ ; std::_Vector_alloc<std::_Vec_base_types<int,std::allocator<int> > >::_Get_data
PUBLIC	?_Myend@?$_Vector_alloc@U?$_Vec_base_types@HV?$allocator@H@std@@@std@@@std@@QAEAAPAHXZ ; std::_Vector_alloc<std::_Vec_base_types<int,std::allocator<int> > >::_Myend
PUBLIC	?deallocate@?$_Wrap_alloc@V?$allocator@H@std@@@std@@QAEXPAHI@Z ; std::_Wrap_alloc<std::allocator<int> >::deallocate
PUBLIC	?_Get_first@?$_Compressed_pair@U?$_Wrap_alloc@V?$allocator@H@std@@@std@@V?$_Vector_val@U?$_Simple_types@H@std@@@2@$00@std@@QAEAAU?$_Wrap_alloc@V?$allocator@H@std@@@2@XZ ; std::_Compressed_pair<std::_Wrap_alloc<std::allocator<int> >,std::_Vector_val<std::_Simple_types<int> >,1>::_Get_first
PUBLIC	?_Unused_capacity@?$vector@V?$AtomicInt@H@conc@@V?$allocator@V?$AtomicInt@H@conc@@@std@@@std@@QBEIXZ ; std::vector<conc::AtomicInt<int>,std::allocator<conc::AtomicInt<int> > >::_Unused_capacity
PUBLIC	?max_size@?$vector@V?$AtomicInt@H@conc@@V?$allocator@V?$AtomicInt@H@conc@@@std@@@std@@QBEIXZ ; std::vector<conc::AtomicInt<int>,std::allocator<conc::AtomicInt<int> > >::max_size
PUBLIC	?_Destroy@?$vector@V?$AtomicInt@H@conc@@V?$allocator@V?$AtomicInt@H@conc@@@std@@@std@@IAEXPAV?$AtomicInt@H@conc@@0@Z ; std::vector<conc::AtomicInt<int>,std::allocator<conc::AtomicInt<int> > >::_Destroy
PUBLIC	?_Grow_to@?$vector@V?$AtomicInt@H@conc@@V?$allocator@V?$AtomicInt@H@conc@@@std@@@std@@IBEII@Z ; std::vector<conc::AtomicInt<int>,std::allocator<conc::AtomicInt<int> > >::_Grow_to
PUBLIC	?_Reallocate@?$vector@V?$AtomicInt@H@conc@@V?$allocator@V?$AtomicInt@H@conc@@@std@@@std@@IAEXI@Z ; std::vector<conc::AtomicInt<int>,std::allocator<conc::AtomicInt<int> > >::_Reallocate
PUBLIC	?_Xlen@?$vector@V?$AtomicInt@H@conc@@V?$allocator@V?$AtomicInt@H@conc@@@std@@@std@@IBEXXZ ; std::vector<conc::AtomicInt<int>,std::allocator<conc::AtomicInt<int> > >::_Xlen
PUBLIC	?_Orphan_all@?$_Vector_alloc@U?$_Vec_base_types@V?$AtomicInt@H@conc@@V?$allocator@V?$AtomicInt@H@conc@@@std@@@std@@@std@@QAEXXZ ; std::_Vector_alloc<std::_Vec_base_types<conc::AtomicInt<int>,std::allocator<conc::AtomicInt<int> > > >::_Orphan_all
PUBLIC	?_Get_data@?$_Vector_alloc@U?$_Vec_base_types@V?$AtomicInt@H@conc@@V?$allocator@V?$AtomicInt@H@conc@@@std@@@std@@@std@@QAEAAV?$_Vector_val@U?$_Simple_types@V?$AtomicInt@H@conc@@@std@@@2@XZ ; std::_Vector_alloc<std::_Vec_base_types<conc::AtomicInt<int>,std::allocator<conc::AtomicInt<int> > > >::_Get_data
PUBLIC	?_Get_data@?$_Vector_alloc@U?$_Vec_base_types@V?$AtomicInt@H@conc@@V?$allocator@V?$AtomicInt@H@conc@@@std@@@std@@@std@@QBEABV?$_Vector_val@U?$_Simple_types@V?$AtomicInt@H@conc@@@std@@@2@XZ ; std::_Vector_alloc<std::_Vec_base_types<conc::AtomicInt<int>,std::allocator<conc::AtomicInt<int> > > >::_Get_data
PUBLIC	?_Myend@?$_Vector_alloc@U?$_Vec_base_types@V?$AtomicInt@H@conc@@V?$allocator@V?$AtomicInt@H@conc@@@std@@@std@@@std@@QAEAAPAV?$AtomicInt@H@conc@@XZ ; std::_Vector_alloc<std::_Vec_base_types<conc::AtomicInt<int>,std::allocator<conc::AtomicInt<int> > > >::_Myend
PUBLIC	?deallocate@?$_Wrap_alloc@V?$allocator@V?$AtomicInt@H@conc@@@std@@@std@@QAEXPAV?$AtomicInt@H@conc@@I@Z ; std::_Wrap_alloc<std::allocator<conc::AtomicInt<int> > >::deallocate
PUBLIC	?_Get_first@?$_Compressed_pair@U?$_Wrap_alloc@V?$allocator@V?$AtomicInt@H@conc@@@std@@@std@@V?$_Vector_val@U?$_Simple_types@V?$AtomicInt@H@conc@@@std@@@2@$00@std@@QAEAAU?$_Wrap_alloc@V?$allocator@V?$AtomicInt@H@conc@@@std@@@2@XZ ; std::_Compressed_pair<std::_Wrap_alloc<std::allocator<conc::AtomicInt<int> > >,std::_Vector_val<std::_Simple_types<conc::AtomicInt<int> > >,1>::_Get_first
PUBLIC	?begin@?$_Tree@V?$_Tmap_traits@V?$tuple@HHHW4arch_t@@@std@@P6AXPAE0_NHPBEHQAPBEQAH4H@ZU?$less@V?$tuple@HHHW4arch_t@@@std@@@2@V?$allocator@U?$pair@$$CBV?$tuple@HHHW4arch_t@@@std@@P6AXPAE0_NHPBEHQAPBEQAH4H@Z@std@@@2@$0A@@std@@@std@@QAE?AV?$_Tree_iterator@V?$_Tree_val@U?$_Tree_simple_types@U?$pair@$$CBV?$tuple@HHHW4arch_t@@@std@@P6AXPAE0_NHPBEHQAPBEQAH4H@Z@std@@@std@@@std@@@2@XZ ; std::_Tree<std::_Tmap_traits<std::tuple<int,int,int,enum arch_t>,void (__cdecl*)(unsigned char *,unsigned char *,bool,int,unsigned char const *,int,unsigned char const * * const,int * const,int * const,int),std::less<std::tuple<int,int,int,enum arch_t> >,std::allocator<std::pair<std::tuple<int,int,int,enum arch_t> const ,void (__cdecl*)(unsigned char *,unsigned char *,bool,int,unsigned char const *,int,unsigned char const * * const,int * const,int * const,int)> >,0> >::begin
PUBLIC	?end@?$_Tree@V?$_Tmap_traits@V?$tuple@HHHW4arch_t@@@std@@P6AXPAE0_NHPBEHQAPBEQAH4H@ZU?$less@V?$tuple@HHHW4arch_t@@@std@@@2@V?$allocator@U?$pair@$$CBV?$tuple@HHHW4arch_t@@@std@@P6AXPAE0_NHPBEHQAPBEQAH4H@Z@std@@@2@$0A@@std@@@std@@QAE?AV?$_Tree_iterator@V?$_Tree_val@U?$_Tree_simple_types@U?$pair@$$CBV?$tuple@HHHW4arch_t@@@std@@P6AXPAE0_NHPBEHQAPBEQAH4H@Z@std@@@std@@@std@@@2@XZ ; std::_Tree<std::_Tmap_traits<std::tuple<int,int,int,enum arch_t>,void (__cdecl*)(unsigned char *,unsigned char *,bool,int,unsigned char const *,int,unsigned char const * * const,int * const,int * const,int),std::less<std::tuple<int,int,int,enum arch_t> >,std::allocator<std::pair<std::tuple<int,int,int,enum arch_t> const ,void (__cdecl*)(unsigned char *,unsigned char *,bool,int,unsigned char const *,int,unsigned char const * * const,int * const,int * const,int)> >,0> >::end
PUBLIC	?erase@?$_Tree@V?$_Tmap_traits@V?$tuple@HHHW4arch_t@@@std@@P6AXPAE0_NHPBEHQAPBEQAH4H@ZU?$less@V?$tuple@HHHW4arch_t@@@std@@@2@V?$allocator@U?$pair@$$CBV?$tuple@HHHW4arch_t@@@std@@P6AXPAE0_NHPBEHQAPBEQAH4H@Z@std@@@2@$0A@@std@@@std@@QAE?AV?$_Tree_iterator@V?$_Tree_val@U?$_Tree_simple_types@U?$pair@$$CBV?$tuple@HHHW4arch_t@@@std@@P6AXPAE0_NHPBEHQAPBEQAH4H@Z@std@@@std@@@std@@@2@V?$_Tree_const_iterator@V?$_Tree_val@U?$_Tree_simple_types@U?$pair@$$CBV?$tuple@HHHW4arch_t@@@std@@P6AXPAE0_NHPBEHQAPBEQAH4H@Z@std@@@std@@@std@@@2@0@Z ; std::_Tree<std::_Tmap_traits<std::tuple<int,int,int,enum arch_t>,void (__cdecl*)(unsigned char *,unsigned char *,bool,int,unsigned char const *,int,unsigned char const * * const,int * const,int * const,int),std::less<std::tuple<int,int,int,enum arch_t> >,std::allocator<std::pair<std::tuple<int,int,int,enum arch_t> const ,void (__cdecl*)(unsigned char *,unsigned char *,bool,int,unsigned char const *,int,unsigned char const * * const,int * const,int * const,int)> >,0> >::erase
PUBLIC	??0?$_Tree_comp_alloc@V?$_Tmap_traits@V?$tuple@HHHW4arch_t@@@std@@P6AXPAE0_NHPBEHQAPBEQAH4H@ZU?$less@V?$tuple@HHHW4arch_t@@@std@@@2@V?$allocator@U?$pair@$$CBV?$tuple@HHHW4arch_t@@@std@@P6AXPAE0_NHPBEHQAPBEQAH4H@Z@std@@@2@$0A@@std@@@std@@QAE@ABU?$less@V?$tuple@HHHW4arch_t@@@std@@@1@@Z ; std::_Tree_comp_alloc<std::_Tmap_traits<std::tuple<int,int,int,enum arch_t>,void (__cdecl*)(unsigned char *,unsigned char *,bool,int,unsigned char const *,int,unsigned char const * * const,int * const,int * const,int),std::less<std::tuple<int,int,int,enum arch_t> >,std::allocator<std::pair<std::tuple<int,int,int,enum arch_t> const ,void (__cdecl*)(unsigned char *,unsigned char *,bool,int,unsigned char const *,int,unsigned char const * * const,int * const,int * const,int)> >,0> >::_Tree_comp_alloc<std::_Tmap_traits<std::tuple<int,int,int,enum arch_t>,void (__cdecl*)(unsigned char *,unsigned char *,bool,int,unsigned char const *,int,unsigned char const * * const,int * const,int * const,int),std::less<std::tuple<int,int,int,enum arch_t> >,std::allocator<std::pair<std::tuple<int,int,int,enum arch_t> const ,void (__cdecl*)(unsigned char *,unsigned char *,bool,int,unsigned char const *,int,unsigned char const * * const,int * const,int * const,int)> >,0> >
PUBLIC	?_Freeheadnode@?$_Tree_comp_alloc@V?$_Tmap_traits@V?$tuple@HHHW4arch_t@@@std@@P6AXPAE0_NHPBEHQAPBEQAH4H@ZU?$less@V?$tuple@HHHW4arch_t@@@std@@@2@V?$allocator@U?$pair@$$CBV?$tuple@HHHW4arch_t@@@std@@P6AXPAE0_NHPBEHQAPBEQAH4H@Z@std@@@2@$0A@@std@@@std@@QAEXPAU?$_Tree_node@U?$pair@$$CBV?$tuple@HHHW4arch_t@@@std@@P6AXPAE0_NHPBEHQAPBEQAH4H@Z@std@@PAX@2@@Z ; std::_Tree_comp_alloc<std::_Tmap_traits<std::tuple<int,int,int,enum arch_t>,void (__cdecl*)(unsigned char *,unsigned char *,bool,int,unsigned char const *,int,unsigned char const * * const,int * const,int * const,int),std::less<std::tuple<int,int,int,enum arch_t> >,std::allocator<std::pair<std::tuple<int,int,int,enum arch_t> const ,void (__cdecl*)(unsigned char *,unsigned char *,bool,int,unsigned char const *,int,unsigned char const * * const,int * const,int * const,int)> >,0> >::_Freeheadnode
PUBLIC	?_Myhead@?$_Tree_comp_alloc@V?$_Tmap_traits@V?$tuple@HHHW4arch_t@@@std@@P6AXPAE0_NHPBEHQAPBEQAH4H@ZU?$less@V?$tuple@HHHW4arch_t@@@std@@@2@V?$allocator@U?$pair@$$CBV?$tuple@HHHW4arch_t@@@std@@P6AXPAE0_NHPBEHQAPBEQAH4H@Z@std@@@2@$0A@@std@@@std@@QAEAAPAU?$_Tree_node@U?$pair@$$CBV?$tuple@HHHW4arch_t@@@std@@P6AXPAE0_NHPBEHQAPBEQAH4H@Z@std@@PAX@2@XZ ; std::_Tree_comp_alloc<std::_Tmap_traits<std::tuple<int,int,int,enum arch_t>,void (__cdecl*)(unsigned char *,unsigned char *,bool,int,unsigned char const *,int,unsigned char const * * const,int * const,int * const,int),std::less<std::tuple<int,int,int,enum arch_t> >,std::allocator<std::pair<std::tuple<int,int,int,enum arch_t> const ,void (__cdecl*)(unsigned char *,unsigned char *,bool,int,unsigned char const *,int,unsigned char const * * const,int * const,int * const,int)> >,0> >::_Myhead
PUBLIC	??D?$_Tree_iterator@V?$_Tree_val@U?$_Tree_simple_types@U?$pair@$$CBV?$tuple@HHHW4arch_t@@@std@@P6AXPAE0_NHPBEHQAPBEQAH4H@Z@std@@@std@@@std@@@std@@QBEAAU?$pair@$$CBV?$tuple@HHHW4arch_t@@@std@@P6AXPAE0_NHPBEHQAPBEQAH4H@Z@1@XZ ; std::_Tree_iterator<std::_Tree_val<std::_Tree_simple_types<std::pair<std::tuple<int,int,int,enum arch_t> const ,void (__cdecl*)(unsigned char *,unsigned char *,bool,int,unsigned char const *,int,unsigned char const * * const,int * const,int * const,int)> > > >::operator*
PUBLIC	?pointer_to@?$pointer_traits@PAU?$pair@$$CBV?$tuple@HHHW4arch_t@@@std@@P6AXPAE0_NHPBEHQAPBEQAH4H@Z@std@@@std@@SAPAU?$pair@$$CBV?$tuple@HHHW4arch_t@@@std@@P6AXPAE0_NHPBEHQAPBEQAH4H@Z@2@AAU32@@Z ; std::pointer_traits<std::pair<std::tuple<int,int,int,enum arch_t> const ,void (__cdecl*)(unsigned char *,unsigned char *,bool,int,unsigned char const *,int,unsigned char const * * const,int * const,int * const,int)> *>::pointer_to
PUBLIC	?size@?$vector@VMvClipInfo@MDegrainN@@V?$allocator@VMvClipInfo@MDegrainN@@@std@@@std@@QBEIXZ ; std::vector<MDegrainN::MvClipInfo,std::allocator<MDegrainN::MvClipInfo> >::size
PUBLIC	?_Pop_back_n@?$vector@VMvClipInfo@MDegrainN@@V?$allocator@VMvClipInfo@MDegrainN@@@std@@@std@@QAEXI@Z ; std::vector<MDegrainN::MvClipInfo,std::allocator<MDegrainN::MvClipInfo> >::_Pop_back_n
PUBLIC	?_Reserve@?$vector@VMvClipInfo@MDegrainN@@V?$allocator@VMvClipInfo@MDegrainN@@@std@@@std@@IAEXI@Z ; std::vector<MDegrainN::MvClipInfo,std::allocator<MDegrainN::MvClipInfo> >::_Reserve
PUBLIC	?_Tidy@?$vector@VMvClipInfo@MDegrainN@@V?$allocator@VMvClipInfo@MDegrainN@@@std@@@std@@IAEXXZ ; std::vector<MDegrainN::MvClipInfo,std::allocator<MDegrainN::MvClipInfo> >::_Tidy
PUBLIC	??0?$_Vector_alloc@U?$_Vec_base_types@VMvClipInfo@MDegrainN@@V?$allocator@VMvClipInfo@MDegrainN@@@std@@@std@@@std@@QAE@XZ ; std::_Vector_alloc<std::_Vec_base_types<MDegrainN::MvClipInfo,std::allocator<MDegrainN::MvClipInfo> > >::_Vector_alloc<std::_Vec_base_types<MDegrainN::MvClipInfo,std::allocator<MDegrainN::MvClipInfo> > >
PUBLIC	?_Getal@?$_Vector_alloc@U?$_Vec_base_types@VMvClipInfo@MDegrainN@@V?$allocator@VMvClipInfo@MDegrainN@@@std@@@std@@@std@@QAEAAU?$_Wrap_alloc@V?$allocator@VMvClipInfo@MDegrainN@@@std@@@2@XZ ; std::_Vector_alloc<std::_Vec_base_types<MDegrainN::MvClipInfo,std::allocator<MDegrainN::MvClipInfo> > >::_Getal
PUBLIC	?_Myfirst@?$_Vector_alloc@U?$_Vec_base_types@VMvClipInfo@MDegrainN@@V?$allocator@VMvClipInfo@MDegrainN@@@std@@@std@@@std@@QAEAAPAVMvClipInfo@MDegrainN@@XZ ; std::_Vector_alloc<std::_Vec_base_types<MDegrainN::MvClipInfo,std::allocator<MDegrainN::MvClipInfo> > >::_Myfirst
PUBLIC	?_Mylast@?$_Vector_alloc@U?$_Vec_base_types@VMvClipInfo@MDegrainN@@V?$allocator@VMvClipInfo@MDegrainN@@@std@@@std@@@std@@QAEAAPAVMvClipInfo@MDegrainN@@XZ ; std::_Vector_alloc<std::_Vec_base_types<MDegrainN::MvClipInfo,std::allocator<MDegrainN::MvClipInfo> > >::_Mylast
PUBLIC	?get@?$auto_ptr@VYUY2Planes@@@std@@QBEPAVYUY2Planes@@XZ ; std::auto_ptr<YUY2Planes>::get
PUBLIC	?reset@?$auto_ptr@VYUY2Planes@@@std@@QAEXPAVYUY2Planes@@@Z ; std::auto_ptr<YUY2Planes>::reset
PUBLIC	?get@?$auto_ptr@VOverlapWindows@@@std@@QBEPAVOverlapWindows@@XZ ; std::auto_ptr<OverlapWindows>::get
PUBLIC	?reset@?$auto_ptr@VOverlapWindows@@@std@@QAEXPAVOverlapWindows@@@Z ; std::auto_ptr<OverlapWindows>::reset
PUBLIC	?size@?$vector@GV?$allocator@G@std@@@std@@QBEIXZ ; std::vector<unsigned short,std::allocator<unsigned short> >::size
PUBLIC	?_Pop_back_n@?$vector@GV?$allocator@G@std@@@std@@QAEXI@Z ; std::vector<unsigned short,std::allocator<unsigned short> >::_Pop_back_n
PUBLIC	?_Reserve@?$vector@GV?$allocator@G@std@@@std@@IAEXI@Z ; std::vector<unsigned short,std::allocator<unsigned short> >::_Reserve
PUBLIC	?_Tidy@?$vector@GV?$allocator@G@std@@@std@@IAEXXZ ; std::vector<unsigned short,std::allocator<unsigned short> >::_Tidy
PUBLIC	??0?$_Vector_alloc@U?$_Vec_base_types@GV?$allocator@G@std@@@std@@@std@@QAE@XZ ; std::_Vector_alloc<std::_Vec_base_types<unsigned short,std::allocator<unsigned short> > >::_Vector_alloc<std::_Vec_base_types<unsigned short,std::allocator<unsigned short> > >
PUBLIC	?_Getal@?$_Vector_alloc@U?$_Vec_base_types@GV?$allocator@G@std@@@std@@@std@@QAEAAU?$_Wrap_alloc@V?$allocator@G@std@@@2@XZ ; std::_Vector_alloc<std::_Vec_base_types<unsigned short,std::allocator<unsigned short> > >::_Getal
PUBLIC	?_Myfirst@?$_Vector_alloc@U?$_Vec_base_types@GV?$allocator@G@std@@@std@@@std@@QAEAAPAGXZ ; std::_Vector_alloc<std::_Vec_base_types<unsigned short,std::allocator<unsigned short> > >::_Myfirst
PUBLIC	?_Myfirst@?$_Vector_alloc@U?$_Vec_base_types@GV?$allocator@G@std@@@std@@@std@@QBEABQAGXZ ; std::_Vector_alloc<std::_Vec_base_types<unsigned short,std::allocator<unsigned short> > >::_Myfirst
PUBLIC	?_Mylast@?$_Vector_alloc@U?$_Vec_base_types@GV?$allocator@G@std@@@std@@@std@@QAEAAPAGXZ ; std::_Vector_alloc<std::_Vec_base_types<unsigned short,std::allocator<unsigned short> > >::_Mylast
PUBLIC	?_Mylast@?$_Vector_alloc@U?$_Vec_base_types@GV?$allocator@G@std@@@std@@@std@@QBEABQAGXZ ; std::_Vector_alloc<std::_Vec_base_types<unsigned short,std::allocator<unsigned short> > >::_Mylast
PUBLIC	?size@?$vector@HV?$allocator@H@std@@@std@@QBEIXZ ; std::vector<int,std::allocator<int> >::size
PUBLIC	?_Pop_back_n@?$vector@HV?$allocator@H@std@@@std@@QAEXI@Z ; std::vector<int,std::allocator<int> >::_Pop_back_n
PUBLIC	?_Reserve@?$vector@HV?$allocator@H@std@@@std@@IAEXI@Z ; std::vector<int,std::allocator<int> >::_Reserve
PUBLIC	?_Tidy@?$vector@HV?$allocator@H@std@@@std@@IAEXXZ ; std::vector<int,std::allocator<int> >::_Tidy
PUBLIC	??0?$_Vector_alloc@U?$_Vec_base_types@HV?$allocator@H@std@@@std@@@std@@QAE@XZ ; std::_Vector_alloc<std::_Vec_base_types<int,std::allocator<int> > >::_Vector_alloc<std::_Vec_base_types<int,std::allocator<int> > >
PUBLIC	?_Getal@?$_Vector_alloc@U?$_Vec_base_types@HV?$allocator@H@std@@@std@@@std@@QAEAAU?$_Wrap_alloc@V?$allocator@H@std@@@2@XZ ; std::_Vector_alloc<std::_Vec_base_types<int,std::allocator<int> > >::_Getal
PUBLIC	?_Myfirst@?$_Vector_alloc@U?$_Vec_base_types@HV?$allocator@H@std@@@std@@@std@@QAEAAPAHXZ ; std::_Vector_alloc<std::_Vec_base_types<int,std::allocator<int> > >::_Myfirst
PUBLIC	?_Myfirst@?$_Vector_alloc@U?$_Vec_base_types@HV?$allocator@H@std@@@std@@@std@@QBEABQAHXZ ; std::_Vector_alloc<std::_Vec_base_types<int,std::allocator<int> > >::_Myfirst
PUBLIC	?_Mylast@?$_Vector_alloc@U?$_Vec_base_types@HV?$allocator@H@std@@@std@@@std@@QAEAAPAHXZ ; std::_Vector_alloc<std::_Vec_base_types<int,std::allocator<int> > >::_Mylast
PUBLIC	?_Mylast@?$_Vector_alloc@U?$_Vec_base_types@HV?$allocator@H@std@@@std@@@std@@QBEABQAHXZ ; std::_Vector_alloc<std::_Vec_base_types<int,std::allocator<int> > >::_Mylast
PUBLIC	?_Pop_back_n@?$vector@V?$AtomicInt@H@conc@@V?$allocator@V?$AtomicInt@H@conc@@@std@@@std@@QAEXI@Z ; std::vector<conc::AtomicInt<int>,std::allocator<conc::AtomicInt<int> > >::_Pop_back_n
PUBLIC	?_Reserve@?$vector@V?$AtomicInt@H@conc@@V?$allocator@V?$AtomicInt@H@conc@@@std@@@std@@IAEXI@Z ; std::vector<conc::AtomicInt<int>,std::allocator<conc::AtomicInt<int> > >::_Reserve
PUBLIC	?_Tidy@?$vector@V?$AtomicInt@H@conc@@V?$allocator@V?$AtomicInt@H@conc@@@std@@@std@@IAEXXZ ; std::vector<conc::AtomicInt<int>,std::allocator<conc::AtomicInt<int> > >::_Tidy
PUBLIC	??0?$_Vector_alloc@U?$_Vec_base_types@V?$AtomicInt@H@conc@@V?$allocator@V?$AtomicInt@H@conc@@@std@@@std@@@std@@QAE@XZ ; std::_Vector_alloc<std::_Vec_base_types<conc::AtomicInt<int>,std::allocator<conc::AtomicInt<int> > > >::_Vector_alloc<std::_Vec_base_types<conc::AtomicInt<int>,std::allocator<conc::AtomicInt<int> > > >
PUBLIC	?_Getal@?$_Vector_alloc@U?$_Vec_base_types@V?$AtomicInt@H@conc@@V?$allocator@V?$AtomicInt@H@conc@@@std@@@std@@@std@@QAEAAU?$_Wrap_alloc@V?$allocator@V?$AtomicInt@H@conc@@@std@@@2@XZ ; std::_Vector_alloc<std::_Vec_base_types<conc::AtomicInt<int>,std::allocator<conc::AtomicInt<int> > > >::_Getal
PUBLIC	?_Myfirst@?$_Vector_alloc@U?$_Vec_base_types@V?$AtomicInt@H@conc@@V?$allocator@V?$AtomicInt@H@conc@@@std@@@std@@@std@@QAEAAPAV?$AtomicInt@H@conc@@XZ ; std::_Vector_alloc<std::_Vec_base_types<conc::AtomicInt<int>,std::allocator<conc::AtomicInt<int> > > >::_Myfirst
PUBLIC	?_Myfirst@?$_Vector_alloc@U?$_Vec_base_types@V?$AtomicInt@H@conc@@V?$allocator@V?$AtomicInt@H@conc@@@std@@@std@@@std@@QBEABQAV?$AtomicInt@H@conc@@XZ ; std::_Vector_alloc<std::_Vec_base_types<conc::AtomicInt<int>,std::allocator<conc::AtomicInt<int> > > >::_Myfirst
PUBLIC	?_Mylast@?$_Vector_alloc@U?$_Vec_base_types@V?$AtomicInt@H@conc@@V?$allocator@V?$AtomicInt@H@conc@@@std@@@std@@@std@@QAEAAPAV?$AtomicInt@H@conc@@XZ ; std::_Vector_alloc<std::_Vec_base_types<conc::AtomicInt<int>,std::allocator<conc::AtomicInt<int> > > >::_Mylast
PUBLIC	?_Mylast@?$_Vector_alloc@U?$_Vec_base_types@V?$AtomicInt@H@conc@@V?$allocator@V?$AtomicInt@H@conc@@@std@@@std@@@std@@QBEABQAV?$AtomicInt@H@conc@@XZ ; std::_Vector_alloc<std::_Vec_base_types<conc::AtomicInt<int>,std::allocator<conc::AtomicInt<int> > > >::_Mylast
PUBLIC	??0?$_Tree@V?$_Tmap_traits@V?$tuple@HHHW4arch_t@@@std@@P6AXPAE0_NHPBEHQAPBEQAH4H@ZU?$less@V?$tuple@HHHW4arch_t@@@std@@@2@V?$allocator@U?$pair@$$CBV?$tuple@HHHW4arch_t@@@std@@P6AXPAE0_NHPBEHQAPBEQAH4H@Z@std@@@2@$0A@@std@@@std@@QAE@ABU?$less@V?$tuple@HHHW4arch_t@@@std@@@1@@Z ; std::_Tree<std::_Tmap_traits<std::tuple<int,int,int,enum arch_t>,void (__cdecl*)(unsigned char *,unsigned char *,bool,int,unsigned char const *,int,unsigned char const * * const,int * const,int * const,int),std::less<std::tuple<int,int,int,enum arch_t> >,std::allocator<std::pair<std::tuple<int,int,int,enum arch_t> const ,void (__cdecl*)(unsigned char *,unsigned char *,bool,int,unsigned char const *,int,unsigned char const * * const,int * const,int * const,int)> >,0> >::_Tree<std::_Tmap_traits<std::tuple<int,int,int,enum arch_t>,void (__cdecl*)(unsigned char *,unsigned char *,bool,int,unsigned char const *,int,unsigned char const * * const,int * const,int * const,int),std::less<std::tuple<int,int,int,enum arch_t> >,std::allocator<std::pair<std::tuple<int,int,int,enum arch_t> const ,void (__cdecl*)(unsigned char *,unsigned char *,bool,int,unsigned char const *,int,unsigned char const * * const,int * const,int * const,int)> >,0> >
PUBLIC	?_Tidy@?$_Tree@V?$_Tmap_traits@V?$tuple@HHHW4arch_t@@@std@@P6AXPAE0_NHPBEHQAPBEQAH4H@ZU?$less@V?$tuple@HHHW4arch_t@@@std@@@2@V?$allocator@U?$pair@$$CBV?$tuple@HHHW4arch_t@@@std@@P6AXPAE0_NHPBEHQAPBEQAH4H@Z@std@@@2@$0A@@std@@@std@@IAEXXZ ; std::_Tree<std::_Tmap_traits<std::tuple<int,int,int,enum arch_t>,void (__cdecl*)(unsigned char *,unsigned char *,bool,int,unsigned char const *,int,unsigned char const * * const,int * const,int * const,int),std::less<std::tuple<int,int,int,enum arch_t> >,std::allocator<std::pair<std::tuple<int,int,int,enum arch_t> const ,void (__cdecl*)(unsigned char *,unsigned char *,bool,int,unsigned char const *,int,unsigned char const * * const,int * const,int * const,int)> >,0> >::_Tidy
PUBLIC	??1?$_Tree_comp_alloc@V?$_Tmap_traits@V?$tuple@HHHW4arch_t@@@std@@P6AXPAE0_NHPBEHQAPBEQAH4H@ZU?$less@V?$tuple@HHHW4arch_t@@@std@@@2@V?$allocator@U?$pair@$$CBV?$tuple@HHHW4arch_t@@@std@@P6AXPAE0_NHPBEHQAPBEQAH4H@Z@std@@@2@$0A@@std@@@std@@QAE@XZ ; std::_Tree_comp_alloc<std::_Tmap_traits<std::tuple<int,int,int,enum arch_t>,void (__cdecl*)(unsigned char *,unsigned char *,bool,int,unsigned char const *,int,unsigned char const * * const,int * const,int * const,int),std::less<std::tuple<int,int,int,enum arch_t> >,std::allocator<std::pair<std::tuple<int,int,int,enum arch_t> const ,void (__cdecl*)(unsigned char *,unsigned char *,bool,int,unsigned char const *,int,unsigned char const * * const,int * const,int * const,int)> >,0> >::~_Tree_comp_alloc<std::_Tmap_traits<std::tuple<int,int,int,enum arch_t>,void (__cdecl*)(unsigned char *,unsigned char *,bool,int,unsigned char const *,int,unsigned char const * * const,int * const,int * const,int),std::less<std::tuple<int,int,int,enum arch_t> >,std::allocator<std::pair<std::tuple<int,int,int,enum arch_t> const ,void (__cdecl*)(unsigned char *,unsigned char *,bool,int,unsigned char const *,int,unsigned char const * * const,int * const,int * const,int)> >,0> >
PUBLIC	??C?$_Tree_iterator@V?$_Tree_val@U?$_Tree_simple_types@U?$pair@$$CBV?$tuple@HHHW4arch_t@@@std@@P6AXPAE0_NHPBEHQAPBEQAH4H@Z@std@@@std@@@std@@@std@@QBEPAU?$pair@$$CBV?$tuple@HHHW4arch_t@@@std@@P6AXPAE0_NHPBEHQAPBEQAH4H@Z@1@XZ ; std::_Tree_iterator<std::_Tree_val<std::_Tree_simple_types<std::pair<std::tuple<int,int,int,enum arch_t> const ,void (__cdecl*)(unsigned char *,unsigned char *,bool,int,unsigned char const *,int,unsigned char const * * const,int * const,int * const,int)> > > >::operator->
PUBLIC	??_GYUY2Planes@@QAEPAXI@Z			; YUY2Planes::`scalar deleting destructor'
PUBLIC	??_GOverlapWindows@@QAEPAXI@Z			; OverlapWindows::`scalar deleting destructor'
PUBLIC	??_G?$AioAdd@H@conc@@UAEPAXI@Z			; conc::AioAdd<int>::`scalar deleting destructor'
PUBLIC	??0?$vector@VMvClipInfo@MDegrainN@@V?$allocator@VMvClipInfo@MDegrainN@@@std@@@std@@QAE@XZ ; std::vector<MDegrainN::MvClipInfo,std::allocator<MDegrainN::MvClipInfo> >::vector<MDegrainN::MvClipInfo,std::allocator<MDegrainN::MvClipInfo> >
PUBLIC	??1?$vector@VMvClipInfo@MDegrainN@@V?$allocator@VMvClipInfo@MDegrainN@@@std@@@std@@QAE@XZ ; std::vector<MDegrainN::MvClipInfo,std::allocator<MDegrainN::MvClipInfo> >::~vector<MDegrainN::MvClipInfo,std::allocator<MDegrainN::MvClipInfo> >
PUBLIC	?resize@?$vector@VMvClipInfo@MDegrainN@@V?$allocator@VMvClipInfo@MDegrainN@@@std@@@std@@QAEXI@Z ; std::vector<MDegrainN::MvClipInfo,std::allocator<MDegrainN::MvClipInfo> >::resize
PUBLIC	??A?$vector@VMvClipInfo@MDegrainN@@V?$allocator@VMvClipInfo@MDegrainN@@@std@@@std@@QAEAAVMvClipInfo@MDegrainN@@I@Z ; std::vector<MDegrainN::MvClipInfo,std::allocator<MDegrainN::MvClipInfo> >::operator[]
PUBLIC	??0?$auto_ptr@VYUY2Planes@@@std@@QAE@PAVYUY2Planes@@@Z ; std::auto_ptr<YUY2Planes>::auto_ptr<YUY2Planes>
PUBLIC	??4?$auto_ptr@VYUY2Planes@@@std@@QAEAAV01@U?$auto_ptr_ref@VYUY2Planes@@@1@@Z ; std::auto_ptr<YUY2Planes>::operator=
PUBLIC	??1?$auto_ptr@VYUY2Planes@@@std@@QAE@XZ		; std::auto_ptr<YUY2Planes>::~auto_ptr<YUY2Planes>
PUBLIC	??C?$auto_ptr@VYUY2Planes@@@std@@QBEPAVYUY2Planes@@XZ ; std::auto_ptr<YUY2Planes>::operator->
PUBLIC	??0?$auto_ptr@VOverlapWindows@@@std@@QAE@PAVOverlapWindows@@@Z ; std::auto_ptr<OverlapWindows>::auto_ptr<OverlapWindows>
PUBLIC	??4?$auto_ptr@VOverlapWindows@@@std@@QAEAAV01@U?$auto_ptr_ref@VOverlapWindows@@@1@@Z ; std::auto_ptr<OverlapWindows>::operator=
PUBLIC	??1?$auto_ptr@VOverlapWindows@@@std@@QAE@XZ	; std::auto_ptr<OverlapWindows>::~auto_ptr<OverlapWindows>
PUBLIC	??C?$auto_ptr@VOverlapWindows@@@std@@QBEPAVOverlapWindows@@XZ ; std::auto_ptr<OverlapWindows>::operator->
PUBLIC	??0?$vector@GV?$allocator@G@std@@@std@@QAE@XZ	; std::vector<unsigned short,std::allocator<unsigned short> >::vector<unsigned short,std::allocator<unsigned short> >
PUBLIC	??1?$vector@GV?$allocator@G@std@@@std@@QAE@XZ	; std::vector<unsigned short,std::allocator<unsigned short> >::~vector<unsigned short,std::allocator<unsigned short> >
PUBLIC	?resize@?$vector@GV?$allocator@G@std@@@std@@QAEXI@Z ; std::vector<unsigned short,std::allocator<unsigned short> >::resize
PUBLIC	?empty@?$vector@GV?$allocator@G@std@@@std@@QBE_NXZ ; std::vector<unsigned short,std::allocator<unsigned short> >::empty
PUBLIC	??A?$vector@GV?$allocator@G@std@@@std@@QAEAAGI@Z ; std::vector<unsigned short,std::allocator<unsigned short> >::operator[]
PUBLIC	??0?$vector@HV?$allocator@H@std@@@std@@QAE@XZ	; std::vector<int,std::allocator<int> >::vector<int,std::allocator<int> >
PUBLIC	??1?$vector@HV?$allocator@H@std@@@std@@QAE@XZ	; std::vector<int,std::allocator<int> >::~vector<int,std::allocator<int> >
PUBLIC	?resize@?$vector@HV?$allocator@H@std@@@std@@QAEXI@Z ; std::vector<int,std::allocator<int> >::resize
PUBLIC	?empty@?$vector@HV?$allocator@H@std@@@std@@QBE_NXZ ; std::vector<int,std::allocator<int> >::empty
PUBLIC	??A?$vector@HV?$allocator@H@std@@@std@@QAEAAHI@Z ; std::vector<int,std::allocator<int> >::operator[]
PUBLIC	??0?$vector@V?$AtomicInt@H@conc@@V?$allocator@V?$AtomicInt@H@conc@@@std@@@std@@QAE@XZ ; std::vector<conc::AtomicInt<int>,std::allocator<conc::AtomicInt<int> > >::vector<conc::AtomicInt<int>,std::allocator<conc::AtomicInt<int> > >
PUBLIC	??1?$vector@V?$AtomicInt@H@conc@@V?$allocator@V?$AtomicInt@H@conc@@@std@@@std@@QAE@XZ ; std::vector<conc::AtomicInt<int>,std::allocator<conc::AtomicInt<int> > >::~vector<conc::AtomicInt<int>,std::allocator<conc::AtomicInt<int> > >
PUBLIC	?resize@?$vector@V?$AtomicInt@H@conc@@V?$allocator@V?$AtomicInt@H@conc@@@std@@@std@@QAEXI@Z ; std::vector<conc::AtomicInt<int>,std::allocator<conc::AtomicInt<int> > >::resize
PUBLIC	?size@?$vector@V?$AtomicInt@H@conc@@V?$allocator@V?$AtomicInt@H@conc@@@std@@@std@@QBEIXZ ; std::vector<conc::AtomicInt<int>,std::allocator<conc::AtomicInt<int> > >::size
PUBLIC	??A?$vector@V?$AtomicInt@H@conc@@V?$allocator@V?$AtomicInt@H@conc@@@std@@@std@@QAEAAV?$AtomicInt@H@conc@@I@Z ; std::vector<conc::AtomicInt<int>,std::allocator<conc::AtomicInt<int> > >::operator[]
PUBLIC	??0?$map@V?$tuple@HHHW4arch_t@@@std@@P6AXPAE0_NHPBEHQAPBEQAH4H@ZU?$less@V?$tuple@HHHW4arch_t@@@std@@@2@V?$allocator@U?$pair@$$CBV?$tuple@HHHW4arch_t@@@std@@P6AXPAE0_NHPBEHQAPBEQAH4H@Z@std@@@2@@std@@QAE@XZ ; std::map<std::tuple<int,int,int,enum arch_t>,void (__cdecl*)(unsigned char *,unsigned char *,bool,int,unsigned char const *,int,unsigned char const * * const,int * const,int * const,int),std::less<std::tuple<int,int,int,enum arch_t> >,std::allocator<std::pair<std::tuple<int,int,int,enum arch_t> const ,void (__cdecl*)(unsigned char *,unsigned char *,bool,int,unsigned char const *,int,unsigned char const * * const,int * const,int * const,int)> > >::map<std::tuple<int,int,int,enum arch_t>,void (__cdecl*)(unsigned char *,unsigned char *,bool,int,unsigned char const *,int,unsigned char const * * const,int * const,int * const,int),std::less<std::tuple<int,int,int,enum arch_t> >,std::allocator<std::pair<std::tuple<int,int,int,enum arch_t> const ,void (__cdecl*)(unsigned char *,unsigned char *,bool,int,unsigned char const *,int,unsigned char const * * const,int * const,int * const,int)> > >
PUBLIC	??A?$map@V?$tuple@HHHW4arch_t@@@std@@P6AXPAE0_NHPBEHQAPBEQAH4H@ZU?$less@V?$tuple@HHHW4arch_t@@@std@@@2@V?$allocator@U?$pair@$$CBV?$tuple@HHHW4arch_t@@@std@@P6AXPAE0_NHPBEHQAPBEQAH4H@Z@std@@@2@@std@@QAEAAP6AXPAE0_NHPBEHQAPBEQAH4H@Z$$QAV?$tuple@HHHW4arch_t@@@1@@Z ; std::map<std::tuple<int,int,int,enum arch_t>,void (__cdecl*)(unsigned char *,unsigned char *,bool,int,unsigned char const *,int,unsigned char const * * const,int * const,int * const,int),std::less<std::tuple<int,int,int,enum arch_t> >,std::allocator<std::pair<std::tuple<int,int,int,enum arch_t> const ,void (__cdecl*)(unsigned char *,unsigned char *,bool,int,unsigned char const *,int,unsigned char const * * const,int * const,int * const,int)> > >::operator[]
PUBLIC	??1?$_Tree@V?$_Tmap_traits@V?$tuple@HHHW4arch_t@@@std@@P6AXPAE0_NHPBEHQAPBEQAH4H@ZU?$less@V?$tuple@HHHW4arch_t@@@std@@@2@V?$allocator@U?$pair@$$CBV?$tuple@HHHW4arch_t@@@std@@P6AXPAE0_NHPBEHQAPBEQAH4H@Z@std@@@2@$0A@@std@@@std@@QAE@XZ ; std::_Tree<std::_Tmap_traits<std::tuple<int,int,int,enum arch_t>,void (__cdecl*)(unsigned char *,unsigned char *,bool,int,unsigned char const *,int,unsigned char const * * const,int * const,int * const,int),std::less<std::tuple<int,int,int,enum arch_t> >,std::allocator<std::pair<std::tuple<int,int,int,enum arch_t> const ,void (__cdecl*)(unsigned char *,unsigned char *,bool,int,unsigned char const *,int,unsigned char const * * const,int * const,int * const,int)> >,0> >::~_Tree<std::_Tmap_traits<std::tuple<int,int,int,enum arch_t>,void (__cdecl*)(unsigned char *,unsigned char *,bool,int,unsigned char const *,int,unsigned char const * * const,int * const,int * const,int),std::less<std::tuple<int,int,int,enum arch_t> >,std::allocator<std::pair<std::tuple<int,int,int,enum arch_t> const ,void (__cdecl*)(unsigned char *,unsigned char *,bool,int,unsigned char const *,int,unsigned char const * * const,int * const,int * const,int)> >,0> >
PUBLIC	??1?$AioAdd@H@conc@@UAE@XZ			; conc::AioAdd<int>::~AioAdd<int>
PUBLIC	?norm_weights@MDegrainN@@CAXQAHH@Z		; MDegrainN::norm_weights
PUBLIC	?use_block_uv@MDegrainN@@AAEXAAPBEAAH1_NABVMvClipInfo@1@HPBVMVPlane@@PBEHH@Z ; MDegrainN::use_block_uv
PUBLIC	?use_block_y@MDegrainN@@AAEXAAPBEAAH1_NABVMvClipInfo@1@HPBVMVPlane@@PBEHH@Z ; MDegrainN::use_block_y
PUBLIC	?process_luma_overlap_slice@MDegrainN@@AAEXHH@Z	; MDegrainN::process_luma_overlap_slice
PUBLIC	?process_luma_overlap_slice@MDegrainN@@AAEXAAVTaskData@?$MTSlicer@VMDegrainN@@V1@$0EA@@@@Z ; MDegrainN::process_luma_overlap_slice
PUBLIC	?process_luma_normal_slice@MDegrainN@@AAEXAAVTaskData@?$MTSlicer@VMDegrainN@@V1@$0EA@@@@Z ; MDegrainN::process_luma_normal_slice
PUBLIC	?reorder_ref@MDegrainN@@ABEHH@Z			; MDegrainN::reorder_ref
PUBLIC	?GetFrame@MDegrainN@@UAG?AVPVideoFrame@@HPAVIScriptEnvironment@@@Z ; MDegrainN::GetFrame
PUBLIC	??1MDegrainN@@UAE@XZ				; MDegrainN::~MDegrainN
PUBLIC	??_GMDegrainN@@UAEPAXI@Z			; MDegrainN::`scalar deleting destructor'
PUBLIC	??1?$map@V?$tuple@HHHW4arch_t@@@std@@P6AXPAE0_NHPBEHQAPBEQAH4H@ZU?$less@V?$tuple@HHHW4arch_t@@@std@@@2@V?$allocator@U?$pair@$$CBV?$tuple@HHHW4arch_t@@@std@@P6AXPAE0_NHPBEHQAPBEQAH4H@Z@std@@@2@@std@@QAE@XZ ; std::map<std::tuple<int,int,int,enum arch_t>,void (__cdecl*)(unsigned char *,unsigned char *,bool,int,unsigned char const *,int,unsigned char const * * const,int * const,int * const,int),std::less<std::tuple<int,int,int,enum arch_t> >,std::allocator<std::pair<std::tuple<int,int,int,enum arch_t> const ,void (__cdecl*)(unsigned char *,unsigned char *,bool,int,unsigned char const *,int,unsigned char const * * const,int * const,int * const,int)> > >::~map<std::tuple<int,int,int,enum arch_t>,void (__cdecl*)(unsigned char *,unsigned char *,bool,int,unsigned char const *,int,unsigned char const * * const,int * const,int * const,int),std::less<std::tuple<int,int,int,enum arch_t> >,std::allocator<std::pair<std::tuple<int,int,int,enum arch_t> const ,void (__cdecl*)(unsigned char *,unsigned char *,bool,int,unsigned char const *,int,unsigned char const * * const,int * const,int * const,int)> > >
PUBLIC	?get_denoiseN_function@MDegrainN@@AAEP6AXPAE0_NHPBEHQAPBEQAH4H@ZHHHW4arch_t@@@Z ; MDegrainN::get_denoiseN_function
PUBLIC	?GetPitch@MVPlane@@QBEHXZ			; MVPlane::GetPitch
PUBLIC	?GetPointer@MVPlane@@QBEPBEHH@Z			; MVPlane::GetPointer
PUBLIC	?GetAbsolutePointer@MVPlane@@QBEPBEHH@Z		; MVPlane::GetAbsolutePointer
PUBLIC	??$GetAbsolutePointerPel@$0A@@MVPlane@@QBEPBEHH@Z ; MVPlane::GetAbsolutePointerPel<0>
PUBLIC	?GetPlane@MVFrame@@QAEPAVMVPlane@@W4MVPlaneSet@@@Z ; MVFrame::GetPlane
PUBLIC	?DegrainWeight@@YAHHHH@Z			; DegrainWeight
PUBLIC	??0TmpBlock@MDegrainN@@QAE@XZ			; MDegrainN::TmpBlock::TmpBlock
PUBLIC	?SetCacheHints@MDegrainN@@UAGHHH@Z		; MDegrainN::SetCacheHints
PUBLIC	?GetPtrV@YUY2Planes@@QBEPAEXZ			; YUY2Planes::GetPtrV
PUBLIC	?GetPtrU@YUY2Planes@@QBEPAEXZ			; YUY2Planes::GetPtrU
PUBLIC	?GetPtr@YUY2Planes@@QBEPAEXZ			; YUY2Planes::GetPtr
PUBLIC	?GetPitchUV@YUY2Planes@@QBEHXZ			; YUY2Planes::GetPitchUV
PUBLIC	?GetPitch@YUY2Planes@@QBEHXZ			; YUY2Planes::GetPitch
PUBLIC	?GetWindow@OverlapWindows@@QBEPAFH@Z		; OverlapWindows::GetWindow
PUBLIC	?IsUsable@MVClip@@QBE_NXZ			; MVClip::IsUsable
PUBLIC	?GetThSCD1@MVClip@@QBEHXZ			; MVClip::GetThSCD1
PUBLIC	?GetY@FakeBlockData@@QBEHXZ			; FakeBlockData::GetY
PUBLIC	?GetX@FakeBlockData@@QBEHXZ			; FakeBlockData::GetX
PUBLIC	??1GenericVideoFilter@@UAE@XZ			; GenericVideoFilter::~GenericVideoFilter
PUBLIC	??_GGenericVideoFilter@@UAEPAXI@Z		; GenericVideoFilter::`scalar deleting destructor'
PUBLIC	?SetCacheHints@GenericVideoFilter@@UAGHHH@Z	; GenericVideoFilter::SetCacheHints
PUBLIC	?GetParity@GenericVideoFilter@@UAG_NH@Z		; GenericVideoFilter::GetParity
PUBLIC	?GetVideoInfo@GenericVideoFilter@@UAGABUVideoInfo@@XZ ; GenericVideoFilter::GetVideoInfo
PUBLIC	?GetAudio@GenericVideoFilter@@UAGXPAX_J1PAVIScriptEnvironment@@@Z ; GenericVideoFilter::GetAudio
PUBLIC	?GetFrame@GenericVideoFilter@@UAG?AVPVideoFrame@@HPAVIScriptEnvironment@@@Z ; GenericVideoFilter::GetFrame
PUBLIC	??0GenericVideoFilter@@QAE@VPClip@@@Z		; GenericVideoFilter::GenericVideoFilter
PUBLIC	??1PVideoFrame@@QAE@XZ				; PVideoFrame::~PVideoFrame
PUBLIC	??0PVideoFrame@@QAE@ABV0@@Z			; PVideoFrame::PVideoFrame
PUBLIC	??0PVideoFrame@@QAE@XZ				; PVideoFrame::PVideoFrame
PUBLIC	??_GIClip@@UAEPAXI@Z				; IClip::`scalar deleting destructor'
PUBLIC	??1IClip@@UAE@XZ				; IClip::~IClip
PUBLIC	?GetVersion@IClip@@UAGHXZ			; IClip::GetVersion
PUBLIC	??0IClip@@QAE@XZ				; IClip::IClip
PUBLIC	?GetReadPtr@VideoFrame@@QBEPBEH@Z		; VideoFrame::GetReadPtr
PUBLIC	?GetRowSize@VideoFrame@@QBEHH@Z			; VideoFrame::GetRowSize
PUBLIC	?ComponentSize@VideoInfo@@QBEHXZ		; VideoInfo::ComponentSize
PUBLIC	_sprintf
PUBLIC	__vsprintf_l
PUBLIC	__vsnprintf_l
PUBLIC	___local_stdio_printf_options
PUBLIC	??0MDegrainN@@QAE@VPClip@@00HHHHHHHH_N11HH1PAVIScriptEnvironment@@@Z ; MDegrainN::MDegrainN
EXTRN	??_E?$AioAdd@H@conc@@UAEPAXI@Z:PROC		; conc::AioAdd<int>::`vector deleting destructor'
EXTRN	??_EMDegrainN@@UAEPAXI@Z:PROC			; MDegrainN::`vector deleting destructor'
EXTRN	??_EIClip@@UAEPAXI@Z:PROC			; IClip::`vector deleting destructor'
EXTRN	??_E?$MTSlicer@VMDegrainN@@V1@$0EA@@@UAEPAXI@Z:PROC ; MTSlicer<MDegrainN,MDegrainN,64>::`vector deleting destructor'
EXTRN	??_EGenericVideoFilter@@UAEPAXI@Z:PROC		; GenericVideoFilter::`vector deleting destructor'
;	COMDAT xdata$x
xdata$x	SEGMENT
__ehfuncinfo$??0MDegrainN@@QAE@VPClip@@00HHHHHHHH_N11HH1PAVIScriptEnvironment@@@Z DD 019930522H
	DD	014H
	DD	FLAT:__unwindtable$??0MDegrainN@@QAE@VPClip@@00HHHHHHHH_N11HH1PAVIScriptEnvironment@@@Z
	DD	2 DUP(00H)
	DD	2 DUP(00H)
	DD	00H
	DD	01H
	ORG $+4
__unwindtable$??0MDegrainN@@QAE@VPClip@@00HHHHHHHH_N11HH1PAVIScriptEnvironment@@@Z DD 0ffffffffH
	DD	FLAT:__unwindfunclet$??0MDegrainN@@QAE@VPClip@@00HHHHHHHH_N11HH1PAVIScriptEnvironment@@@Z$0
	DD	00H
	DD	FLAT:__unwindfunclet$??0MDegrainN@@QAE@VPClip@@00HHHHHHHH_N11HH1PAVIScriptEnvironment@@@Z$1
	DD	01H
	DD	FLAT:__unwindfunclet$??0MDegrainN@@QAE@VPClip@@00HHHHHHHH_N11HH1PAVIScriptEnvironment@@@Z$2
	DD	02H
	DD	FLAT:__unwindfunclet$??0MDegrainN@@QAE@VPClip@@00HHHHHHHH_N11HH1PAVIScriptEnvironment@@@Z$4
	DD	03H
	DD	FLAT:__unwindfunclet$??0MDegrainN@@QAE@VPClip@@00HHHHHHHH_N11HH1PAVIScriptEnvironment@@@Z$5
	DD	04H
	DD	FLAT:__unwindfunclet$??0MDegrainN@@QAE@VPClip@@00HHHHHHHH_N11HH1PAVIScriptEnvironment@@@Z$6
	DD	05H
	DD	FLAT:__unwindfunclet$??0MDegrainN@@QAE@VPClip@@00HHHHHHHH_N11HH1PAVIScriptEnvironment@@@Z$7
	DD	06H
	DD	FLAT:__unwindfunclet$??0MDegrainN@@QAE@VPClip@@00HHHHHHHH_N11HH1PAVIScriptEnvironment@@@Z$8
	DD	07H
	DD	FLAT:__unwindfunclet$??0MDegrainN@@QAE@VPClip@@00HHHHHHHH_N11HH1PAVIScriptEnvironment@@@Z$9
	DD	08H
	DD	FLAT:__unwindfunclet$??0MDegrainN@@QAE@VPClip@@00HHHHHHHH_N11HH1PAVIScriptEnvironment@@@Z$10
	DD	09H
	DD	FLAT:__unwindfunclet$??0MDegrainN@@QAE@VPClip@@00HHHHHHHH_N11HH1PAVIScriptEnvironment@@@Z$11
	DD	0aH
	DD	FLAT:__unwindfunclet$??0MDegrainN@@QAE@VPClip@@00HHHHHHHH_N11HH1PAVIScriptEnvironment@@@Z$12
	DD	0bH
	DD	FLAT:__unwindfunclet$??0MDegrainN@@QAE@VPClip@@00HHHHHHHH_N11HH1PAVIScriptEnvironment@@@Z$13
	DD	0cH
	DD	FLAT:__unwindfunclet$??0MDegrainN@@QAE@VPClip@@00HHHHHHHH_N11HH1PAVIScriptEnvironment@@@Z$14
	DD	0cH
	DD	FLAT:__unwindfunclet$??0MDegrainN@@QAE@VPClip@@00HHHHHHHH_N11HH1PAVIScriptEnvironment@@@Z$16
	DD	0cH
	DD	FLAT:__unwindfunclet$??0MDegrainN@@QAE@VPClip@@00HHHHHHHH_N11HH1PAVIScriptEnvironment@@@Z$22
	DD	0cH
	DD	FLAT:__unwindfunclet$??0MDegrainN@@QAE@VPClip@@00HHHHHHHH_N11HH1PAVIScriptEnvironment@@@Z$24
	DD	01H
	DD	FLAT:__unwindfunclet$??0MDegrainN@@QAE@VPClip@@00HHHHHHHH_N11HH1PAVIScriptEnvironment@@@Z$88
	DD	00H
	DD	FLAT:__unwindfunclet$??0MDegrainN@@QAE@VPClip@@00HHHHHHHH_N11HH1PAVIScriptEnvironment@@@Z$89
	DD	0ffffffffH
	DD	FLAT:__unwindfunclet$??0MDegrainN@@QAE@VPClip@@00HHHHHHHH_N11HH1PAVIScriptEnvironment@@@Z$90
xdata$x	ENDS
;	COMDAT xdata$x
xdata$x	SEGMENT
__ehfuncinfo$??1PVideoFrame@@QAE@XZ DD 019930522H
	DD	00H
	DD	00H
	DD	2 DUP(00H)
	DD	2 DUP(00H)
	DD	00H
	DD	05H
xdata$x	ENDS
;	COMDAT xdata$x
xdata$x	SEGMENT
__ehfuncinfo$??0GenericVideoFilter@@QAE@VPClip@@@Z DD 019930522H
	DD	04H
	DD	FLAT:__unwindtable$??0GenericVideoFilter@@QAE@VPClip@@@Z
	DD	2 DUP(00H)
	DD	2 DUP(00H)
	DD	00H
	DD	01H
__unwindtable$??0GenericVideoFilter@@QAE@VPClip@@@Z DD 0ffffffffH
	DD	FLAT:__unwindfunclet$??0GenericVideoFilter@@QAE@VPClip@@@Z$0
	DD	00H
	DD	FLAT:__unwindfunclet$??0GenericVideoFilter@@QAE@VPClip@@@Z$1
	DD	01H
	DD	FLAT:__unwindfunclet$??0GenericVideoFilter@@QAE@VPClip@@@Z$2
	DD	0ffffffffH
	DD	FLAT:__unwindfunclet$??0GenericVideoFilter@@QAE@VPClip@@@Z$3
xdata$x	ENDS
;	COMDAT xdata$x
xdata$x	SEGMENT
__ehfuncinfo$??_GGenericVideoFilter@@UAEPAXI@Z DD 019930522H
	DD	01H
	DD	FLAT:__unwindtable$??_GGenericVideoFilter@@UAEPAXI@Z
	DD	2 DUP(00H)
	DD	2 DUP(00H)
	DD	00H
	DD	05H
__unwindtable$??_GGenericVideoFilter@@UAEPAXI@Z DD 0ffffffffH
	DD	FLAT:__unwindfunclet$??_GGenericVideoFilter@@UAEPAXI@Z$1
xdata$x	ENDS
;	COMDAT xdata$x
xdata$x	SEGMENT
__ehfuncinfo$??1GenericVideoFilter@@UAE@XZ DD 019930522H
	DD	01H
	DD	FLAT:__unwindtable$??1GenericVideoFilter@@UAE@XZ
	DD	2 DUP(00H)
	DD	2 DUP(00H)
	DD	00H
	DD	05H
__unwindtable$??1GenericVideoFilter@@UAE@XZ DD 0ffffffffH
	DD	FLAT:__unwindfunclet$??1GenericVideoFilter@@UAE@XZ$0
xdata$x	ENDS
;	COMDAT xdata$x
xdata$x	SEGMENT
__ehfuncinfo$?get_denoiseN_function@MDegrainN@@AAEP6AXPAE0_NHPBEHQAPBEQAH4H@ZHHHW4arch_t@@@Z DD 019930522H
	DD	01H
	DD	FLAT:__unwindtable$?get_denoiseN_function@MDegrainN@@AAEP6AXPAE0_NHPBEHQAPBEQAH4H@ZHHHW4arch_t@@@Z
	DD	2 DUP(00H)
	DD	2 DUP(00H)
	DD	00H
	DD	01H
__unwindtable$?get_denoiseN_function@MDegrainN@@AAEP6AXPAE0_NHPBEHQAPBEQAH4H@ZHHHW4arch_t@@@Z DD 0ffffffffH
	DD	FLAT:__unwindfunclet$?get_denoiseN_function@MDegrainN@@AAEP6AXPAE0_NHPBEHQAPBEQAH4H@ZHHHW4arch_t@@@Z$0
xdata$x	ENDS
;	COMDAT xdata$x
xdata$x	SEGMENT
__ehfuncinfo$??1MDegrainN@@UAE@XZ DD 019930522H
	DD	02H
	DD	FLAT:__unwindtable$??1MDegrainN@@UAE@XZ
	DD	2 DUP(00H)
	DD	2 DUP(00H)
	DD	00H
	DD	05H
__unwindtable$??1MDegrainN@@UAE@XZ DD 0ffffffffH
	DD	FLAT:__unwindfunclet$??1MDegrainN@@UAE@XZ$102
	DD	0ffffffffH
	DD	FLAT:__unwindfunclet$??1MDegrainN@@UAE@XZ$105
xdata$x	ENDS
;	COMDAT xdata$x
xdata$x	SEGMENT
__ehfuncinfo$?GetFrame@MDegrainN@@UAG?AVPVideoFrame@@HPAVIScriptEnvironment@@@Z DD 019930522H
	DD	08H
	DD	FLAT:__unwindtable$?GetFrame@MDegrainN@@UAG?AVPVideoFrame@@HPAVIScriptEnvironment@@@Z
	DD	2 DUP(00H)
	DD	2 DUP(00H)
	DD	00H
	DD	01H
	ORG $+4
__unwindtable$?GetFrame@MDegrainN@@UAG?AVPVideoFrame@@HPAVIScriptEnvironment@@@Z DD 0ffffffffH
	DD	FLAT:__unwindfunclet$?GetFrame@MDegrainN@@UAG?AVPVideoFrame@@HPAVIScriptEnvironment@@@Z$2
	DD	00H
	DD	FLAT:__unwindfunclet$?GetFrame@MDegrainN@@UAG?AVPVideoFrame@@HPAVIScriptEnvironment@@@Z$0
	DD	00H
	DD	FLAT:__unwindfunclet$?GetFrame@MDegrainN@@UAG?AVPVideoFrame@@HPAVIScriptEnvironment@@@Z$8
	DD	00H
	DD	FLAT:__unwindfunclet$?GetFrame@MDegrainN@@UAG?AVPVideoFrame@@HPAVIScriptEnvironment@@@Z$1
	DD	03H
	DD	FLAT:__unwindfunclet$?GetFrame@MDegrainN@@UAG?AVPVideoFrame@@HPAVIScriptEnvironment@@@Z$3
	DD	04H
	DD	FLAT:__unwindfunclet$?GetFrame@MDegrainN@@UAG?AVPVideoFrame@@HPAVIScriptEnvironment@@@Z$4
	DD	04H
	DD	FLAT:__unwindfunclet$?GetFrame@MDegrainN@@UAG?AVPVideoFrame@@HPAVIScriptEnvironment@@@Z$81
	DD	00H
	DD	FLAT:__unwindfunclet$?GetFrame@MDegrainN@@UAG?AVPVideoFrame@@HPAVIScriptEnvironment@@@Z$82
xdata$x	ENDS
;	COMDAT xdata$x
xdata$x	SEGMENT
__ehfuncinfo$?process_luma_overlap_slice@MDegrainN@@AAEXAAVTaskData@?$MTSlicer@VMDegrainN@@V1@$0EA@@@@Z DD 019930522H
	DD	01H
	DD	FLAT:__unwindtable$?process_luma_overlap_slice@MDegrainN@@AAEXAAVTaskData@?$MTSlicer@VMDegrainN@@V1@$0EA@@@@Z
	DD	2 DUP(00H)
	DD	2 DUP(00H)
	DD	00H
	DD	01H
__unwindtable$?process_luma_overlap_slice@MDegrainN@@AAEXAAVTaskData@?$MTSlicer@VMDegrainN@@V1@$0EA@@@@Z DD 0ffffffffH
	DD	FLAT:__unwindfunclet$?process_luma_overlap_slice@MDegrainN@@AAEXAAVTaskData@?$MTSlicer@VMDegrainN@@V1@$0EA@@@@Z$0
xdata$x	ENDS
;	COMDAT xdata$x
xdata$x	SEGMENT
__ehfuncinfo$?clear@?$_Tree@V?$_Tmap_traits@V?$tuple@HHHW4arch_t@@@std@@P6AXPAE0_NHPBEHQAPBEQAH4H@ZU?$less@V?$tuple@HHHW4arch_t@@@std@@@2@V?$allocator@U?$pair@$$CBV?$tuple@HHHW4arch_t@@@std@@P6AXPAE0_NHPBEHQAPBEQAH4H@Z@std@@@2@$0A@@std@@@std@@QAEXXZ DD 019930522H
	DD	00H
	DD	00H
	DD	2 DUP(00H)
	DD	2 DUP(00H)
	DD	00H
	DD	05H
xdata$x	ENDS
;	COMDAT xdata$x
xdata$x	SEGMENT
__ehfuncinfo$??1?$MTSlicer@VMDegrainN@@V1@$0EA@@@UAE@XZ DD 019930522H
	DD	00H
	DD	00H
	DD	2 DUP(00H)
	DD	2 DUP(00H)
	DD	00H
	DD	05H
xdata$x	ENDS
;	COMDAT xdata$x
xdata$x	SEGMENT
__ehfuncinfo$??$process_chroma@$00@MDegrainN@@AAEXH@Z DD 019930522H
	DD	02H
	DD	FLAT:__unwindtable$??$process_chroma@$00@MDegrainN@@AAEXH@Z
	DD	2 DUP(00H)
	DD	2 DUP(00H)
	DD	00H
	DD	01H
__unwindtable$??$process_chroma@$00@MDegrainN@@AAEXH@Z DD 0ffffffffH
	DD	FLAT:__unwindfunclet$??$process_chroma@$00@MDegrainN@@AAEXH@Z$0
	DD	0ffffffffH
	DD	FLAT:__unwindfunclet$??$process_chroma@$00@MDegrainN@@AAEXH@Z$43
xdata$x	ENDS
;	COMDAT xdata$x
xdata$x	SEGMENT
__ehfuncinfo$??$process_chroma@$01@MDegrainN@@AAEXH@Z DD 019930522H
	DD	02H
	DD	FLAT:__unwindtable$??$process_chroma@$01@MDegrainN@@AAEXH@Z
	DD	2 DUP(00H)
	DD	2 DUP(00H)
	DD	00H
	DD	01H
__unwindtable$??$process_chroma@$01@MDegrainN@@AAEXH@Z DD 0ffffffffH
	DD	FLAT:__unwindfunclet$??$process_chroma@$01@MDegrainN@@AAEXH@Z$0
	DD	0ffffffffH
	DD	FLAT:__unwindfunclet$??$process_chroma@$01@MDegrainN@@AAEXH@Z$43
xdata$x	ENDS
;	COMDAT xdata$x
xdata$x	SEGMENT
__ehfuncinfo$??_G?$MTSlicer@VMDegrainN@@V1@$0EA@@@UAEPAXI@Z DD 019930522H
	DD	01H
	DD	FLAT:__unwindtable$??_G?$MTSlicer@VMDegrainN@@V1@$0EA@@@UAEPAXI@Z
	DD	2 DUP(00H)
	DD	2 DUP(00H)
	DD	00H
	DD	05H
__unwindtable$??_G?$MTSlicer@VMDegrainN@@V1@$0EA@@@UAEPAXI@Z DD 0ffffffffH
	DD	FLAT:__unwindfunclet$??_G?$MTSlicer@VMDegrainN@@V1@$0EA@@@UAEPAXI@Z$0
xdata$x	ENDS
;	COMDAT xdata$x
xdata$x	SEGMENT
__ehfuncinfo$??$process_chroma_overlap_slice@$00@MDegrainN@@AAEXAAVTaskData@?$MTSlicer@VMDegrainN@@V1@$0EA@@@@Z DD 019930522H
	DD	01H
	DD	FLAT:__unwindtable$??$process_chroma_overlap_slice@$00@MDegrainN@@AAEXAAVTaskData@?$MTSlicer@VMDegrainN@@V1@$0EA@@@@Z
	DD	2 DUP(00H)
	DD	2 DUP(00H)
	DD	00H
	DD	01H
__unwindtable$??$process_chroma_overlap_slice@$00@MDegrainN@@AAEXAAVTaskData@?$MTSlicer@VMDegrainN@@V1@$0EA@@@@Z DD 0ffffffffH
	DD	FLAT:__unwindfunclet$??$process_chroma_overlap_slice@$00@MDegrainN@@AAEXAAVTaskData@?$MTSlicer@VMDegrainN@@V1@$0EA@@@@Z$0
xdata$x	ENDS
;	COMDAT xdata$x
xdata$x	SEGMENT
__ehfuncinfo$??$process_chroma_overlap_slice@$01@MDegrainN@@AAEXAAVTaskData@?$MTSlicer@VMDegrainN@@V1@$0EA@@@@Z DD 019930522H
	DD	01H
	DD	FLAT:__unwindtable$??$process_chroma_overlap_slice@$01@MDegrainN@@AAEXAAVTaskData@?$MTSlicer@VMDegrainN@@V1@$0EA@@@@Z
	DD	2 DUP(00H)
	DD	2 DUP(00H)
	DD	00H
	DD	01H
__unwindtable$??$process_chroma_overlap_slice@$01@MDegrainN@@AAEXAAVTaskData@?$MTSlicer@VMDegrainN@@V1@$0EA@@@@Z DD 0ffffffffH
	DD	FLAT:__unwindfunclet$??$process_chroma_overlap_slice@$01@MDegrainN@@AAEXAAVTaskData@?$MTSlicer@VMDegrainN@@V1@$0EA@@@@Z$0
xdata$x	ENDS
;	COMDAT xdata$x
xdata$x	SEGMENT
__ehfuncinfo$??$_Insert_hint@AAU?$pair@$$CBV?$tuple@HHHW4arch_t@@@std@@P6AXPAE0_NHPBEHQAPBEQAH4H@Z@std@@PAU?$_Tree_node@U?$pair@$$CBV?$tuple@HHHW4arch_t@@@std@@P6AXPAE0_NHPBEHQAPBEQAH4H@Z@std@@PAX@2@@?$_Tree@V?$_Tmap_traits@V?$tuple@HHHW4arch_t@@@std@@P6AXPAE0_NHPBEHQAPBEQAH4H@ZU?$less@V?$tuple@HHHW4arch_t@@@std@@@2@V?$allocator@U?$pair@$$CBV?$tuple@HHHW4arch_t@@@std@@P6AXPAE0_NHPBEHQAPBEQAH4H@Z@std@@@2@$0A@@std@@@std@@IAE?AV?$_Tree_iterator@V?$_Tree_val@U?$_Tree_simple_types@U?$pair@$$CBV?$tuple@HHHW4arch_t@@@std@@P6AXPAE0_NHPBEHQAPBEQAH4H@Z@std@@@std@@@std@@@1@V?$_Tree_const_iterator@V?$_Tree_val@U?$_Tree_simple_types@U?$pair@$$CBV?$tuple@HHHW4arch_t@@@std@@P6AXPAE0_NHPBEHQAPBEQAH4H@Z@std@@@std@@@std@@@1@AAU?$pair@$$CBV?$tuple@HHHW4arch_t@@@std@@P6AXPAE0_NHPBEHQAPBEQAH4H@Z@1@PAU?$_Tree_node@U?$pair@$$CBV?$tuple@HHHW4arch_t@@@std@@P6AXPAE0_NHPBEHQAPBEQAH4H@Z@std@@PAX@1@@Z DD 019930522H
	DD	02H
	DD	FLAT:__unwindtable$??$_Insert_hint@AAU?$pair@$$CBV?$tuple@HHHW4arch_t@@@std@@P6AXPAE0_NHPBEHQAPBEQAH4H@Z@std@@PAU?$_Tree_node@U?$pair@$$CBV?$tuple@HHHW4arch_t@@@std@@P6AXPAE0_NHPBEHQAPBEQAH4H@Z@std@@PAX@2@@?$_Tree@V?$_Tmap_traits@V?$tuple@HHHW4arch_t@@@std@@P6AXPAE0_NHPBEHQAPBEQAH4H@ZU?$less@V?$tuple@HHHW4arch_t@@@std@@@2@V?$allocator@U?$pair@$$CBV?$tuple@HHHW4arch_t@@@std@@P6AXPAE0_NHPBEHQAPBEQAH4H@Z@std@@@2@$0A@@std@@@std@@IAE?AV?$_Tree_iterator@V?$_Tree_val@U?$_Tree_simple_types@U?$pair@$$CBV?$tuple@HHHW4arch_t@@@std@@P6AXPAE0_NHPBEHQAPBEQAH4H@Z@std@@@std@@@std@@@1@V?$_Tree_const_iterator@V?$_Tree_val@U?$_Tree_simple_types@U?$pair@$$CBV?$tuple@HHHW4arch_t@@@std@@P6AXPAE0_NHPBEHQAPBEQAH4H@Z@std@@@std@@@std@@@1@AAU?$pair@$$CBV?$tuple@HHHW4arch_t@@@std@@P6AXPAE0_NHPBEHQAPBEQAH4H@Z@1@PAU?$_Tree_node@U?$pair@$$CBV?$tuple@HHHW4arch_t@@@std@@P6AXPAE0_NHPBEHQAPBEQAH4H@Z@std@@PAX@1@@Z
	DD	01H
	DD	FLAT:__tryblocktable$??$_Insert_hint@AAU?$pair@$$CBV?$tuple@HHHW4arch_t@@@std@@P6AXPAE0_NHPBEHQAPBEQAH4H@Z@std@@PAU?$_Tree_node@U?$pair@$$CBV?$tuple@HHHW4arch_t@@@std@@P6AXPAE0_NHPBEHQAPBEQAH4H@Z@std@@PAX@2@@?$_Tree@V?$_Tmap_traits@V?$tuple@HHHW4arch_t@@@std@@P6AXPAE0_NHPBEHQAPBEQAH4H@ZU?$less@V?$tuple@HHHW4arch_t@@@std@@@2@V?$allocator@U?$pair@$$CBV?$tuple@HHHW4arch_t@@@std@@P6AXPAE0_NHPBEHQAPBEQAH4H@Z@std@@@2@$0A@@std@@@std@@IAE?AV?$_Tree_iterator@V?$_Tree_val@U?$_Tree_simple_types@U?$pair@$$CBV?$tuple@HHHW4arch_t@@@std@@P6AXPAE0_NHPBEHQAPBEQAH4H@Z@std@@@std@@@std@@@1@V?$_Tree_const_iterator@V?$_Tree_val@U?$_Tree_simple_types@U?$pair@$$CBV?$tuple@HHHW4arch_t@@@std@@P6AXPAE0_NHPBEHQAPBEQAH4H@Z@std@@@std@@@std@@@1@AAU?$pair@$$CBV?$tuple@HHHW4arch_t@@@std@@P6AXPAE0_NHPBEHQAPBEQAH4H@Z@1@PAU?$_Tree_node@U?$pair@$$CBV?$tuple@HHHW4arch_t@@@std@@P6AXPAE0_NHPBEHQAPBEQAH4H@Z@std@@PAX@1@@Z
	DD	2 DUP(00H)
	DD	00H
	DD	01H
__unwindtable$??$_Insert_hint@AAU?$pair@$$CBV?$tuple@HHHW4arch_t@@@std@@P6AXPAE0_NHPBEHQAPBEQAH4H@Z@std@@PAU?$_Tree_node@U?$pair@$$CBV?$tuple@HHHW4arch_t@@@std@@P6AXPAE0_NHPBEHQAPBEQAH4H@Z@std@@PAX@2@@?$_Tree@V?$_Tmap_traits@V?$tuple@HHHW4arch_t@@@std@@P6AXPAE0_NHPBEHQAPBEQAH4H@ZU?$less@V?$tuple@HHHW4arch_t@@@std@@@2@V?$allocator@U?$pair@$$CBV?$tuple@HHHW4arch_t@@@std@@P6AXPAE0_NHPBEHQAPBEQAH4H@Z@std@@@2@$0A@@std@@@std@@IAE?AV?$_Tree_iterator@V?$_Tree_val@U?$_Tree_simple_types@U?$pair@$$CBV?$tuple@HHHW4arch_t@@@std@@P6AXPAE0_NHPBEHQAPBEQAH4H@Z@std@@@std@@@std@@@1@V?$_Tree_const_iterator@V?$_Tree_val@U?$_Tree_simple_types@U?$pair@$$CBV?$tuple@HHHW4arch_t@@@std@@P6AXPAE0_NHPBEHQAPBEQAH4H@Z@std@@@std@@@std@@@1@AAU?$pair@$$CBV?$tuple@HHHW4arch_t@@@std@@P6AXPAE0_NHPBEHQAPBEQAH4H@Z@1@PAU?$_Tree_node@U?$pair@$$CBV?$tuple@HHHW4arch_t@@@std@@P6AXPAE0_NHPBEHQAPBEQAH4H@Z@std@@PAX@1@@Z DD 0ffffffffH
	DD	00H
	DD	0ffffffffH
	DD	00H
__tryblocktable$??$_Insert_hint@AAU?$pair@$$CBV?$tuple@HHHW4arch_t@@@std@@P6AXPAE0_NHPBEHQAPBEQAH4H@Z@std@@PAU?$_Tree_node@U?$pair@$$CBV?$tuple@HHHW4arch_t@@@std@@P6AXPAE0_NHPBEHQAPBEQAH4H@Z@std@@PAX@2@@?$_Tree@V?$_Tmap_traits@V?$tuple@HHHW4arch_t@@@std@@P6AXPAE0_NHPBEHQAPBEQAH4H@ZU?$less@V?$tuple@HHHW4arch_t@@@std@@@2@V?$allocator@U?$pair@$$CBV?$tuple@HHHW4arch_t@@@std@@P6AXPAE0_NHPBEHQAPBEQAH4H@Z@std@@@2@$0A@@std@@@std@@IAE?AV?$_Tree_iterator@V?$_Tree_val@U?$_Tree_simple_types@U?$pair@$$CBV?$tuple@HHHW4arch_t@@@std@@P6AXPAE0_NHPBEHQAPBEQAH4H@Z@std@@@std@@@std@@@1@V?$_Tree_const_iterator@V?$_Tree_val@U?$_Tree_simple_types@U?$pair@$$CBV?$tuple@HHHW4arch_t@@@std@@P6AXPAE0_NHPBEHQAPBEQAH4H@Z@std@@@std@@@std@@@1@AAU?$pair@$$CBV?$tuple@HHHW4arch_t@@@std@@P6AXPAE0_NHPBEHQAPBEQAH4H@Z@1@PAU?$_Tree_node@U?$pair@$$CBV?$tuple@HHHW4arch_t@@@std@@P6AXPAE0_NHPBEHQAPBEQAH4H@Z@std@@PAX@1@@Z DD 00H
	DD	00H
	DD	01H
	DD	01H
	DD	FLAT:__catchsym$??$_Insert_hint@AAU?$pair@$$CBV?$tuple@HHHW4arch_t@@@std@@P6AXPAE0_NHPBEHQAPBEQAH4H@Z@std@@PAU?$_Tree_node@U?$pair@$$CBV?$tuple@HHHW4arch_t@@@std@@P6AXPAE0_NHPBEHQAPBEQAH4H@Z@std@@PAX@2@@?$_Tree@V?$_Tmap_traits@V?$tuple@HHHW4arch_t@@@std@@P6AXPAE0_NHPBEHQAPBEQAH4H@ZU?$less@V?$tuple@HHHW4arch_t@@@std@@@2@V?$allocator@U?$pair@$$CBV?$tuple@HHHW4arch_t@@@std@@P6AXPAE0_NHPBEHQAPBEQAH4H@Z@std@@@2@$0A@@std@@@std@@IAE?AV?$_Tree_iterator@V?$_Tree_val@U?$_Tree_simple_types@U?$pair@$$CBV?$tuple@HHHW4arch_t@@@std@@P6AXPAE0_NHPBEHQAPBEQAH4H@Z@std@@@std@@@std@@@1@V?$_Tree_const_iterator@V?$_Tree_val@U?$_Tree_simple_types@U?$pair@$$CBV?$tuple@HHHW4arch_t@@@std@@P6AXPAE0_NHPBEHQAPBEQAH4H@Z@std@@@std@@@std@@@1@AAU?$pair@$$CBV?$tuple@HHHW4arch_t@@@std@@P6AXPAE0_NHPBEHQAPBEQAH4H@Z@1@PAU?$_Tree_node@U?$pair@$$CBV?$tuple@HHHW4arch_t@@@std@@P6AXPAE0_NHPBEHQAPBEQAH4H@Z@std@@PAX@1@@Z$120
__catchsym$??$_Insert_hint@AAU?$pair@$$CBV?$tuple@HHHW4arch_t@@@std@@P6AXPAE0_NHPBEHQAPBEQAH4H@Z@std@@PAU?$_Tree_node@U?$pair@$$CBV?$tuple@HHHW4arch_t@@@std@@P6AXPAE0_NHPBEHQAPBEQAH4H@Z@std@@PAX@2@@?$_Tree@V?$_Tmap_traits@V?$tuple@HHHW4arch_t@@@std@@P6AXPAE0_NHPBEHQAPBEQAH4H@ZU?$less@V?$tuple@HHHW4arch_t@@@std@@@2@V?$allocator@U?$pair@$$CBV?$tuple@HHHW4arch_t@@@std@@P6AXPAE0_NHPBEHQAPBEQAH4H@Z@std@@@2@$0A@@std@@@std@@IAE?AV?$_Tree_iterator@V?$_Tree_val@U?$_Tree_simple_types@U?$pair@$$CBV?$tuple@HHHW4arch_t@@@std@@P6AXPAE0_NHPBEHQAPBEQAH4H@Z@std@@@std@@@std@@@1@V?$_Tree_const_iterator@V?$_Tree_val@U?$_Tree_simple_types@U?$pair@$$CBV?$tuple@HHHW4arch_t@@@std@@P6AXPAE0_NHPBEHQAPBEQAH4H@Z@std@@@std@@@std@@@1@AAU?$pair@$$CBV?$tuple@HHHW4arch_t@@@std@@P6AXPAE0_NHPBEHQAPBEQAH4H@Z@1@PAU?$_Tree_node@U?$pair@$$CBV?$tuple@HHHW4arch_t@@@std@@P6AXPAE0_NHPBEHQAPBEQAH4H@Z@std@@PAX@1@@Z$120 DD 040H
	DD	00H
	DD	00H
	DD	FLAT:__catch$??$_Insert_hint@AAU?$pair@$$CBV?$tuple@HHHW4arch_t@@@std@@P6AXPAE0_NHPBEHQAPBEQAH4H@Z@std@@PAU?$_Tree_node@U?$pair@$$CBV?$tuple@HHHW4arch_t@@@std@@P6AXPAE0_NHPBEHQAPBEQAH4H@Z@std@@PAX@2@@?$_Tree@V?$_Tmap_traits@V?$tuple@HHHW4arch_t@@@std@@P6AXPAE0_NHPBEHQAPBEQAH4H@ZU?$less@V?$tuple@HHHW4arch_t@@@std@@@2@V?$allocator@U?$pair@$$CBV?$tuple@HHHW4arch_t@@@std@@P6AXPAE0_NHPBEHQAPBEQAH4H@Z@std@@@2@$0A@@std@@@std@@IAE?AV?$_Tree_iterator@V?$_Tree_val@U?$_Tree_simple_types@U?$pair@$$CBV?$tuple@HHHW4arch_t@@@std@@P6AXPAE0_NHPBEHQAPBEQAH4H@Z@std@@@std@@@std@@@1@V?$_Tree_const_iterator@V?$_Tree_val@U?$_Tree_simple_types@U?$pair@$$CBV?$tuple@HHHW4arch_t@@@std@@P6AXPAE0_NHPBEHQAPBEQAH4H@Z@std@@@std@@@std@@@1@AAU?$pair@$$CBV?$tuple@HHHW4arch_t@@@std@@P6AXPAE0_NHPBEHQAPBEQAH4H@Z@1@PAU?$_Tree_node@U?$pair@$$CBV?$tuple@HHHW4arch_t@@@std@@P6AXPAE0_NHPBEHQAPBEQAH4H@Z@std@@PAX@1@@Z$0
xdata$x	ENDS
;	COMDAT xdata$x
xdata$x	SEGMENT
__ehfuncinfo$??$_Insert_nohint@AAU?$pair@$$CBV?$tuple@HHHW4arch_t@@@std@@P6AXPAE0_NHPBEHQAPBEQAH4H@Z@std@@PAU?$_Tree_node@U?$pair@$$CBV?$tuple@HHHW4arch_t@@@std@@P6AXPAE0_NHPBEHQAPBEQAH4H@Z@std@@PAX@2@@?$_Tree@V?$_Tmap_traits@V?$tuple@HHHW4arch_t@@@std@@P6AXPAE0_NHPBEHQAPBEQAH4H@ZU?$less@V?$tuple@HHHW4arch_t@@@std@@@2@V?$allocator@U?$pair@$$CBV?$tuple@HHHW4arch_t@@@std@@P6AXPAE0_NHPBEHQAPBEQAH4H@Z@std@@@2@$0A@@std@@@std@@IAE?AU?$pair@V?$_Tree_iterator@V?$_Tree_val@U?$_Tree_simple_types@U?$pair@$$CBV?$tuple@HHHW4arch_t@@@std@@P6AXPAE0_NHPBEHQAPBEQAH4H@Z@std@@@std@@@std@@@std@@_N@1@_NAAU?$pair@$$CBV?$tuple@HHHW4arch_t@@@std@@P6AXPAE0_NHPBEHQAPBEQAH4H@Z@1@PAU?$_Tree_node@U?$pair@$$CBV?$tuple@HHHW4arch_t@@@std@@P6AXPAE0_NHPBEHQAPBEQAH4H@Z@std@@PAX@1@@Z DD 019930522H
	DD	02H
	DD	FLAT:__unwindtable$??$_Insert_nohint@AAU?$pair@$$CBV?$tuple@HHHW4arch_t@@@std@@P6AXPAE0_NHPBEHQAPBEQAH4H@Z@std@@PAU?$_Tree_node@U?$pair@$$CBV?$tuple@HHHW4arch_t@@@std@@P6AXPAE0_NHPBEHQAPBEQAH4H@Z@std@@PAX@2@@?$_Tree@V?$_Tmap_traits@V?$tuple@HHHW4arch_t@@@std@@P6AXPAE0_NHPBEHQAPBEQAH4H@ZU?$less@V?$tuple@HHHW4arch_t@@@std@@@2@V?$allocator@U?$pair@$$CBV?$tuple@HHHW4arch_t@@@std@@P6AXPAE0_NHPBEHQAPBEQAH4H@Z@std@@@2@$0A@@std@@@std@@IAE?AU?$pair@V?$_Tree_iterator@V?$_Tree_val@U?$_Tree_simple_types@U?$pair@$$CBV?$tuple@HHHW4arch_t@@@std@@P6AXPAE0_NHPBEHQAPBEQAH4H@Z@std@@@std@@@std@@@std@@_N@1@_NAAU?$pair@$$CBV?$tuple@HHHW4arch_t@@@std@@P6AXPAE0_NHPBEHQAPBEQAH4H@Z@1@PAU?$_Tree_node@U?$pair@$$CBV?$tuple@HHHW4arch_t@@@std@@P6AXPAE0_NHPBEHQAPBEQAH4H@Z@std@@PAX@1@@Z
	DD	01H
	DD	FLAT:__tryblocktable$??$_Insert_nohint@AAU?$pair@$$CBV?$tuple@HHHW4arch_t@@@std@@P6AXPAE0_NHPBEHQAPBEQAH4H@Z@std@@PAU?$_Tree_node@U?$pair@$$CBV?$tuple@HHHW4arch_t@@@std@@P6AXPAE0_NHPBEHQAPBEQAH4H@Z@std@@PAX@2@@?$_Tree@V?$_Tmap_traits@V?$tuple@HHHW4arch_t@@@std@@P6AXPAE0_NHPBEHQAPBEQAH4H@ZU?$less@V?$tuple@HHHW4arch_t@@@std@@@2@V?$allocator@U?$pair@$$CBV?$tuple@HHHW4arch_t@@@std@@P6AXPAE0_NHPBEHQAPBEQAH4H@Z@std@@@2@$0A@@std@@@std@@IAE?AU?$pair@V?$_Tree_iterator@V?$_Tree_val@U?$_Tree_simple_types@U?$pair@$$CBV?$tuple@HHHW4arch_t@@@std@@P6AXPAE0_NHPBEHQAPBEQAH4H@Z@std@@@std@@@std@@@std@@_N@1@_NAAU?$pair@$$CBV?$tuple@HHHW4arch_t@@@std@@P6AXPAE0_NHPBEHQAPBEQAH4H@Z@1@PAU?$_Tree_node@U?$pair@$$CBV?$tuple@HHHW4arch_t@@@std@@P6AXPAE0_NHPBEHQAPBEQAH4H@Z@std@@PAX@1@@Z
	DD	2 DUP(00H)
	DD	00H
	DD	01H
__unwindtable$??$_Insert_nohint@AAU?$pair@$$CBV?$tuple@HHHW4arch_t@@@std@@P6AXPAE0_NHPBEHQAPBEQAH4H@Z@std@@PAU?$_Tree_node@U?$pair@$$CBV?$tuple@HHHW4arch_t@@@std@@P6AXPAE0_NHPBEHQAPBEQAH4H@Z@std@@PAX@2@@?$_Tree@V?$_Tmap_traits@V?$tuple@HHHW4arch_t@@@std@@P6AXPAE0_NHPBEHQAPBEQAH4H@ZU?$less@V?$tuple@HHHW4arch_t@@@std@@@2@V?$allocator@U?$pair@$$CBV?$tuple@HHHW4arch_t@@@std@@P6AXPAE0_NHPBEHQAPBEQAH4H@Z@std@@@2@$0A@@std@@@std@@IAE?AU?$pair@V?$_Tree_iterator@V?$_Tree_val@U?$_Tree_simple_types@U?$pair@$$CBV?$tuple@HHHW4arch_t@@@std@@P6AXPAE0_NHPBEHQAPBEQAH4H@Z@std@@@std@@@std@@@std@@_N@1@_NAAU?$pair@$$CBV?$tuple@HHHW4arch_t@@@std@@P6AXPAE0_NHPBEHQAPBEQAH4H@Z@1@PAU?$_Tree_node@U?$pair@$$CBV?$tuple@HHHW4arch_t@@@std@@P6AXPAE0_NHPBEHQAPBEQAH4H@Z@std@@PAX@1@@Z DD 0ffffffffH
	DD	00H
	DD	0ffffffffH
	DD	00H
__tryblocktable$??$_Insert_nohint@AAU?$pair@$$CBV?$tuple@HHHW4arch_t@@@std@@P6AXPAE0_NHPBEHQAPBEQAH4H@Z@std@@PAU?$_Tree_node@U?$pair@$$CBV?$tuple@HHHW4arch_t@@@std@@P6AXPAE0_NHPBEHQAPBEQAH4H@Z@std@@PAX@2@@?$_Tree@V?$_Tmap_traits@V?$tuple@HHHW4arch_t@@@std@@P6AXPAE0_NHPBEHQAPBEQAH4H@ZU?$less@V?$tuple@HHHW4arch_t@@@std@@@2@V?$allocator@U?$pair@$$CBV?$tuple@HHHW4arch_t@@@std@@P6AXPAE0_NHPBEHQAPBEQAH4H@Z@std@@@2@$0A@@std@@@std@@IAE?AU?$pair@V?$_Tree_iterator@V?$_Tree_val@U?$_Tree_simple_types@U?$pair@$$CBV?$tuple@HHHW4arch_t@@@std@@P6AXPAE0_NHPBEHQAPBEQAH4H@Z@std@@@std@@@std@@@std@@_N@1@_NAAU?$pair@$$CBV?$tuple@HHHW4arch_t@@@std@@P6AXPAE0_NHPBEHQAPBEQAH4H@Z@1@PAU?$_Tree_node@U?$pair@$$CBV?$tuple@HHHW4arch_t@@@std@@P6AXPAE0_NHPBEHQAPBEQAH4H@Z@std@@PAX@1@@Z DD 00H
	DD	00H
	DD	01H
	DD	01H
	DD	FLAT:__catchsym$??$_Insert_nohint@AAU?$pair@$$CBV?$tuple@HHHW4arch_t@@@std@@P6AXPAE0_NHPBEHQAPBEQAH4H@Z@std@@PAU?$_Tree_node@U?$pair@$$CBV?$tuple@HHHW4arch_t@@@std@@P6AXPAE0_NHPBEHQAPBEQAH4H@Z@std@@PAX@2@@?$_Tree@V?$_Tmap_traits@V?$tuple@HHHW4arch_t@@@std@@P6AXPAE0_NHPBEHQAPBEQAH4H@ZU?$less@V?$tuple@HHHW4arch_t@@@std@@@2@V?$allocator@U?$pair@$$CBV?$tuple@HHHW4arch_t@@@std@@P6AXPAE0_NHPBEHQAPBEQAH4H@Z@std@@@2@$0A@@std@@@std@@IAE?AU?$pair@V?$_Tree_iterator@V?$_Tree_val@U?$_Tree_simple_types@U?$pair@$$CBV?$tuple@HHHW4arch_t@@@std@@P6AXPAE0_NHPBEHQAPBEQAH4H@Z@std@@@std@@@std@@@std@@_N@1@_NAAU?$pair@$$CBV?$tuple@HHHW4arch_t@@@std@@P6AXPAE0_NHPBEHQAPBEQAH4H@Z@1@PAU?$_Tree_node@U?$pair@$$CBV?$tuple@HHHW4arch_t@@@std@@P6AXPAE0_NHPBEHQAPBEQAH4H@Z@std@@PAX@1@@Z$71
__catchsym$??$_Insert_nohint@AAU?$pair@$$CBV?$tuple@HHHW4arch_t@@@std@@P6AXPAE0_NHPBEHQAPBEQAH4H@Z@std@@PAU?$_Tree_node@U?$pair@$$CBV?$tuple@HHHW4arch_t@@@std@@P6AXPAE0_NHPBEHQAPBEQAH4H@Z@std@@PAX@2@@?$_Tree@V?$_Tmap_traits@V?$tuple@HHHW4arch_t@@@std@@P6AXPAE0_NHPBEHQAPBEQAH4H@ZU?$less@V?$tuple@HHHW4arch_t@@@std@@@2@V?$allocator@U?$pair@$$CBV?$tuple@HHHW4arch_t@@@std@@P6AXPAE0_NHPBEHQAPBEQAH4H@Z@std@@@2@$0A@@std@@@std@@IAE?AU?$pair@V?$_Tree_iterator@V?$_Tree_val@U?$_Tree_simple_types@U?$pair@$$CBV?$tuple@HHHW4arch_t@@@std@@P6AXPAE0_NHPBEHQAPBEQAH4H@Z@std@@@std@@@std@@@std@@_N@1@_NAAU?$pair@$$CBV?$tuple@HHHW4arch_t@@@std@@P6AXPAE0_NHPBEHQAPBEQAH4H@Z@1@PAU?$_Tree_node@U?$pair@$$CBV?$tuple@HHHW4arch_t@@@std@@P6AXPAE0_NHPBEHQAPBEQAH4H@Z@std@@PAX@1@@Z$71 DD 040H
	DD	00H
	DD	00H
	DD	FLAT:__catch$??$_Insert_nohint@AAU?$pair@$$CBV?$tuple@HHHW4arch_t@@@std@@P6AXPAE0_NHPBEHQAPBEQAH4H@Z@std@@PAU?$_Tree_node@U?$pair@$$CBV?$tuple@HHHW4arch_t@@@std@@P6AXPAE0_NHPBEHQAPBEQAH4H@Z@std@@PAX@2@@?$_Tree@V?$_Tmap_traits@V?$tuple@HHHW4arch_t@@@std@@P6AXPAE0_NHPBEHQAPBEQAH4H@ZU?$less@V?$tuple@HHHW4arch_t@@@std@@@2@V?$allocator@U?$pair@$$CBV?$tuple@HHHW4arch_t@@@std@@P6AXPAE0_NHPBEHQAPBEQAH4H@Z@std@@@2@$0A@@std@@@std@@IAE?AU?$pair@V?$_Tree_iterator@V?$_Tree_val@U?$_Tree_simple_types@U?$pair@$$CBV?$tuple@HHHW4arch_t@@@std@@P6AXPAE0_NHPBEHQAPBEQAH4H@Z@std@@@std@@@std@@@std@@_N@1@_NAAU?$pair@$$CBV?$tuple@HHHW4arch_t@@@std@@P6AXPAE0_NHPBEHQAPBEQAH4H@Z@1@PAU?$_Tree_node@U?$pair@$$CBV?$tuple@HHHW4arch_t@@@std@@P6AXPAE0_NHPBEHQAPBEQAH4H@Z@std@@PAX@1@@Z$0
; Function compile flags: /Ogtpy
; File c:\github\mvtools\sources\mdegrainn.cpp
; File c:\github\mvtools\sources\include\avisynth.h
; File c:\github\mvtools\sources\mdegrainn.cpp
; File c:\github\mvtools\sources\include\avisynth.h
; File c:\github\mvtools\sources\mdegrainn.cpp
; File c:\program files (x86)\microsoft visual studio 14.0\vc\include\vector
; File c:\github\mvtools\sources\mdegrainn.cpp
; File c:\github\mvtools\sources\include\avisynth.h
; File c:\github\mvtools\sources\mdegrainn.cpp
; File c:\github\mvtools\sources\include\avisynth.h
; File c:\github\mvtools\sources\mdegrainn.cpp
; File c:\program files (x86)\microsoft visual studio 14.0\vc\include\xmemory
; File c:\github\mvtools\sources\mdegrainn.cpp
; File c:\program files (x86)\microsoft visual studio 14.0\vc\include\vector
; File c:\github\mvtools\sources\mdegrainn.cpp
; File c:\program files (x86)\microsoft visual studio 14.0\vc\include\vector
; File c:\github\mvtools\sources\mdegrainn.cpp
; File c:\program files (x86)\microsoft visual studio 14.0\vc\include\vector
; File c:\github\mvtools\sources\mdegrainn.cpp
; File c:\github\mvtools\sources\sharedptr.hpp
; File c:\github\mvtools\sources\mdegrainn.cpp
; File c:\github\mvtools\sources\sharedptr.hpp
; File c:\github\mvtools\sources\mdegrainn.cpp
; File c:\github\mvtools\sources\sharedptr.hpp
; File c:\github\mvtools\sources\mdegrainn.cpp
; File c:\program files (x86)\microsoft visual studio 14.0\vc\include\vector
; File c:\github\mvtools\sources\sharedptr.hpp
; File c:\github\mvtools\sources\mdegrainn.cpp
; File c:\github\mvtools\sources\include\avisynth.h
; File c:\github\mvtools\sources\mdegrainn.cpp
; File c:\github\mvtools\sources\include\avisynth.h
; File c:\github\mvtools\sources\mdegrainn.cpp
; File c:\github\mvtools\sources\include\avisynth.h
; File c:\github\mvtools\sources\mdegrainn.cpp
; File c:\github\mvtools\sources\include\avisynth.h
; File c:\github\mvtools\sources\mdegrainn.cpp
; File c:\program files (x86)\microsoft visual studio 14.0\vc\include\vector
; File c:\github\mvtools\sources\mdegrainn.cpp
; File c:\program files (x86)\microsoft visual studio 14.0\vc\include\vector
; File c:\github\mvtools\sources\mdegrainn.cpp
; File c:\github\mvtools\sources\sharedptr.hpp
; File c:\github\mvtools\sources\mvgroupofframes.cpp
; File c:\github\mvtools\sources\mvframe.cpp
; File c:\github\mvtools\sources\mvgroupofframes.cpp
; File c:\github\mvtools\sources\sharedptr.hpp
; File c:\github\mvtools\sources\mdegrainn.cpp
; File c:\github\mvtools\sources\yuy2planes.cpp
; File c:\program files (x86)\microsoft visual studio 14.0\vc\include\xmemory
; File c:\github\mvtools\sources\yuy2planes.cpp
; File c:\program files (x86)\microsoft visual studio 14.0\vc\include\xmemory
; File c:\github\mvtools\sources\yuy2planes.cpp
; File c:\github\mvtools\sources\mdegrainn.cpp
; File c:\program files (x86)\microsoft visual studio 14.0\vc\include\xmemory
; File c:\github\mvtools\sources\mdegrainn.cpp
; File c:\github\mvtools\sources\yuy2planes.cpp
; File c:\program files (x86)\microsoft visual studio 14.0\vc\include\xmemory
; File c:\github\mvtools\sources\yuy2planes.cpp
; File c:\program files (x86)\microsoft visual studio 14.0\vc\include\xmemory
; File c:\github\mvtools\sources\mdegrainn.cpp
; File c:\program files (x86)\microsoft visual studio 14.0\vc\include\xmemory
; File c:\github\mvtools\sources\overlap.cpp
; File c:\github\mvtools\sources\mdegrainn.cpp
; File c:\program files (x86)\microsoft visual studio 14.0\vc\include\xmemory
; File c:\github\mvtools\sources\mdegrainn.cpp
; File c:\program files (x86)\microsoft visual studio 14.0\vc\include\xmemory
; File c:\github\mvtools\sources\overlap.cpp
; File c:\program files (x86)\microsoft visual studio 14.0\vc\include\xmemory
; File c:\github\mvtools\sources\mdegrainn.cpp
; File c:\github\mvtools\sources\include\avisynth.h
; File c:\github\mvtools\sources\mdegrainn.cpp
;	COMDAT ??0MDegrainN@@QAE@VPClip@@00HHHHHHHH_N11HH1PAVIScriptEnvironment@@@Z
_TEXT	SEGMENT
_txt_0$2 = -168						; size = 128
$T3 = -40						; size = 4
_thsadc$2$ = -36					; size = 4
_thsadc2$2$ = -32					; size = 4
_c_info$1$ = -28					; size = 4
_nHeightS$1$ = -24					; size = 4
$T4 = -20						; size = 4
_thsad$2$ = -20						; size = 4
_this$ = -16						; size = 4
__$EHRec$ = -12						; size = 12
_child$ = 8						; size = 4
_super$ = 12						; size = 4
_mvmulti$ = 16						; size = 4
_i$1$ = 20						; size = 4
$T5 = 20						; size = 4
$T6 = 20						; size = 4
_thsadc$1$ = 20						; size = 4
_trad$ = 20						; size = 4
_nSuperVPad$1$ = 24					; size = 4
_thsad$ = 24						; size = 4
_nSuperLevels$1$ = 28					; size = 4
_thsadc$ = 28						; size = 4
tv2851 = 32						; size = 4
_k$1$ = 32						; size = 4
_thsad2$1$ = 32						; size = 4
_yuvplanes$ = 32					; size = 4
_this$1$ = 36						; size = 4
_vi_super$1$ = 36					; size = 4
_nlimit$ = 36						; size = 4
_nSuperHPad$1$ = 40					; size = 4
$T7 = 40						; size = 4
_nlimitc$ = 40						; size = 4
_k$1$ = 44						; size = 4
_thsad$1$ = 44						; size = 4
_nscd1$ = 44						; size = 4
_nSuperPel$1$ = 48					; size = 4
_nscd2$ = 48						; size = 4
tv2859 = 52						; size = 4
_isse_flag$ = 52					; size = 1
$T8 = 56						; size = 4
$T9 = 56						; size = 4
tv2852 = 56						; size = 4
tv2679 = 56						; size = 4
$T10 = 56						; size = 4
$T11 = 56						; size = 4
$T12 = 56						; size = 4
$T13 = 56						; size = 4
_planar_flag$ = 56					; size = 1
_lsb_flag$ = 60						; size = 1
$T14 = 64						; size = 4
_thsad2$ = 64						; size = 4
_thsad2$2$ = 68						; size = 4
_thsadc2$ = 68						; size = 4
_mt_flag$ = 72						; size = 1
_env_ptr$ = 76						; size = 4
??0MDegrainN@@QAE@VPClip@@00HHHHHHHH_N11HH1PAVIScriptEnvironment@@@Z PROC ; MDegrainN::MDegrainN, COMDAT
; _this$ = ecx

; 440  : {

	push	ebp
	mov	ebp, esp
	push	-1
	push	__ehhandler$??0MDegrainN@@QAE@VPClip@@00HHHHHHHH_N11HH1PAVIScriptEnvironment@@@Z
	mov	eax, DWORD PTR fs:0
	push	eax
	mov	DWORD PTR fs:0, esp
	sub	esp, 156				; 0000009cH
	push	ebx
	push	esi
	mov	ebx, ecx
	push	edi
	mov	DWORD PTR _this$[ebp], ebx
	mov	DWORD PTR __$EHRec$[ebp+8], 2
; File c:\github\mvtools\sources\include\avisynth.h

; 937  :   PClip(const PClip& x) AVS_BakedCode( AVS_LinkCall(PClip_CONSTRUCTOR1)(x) )

	mov	eax, DWORD PTR ?AVS_linkage@@3PBUAVS_Linkage@@B ; AVS_linkage
; File c:\github\mvtools\sources\mdegrainn.cpp

; 398  :   : GenericVideoFilter(child)

	push	ecx
	mov	ecx, esp
; File c:\github\mvtools\sources\include\avisynth.h

; 937  :   PClip(const PClip& x) AVS_BakedCode( AVS_LinkCall(PClip_CONSTRUCTOR1)(x) )

	test	eax, eax
	je	SHORT $LN79@MDegrainN
	cmp	DWORD PTR [eax], 232			; 000000e8H
	jbe	SHORT $LN79@MDegrainN
	mov	eax, DWORD PTR [eax+232]
	lea	edx, DWORD PTR _child$[ebp]
	push	edx
	call	eax
$LN79@MDegrainN:
; File c:\github\mvtools\sources\mdegrainn.cpp

; 398  :   : GenericVideoFilter(child)

	mov	ecx, ebx
	call	??0GenericVideoFilter@@QAE@VPClip@@@Z	; GenericVideoFilter::GenericVideoFilter

; 399  :   , MVFilter(mvmulti, "MDegrainN", env_ptr, 1, 0)

	mov	edi, DWORD PTR _env_ptr$[ebp]
	lea	ecx, DWORD PTR _mvmulti$[ebp]
	push	0
	push	1
	push	edi
	push	OFFSET ??_C@_09KKHAFLDJ@MDegrainN?$AA@
	push	ecx
	lea	ecx, DWORD PTR [ebx+64]
	mov	BYTE PTR __$EHRec$[ebp+8], 3
	call	??0MVFilter@@IAE@ABVPClip@@PBDPAVIScriptEnvironment@@HH@Z ; MVFilter::MVFilter

; 400  :   , _mv_clip_arr()

	lea	eax, DWORD PTR [ebx+152]

; 440  : {

	mov	DWORD PTR [ebx], OFFSET ??_7MDegrainN@@6B@
	mov	DWORD PTR $T4[ebp], eax
; File c:\program files (x86)\microsoft visual studio 14.0\vc\include\vector

; 485  : 		: _Myfirst(),

	mov	DWORD PTR [eax], 0

; 486  : 		_Mylast(),

	mov	DWORD PTR [eax+4], 0

; 487  : 		_Myend()

	mov	DWORD PTR [eax+8], 0
; File c:\github\mvtools\sources\mdegrainn.cpp

; 402  :   , _yuvplanes(yuvplanes)

	mov	eax, DWORD PTR _yuvplanes$[ebp]

; 403  :   , _nlimit(nlimit)
; 404  :   , _nlimitc(nlimitc)
; 405  :   , _super(super)

	lea	ecx, DWORD PTR [ebx+180]
	mov	esi, DWORD PTR _trad$[ebp]
	mov	BYTE PTR __$EHRec$[ebp+8], 4
	mov	DWORD PTR [ebx+168], eax
	mov	eax, DWORD PTR _nlimit$[ebp]
	mov	DWORD PTR [ebx+172], eax
	mov	eax, DWORD PTR _nlimitc$[ebp]
	mov	DWORD PTR [ebx+176], eax
; File c:\github\mvtools\sources\include\avisynth.h

; 937  :   PClip(const PClip& x) AVS_BakedCode( AVS_LinkCall(PClip_CONSTRUCTOR1)(x) )

	mov	eax, DWORD PTR ?AVS_linkage@@3PBUAVS_Linkage@@B ; AVS_linkage
; File c:\github\mvtools\sources\mdegrainn.cpp

; 401  :   , _trad(trad)

	mov	DWORD PTR [ebx+164], esi

; 403  :   , _nlimit(nlimit)
; 404  :   , _nlimitc(nlimitc)
; 405  :   , _super(super)

	mov	DWORD PTR _this$1$[ebp], ecx
; File c:\github\mvtools\sources\include\avisynth.h

; 937  :   PClip(const PClip& x) AVS_BakedCode( AVS_LinkCall(PClip_CONSTRUCTOR1)(x) )

	test	eax, eax
	je	SHORT $LN92@MDegrainN
	cmp	DWORD PTR [eax], 232			; 000000e8H
	jbe	SHORT $LN92@MDegrainN
	mov	eax, DWORD PTR [eax+232]
	lea	edx, DWORD PTR _super$[ebp]
	push	edx
	call	eax
$LN92@MDegrainN:
; File c:\github\mvtools\sources\mdegrainn.cpp

; 406  :   , _isse_flag(isse_flag)

	mov	al, BYTE PTR _isse_flag$[ebp]

; 407  :   , _planar_flag(planar_flag)
; 408  :   , _lsb_flag(lsb_flag)

	mov	cl, BYTE PTR _lsb_flag$[ebp]
	mov	BYTE PTR [ebx+184], al
	mov	al, BYTE PTR _planar_flag$[ebp]
	mov	BYTE PTR [ebx+185], al

; 409  :   , _mt_flag(mt_flag)

	mov	eax, DWORD PTR _mt_flag$[ebp]
	mov	BYTE PTR [ebx+187], al

; 410  :   , _height_lsb_mul((lsb_flag) ? 2 : 1)

	xor	eax, eax
	test	cl, cl
	mov	BYTE PTR [ebx+186], cl

; 411  :   , _xratiouv_log((xRatioUV == 2) ? 1 : 0)
; 412  :   , _yratiouv_log((yRatioUV == 2) ? 1 : 0)
; 413  :   , _nsupermodeyuv(-1)

	mov	DWORD PTR [ebx+208], -1
	setne	al
	inc	eax
	mov	DWORD PTR [ebx+188], eax
	xor	eax, eax
	cmp	DWORD PTR [ebx+120], 2
	sete	al
	mov	DWORD PTR [ebx+200], eax
	xor	eax, eax
	cmp	DWORD PTR [ebx+124], 2
	sete	al
	mov	DWORD PTR [ebx+204], eax
; File c:\program files (x86)\microsoft visual studio 14.0\vc\include\xmemory

; 697  : 		: _Myptr(_Ptr)

	mov	DWORD PTR [ebx+212], 0
	mov	DWORD PTR [ebx+216], 0
	mov	DWORD PTR [ebx+220], 0
	mov	DWORD PTR [ebx+224], 0
; File c:\github\mvtools\sources\mdegrainn.cpp

; 418  :   , _oversluma_ptr(0)

	mov	DWORD PTR [ebx+228], 0

; 419  :   , _overschroma_ptr(0)

	mov	DWORD PTR [ebx+232], 0

; 420  :   , _oversluma16_ptr(0)

	mov	DWORD PTR [ebx+236], 0

; 421  :   , _overschroma16_ptr(0)

	mov	DWORD PTR [ebx+240], 0

; 422  :   , _oversluma_lsb_ptr(0)

	mov	DWORD PTR [ebx+244], 0

; 423  :   , _overschroma_lsb_ptr(0)

	mov	DWORD PTR [ebx+248], 0

; 424  :   , _degrainluma_ptr(0)

	mov	DWORD PTR [ebx+252], 0

; 425  :   , _degrainchroma_ptr(0)

	mov	DWORD PTR [ebx+256], 0
; File c:\program files (x86)\microsoft visual studio 14.0\vc\include\vector

; 485  : 		: _Myfirst(),

	mov	DWORD PTR [ebx+260], 0

; 486  : 		_Mylast(),

	mov	DWORD PTR [ebx+264], 0

; 487  : 		_Myend()

	mov	DWORD PTR [ebx+268], 0
; File c:\github\mvtools\sources\mdegrainn.cpp

; 427  :   , _dst_short_pitch()

	mov	DWORD PTR [ebx+272], 0
; File c:\program files (x86)\microsoft visual studio 14.0\vc\include\vector

; 485  : 		: _Myfirst(),

	mov	DWORD PTR [ebx+276], 0

; 486  : 		_Mylast(),

	mov	DWORD PTR [ebx+280], 0

; 487  : 		_Myend()

	mov	DWORD PTR [ebx+284], 0
; File c:\github\mvtools\sources\mdegrainn.cpp

; 429  :   , _dst_int_pitch()

	mov	DWORD PTR [ebx+288], 0

; 430  :   //,	_usable_flag_arr ()
; 431  :   //,	_planes_ptr ()
; 432  :   //,	_dst_ptr_arr ()
; 433  :   //,	_src_ptr_arr ()
; 434  :   //,	_dst_pitch_arr ()
; 435  :   //,	_src_pitch_arr ()
; 436  :   //,	_lsb_offset_arr ()
; 437  :   , _covered_width(0)

	mov	DWORD PTR [ebx+3680], 0

; 438  :   , _covered_height(0)

	mov	DWORD PTR [ebx+3684], 0
; File c:\program files (x86)\microsoft visual studio 14.0\vc\include\vector

; 485  : 		: _Myfirst(),

	mov	DWORD PTR [ebx+3688], 0

; 486  : 		_Mylast(),

	mov	DWORD PTR [ebx+3692], 0

; 487  : 		_Myend()

	mov	DWORD PTR [ebx+3696], 0
; File c:\github\mvtools\sources\mdegrainn.cpp

; 439  :   , _boundary_cnt_arr()

	mov	BYTE PTR __$EHRec$[ebp+8], 12		; 0000000cH

; 441  :   if (trad > MAX_TEMP_RAD)

	cmp	esi, 128				; 00000080H
	jle	SHORT $LN8@MDegrainN

; 442  :   {
; 443  :     env_ptr->ThrowError(

	mov	eax, DWORD PTR [edi]
	push	128					; 00000080H
	push	OFFSET ??_C@_0CO@DEKDPFLP@MDegrainN?3?5temporal?5radius?5too?5l@
	push	edi
	call	DWORD PTR [eax+20]
	add	esp, 12					; 0000000cH
	jmp	SHORT $LN10@MDegrainN
$LN8@MDegrainN:

; 444  :       "MDegrainN: temporal radius too large (max %d)",
; 445  :       MAX_TEMP_RAD
; 446  :     );
; 447  :   }
; 448  :   else if (trad < 1)

	cmp	esi, 1
	jge	SHORT $LN10@MDegrainN

; 449  :   {
; 450  :     env_ptr->ThrowError("MDegrainN: temporal radius must be at least 1.");

	mov	eax, DWORD PTR [edi]
	push	OFFSET ??_C@_0CP@EGMOGFCC@MDegrainN?3?5temporal?5radius?5must?5@
	push	edi
	call	DWORD PTR [eax+20]
	add	esp, 8
$LN10@MDegrainN:

; 451  :   }
; 452  : 
; 453  :   _mv_clip_arr.resize(_trad * 2);

	mov	eax, DWORD PTR [ebx+164]
	lea	ecx, DWORD PTR [ebx+152]
	add	eax, eax
	push	eax
	call	?resize@?$vector@VMvClipInfo@MDegrainN@@V?$allocator@VMvClipInfo@MDegrainN@@@std@@@std@@QAEXI@Z ; std::vector<MDegrainN::MvClipInfo,std::allocator<MDegrainN::MvClipInfo> >::resize

; 454  :   for (int k = 0; k < _trad * 2; ++k)

	mov	eax, DWORD PTR [ebx+164]
	xor	esi, esi
	add	eax, eax
	mov	DWORD PTR _k$1$[ebp], esi
	test	eax, eax
	jle	$LN3@MDegrainN

; 451  :   }
; 452  : 
; 453  :   _mv_clip_arr.resize(_trad * 2);

	mov	DWORD PTR tv2852[ebp], esi
	jmp	SHORT $LN4@MDegrainN
	npad	8
$LL473@MDegrainN:
	mov	edi, DWORD PTR _env_ptr$[ebp]
$LN4@MDegrainN:

; 456  :     _mv_clip_arr[k]._clip_sptr = SharedPtr <MVClip>(

	push	240					; 000000f0H
	call	??2@YAPAXI@Z				; operator new
	mov	ecx, eax
	add	esp, 4
	mov	DWORD PTR $T7[ebp], ecx
	push	esi
	mov	BYTE PTR __$EHRec$[ebp+8], 13		; 0000000dH
	mov	eax, DWORD PTR [ebx+164]
	add	eax, eax
	push	eax
	push	edi
	push	DWORD PTR _nscd2$[ebp]
	lea	eax, DWORD PTR _mvmulti$[ebp]
	push	DWORD PTR _nscd1$[ebp]
	push	eax
	call	??0MVClip@@QAE@ABVPClip@@HHPAVIScriptEnvironment@@HH@Z ; MVClip::MVClip
	mov	ecx, eax
	mov	BYTE PTR __$EHRec$[ebp+8], 12		; 0000000cH
	mov	DWORD PTR $T6[ebp], ecx
; File c:\github\mvtools\sources\sharedptr.hpp

; 46   : ,	_count_ptr ((ptr != 0) ? new long (1) : 0)

	test	ecx, ecx
	je	SHORT $LN137@MDegrainN
	push	4
	call	??2@YAPAXI@Z				; operator new
	mov	ecx, DWORD PTR $T6[ebp]
	mov	edi, eax
	add	esp, 4
	mov	DWORD PTR [edi], 1
	jmp	SHORT $LN138@MDegrainN
$LN137@MDegrainN:
	xor	edi, edi
$LN138@MDegrainN:
; File c:\github\mvtools\sources\mdegrainn.cpp

; 456  :     _mv_clip_arr[k]._clip_sptr = SharedPtr <MVClip>(

	mov	esi, DWORD PTR [ebx+152]
	add	esi, DWORD PTR tv2852[ebp]
; File c:\github\mvtools\sources\sharedptr.hpp

; 81   : 	if (other._obj_ptr != _obj_ptr)

	mov	eax, DWORD PTR [esi]
	cmp	ecx, eax
	je	SHORT $LN160@MDegrainN

; 284  : 	if (_obj_ptr != 0)

	test	eax, eax
	je	SHORT $LN155@MDegrainN

; 285  : 	{
; 286  : 		-- *_count_ptr;

	mov	eax, DWORD PTR [esi+4]
	dec	DWORD PTR [eax]

; 287  : 		
; 288  : 		if (*_count_ptr == 0)

	mov	eax, DWORD PTR [esi+4]
	cmp	DWORD PTR [eax], 0
	jne	SHORT $LN155@MDegrainN

; 289  : 		{
; 290  : 			delete _obj_ptr;

	mov	ecx, DWORD PTR [esi]
	test	ecx, ecx
	je	SHORT $LN157@MDegrainN
	mov	eax, DWORD PTR [ecx]
	push	1
	call	DWORD PTR [eax+24]
$LN157@MDegrainN:

; 293  : 			delete _count_ptr;

	push	4
	push	DWORD PTR [esi+4]
	mov	DWORD PTR [esi], 0
	call	??3@YAXPAXI@Z				; operator delete
	mov	ecx, DWORD PTR $T6[ebp]
	add	esp, 8

; 294  : 			_count_ptr = 0;

	mov	DWORD PTR [esi+4], 0
$LN155@MDegrainN:

; 84   : 		_obj_ptr = other._obj_ptr;

	mov	DWORD PTR [esi], ecx

; 85   : 		_count_ptr = other._count_ptr;

	mov	DWORD PTR [esi+4], edi

; 259  : 	if (_count_ptr != 0)

	test	edi, edi
	je	SHORT $LN160@MDegrainN

; 260  : 	{
; 261  : 		++ *_count_ptr;

	inc	DWORD PTR [edi]
$LN160@MDegrainN:

; 284  : 	if (_obj_ptr != 0)

	test	ecx, ecx
	je	SHORT $LN167@MDegrainN

; 285  : 	{
; 286  : 		-- *_count_ptr;

	add	DWORD PTR [edi], -1

; 287  : 		
; 288  : 		if (*_count_ptr == 0)

	jne	SHORT $LN167@MDegrainN

; 289  : 		{
; 290  : 			delete _obj_ptr;

	mov	eax, DWORD PTR [ecx]
	push	1
	call	DWORD PTR [eax+24]

; 293  : 			delete _count_ptr;

	push	4
	push	edi
	call	??3@YAXPAXI@Z				; operator delete
	add	esp, 8
$LN167@MDegrainN:
; File c:\github\mvtools\sources\mdegrainn.cpp

; 462  :     sprintf(txt_0, "%s%d", name_0[k & 1], 1 + k / 2);

	mov	esi, DWORD PTR _k$1$[ebp]
	mov	eax, esi
	cdq
	sub	eax, edx
	sar	eax, 1
	inc	eax
	push	eax
	mov	eax, esi
	and	eax, 1
	push	DWORD PTR ?name_0@?L@???0MDegrainN@@QAE@VPClip@@00HHHHHHHH_N11HH1PAVIScriptEnvironment@@@Z@4PAPBDA[eax*4]
	lea	eax, DWORD PTR _txt_0$2[ebp]
	push	OFFSET ??_C@_04HGGBINEM@?$CFs?$CFd?$AA@
	push	eax
	call	_sprintf
; File c:\github\mvtools\sources\sharedptr.hpp

; 181  : 	return (*_obj_ptr);

	mov	eax, DWORD PTR [ebx+152]
; File c:\github\mvtools\sources\mdegrainn.cpp

; 463  :     CheckSimilarity(*(_mv_clip_arr[k]._clip_sptr), txt_0, env_ptr);

	lea	ecx, DWORD PTR _txt_0$2[ebp]
	mov	edi, DWORD PTR tv2852[ebp]
	add	esp, 16					; 00000010H
	push	DWORD PTR _env_ptr$[ebp]
	push	ecx
	push	DWORD PTR [edi+eax]
	lea	ecx, DWORD PTR [ebx+64]
	call	?CheckSimilarity@MVFilter@@IAEXABVMVClip@@PBDPAVIScriptEnvironment@@@Z ; MVFilter::CheckSimilarity
	mov	eax, DWORD PTR [ebx+164]
	inc	esi
	add	edi, 24					; 00000018H
	mov	DWORD PTR _k$1$[ebp], esi
	add	eax, eax
	mov	DWORD PTR tv2852[ebp], edi
	cmp	esi, eax
	jl	$LL473@MDegrainN
$LN3@MDegrainN:
; File c:\program files (x86)\microsoft visual studio 14.0\vc\include\vector

; 1242 : 		return (*(this->_Myfirst() + _Pos));

	mov	eax, DWORD PTR $T4[ebp]
	mov	ecx, DWORD PTR [eax]
; File c:\github\mvtools\sources\sharedptr.hpp

; 171  : 	return (_obj_ptr);

	mov	ecx, DWORD PTR [ecx]
; File c:\github\mvtools\sources\mdegrainn.cpp

; 467  :   thsad = (uint64_t)thsad   * mv_thscd1 / nscd1;	// normalize to block SAD

	mov	eax, DWORD PTR [ecx+216]
	cdq
	mov	edi, eax
	mov	esi, edx
	mov	eax, DWORD PTR _nscd1$[ebp]
	cdq
	mov	DWORD PTR tv2679[ebp], eax
	mov	ebx, edx
	mov	eax, DWORD PTR _thsad$[ebp]
	push	esi
	cdq
	push	edi
	push	edx
	push	eax
	call	__allmul
	push	ebx
	push	DWORD PTR tv2679[ebp]
	push	edx
	push	eax
	call	__aulldiv
	mov	DWORD PTR _thsad$1$[ebp], eax

; 468  :   thsadc = (uint64_t)thsadc  * mv_thscd1 / nscd1;	// chroma

	mov	eax, DWORD PTR _thsadc$[ebp]
	push	esi
	cdq
	push	edi
	push	edx
	push	eax
	call	__allmul
	push	ebx
	push	DWORD PTR tv2679[ebp]
	push	edx
	push	eax
	call	__aulldiv
	mov	DWORD PTR _thsadc$1$[ebp], eax

; 469  :   thsad2 = (uint64_t)thsad2  * mv_thscd1 / nscd1;

	mov	eax, DWORD PTR _thsad2$[ebp]
	push	esi
	cdq
	push	edi
	push	edx
	push	eax
	call	__allmul
	push	ebx
	push	DWORD PTR tv2679[ebp]
	push	edx
	push	eax
	call	__aulldiv
	mov	DWORD PTR _thsad2$1$[ebp], eax

; 470  :   thsadc2 = (uint64_t)thsadc2 * mv_thscd1 / nscd1;

	mov	eax, DWORD PTR _thsadc2$[ebp]
	push	esi
	cdq
	push	edi
	push	edx
	push	eax
	call	__allmul
	push	ebx
	push	DWORD PTR tv2679[ebp]
	push	edx
	push	eax
	call	__aulldiv
; File c:\github\mvtools\sources\include\avisynth.h

; 942  :   IClip* operator->() const { return p; }

	mov	edx, DWORD PTR _this$1$[ebp]
; File c:\github\mvtools\sources\mdegrainn.cpp

; 470  :   thsadc2 = (uint64_t)thsadc2 * mv_thscd1 / nscd1;

	mov	esi, eax
; File c:\github\mvtools\sources\include\avisynth.h

; 942  :   IClip* operator->() const { return p; }

	mov	edx, DWORD PTR [edx]
	mov	ecx, DWORD PTR [edx]
	mov	ecx, DWORD PTR [ecx+20]
	cmp	ecx, OFFSET ?GetVideoInfo@GenericVideoFilter@@UAGABUVideoInfo@@XZ ; GenericVideoFilter::GetVideoInfo
	jne	SHORT $LN50@MDegrainN

; 1108 :   const VideoInfo& __stdcall GetVideoInfo() { return vi; }

	lea	ebx, DWORD PTR [edx+16]
	mov	DWORD PTR _vi_super$1$[ebp], ebx
	jmp	SHORT $LN49@MDegrainN
$LN50@MDegrainN:
	push	edx
; File c:\github\mvtools\sources\mdegrainn.cpp

; 472  :   const ::VideoInfo &vi_super = _super->GetVideoInfo();

	call	ecx
	mov	ebx, eax
	mov	DWORD PTR _vi_super$1$[ebp], eax
$LN49@MDegrainN:
; File c:\github\mvtools\sources\include\avisynth.h

; 692  :   int ComponentSize() const AVS_BakedCode(return AVS_LinkCallOptDefault(ComponentSize, 1))

	mov	eax, DWORD PTR ?AVS_linkage@@3PBUAVS_Linkage@@B ; AVS_linkage
	test	eax, eax
	je	SHORT $LN205@MDegrainN
	cmp	DWORD PTR [eax], 532			; 00000214H
	jbe	SHORT $LN205@MDegrainN
	mov	eax, DWORD PTR [eax+532]
	mov	ecx, ebx
	call	eax
	mov	ecx, eax
	mov	eax, DWORD PTR ?AVS_linkage@@3PBUAVS_Linkage@@B ; AVS_linkage
	jmp	SHORT $LN206@MDegrainN
$LN205@MDegrainN:
	mov	ecx, 1
$LN206@MDegrainN:
; File c:\github\mvtools\sources\mdegrainn.cpp

; 474  :   pixelsize_super = vi_super.ComponentSize(); // of MVFilter

	mov	edi, DWORD PTR _this$[ebp]
	mov	DWORD PTR [edi+192], ecx
; File c:\github\mvtools\sources\include\avisynth.h

; 695  :   int BitsPerComponent() const AVS_BakedCode(return AVS_LinkCallOptDefault(BitsPerComponent, 8))

	test	eax, eax
	je	SHORT $LN209@MDegrainN
	cmp	DWORD PTR [eax], 536			; 00000218H
	jbe	SHORT $LN209@MDegrainN
	mov	eax, DWORD PTR [eax+536]
	mov	ecx, ebx
	call	eax
	jmp	SHORT $LN210@MDegrainN
$LN209@MDegrainN:
	mov	eax, 8
$LN210@MDegrainN:
	movd	xmm0, DWORD PTR _thsad$1$[ebp]
; File c:\github\mvtools\sources\mdegrainn.cpp

; 488  :   thsad = sad_t(thsad / 255.0 * ((1 << bits_per_pixel) - 1));

	movsd	xmm1, QWORD PTR __real@406fe00000000000
	cvtdq2pd xmm0, xmm0
	mov	DWORD PTR [edi+196], eax
	mov	edx, DWORD PTR [ebx+32]
	mov	ecx, DWORD PTR [ebx+36]
	movzx	eax, dx
	mov	DWORD PTR _nHeightS$1$[ebp], eax
	mov	eax, edx
	shr	eax, 16					; 00000010H
	divsd	xmm0, xmm1
	movzx	eax, al
	mov	DWORD PTR _nSuperHPad$1$[ebp], eax
	movzx	eax, cl
	mov	DWORD PTR _nSuperPel$1$[ebp], eax
	mov	eax, ecx
	shr	eax, 16					; 00000010H
	movzx	eax, al
	mov	DWORD PTR _nSuperLevels$1$[ebp], eax
	shr	ecx, 8
	movzx	eax, cl
	mov	ecx, DWORD PTR [edi+140]
	mov	DWORD PTR [edi+208], eax
	mov	eax, 1
	shl	eax, cl
	dec	eax
	shr	edx, 24					; 00000018H
	mov	DWORD PTR _nSuperVPad$1$[ebp], edx

; 489  :   thsadc = sad_t(thsadc / 255.0 * ((1 << bits_per_pixel) - 1));
; 490  :   thsad2 = sad_t(thsad2 / 255.0 * ((1 << bits_per_pixel) - 1));
; 491  :   thsadc2 = sad_t(thsadc2 / 255.0 * ((1 << bits_per_pixel) - 1));
; 492  : 
; 493  :   for (int k = 0; k < _trad * 2; ++k)

	mov	DWORD PTR _k$1$[ebp], 0
	movd	xmm2, eax
	cvtdq2pd xmm2, xmm2
	mulsd	xmm0, xmm2
	cvttsd2si eax, xmm0
	movd	xmm0, DWORD PTR _thsadc$1$[ebp]
	cvtdq2pd xmm0, xmm0
	mov	DWORD PTR _thsad$2$[ebp], eax
	divsd	xmm0, xmm1
	mulsd	xmm0, xmm2
	cvttsd2si eax, xmm0
	movd	xmm0, DWORD PTR _thsad2$1$[ebp]
	cvtdq2pd xmm0, xmm0
	mov	DWORD PTR _thsadc$2$[ebp], eax
	divsd	xmm0, xmm1
	mulsd	xmm0, xmm2
	cvttsd2si eax, xmm0
	movd	xmm0, esi
	cvtdq2pd xmm0, xmm0
	mov	DWORD PTR _thsad2$2$[ebp], eax
	divsd	xmm0, xmm1
	mulsd	xmm0, xmm2
	cvttsd2si eax, xmm0
	mov	DWORD PTR _thsadc2$2$[ebp], eax
	mov	eax, DWORD PTR [edi+164]
	add	eax, eax
	test	eax, eax
	jle	$LN6@MDegrainN

; 475  :   bits_per_pixel_super = vi_super.BitsPerComponent();

	xor	edx, edx
	mov	DWORD PTR tv2851[ebp], edx
	npad	3
$LL7@MDegrainN:
; File c:\program files (x86)\microsoft visual studio 14.0\vc\include\vector

; 1242 : 		return (*(this->_Myfirst() + _Pos));

	mov	esi, DWORD PTR [edi+152]
	add	esi, edx
; File c:\github\mvtools\sources\mdegrainn.cpp

; 497  :     c_info._gof_sptr = SharedPtr <MVGroupOfFrames>(new MVGroupOfFrames(

	push	44					; 0000002cH
; File c:\program files (x86)\microsoft visual studio 14.0\vc\include\vector

; 1242 : 		return (*(this->_Myfirst() + _Pos));

	mov	DWORD PTR _c_info$1$[ebp], esi
; File c:\github\mvtools\sources\mdegrainn.cpp

; 497  :     c_info._gof_sptr = SharedPtr <MVGroupOfFrames>(new MVGroupOfFrames(

	call	??2@YAPAXI@Z				; operator new
	mov	ecx, eax
	add	esp, 4
	mov	DWORD PTR $T3[ebp], ecx
	push	DWORD PTR _mt_flag$[ebp]
	mov	BYTE PTR __$EHRec$[ebp+8], 14		; 0000000eH
	push	DWORD PTR [edi+196]
	movzx	eax, BYTE PTR [edi+184]
	push	DWORD PTR [edi+192]
	push	DWORD PTR [edi+124]
	push	DWORD PTR [edi+120]
	push	eax
	push	DWORD PTR [edi+208]
	push	DWORD PTR _nSuperVPad$1$[ebp]
	push	DWORD PTR _nSuperHPad$1$[ebp]
	push	DWORD PTR _nSuperPel$1$[ebp]
	push	DWORD PTR [edi+96]
	push	DWORD PTR [edi+92]
	push	DWORD PTR _nSuperLevels$1$[ebp]
	call	??0MVGroupOfFrames@@QAE@HHHHHHH_NHHHH0@Z ; MVGroupOfFrames::MVGroupOfFrames
	mov	ebx, eax
	mov	BYTE PTR __$EHRec$[ebp+8], 12		; 0000000cH
	mov	DWORD PTR $T14[ebp], ebx
; File c:\github\mvtools\sources\sharedptr.hpp

; 46   : ,	_count_ptr ((ptr != 0) ? new long (1) : 0)

	test	ebx, ebx
	je	SHORT $LN226@MDegrainN
	push	4
	call	??2@YAPAXI@Z				; operator new
	mov	ecx, eax
	add	esp, 4
	mov	DWORD PTR [ecx], 1
	jmp	SHORT $LN475@MDegrainN
$LN226@MDegrainN:
	xor	ecx, ecx
$LN475@MDegrainN:

; 81   : 	if (other._obj_ptr != _obj_ptr)

	mov	eax, DWORD PTR [esi+8]

; 46   : ,	_count_ptr ((ptr != 0) ? new long (1) : 0)

	mov	DWORD PTR $T8[ebp], ecx

; 81   : 	if (other._obj_ptr != _obj_ptr)

	cmp	ebx, eax
	je	SHORT $LN242@MDegrainN

; 284  : 	if (_obj_ptr != 0)

	test	eax, eax
	je	SHORT $LN233@MDegrainN

; 285  : 	{
; 286  : 		-- *_count_ptr;

	mov	eax, DWORD PTR [esi+12]
	dec	DWORD PTR [eax]

; 287  : 		
; 288  : 		if (*_count_ptr == 0)

	mov	eax, DWORD PTR [esi+12]
	cmp	DWORD PTR [eax], 0
	jne	SHORT $LN233@MDegrainN

; 289  : 		{
; 290  : 			delete _obj_ptr;

	mov	eax, DWORD PTR [esi+8]
	mov	DWORD PTR $T5[ebp], eax
	test	eax, eax
	je	SHORT $LN238@MDegrainN
	mov	ecx, eax
	call	??1MVGroupOfFrames@@QAE@XZ		; MVGroupOfFrames::~MVGroupOfFrames
	push	44					; 0000002cH
	push	DWORD PTR $T5[ebp]
	call	??3@YAXPAXI@Z				; operator delete
	add	esp, 8
$LN238@MDegrainN:

; 293  : 			delete _count_ptr;

	push	4
	push	DWORD PTR [esi+12]
	mov	DWORD PTR [esi+8], 0
	call	??3@YAXPAXI@Z				; operator delete
	mov	ecx, DWORD PTR $T8[ebp]
	add	esp, 8

; 294  : 			_count_ptr = 0;

	mov	DWORD PTR [esi+12], 0
$LN233@MDegrainN:

; 84   : 		_obj_ptr = other._obj_ptr;

	mov	DWORD PTR [esi+8], ebx

; 85   : 		_count_ptr = other._count_ptr;

	mov	DWORD PTR [esi+12], ecx

; 259  : 	if (_count_ptr != 0)

	test	ecx, ecx
	je	SHORT $LN242@MDegrainN

; 260  : 	{
; 261  : 		++ *_count_ptr;

	inc	DWORD PTR [ecx]
$LN242@MDegrainN:

; 284  : 	if (_obj_ptr != 0)

	test	ebx, ebx
	je	$LN249@MDegrainN

; 285  : 	{
; 286  : 		-- *_count_ptr;

	add	DWORD PTR [ecx], -1

; 287  : 		
; 288  : 		if (*_count_ptr == 0)

	jne	$LN249@MDegrainN
; File c:\github\mvtools\sources\mvgroupofframes.cpp

; 72   :    for ( int i = 0; i < nLevelCount; i++ )

	xor	ecx, ecx
	mov	DWORD PTR _i$1$[ebp], ecx
	cmp	DWORD PTR [ebx], ecx
	jle	$LN259@MDegrainN
	npad	4
$LL260@MDegrainN:

; 73   : 	{
; 74   :       delete pFrames[i];

	mov	eax, DWORD PTR [ebx+4]
	mov	esi, DWORD PTR [eax+ecx*4]
	test	esi, esi
	je	SHORT $LN258@MDegrainN
; File c:\github\mvtools\sources\mvframe.cpp

; 79   :    if ( nMode & YPLANE )

	test	BYTE PTR [esi+12], 1
	je	SHORT $LN282@MDegrainN

; 80   :       delete pYPlane;

	mov	ebx, DWORD PTR [esi]
	test	ebx, ebx
	je	SHORT $LN282@MDegrainN
	mov	ecx, ebx
	call	??1MVPlane@@QAE@XZ			; MVPlane::~MVPlane
	push	2088					; 00000828H
	push	ebx
	call	??3@YAXPAXI@Z				; operator delete
	add	esp, 8
$LN282@MDegrainN:

; 81   : 
; 82   :    if ( nMode & UPLANE )

	test	BYTE PTR [esi+12], 2
	je	SHORT $LN286@MDegrainN

; 83   :       delete pUPlane;

	mov	ebx, DWORD PTR [esi+4]
	test	ebx, ebx
	je	SHORT $LN286@MDegrainN
	mov	ecx, ebx
	call	??1MVPlane@@QAE@XZ			; MVPlane::~MVPlane
	push	2088					; 00000828H
	push	ebx
	call	??3@YAXPAXI@Z				; operator delete
	add	esp, 8
$LN286@MDegrainN:

; 84   : 
; 85   :    if ( nMode & VPLANE )

	test	BYTE PTR [esi+12], 4
	je	SHORT $LN290@MDegrainN

; 86   :       delete pVPlane;

	mov	ebx, DWORD PTR [esi+8]
	test	ebx, ebx
	je	SHORT $LN290@MDegrainN
	mov	ecx, ebx
	call	??1MVPlane@@QAE@XZ			; MVPlane::~MVPlane
	push	2088					; 00000828H
	push	ebx
	call	??3@YAXPAXI@Z				; operator delete
	add	esp, 8
$LN290@MDegrainN:
	push	36					; 00000024H
	push	esi
	call	??3@YAXPAXI@Z				; operator delete
	mov	ecx, DWORD PTR _i$1$[ebp]
	add	esp, 8
	mov	ebx, DWORD PTR $T14[ebp]
$LN258@MDegrainN:
; File c:\github\mvtools\sources\mvgroupofframes.cpp

; 72   :    for ( int i = 0; i < nLevelCount; i++ )

	inc	ecx
	mov	DWORD PTR _i$1$[ebp], ecx
	cmp	ecx, DWORD PTR [ebx]
	jl	$LL260@MDegrainN
$LN259@MDegrainN:

; 75   : 	}
; 76   : 
; 77   :    delete[] pFrames;

	push	DWORD PTR [ebx+4]
	call	??_V@YAXPAX@Z				; operator delete[]
	push	44					; 0000002cH
	push	ebx
	call	??3@YAXPAXI@Z				; operator delete
; File c:\github\mvtools\sources\sharedptr.hpp

; 293  : 			delete _count_ptr;

	push	4
	push	DWORD PTR $T8[ebp]
	call	??3@YAXPAXI@Z				; operator delete
	add	esp, 20					; 00000014H
$LN249@MDegrainN:
; File c:\github\mvtools\sources\mdegrainn.cpp

; 515  :     const int		d = k / 2 + 1;

	mov	eax, DWORD PTR _k$1$[ebp]

; 516  :     c_info._thsad = ClipFnc::interpolate_thsad(thsad, thsad2, d, _trad);

	push	DWORD PTR [edi+164]
	mov	ecx, DWORD PTR _thsad$2$[ebp]
	cdq
	sub	eax, edx
	mov	edx, DWORD PTR _thsad2$2$[ebp]
	mov	esi, eax
	sar	esi, 1
	inc	esi
	push	esi
	call	?interpolate_thsad@ClipFnc@@SAHHHHH@Z	; ClipFnc::interpolate_thsad
	mov	ebx, DWORD PTR _c_info$1$[ebp]

; 517  :     c_info._thsadc = ClipFnc::interpolate_thsad(thsadc, thsadc2, d, _trad);

	mov	edx, DWORD PTR _thsadc2$2$[ebp]
	mov	ecx, DWORD PTR _thsadc$2$[ebp]
	mov	DWORD PTR [ebx+16], eax
	push	DWORD PTR [edi+164]
	push	esi
	call	?interpolate_thsad@ClipFnc@@SAHHHHH@Z	; ClipFnc::interpolate_thsad
	mov	ecx, DWORD PTR _k$1$[ebp]
	add	esp, 16					; 00000010H
	mov	edx, DWORD PTR tv2851[ebp]
	inc	ecx
	mov	DWORD PTR [ebx+20], eax
	add	edx, 24					; 00000018H
	mov	eax, DWORD PTR [edi+164]
	add	eax, eax
	mov	DWORD PTR _k$1$[ebp], ecx
	mov	DWORD PTR tv2851[ebp], edx
	cmp	ecx, eax
	jl	$LL7@MDegrainN
	mov	ebx, DWORD PTR _vi_super$1$[ebp]
$LN6@MDegrainN:

; 518  :   }
; 519  : 
; 520  :   const int nSuperWidth = vi_super.width;
; 521  :   const int nSuperHeight = vi_super.height;
; 522  : 
; 523  :   if (nHeight != nHeightS
; 524  :     || nHeight != vi.height
; 525  :     || nWidth != nSuperWidth - nSuperHPad * 2
; 526  :     || nWidth != vi.width
; 527  :     || nPel != nSuperPel)

	mov	eax, DWORD PTR [edi+96]
	mov	ecx, DWORD PTR [ebx]
	cmp	eax, DWORD PTR _nHeightS$1$[ebp]
	jne	SHORT $LN12@MDegrainN
	cmp	eax, DWORD PTR [edi+20]
	jne	SHORT $LN12@MDegrainN
	mov	eax, DWORD PTR _nSuperHPad$1$[ebp]
	mov	edx, DWORD PTR [edi+92]
	add	eax, eax
	sub	ecx, eax
	cmp	edx, ecx
	jne	SHORT $LN12@MDegrainN
	cmp	edx, DWORD PTR [edi+16]
	jne	SHORT $LN12@MDegrainN
	mov	eax, DWORD PTR _nSuperPel$1$[ebp]
	cmp	DWORD PTR [edi+104], eax
	je	SHORT $LN472@MDegrainN
$LN12@MDegrainN:

; 528  :   {
; 529  :     env_ptr->ThrowError("MDegrainN : wrong source or super frame size");

	mov	ebx, DWORD PTR _env_ptr$[ebp]
	push	OFFSET ??_C@_0CN@LKJJHKJJ@MDegrainN?5?3?5wrong?5source?5or?5supe@
	push	ebx
	mov	eax, DWORD PTR [ebx]
	call	DWORD PTR [eax+20]
	add	esp, 8
	jmp	SHORT $LN11@MDegrainN
$LN472@MDegrainN:
	mov	ebx, DWORD PTR _env_ptr$[ebp]
$LN11@MDegrainN:

; 530  :   }
; 531  : 
; 532  :   if(lsb_flag && pixelsize != 1)

	cmp	BYTE PTR _lsb_flag$[ebp], 0
	je	SHORT $LN13@MDegrainN
	cmp	DWORD PTR [edi+136], 1
	je	SHORT $LN13@MDegrainN

; 533  :     env_ptr->ThrowError("MDegrainN : lsb_flag only for 8 bit sources");

	mov	eax, DWORD PTR [ebx]
	push	OFFSET ??_C@_0CM@JJAGFGCG@MDegrainN?5?3?5lsb_flag?5only?5for?58?5@
	push	ebx
	call	DWORD PTR [eax+20]
	add	esp, 8
$LN13@MDegrainN:

; 534  : 
; 535  :   if ((pixelType & VideoInfo::CS_YUY2) == VideoInfo::CS_YUY2 && !_planar_flag)

	mov	eax, DWORD PTR [edi+116]
	and	eax, 1610612740				; 60000004H
	cmp	eax, 1610612740				; 60000004H
	jne	$LN367@MDegrainN
	cmp	BYTE PTR [edi+185], 0
	jne	$LN367@MDegrainN

; 536  :   {
; 537  :     _dst_planes = std::auto_ptr <YUY2Planes>(

	push	28					; 0000001cH
	call	??2@YAPAXI@Z				; operator new
	mov	ebx, eax
	mov	DWORD PTR $T13[ebp], ebx
	mov	eax, DWORD PTR [edi+92]
	mov	esi, DWORD PTR [edi+188]
	imul	esi, DWORD PTR [edi+96]
	mov	DWORD PTR [ebx+12], eax
; File c:\github\mvtools\sources\yuy2planes.cpp

; 28   :   srcPitch = (nWidth + 15) & (~15);

	lea	ecx, DWORD PTR [eax+15]

; 29   :   srcPitchUV = (nWidth / 2 + 15) & (~15); //v 1.2.1

	cdq
	and	ecx, -16				; fffffff0H
	sub	eax, edx
	sar	eax, 1
	mov	DWORD PTR [ebx+16], esi
	add	eax, 15					; 0000000fH

; 30   :   pSrc = (unsigned char*)_aligned_malloc(srcPitch*nHeight, 128);   //v 1.2.1

	imul	esi, ecx
	and	eax, -16				; fffffff0H
	push	128					; 00000080H
	mov	DWORD PTR [ebx+20], ecx

; 29   :   srcPitchUV = (nWidth / 2 + 15) & (~15); //v 1.2.1

	mov	DWORD PTR [ebx+24], eax

; 30   :   pSrc = (unsigned char*)_aligned_malloc(srcPitch*nHeight, 128);   //v 1.2.1

	push	esi
	mov	esi, DWORD PTR __imp___aligned_malloc
	call	esi
	mov	DWORD PTR [ebx], eax

; 31   :   pSrcU = (unsigned char*)_aligned_malloc(srcPitchUV*nHeight, 128);

	mov	eax, DWORD PTR [ebx+24]
	imul	eax, DWORD PTR [ebx+16]
	push	128					; 00000080H
	push	eax
	call	esi
	mov	DWORD PTR [ebx+4], eax

; 32   :   pSrcV = (unsigned char*)_aligned_malloc(srcPitchUV*nHeight, 128);

	mov	eax, DWORD PTR [ebx+24]
	imul	eax, DWORD PTR [ebx+16]
	push	128					; 00000080H
	push	eax
	call	esi
; File c:\program files (x86)\microsoft visual studio 14.0\vc\include\xmemory

; 794  : 		if (_Ptr != _Myptr)

	mov	esi, DWORD PTR __imp___aligned_free
; File c:\github\mvtools\sources\yuy2planes.cpp

; 32   :   pSrcV = (unsigned char*)_aligned_malloc(srcPitchUV*nHeight, 128);

	add	esp, 28					; 0000001cH
	mov	DWORD PTR [ebx+8], eax
; File c:\program files (x86)\microsoft visual studio 14.0\vc\include\xmemory

; 794  : 		if (_Ptr != _Myptr)

	mov	eax, DWORD PTR [edi+212]
	mov	DWORD PTR $T9[ebp], eax
	cmp	ebx, eax
	je	SHORT $LN318@MDegrainN

; 795  : 			delete _Myptr;

	test	eax, eax
	je	SHORT $LN318@MDegrainN
; File c:\github\mvtools\sources\yuy2planes.cpp

; 37   :   _aligned_free(pSrc);

	push	DWORD PTR [eax]
	call	esi

; 38   :   _aligned_free(pSrcU);

	mov	eax, DWORD PTR $T9[ebp]
	push	DWORD PTR [eax+4]
	call	esi

; 39   :   _aligned_free(pSrcV);

	mov	eax, DWORD PTR $T9[ebp]
	push	DWORD PTR [eax+8]
	call	esi
	push	28					; 0000001cH
	push	DWORD PTR $T9[ebp]
	call	??3@YAXPAXI@Z				; operator delete
	add	esp, 20					; 00000014H
$LN318@MDegrainN:
; File c:\github\mvtools\sources\mdegrainn.cpp

; 540  :     _src_planes = std::auto_ptr <YUY2Planes>(

	push	28					; 0000001cH
; File c:\program files (x86)\microsoft visual studio 14.0\vc\include\xmemory

; 796  : 		_Myptr = _Ptr;

	mov	DWORD PTR [edi+212], ebx
; File c:\github\mvtools\sources\mdegrainn.cpp

; 540  :     _src_planes = std::auto_ptr <YUY2Planes>(

	call	??2@YAPAXI@Z				; operator new
	mov	ebx, eax
	mov	DWORD PTR $T12[ebp], ebx
	mov	eax, DWORD PTR [edi+92]
	mov	esi, DWORD PTR [edi+96]
	mov	DWORD PTR [ebx+12], eax
	mov	DWORD PTR [ebx+16], esi
; File c:\github\mvtools\sources\yuy2planes.cpp

; 28   :   srcPitch = (nWidth + 15) & (~15);

	lea	ecx, DWORD PTR [eax+15]

; 29   :   srcPitchUV = (nWidth / 2 + 15) & (~15); //v 1.2.1

	cdq
	and	ecx, -16				; fffffff0H
	sub	eax, edx

; 30   :   pSrc = (unsigned char*)_aligned_malloc(srcPitch*nHeight, 128);   //v 1.2.1

	imul	esi, ecx
	sar	eax, 1
	add	eax, 15					; 0000000fH
	mov	DWORD PTR [ebx+20], ecx

; 29   :   srcPitchUV = (nWidth / 2 + 15) & (~15); //v 1.2.1

	and	eax, -16				; fffffff0H

; 30   :   pSrc = (unsigned char*)_aligned_malloc(srcPitch*nHeight, 128);   //v 1.2.1

	push	128					; 00000080H
	push	esi
	mov	esi, DWORD PTR __imp___aligned_malloc
	mov	DWORD PTR [ebx+24], eax
	call	esi
	mov	DWORD PTR [ebx], eax

; 31   :   pSrcU = (unsigned char*)_aligned_malloc(srcPitchUV*nHeight, 128);

	mov	eax, DWORD PTR [ebx+16]
	imul	eax, DWORD PTR [ebx+24]
	push	128					; 00000080H
	push	eax
	call	esi
	mov	DWORD PTR [ebx+4], eax

; 32   :   pSrcV = (unsigned char*)_aligned_malloc(srcPitchUV*nHeight, 128);

	mov	eax, DWORD PTR [ebx+16]
	imul	eax, DWORD PTR [ebx+24]
	push	128					; 00000080H
	push	eax
	call	esi
	mov	DWORD PTR [ebx+8], eax
	add	esp, 28					; 0000001cH
; File c:\program files (x86)\microsoft visual studio 14.0\vc\include\xmemory

; 794  : 		if (_Ptr != _Myptr)

	mov	esi, DWORD PTR [edi+216]
	cmp	ebx, esi
	je	SHORT $LN355@MDegrainN

; 795  : 			delete _Myptr;

	test	esi, esi
	je	SHORT $LN355@MDegrainN
; File c:\github\mvtools\sources\yuy2planes.cpp

; 37   :   _aligned_free(pSrc);

	push	DWORD PTR [esi]
	call	DWORD PTR __imp___aligned_free

; 38   :   _aligned_free(pSrcU);

	push	DWORD PTR [esi+4]
	call	DWORD PTR __imp___aligned_free

; 39   :   _aligned_free(pSrcV);

	push	DWORD PTR [esi+8]
	call	DWORD PTR __imp___aligned_free
	push	28					; 0000001cH
	push	esi
	call	??3@YAXPAXI@Z				; operator delete
	add	esp, 20					; 00000014H
$LN355@MDegrainN:
; File c:\program files (x86)\microsoft visual studio 14.0\vc\include\xmemory

; 796  : 		_Myptr = _Ptr;

	mov	DWORD PTR [edi+216], ebx
$LN367@MDegrainN:
; File c:\github\mvtools\sources\mdegrainn.cpp

; 544  :   _dst_short_pitch = ((nWidth + 15) / 16) * 16;

	mov	eax, DWORD PTR [edi+92]
	add	eax, 15					; 0000000fH
	cdq
	and	edx, 15					; 0000000fH
	add	eax, edx
	and	eax, -16				; fffffff0H

; 545  :   _dst_int_pitch = _dst_short_pitch;
; 546  :   if (nOverlapX > 0 || nOverlapY > 0)

	cmp	DWORD PTR [edi+108], 0
	mov	DWORD PTR [edi+272], eax
	mov	DWORD PTR [edi+288], eax
	jg	SHORT $LN16@MDegrainN
	cmp	DWORD PTR [edi+112], 0
	jle	$LN20@MDegrainN
$LN16@MDegrainN:

; 547  :   {
; 548  :     _overwins = std::auto_ptr <OverlapWindows>(

	push	48					; 00000030H
	call	??2@YAPAXI@Z				; operator new
	add	esp, 4
	mov	DWORD PTR $T11[ebp], eax
	mov	BYTE PTR __$EHRec$[ebp+8], 15		; 0000000fH
	mov	ecx, eax
	push	DWORD PTR [edi+112]
	push	DWORD PTR [edi+108]
	push	DWORD PTR [edi+80]
	push	DWORD PTR [edi+76]
	call	??0OverlapWindows@@QAE@HHHH@Z		; OverlapWindows::OverlapWindows
	mov	ebx, eax
	mov	BYTE PTR __$EHRec$[ebp+8], 12		; 0000000cH
; File c:\program files (x86)\microsoft visual studio 14.0\vc\include\xmemory

; 794  : 		if (_Ptr != _Myptr)

	mov	esi, DWORD PTR [edi+220]
	cmp	ebx, esi
	je	SHORT $LN390@MDegrainN

; 795  : 			delete _Myptr;

	test	esi, esi
	je	SHORT $LN390@MDegrainN
; File c:\github\mvtools\sources\overlap.cpp

; 136  : 	delete [] Overlap9Windows;

	push	DWORD PTR [esi+20]
	call	??_V@YAXPAX@Z				; operator delete[]

; 137  : 	delete [] fWin1UVx;

	push	DWORD PTR [esi+24]
	call	??_V@YAXPAX@Z				; operator delete[]

; 138  : 	delete [] fWin1UVxfirst;

	push	DWORD PTR [esi+28]
	call	??_V@YAXPAX@Z				; operator delete[]

; 139  : 	delete [] fWin1UVxlast;

	push	DWORD PTR [esi+32]
	call	??_V@YAXPAX@Z				; operator delete[]

; 140  : 	delete [] fWin1UVy;

	push	DWORD PTR [esi+36]
	call	??_V@YAXPAX@Z				; operator delete[]

; 141  : 	delete [] fWin1UVyfirst;

	push	DWORD PTR [esi+40]
	call	??_V@YAXPAX@Z				; operator delete[]

; 142  : 	delete [] fWin1UVylast;

	push	DWORD PTR [esi+44]
	call	??_V@YAXPAX@Z				; operator delete[]
	push	48					; 00000030H
	push	esi
	call	??3@YAXPAXI@Z				; operator delete
	add	esp, 36					; 00000024H
$LN390@MDegrainN:
; File c:\github\mvtools\sources\mdegrainn.cpp

; 551  :     _overwins_uv = std::auto_ptr <OverlapWindows>(new OverlapWindows(

	push	48					; 00000030H
; File c:\program files (x86)\microsoft visual studio 14.0\vc\include\xmemory

; 796  : 		_Myptr = _Ptr;

	mov	DWORD PTR [edi+220], ebx
; File c:\github\mvtools\sources\mdegrainn.cpp

; 551  :     _overwins_uv = std::auto_ptr <OverlapWindows>(new OverlapWindows(

	call	??2@YAPAXI@Z				; operator new
	mov	ebx, eax
	add	esp, 4
	mov	DWORD PTR $T10[ebp], ebx
	mov	BYTE PTR __$EHRec$[ebp+8], 16		; 00000010H
