; Listing generated by Microsoft (R) Optimizing Compiler Version 19.00.24215.1 

	TITLE	c:\github\mvtools\sources\mvscdetection.cpp
	.686P
	.XMM
	include listing.inc
	.model	flat

INCLUDELIB OLDNAMES

PUBLIC	??_7MVSCDetection@@6B@				; MVSCDetection::`vftable'
PUBLIC	??_R4MVSCDetection@@6B@				; MVSCDetection::`RTTI Complete Object Locator'
PUBLIC	??_R2MVSCDetection@@8				; MVSCDetection::`RTTI Base Class Array'
PUBLIC	??_R0?AVMVSCDetection@@@8			; MVSCDetection `RTTI Type Descriptor'
PUBLIC	??_R1A@?0A@EA@MVSCDetection@@8			; MVSCDetection::`RTTI Base Class Descriptor at (0,-1,0,64)'
PUBLIC	??_R3MVSCDetection@@8				; MVSCDetection::`RTTI Class Hierarchy Descriptor'
;	COMDAT ??_R3MVSCDetection@@8
rdata$r	SEGMENT
??_R3MVSCDetection@@8 DD 00H				; MVSCDetection::`RTTI Class Hierarchy Descriptor'
	DD	01H
	DD	04H
	DD	FLAT:??_R2MVSCDetection@@8
rdata$r	ENDS
;	COMDAT ??_R1A@?0A@EA@MVSCDetection@@8
rdata$r	SEGMENT
??_R1A@?0A@EA@MVSCDetection@@8 DD FLAT:??_R0?AVMVSCDetection@@@8 ; MVSCDetection::`RTTI Base Class Descriptor at (0,-1,0,64)'
	DD	03H
	DD	00H
	DD	0ffffffffH
	DD	00H
	DD	040H
	DD	FLAT:??_R3MVSCDetection@@8
rdata$r	ENDS
;	COMDAT ??_R0?AVMVSCDetection@@@8
data$r	SEGMENT
??_R0?AVMVSCDetection@@@8 DD FLAT:??_7type_info@@6B@	; MVSCDetection `RTTI Type Descriptor'
	DD	00H
	DB	'.?AVMVSCDetection@@', 00H
data$r	ENDS
;	COMDAT ??_R2MVSCDetection@@8
rdata$r	SEGMENT
??_R2MVSCDetection@@8 DD FLAT:??_R1A@?0A@EA@MVSCDetection@@8 ; MVSCDetection::`RTTI Base Class Array'
	DD	FLAT:??_R1A@?0A@EA@GenericVideoFilter@@8
	DD	FLAT:??_R1A@?0A@EA@IClip@@8
	DD	FLAT:??_R1EA@?0A@EA@MVFilter@@8
rdata$r	ENDS
;	COMDAT ??_R4MVSCDetection@@6B@
rdata$r	SEGMENT
??_R4MVSCDetection@@6B@ DD 00H				; MVSCDetection::`RTTI Complete Object Locator'
	DD	00H
	DD	00H
	DD	FLAT:??_R0?AVMVSCDetection@@@8
	DD	FLAT:??_R3MVSCDetection@@8
rdata$r	ENDS
;	COMDAT ??_7MVSCDetection@@6B@
CONST	SEGMENT
??_7MVSCDetection@@6B@ DD FLAT:??_R4MVSCDetection@@6B@	; MVSCDetection::`vftable'
	DD	FLAT:?GetVersion@IClip@@UAGHXZ
	DD	FLAT:?GetFrame@MVSCDetection@@UAG?AVPVideoFrame@@HPAVIScriptEnvironment@@@Z
	DD	FLAT:?GetParity@GenericVideoFilter@@UAG_NH@Z
	DD	FLAT:?GetAudio@GenericVideoFilter@@UAGXPAX_J1PAVIScriptEnvironment@@@Z
	DD	FLAT:?SetCacheHints@MVSCDetection@@UAGHHH@Z
	DD	FLAT:?GetVideoInfo@GenericVideoFilter@@UAGABUVideoInfo@@XZ
	DD	FLAT:??_EMVSCDetection@@UAEPAXI@Z
PUBLIC	??$clamp@H@@YAHHHH@Z				; clamp<int>
PUBLIC	??$clamp@M@@YAMMMM@Z				; clamp<float>
PUBLIC	?GetFrame@MVSCDetection@@UAG?AVPVideoFrame@@HPAVIScriptEnvironment@@@Z ; MVSCDetection::GetFrame
PUBLIC	??1MVSCDetection@@UAE@XZ			; MVSCDetection::~MVSCDetection
PUBLIC	??_GMVSCDetection@@UAEPAXI@Z			; MVSCDetection::`scalar deleting destructor'
PUBLIC	?SetCacheHints@MVSCDetection@@UAGHHH@Z		; MVSCDetection::SetCacheHints
PUBLIC	??0MVSCDetection@@QAE@VPClip@@0MHH_NPAVIScriptEnvironment@@@Z ; MVSCDetection::MVSCDetection
EXTRN	??_EMVSCDetection@@UAEPAXI@Z:PROC		; MVSCDetection::`vector deleting destructor'
;	COMDAT xdata$x
xdata$x	SEGMENT
__ehfuncinfo$??0MVSCDetection@@QAE@VPClip@@0MHH_NPAVIScriptEnvironment@@@Z DD 019930522H
	DD	05H
	DD	FLAT:__unwindtable$??0MVSCDetection@@QAE@VPClip@@0MHH_NPAVIScriptEnvironment@@@Z
	DD	2 DUP(00H)
	DD	2 DUP(00H)
	DD	00H
	DD	01H
__unwindtable$??0MVSCDetection@@QAE@VPClip@@0MHH_NPAVIScriptEnvironment@@@Z DD 0ffffffffH
	DD	FLAT:__unwindfunclet$??0MVSCDetection@@QAE@VPClip@@0MHH_NPAVIScriptEnvironment@@@Z$0
	DD	00H
	DD	FLAT:__unwindfunclet$??0MVSCDetection@@QAE@VPClip@@0MHH_NPAVIScriptEnvironment@@@Z$1
	DD	01H
	DD	FLAT:__unwindfunclet$??0MVSCDetection@@QAE@VPClip@@0MHH_NPAVIScriptEnvironment@@@Z$3
	DD	00H
	DD	FLAT:__unwindfunclet$??0MVSCDetection@@QAE@VPClip@@0MHH_NPAVIScriptEnvironment@@@Z$5
	DD	0ffffffffH
	DD	FLAT:__unwindfunclet$??0MVSCDetection@@QAE@VPClip@@0MHH_NPAVIScriptEnvironment@@@Z$6
xdata$x	ENDS
;	COMDAT xdata$x
xdata$x	SEGMENT
__ehfuncinfo$??1MVSCDetection@@UAE@XZ DD 019930522H
	DD	02H
	DD	FLAT:__unwindtable$??1MVSCDetection@@UAE@XZ
	DD	2 DUP(00H)
	DD	2 DUP(00H)
	DD	00H
	DD	05H
__unwindtable$??1MVSCDetection@@UAE@XZ DD 0ffffffffH
	DD	FLAT:__unwindfunclet$??1MVSCDetection@@UAE@XZ$2
	DD	0ffffffffH
	DD	FLAT:__unwindfunclet$??1MVSCDetection@@UAE@XZ$5
xdata$x	ENDS
;	COMDAT xdata$x
xdata$x	SEGMENT
__ehfuncinfo$?GetFrame@MVSCDetection@@UAG?AVPVideoFrame@@HPAVIScriptEnvironment@@@Z DD 019930522H
	DD	03H
	DD	FLAT:__unwindtable$?GetFrame@MVSCDetection@@UAG?AVPVideoFrame@@HPAVIScriptEnvironment@@@Z
	DD	2 DUP(00H)
	DD	2 DUP(00H)
	DD	00H
	DD	01H
__unwindtable$?GetFrame@MVSCDetection@@UAG?AVPVideoFrame@@HPAVIScriptEnvironment@@@Z DD 0ffffffffH
	DD	FLAT:__unwindfunclet$?GetFrame@MVSCDetection@@UAG?AVPVideoFrame@@HPAVIScriptEnvironment@@@Z$0
	DD	00H
	DD	FLAT:__unwindfunclet$?GetFrame@MVSCDetection@@UAG?AVPVideoFrame@@HPAVIScriptEnvironment@@@Z$1
	DD	00H
	DD	FLAT:__unwindfunclet$?GetFrame@MVSCDetection@@UAG?AVPVideoFrame@@HPAVIScriptEnvironment@@@Z$2
; Function compile flags: /Ogtpy
; File c:\github\mvtools\sources\mvscdetection.cpp
; File c:\github\mvtools\sources\include\avisynth.h
; File c:\github\mvtools\sources\mvscdetection.cpp
; File c:\github\mvtools\sources\include\avisynth.h
; File c:\github\mvtools\sources\mvscdetection.cpp
; File c:\github\mvtools\sources\include\avs\minmax.h
; File c:\github\mvtools\sources\mvscdetection.cpp
; File c:\github\mvtools\sources\include\avisynth.h
; File c:\github\mvtools\sources\mvscdetection.cpp
;	COMDAT ??0MVSCDetection@@QAE@VPClip@@0MHH_NPAVIScriptEnvironment@@@Z
_TEXT	SEGMENT
_this$ = -20						; size = 4
_Ysc$1$ = -16						; size = 4
__$EHRec$ = -12						; size = 12
__child$ = 8						; size = 4
_vectors$ = 12						; size = 4
_nSCD1$ = 16						; size = 4
_nSCD2$ = 20						; size = 4
_isse$dead$ = 24					; size = 1
_env$ = 28						; size = 4
??0MVSCDetection@@QAE@VPClip@@0MHH_NPAVIScriptEnvironment@@@Z PROC ; MVSCDetection::MVSCDetection, COMDAT
; _this$ = ecx
; _Ysc$ = xmm3s

; 32   : {

	push	ebp
	mov	ebp, esp
	push	-1
	push	__ehhandler$??0MVSCDetection@@QAE@VPClip@@0MHH_NPAVIScriptEnvironment@@@Z
	mov	eax, DWORD PTR fs:0
	push	eax
	mov	DWORD PTR fs:0, esp
	sub	esp, 12					; 0000000cH
	push	edi
	mov	edi, ecx
	movss	DWORD PTR _Ysc$1$[ebp], xmm3
	mov	DWORD PTR _this$[ebp], edi
	mov	DWORD PTR __$EHRec$[ebp+8], 1
; File c:\github\mvtools\sources\include\avisynth.h

; 937  :   PClip(const PClip& x) AVS_BakedCode( AVS_LinkCall(PClip_CONSTRUCTOR1)(x) )

	mov	eax, DWORD PTR ?AVS_linkage@@3PBUAVS_Linkage@@B ; AVS_linkage
; File c:\github\mvtools\sources\mvscdetection.cpp

; 29   : GenericVideoFilter(_child),

	push	ecx
	mov	ecx, esp
; File c:\github\mvtools\sources\include\avisynth.h

; 937  :   PClip(const PClip& x) AVS_BakedCode( AVS_LinkCall(PClip_CONSTRUCTOR1)(x) )

	test	eax, eax
	je	SHORT $LN16@MVSCDetect
	cmp	DWORD PTR [eax], 232			; 000000e8H
	jbe	SHORT $LN16@MVSCDetect
	mov	eax, DWORD PTR [eax+232]
	lea	edx, DWORD PTR __child$[ebp]
	push	edx
	call	eax
$LN16@MVSCDetect:
; File c:\github\mvtools\sources\mvscdetection.cpp

; 29   : GenericVideoFilter(_child),

	mov	ecx, edi
	call	??0GenericVideoFilter@@QAE@VPClip@@@Z	; GenericVideoFilter::GenericVideoFilter

; 30   : mvClip(vectors, nSCD1, nSCD2, env, 1, 0),
; 31   : MVFilter(vectors, "MSCDetection", env, 1, 0)

	push	0
	push	1
	push	DWORD PTR _env$[ebp]
	lea	eax, DWORD PTR _vectors$[ebp]
	mov	BYTE PTR __$EHRec$[ebp+8], 2
	push	OFFSET ??_C@_0N@CLNGJOF@MSCDetection?$AA@
	push	eax
	lea	ecx, DWORD PTR [edi+64]
	call	??0MVFilter@@IAE@ABVPClip@@PBDPAVIScriptEnvironment@@HH@Z ; MVFilter::MVFilter
	push	0
	push	1
	push	DWORD PTR _env$[ebp]
	lea	eax, DWORD PTR _vectors$[ebp]

; 32   : {

	mov	DWORD PTR [edi], OFFSET ??_7MVSCDetection@@6B@
	push	DWORD PTR _nSCD2$[ebp]
	lea	ecx, DWORD PTR [edi+152]
	push	DWORD PTR _nSCD1$[ebp]
	push	eax
	call	??0MVClip@@QAE@ABVPClip@@HHPAVIScriptEnvironment@@HH@Z ; MVClip::MVClip

; 33   :   if (pixelsize == 4) {

	cmp	DWORD PTR [edi+136], 4

; 34   :     if (Ysc < 0) // default if not provided: -9999

	movss	xmm2, DWORD PTR _Ysc$1$[ebp]
	jne	SHORT $LN2@MVSCDetect
	xorps	xmm1, xmm1
	comiss	xmm1, xmm2
	jbe	SHORT $LN4@MVSCDetect

; 35   :       sceneChangeValue_f = 1.0f;

	mov	DWORD PTR [edi+396], 1065353216		; 3f800000H

; 36   :     else

	jmp	SHORT $LN7@MVSCDetect
$LN4@MVSCDetect:
	movss	xmm0, DWORD PTR __real@3f800000
	minss	xmm0, xmm2
	maxss	xmm1, xmm0

; 37   :       sceneChangeValue_f = clamp(Ysc, 0.0f, 1.0f); // (Ysc < 0) ? 0 : ((Ysc > 255) ? 255 : Ysc);

	movss	DWORD PTR [edi+396], xmm1

; 38   :   }
; 39   :   else {

	jmp	SHORT $LN7@MVSCDetect
$LN2@MVSCDetect:

; 40   :     if (Ysc < 0)
; 41   :       sceneChangeValue = (1 << bits_per_pixel) - 1;

	mov	ecx, DWORD PTR [edi+140]
	mov	eax, 1
	shl	eax, cl
	xorps	xmm0, xmm0
	dec	eax
	comiss	xmm0, xmm2
	jbe	SHORT $LN6@MVSCDetect
	mov	DWORD PTR [edi+392], eax

; 42   :     else

	jmp	SHORT $LN7@MVSCDetect
$LN6@MVSCDetect:

; 43   :       sceneChangeValue = clamp(int(Ysc), 0, (1 << bits_per_pixel) - 1);

	cvttss2si ecx, xmm2
; File c:\github\mvtools\sources\include\avs\minmax.h

; 50   :     n = n > max ? max : n;

	cmp	ecx, eax
	cmovg	ecx, eax

; 51   :     return n < min ? min : n;

	xor	eax, eax
	test	ecx, ecx
	cmovs	ecx, eax
; File c:\github\mvtools\sources\mvscdetection.cpp

; 43   :       sceneChangeValue = clamp(int(Ysc), 0, (1 << bits_per_pixel) - 1);

	mov	DWORD PTR [edi+392], ecx
$LN7@MVSCDetect:
; File c:\github\mvtools\sources\include\avisynth.h

; 948  :   ~PClip() AVS_BakedCode( AVS_LinkCall(PClip_DESTRUCTOR)() )

	mov	BYTE PTR __$EHRec$[ebp+8], 3
	mov	eax, DWORD PTR ?AVS_linkage@@3PBUAVS_Linkage@@B ; AVS_linkage
	test	eax, eax
	je	SHORT $LN28@MVSCDetect
	cmp	DWORD PTR [eax], 248			; 000000f8H
	jbe	SHORT $LN28@MVSCDetect
	mov	eax, DWORD PTR [eax+248]
	lea	ecx, DWORD PTR __child$[ebp]
	call	eax
	mov	eax, DWORD PTR ?AVS_linkage@@3PBUAVS_Linkage@@B ; AVS_linkage
$LN28@MVSCDetect:
	mov	DWORD PTR __$EHRec$[ebp+8], 4
	test	eax, eax
	je	SHORT $LN36@MVSCDetect
	cmp	DWORD PTR [eax], 248			; 000000f8H
	jbe	SHORT $LN36@MVSCDetect
	mov	eax, DWORD PTR [eax+248]
	lea	ecx, DWORD PTR _vectors$[ebp]
	call	eax
$LN36@MVSCDetect:
; File c:\github\mvtools\sources\mvscdetection.cpp

; 45   : }

	mov	ecx, DWORD PTR __$EHRec$[ebp]
	mov	eax, edi
	mov	DWORD PTR fs:0, ecx
	pop	edi
	mov	esp, ebp
	pop	ebp
	ret	24					; 00000018H
_TEXT	ENDS
;	COMDAT text$x
text$x	SEGMENT
__unwindfunclet$??0MVSCDetection@@QAE@VPClip@@0MHH_NPAVIScriptEnvironment@@@Z$0:
	lea	ecx, DWORD PTR _vectors$[ebp]
	jmp	??1PClip@@QAE@XZ			; PClip::~PClip
__unwindfunclet$??0MVSCDetection@@QAE@VPClip@@0MHH_NPAVIScriptEnvironment@@@Z$1:
	lea	ecx, DWORD PTR __child$[ebp]
	jmp	??1PClip@@QAE@XZ			; PClip::~PClip
__unwindfunclet$??0MVSCDetection@@QAE@VPClip@@0MHH_NPAVIScriptEnvironment@@@Z$3:
	mov	ecx, DWORD PTR _this$[ebp]
	jmp	??1GenericVideoFilter@@UAE@XZ
__unwindfunclet$??0MVSCDetection@@QAE@VPClip@@0MHH_NPAVIScriptEnvironment@@@Z$5:
	call	DWORD PTR __imp____std_terminate
	ret	0
__unwindfunclet$??0MVSCDetection@@QAE@VPClip@@0MHH_NPAVIScriptEnvironment@@@Z$6:
	call	DWORD PTR __imp____std_terminate
	ret	0
__ehhandler$??0MVSCDetection@@QAE@VPClip@@0MHH_NPAVIScriptEnvironment@@@Z:
	mov	eax, OFFSET __ehfuncinfo$??0MVSCDetection@@QAE@VPClip@@0MHH_NPAVIScriptEnvironment@@@Z
	jmp	___CxxFrameHandler3
text$x	ENDS
??0MVSCDetection@@QAE@VPClip@@0MHH_NPAVIScriptEnvironment@@@Z ENDP ; MVSCDetection::MVSCDetection
; Function compile flags: /Ogtpy
; File c:\github\mvtools\sources\mvscdetection.h
;	COMDAT ?SetCacheHints@MVSCDetection@@UAGHHH@Z
_TEXT	SEGMENT
_this$ = 8						; size = 4
_cachehints$ = 12					; size = 4
_frame_range$ = 16					; size = 4
?SetCacheHints@MVSCDetection@@UAGHHH@Z PROC		; MVSCDetection::SetCacheHints, COMDAT

; 32   :     return cachehints == CACHE_GET_MTMODE ? MT_MULTI_INSTANCE : 0;

	xor	eax, eax
	mov	ecx, 2
	cmp	DWORD PTR _cachehints$[esp-4], 509	; 000001fdH
	cmove	eax, ecx

; 33   :   }

	ret	12					; 0000000cH
?SetCacheHints@MVSCDetection@@UAGHHH@Z ENDP		; MVSCDetection::SetCacheHints
_TEXT	ENDS
; Function compile flags: /Ogtpy
;	COMDAT ??_GMVSCDetection@@UAEPAXI@Z
_TEXT	SEGMENT
___flags$ = 8						; size = 4
??_GMVSCDetection@@UAEPAXI@Z PROC			; MVSCDetection::`scalar deleting destructor', COMDAT
; _this$ = ecx
	push	esi
	mov	esi, ecx
	call	??1MVSCDetection@@UAE@XZ		; MVSCDetection::~MVSCDetection
	test	BYTE PTR ___flags$[esp], 1
	je	SHORT $LN4@scalar
	push	400					; 00000190H
	push	esi
	call	??3@YAXPAXI@Z				; operator delete
	add	esp, 8
$LN4@scalar:
	mov	eax, esi
	pop	esi
	ret	4
??_GMVSCDetection@@UAEPAXI@Z ENDP			; MVSCDetection::`scalar deleting destructor'
_TEXT	ENDS
; Function compile flags: /Ogtpy
; File c:\github\mvtools\sources\mvscdetection.cpp
; File c:\github\mvtools\sources\mvclip.cpp
; File c:\github\mvtools\sources\include\avisynth.h
; File c:\github\mvtools\sources\mvscdetection.cpp
; File c:\github\mvtools\sources\include\avisynth.h
; File c:\github\mvtools\sources\mvscdetection.cpp
;	COMDAT ??1MVSCDetection@@UAE@XZ
_TEXT	SEGMENT
__$EHRec$ = -12						; size = 12
??1MVSCDetection@@UAE@XZ PROC				; MVSCDetection::~MVSCDetection, COMDAT
; _this$ = ecx

; 48   : {

	push	ebp
	mov	ebp, esp
	mov	eax, DWORD PTR fs:0
	push	-1
	push	__ehhandler$??1MVSCDetection@@UAE@XZ
	push	eax
	mov	DWORD PTR fs:0, esp
	push	esi
	mov	esi, ecx
	mov	DWORD PTR [esi], OFFSET ??_7MVSCDetection@@6B@
; File c:\github\mvtools\sources\mvclip.cpp

; 79   : }

	lea	ecx, DWORD PTR [esi+216]
	mov	DWORD PTR [esi+152], OFFSET ??_7MVClip@@6B@
	call	??1FakeGroupOfPlanes@@QAE@XZ		; FakeGroupOfPlanes::~FakeGroupOfPlanes
; File c:\github\mvtools\sources\include\avisynth.h

; 948  :   ~PClip() AVS_BakedCode( AVS_LinkCall(PClip_DESTRUCTOR)() )

	mov	DWORD PTR __$EHRec$[ebp+8], 0
	mov	eax, DWORD PTR ?AVS_linkage@@3PBUAVS_Linkage@@B ; AVS_linkage
	test	eax, eax
	je	SHORT $LN11@MVSCDetect
	cmp	DWORD PTR [eax], 248			; 000000f8H
	jbe	SHORT $LN11@MVSCDetect
	mov	eax, DWORD PTR [eax+248]
	lea	ecx, DWORD PTR [esi+160]
	call	eax
	mov	eax, DWORD PTR ?AVS_linkage@@3PBUAVS_Linkage@@B ; AVS_linkage
$LN11@MVSCDetect:

; 919  :   virtual AVSC_CC ~IClip() {}

	mov	DWORD PTR [esi+152], OFFSET ??_7IClip@@6B@

; 948  :   ~PClip() AVS_BakedCode( AVS_LinkCall(PClip_DESTRUCTOR)() )

	mov	DWORD PTR __$EHRec$[ebp+8], 1
	test	eax, eax
	je	SHORT $LN28@MVSCDetect
	cmp	DWORD PTR [eax], 248			; 000000f8H
	jbe	SHORT $LN28@MVSCDetect
	mov	eax, DWORD PTR [eax+248]
	lea	ecx, DWORD PTR [esi+8]
	call	eax
$LN28@MVSCDetect:
; File c:\github\mvtools\sources\mvscdetection.cpp

; 49   : }

	mov	ecx, DWORD PTR __$EHRec$[ebp]
; File c:\github\mvtools\sources\include\avisynth.h

; 919  :   virtual AVSC_CC ~IClip() {}

	mov	DWORD PTR [esi], OFFSET ??_7IClip@@6B@
; File c:\github\mvtools\sources\mvscdetection.cpp

; 49   : }

	mov	DWORD PTR fs:0, ecx
	pop	esi
	mov	esp, ebp
	pop	ebp
	ret	0
_TEXT	ENDS
;	COMDAT text$x
text$x	SEGMENT
__unwindfunclet$??1MVSCDetection@@UAE@XZ$2:
	call	DWORD PTR __imp____std_terminate
	ret	0
__unwindfunclet$??1MVSCDetection@@UAE@XZ$5:
	call	DWORD PTR __imp____std_terminate
	ret	0
__ehhandler$??1MVSCDetection@@UAE@XZ:
	mov	eax, OFFSET __ehfuncinfo$??1MVSCDetection@@UAE@XZ
	jmp	___CxxFrameHandler3
text$x	ENDS
??1MVSCDetection@@UAE@XZ ENDP				; MVSCDetection::~MVSCDetection
; Function compile flags: /Ogtpy
; File c:\github\mvtools\sources\mvscdetection.cpp
; File c:\github\mvtools\sources\fakegroupofplanes.cpp
; File c:\github\mvtools\sources\mvclip.cpp
; File c:\github\mvtools\sources\fakegroupofplanes.h
; File c:\github\mvtools\sources\mvclip.cpp
; File c:\github\mvtools\sources\include\avisynth.h
; File c:\github\mvtools\sources\mvscdetection.cpp
; File c:\github\mvtools\sources\include\avisynth.h
; File c:\github\mvtools\sources\mvscdetection.cpp
; File c:\github\mvtools\sources\include\avisynth.h
; File c:\github\mvtools\sources\mvscdetection.cpp
; File c:\github\mvtools\sources\include\avisynth.h
; File c:\github\mvtools\sources\mvscdetection.cpp
; File c:\github\mvtools\sources\include\avisynth.h
; File c:\github\mvtools\sources\mvscdetection.cpp
; File c:\github\mvtools\sources\include\avisynth.h
; File c:\github\mvtools\sources\mvscdetection.cpp
; File c:\github\mvtools\sources\include\avisynth.h
; File c:\github\mvtools\sources\copycode.cpp
; File c:\github\mvtools\sources\mvscdetection.cpp
; File c:\github\mvtools\sources\include\avisynth.h
; File c:\github\mvtools\sources\mvscdetection.cpp
; File c:\github\mvtools\sources\include\avisynth.h
; File c:\github\mvtools\sources\mvscdetection.cpp
; File c:\github\mvtools\sources\include\avisynth.h
; File c:\github\mvtools\sources\mvscdetection.cpp
; File c:\github\mvtools\sources\include\avisynth.h
; File c:\github\mvtools\sources\mvscdetection.cpp
; File c:\github\mvtools\sources\include\avisynth.h
; File c:\github\mvtools\sources\mvscdetection.cpp
; File c:\github\mvtools\sources\include\avisynth.h
; File c:\github\mvtools\sources\mvscdetection.cpp
; File c:\github\mvtools\sources\include\avisynth.h
; File c:\github\mvtools\sources\mvscdetection.cpp
; File c:\github\mvtools\sources\include\avisynth.h
; File c:\github\mvtools\sources\mvscdetection.cpp
; File c:\github\mvtools\sources\include\avisynth.h
; File c:\github\mvtools\sources\mvscdetection.cpp
; File c:\github\mvtools\sources\include\avisynth.h
; File c:\github\mvtools\sources\mvscdetection.cpp
; File c:\github\mvtools\sources\copycode.cpp
; File c:\program files (x86)\microsoft visual studio 14.0\vc\include\xutility
; File c:\github\mvtools\sources\include\avisynth.h
; File c:\github\mvtools\sources\mvscdetection.cpp
; File c:\github\mvtools\sources\include\avisynth.h
; File c:\github\mvtools\sources\mvscdetection.cpp
; File c:\github\mvtools\sources\copycode.cpp
; File c:\program files (x86)\microsoft visual studio 14.0\vc\include\xutility
; File c:\github\mvtools\sources\include\avisynth.h
; File c:\github\mvtools\sources\mvscdetection.cpp
; File c:\github\mvtools\sources\include\avisynth.h
; File c:\github\mvtools\sources\mvscdetection.cpp
; File c:\github\mvtools\sources\copycode.cpp
; File c:\github\mvtools\sources\mvscdetection.cpp
; File c:\github\mvtools\sources\copycode.cpp
; File c:\program files (x86)\microsoft visual studio 14.0\vc\include\xutility
; File c:\github\mvtools\sources\include\avisynth.h
; File c:\github\mvtools\sources\mvscdetection.cpp
; File c:\github\mvtools\sources\include\avisynth.h
; File c:\github\mvtools\sources\copycode.cpp
; File c:\github\mvtools\sources\mvscdetection.cpp
; File c:\github\mvtools\sources\copycode.cpp
; File c:\github\mvtools\sources\include\avisynth.h
; File c:\github\mvtools\sources\mvscdetection.cpp
;	COMDAT ?GetFrame@MVSCDetection@@UAG?AVPVideoFrame@@HPAVIScriptEnvironment@@@Z
_TEXT	SEGMENT
$T2 = -24						; size = 4
_mvn$ = -20						; size = 4
$T3 = -16						; size = 4
__$EHRec$ = -12						; size = 12
__Count$1$ = 8						; size = 4
$T4 = 8							; size = 4
tv1310 = 8						; size = 4
tv1306 = 8						; size = 4
tv1302 = 8						; size = 4
tv1297 = 8						; size = 4
tv1293 = 8						; size = 4
tv1289 = 8						; size = 4
tv1285 = 8						; size = 4
tv1282 = 8						; size = 4
tv1279 = 8						; size = 4
tv1262 = 8						; size = 4
_this$ = 8						; size = 4
___$ReturnUdt$ = 12					; size = 4
$T5 = 16						; size = 4
$T6 = 16						; size = 4
tv1295 = 16						; size = 4
tv1291 = 16						; size = 4
tv1287 = 16						; size = 4
_val$ = 16						; size = 4
_val$ = 16						; size = 4
_n$ = 16						; size = 4
__Count$1$ = 20						; size = 4
__Count$1$ = 20						; size = 4
$T7 = 20						; size = 4
$T8 = 20						; size = 4
tv1309 = 20						; size = 4
tv1305 = 20						; size = 4
tv1301 = 20						; size = 4
tv1296 = 20						; size = 4
tv1292 = 20						; size = 4
tv1288 = 20						; size = 4
tv1284 = 20						; size = 4
tv1281 = 20						; size = 4
tv1278 = 20						; size = 4
_this$1$ = 20						; size = 4
_val$ = 20						; size = 4
_env$ = 20						; size = 4
?GetFrame@MVSCDetection@@UAG?AVPVideoFrame@@HPAVIScriptEnvironment@@@Z PROC ; MVSCDetection::GetFrame, COMDAT

; 52   : {

	push	ebp
	mov	ebp, esp
	push	-1
	push	__ehhandler$?GetFrame@MVSCDetection@@UAG?AVPVideoFrame@@HPAVIScriptEnvironment@@@Z
	mov	eax, DWORD PTR fs:0
	push	eax
	mov	DWORD PTR fs:0, esp
	sub	esp, 12					; 0000000cH
	push	ebx
	push	esi

; 53   :    PVideoFrame dst = env->NewVideoFrame(vi);

	mov	esi, DWORD PTR _env$[ebp]
	push	edi
	mov	edi, DWORD PTR _this$[ebp]
	push	32					; 00000020H
	mov	DWORD PTR __$EHRec$[ebp+8], 0
	add	edi, 16					; 00000010H
	mov	DWORD PTR $T2[ebp], 0
	mov	eax, DWORD PTR [esi]
	mov	ebx, DWORD PTR ___$ReturnUdt$[ebp]
	push	edi
	push	ebx
	push	esi
	call	DWORD PTR [eax+56]

; 93   : 	   }
; 94   :    }
; 95   : 
; 96   : 	return dst;

	mov	ecx, DWORD PTR _this$[ebp]
	lea	edx, DWORD PTR _mvn$[ebp]
	add	ecx, 152				; 00000098H
	mov	DWORD PTR __$EHRec$[ebp+8], 0
	push	esi
	push	DWORD PTR _n$[ebp]
	mov	DWORD PTR $T2[ebp], 1
	mov	eax, DWORD PTR [ecx]
	push	edx
	push	ecx
	mov	DWORD PTR _this$1$[ebp], ecx
	call	DWORD PTR [eax+4]
	push	esi
	mov	esi, DWORD PTR _this$1$[ebp]
	lea	eax, DWORD PTR _mvn$[ebp]
	push	eax
	mov	ecx, esi
	mov	DWORD PTR __$EHRec$[ebp+8], 1
	call	?Update@MVClip@@QAEXAAVPVideoFrame@@PAVIScriptEnvironment@@@Z ; MVClip::Update
; File c:\github\mvtools\sources\fakegroupofplanes.cpp

; 119  : 	return planes[0]->IsSceneChange(nThSCD1, nThSCD2);

	push	DWORD PTR [esi+220]
	mov	ecx, DWORD PTR [esi+88]
	push	DWORD PTR [esi+216]
	mov	ecx, DWORD PTR [ecx]
	call	?IsSceneChange@FakePlaneOfBlocks@@QBE_NHH@Z ; FakePlaneOfBlocks::IsSceneChange
; File c:\github\mvtools\sources\mvclip.cpp

; 264  :    return (!FakeGroupOfPlanes::IsSceneChange(nSCD1_, nSCD2_)) && FakeGroupOfPlanes::IsValid();

	test	al, al
	jne	$LN2@GetFrame
; File c:\github\mvtools\sources\fakegroupofplanes.h

; 64   : 	inline bool IsValid() const { return validity; }

	mov	al, BYTE PTR [esi+68]
; File c:\github\mvtools\sources\mvclip.cpp

; 264  :    return (!FakeGroupOfPlanes::IsSceneChange(nSCD1_, nSCD2_)) && FakeGroupOfPlanes::IsValid();

	test	al, al
	je	$LN2@GetFrame
; File c:\github\mvtools\sources\include\avisynth.h

; 623  :   bool IsYUV() const AVS_BakedCode(return AVS_LinkCall(IsYUV)())

	mov	esi, DWORD PTR ?AVS_linkage@@3PBUAVS_Linkage@@B ; AVS_linkage
	test	esi, esi
	je	$LN117@GetFrame
	cmp	DWORD PTR [esi], 24			; 00000018H
	jbe	SHORT $LN410@GetFrame
	mov	eax, DWORD PTR [esi+24]
	mov	ecx, edi
	call	eax
	movzx	eax, al
; File c:\github\mvtools\sources\mvscdetection.cpp

; 60   : 	   if((vi.IsYUV() || vi.IsYUVA()) && !vi.IsYUY2())

	test	al, al
	jne	SHORT $LN6@GetFrame
	mov	esi, DWORD PTR ?AVS_linkage@@3PBUAVS_Linkage@@B ; AVS_linkage
$LN410@GetFrame:
; File c:\github\mvtools\sources\include\avisynth.h

; 716  :   bool IsYUVA() const AVS_BakedCode( return AVS_LinkCallOptDefault(IsYUVA, false) )

	test	esi, esi
	je	$LN117@GetFrame
	cmp	DWORD PTR [esi], 564			; 00000234H
	jbe	$LN4@GetFrame
	mov	eax, DWORD PTR [esi+564]
	mov	ecx, edi
	call	eax
; File c:\github\mvtools\sources\mvscdetection.cpp

; 60   : 	   if((vi.IsYUV() || vi.IsYUVA()) && !vi.IsYUY2())

	test	al, al
	je	$LN416@GetFrame
$LN6@GetFrame:
; File c:\github\mvtools\sources\include\avisynth.h

; 624  :   bool IsYUY2() const AVS_BakedCode(return AVS_LinkCall(IsYUY2)())

	mov	esi, DWORD PTR ?AVS_linkage@@3PBUAVS_Linkage@@B ; AVS_linkage
	test	esi, esi
	je	SHORT $LN45@GetFrame
	cmp	DWORD PTR [esi], 28			; 0000001cH
	jbe	SHORT $LN411@GetFrame
	mov	eax, DWORD PTR [esi+28]
	mov	ecx, edi
	call	eax
	movzx	eax, al
; File c:\github\mvtools\sources\mvscdetection.cpp

; 60   : 	   if((vi.IsYUV() || vi.IsYUVA()) && !vi.IsYUY2())

	test	al, al
	jne	$LN416@GetFrame
	mov	esi, DWORD PTR ?AVS_linkage@@3PBUAVS_Linkage@@B ; AVS_linkage
$LN411@GetFrame:
; File c:\github\mvtools\sources\include\avisynth.h

; 797  :   int GetPitch(int plane=0) const AVS_BakedCode( return AVS_LinkCall(GetPitch)(plane) )

	test	esi, esi
	je	SHORT $LN45@GetFrame
	cmp	DWORD PTR [esi], 192			; 000000c0H
	jbe	SHORT $LN45@GetFrame
	mov	ecx, DWORD PTR [ebx]
	mov	eax, DWORD PTR [esi+192]
	push	1
	call	eax
	mov	esi, DWORD PTR ?AVS_linkage@@3PBUAVS_Linkage@@B ; AVS_linkage
	mov	DWORD PTR tv1310[ebp], eax
	jmp	SHORT $LN46@GetFrame
$LN45@GetFrame:
	mov	DWORD PTR tv1310[ebp], 0
$LN46@GetFrame:

; 799  :   int GetHeight(int plane=0) const AVS_BakedCode( return AVS_LinkCall(GetHeight)(plane) )

	test	esi, esi
	je	SHORT $LN51@GetFrame
	cmp	DWORD PTR [esi], 200			; 000000c8H
	jbe	SHORT $LN51@GetFrame
	mov	ecx, DWORD PTR [ebx]
	mov	eax, DWORD PTR [esi+200]
	push	1
	call	eax
	mov	esi, DWORD PTR ?AVS_linkage@@3PBUAVS_Linkage@@B ; AVS_linkage
	mov	DWORD PTR tv1309[ebp], eax
	jmp	SHORT $LN52@GetFrame
$LN51@GetFrame:
	mov	DWORD PTR tv1309[ebp], 0
$LN52@GetFrame:

; 798  :   int GetRowSize(int plane=0) const AVS_BakedCode( return AVS_LinkCall(GetRowSize)(plane) )

	test	esi, esi
	je	SHORT $LN57@GetFrame
	cmp	DWORD PTR [esi], 196			; 000000c4H
	jbe	SHORT $LN57@GetFrame
	mov	ecx, DWORD PTR [ebx]
	mov	eax, DWORD PTR [esi+196]
	push	1
	call	eax
	mov	esi, DWORD PTR ?AVS_linkage@@3PBUAVS_Linkage@@B ; AVS_linkage
	mov	edi, eax
	jmp	SHORT $LN58@GetFrame
$LN57@GetFrame:
	xor	edi, edi
$LN58@GetFrame:

; 813  :   BYTE* GetWritePtr(int plane=0) const AVS_BakedCode( return AVS_LinkCall(VFGetWritePtr)(plane) )

	test	esi, esi
	je	SHORT $LN63@GetFrame
	cmp	DWORD PTR [esi], 220			; 000000dcH
	jbe	SHORT $LN63@GetFrame
	mov	ecx, DWORD PTR [ebx]
	mov	eax, DWORD PTR [esi+220]
	push	1
	call	eax
	mov	esi, DWORD PTR ?AVS_linkage@@3PBUAVS_Linkage@@B ; AVS_linkage
	jmp	SHORT $LN64@GetFrame
$LN63@GetFrame:
	xor	eax, eax
$LN64@GetFrame:
; File c:\github\mvtools\sources\mvscdetection.cpp

; 62   : 		  MemZoneSet(dst->GetWritePtr(PLANAR_Y), 0, dst->GetRowSize(PLANAR_Y), dst->GetHeight(PLANAR_Y), 0, 0, dst->GetPitch(PLANAR_Y));

	push	DWORD PTR tv1310[ebp]
	xor	dl, dl
	mov	ecx, eax
	sub	esp, 8
	push	DWORD PTR tv1309[ebp]
	push	edi
	call	_MemZoneSet
	add	esp, 20					; 00000014H
; File c:\github\mvtools\sources\include\avisynth.h

; 797  :   int GetPitch(int plane=0) const AVS_BakedCode( return AVS_LinkCall(GetPitch)(plane) )

	test	esi, esi
	je	SHORT $LN69@GetFrame
	cmp	DWORD PTR [esi], 192			; 000000c0H
	jbe	SHORT $LN69@GetFrame
	mov	ecx, DWORD PTR [ebx]
	mov	eax, DWORD PTR [esi+192]
	push	2
	call	eax
	mov	esi, DWORD PTR ?AVS_linkage@@3PBUAVS_Linkage@@B ; AVS_linkage
	mov	DWORD PTR tv1306[ebp], eax
	jmp	SHORT $LN70@GetFrame
$LN69@GetFrame:
	mov	DWORD PTR tv1306[ebp], 0
$LN70@GetFrame:

; 799  :   int GetHeight(int plane=0) const AVS_BakedCode( return AVS_LinkCall(GetHeight)(plane) )

	test	esi, esi
	je	SHORT $LN75@GetFrame
	cmp	DWORD PTR [esi], 200			; 000000c8H
	jbe	SHORT $LN75@GetFrame
	mov	ecx, DWORD PTR [ebx]
	mov	eax, DWORD PTR [esi+200]
	push	2
	call	eax
	mov	esi, DWORD PTR ?AVS_linkage@@3PBUAVS_Linkage@@B ; AVS_linkage
	mov	DWORD PTR tv1305[ebp], eax
	jmp	SHORT $LN76@GetFrame
$LN75@GetFrame:
	mov	DWORD PTR tv1305[ebp], 0
$LN76@GetFrame:

; 798  :   int GetRowSize(int plane=0) const AVS_BakedCode( return AVS_LinkCall(GetRowSize)(plane) )

	test	esi, esi
	je	SHORT $LN81@GetFrame
	cmp	DWORD PTR [esi], 196			; 000000c4H
	jbe	SHORT $LN81@GetFrame
	mov	ecx, DWORD PTR [ebx]
	mov	eax, DWORD PTR [esi+196]
	push	2
	call	eax
	mov	esi, DWORD PTR ?AVS_linkage@@3PBUAVS_Linkage@@B ; AVS_linkage
	mov	edi, eax
	jmp	SHORT $LN82@GetFrame
$LN81@GetFrame:
	xor	edi, edi
$LN82@GetFrame:

; 813  :   BYTE* GetWritePtr(int plane=0) const AVS_BakedCode( return AVS_LinkCall(VFGetWritePtr)(plane) )

	test	esi, esi
	je	SHORT $LN87@GetFrame
	cmp	DWORD PTR [esi], 220			; 000000dcH
	jbe	SHORT $LN87@GetFrame
	mov	ecx, DWORD PTR [ebx]
	mov	eax, DWORD PTR [esi+220]
	push	2
	call	eax
	mov	esi, DWORD PTR ?AVS_linkage@@3PBUAVS_Linkage@@B ; AVS_linkage
	jmp	SHORT $LN88@GetFrame
$LN87@GetFrame:
	xor	eax, eax
$LN88@GetFrame:
; File c:\github\mvtools\sources\mvscdetection.cpp

; 63   : 		  MemZoneSet(dst->GetWritePtr(PLANAR_U), 0, dst->GetRowSize(PLANAR_U), dst->GetHeight(PLANAR_U), 0, 0, dst->GetPitch(PLANAR_U));

	push	DWORD PTR tv1306[ebp]
	xor	dl, dl
	mov	ecx, eax
	sub	esp, 8
	push	DWORD PTR tv1305[ebp]
	push	edi
	call	_MemZoneSet
	add	esp, 20					; 00000014H
; File c:\github\mvtools\sources\include\avisynth.h

; 797  :   int GetPitch(int plane=0) const AVS_BakedCode( return AVS_LinkCall(GetPitch)(plane) )

	test	esi, esi
	je	SHORT $LN93@GetFrame
	cmp	DWORD PTR [esi], 192			; 000000c0H
	jbe	SHORT $LN93@GetFrame
	mov	ecx, DWORD PTR [ebx]
	mov	eax, DWORD PTR [esi+192]
	push	4
	call	eax
	mov	esi, DWORD PTR ?AVS_linkage@@3PBUAVS_Linkage@@B ; AVS_linkage
	mov	DWORD PTR tv1302[ebp], eax
	jmp	SHORT $LN94@GetFrame
$LN93@GetFrame:
	mov	DWORD PTR tv1302[ebp], 0
$LN94@GetFrame:

; 799  :   int GetHeight(int plane=0) const AVS_BakedCode( return AVS_LinkCall(GetHeight)(plane) )

	test	esi, esi
	je	SHORT $LN99@GetFrame
	cmp	DWORD PTR [esi], 200			; 000000c8H
	jbe	SHORT $LN99@GetFrame
	mov	ecx, DWORD PTR [ebx]
	mov	eax, DWORD PTR [esi+200]
	push	4
	call	eax
	mov	esi, DWORD PTR ?AVS_linkage@@3PBUAVS_Linkage@@B ; AVS_linkage
	mov	DWORD PTR tv1301[ebp], eax
	jmp	SHORT $LN100@GetFrame
$LN99@GetFrame:
	mov	DWORD PTR tv1301[ebp], 0
$LN100@GetFrame:

; 798  :   int GetRowSize(int plane=0) const AVS_BakedCode( return AVS_LinkCall(GetRowSize)(plane) )

	test	esi, esi
	je	SHORT $LN105@GetFrame
	cmp	DWORD PTR [esi], 196			; 000000c4H
	jbe	SHORT $LN105@GetFrame
	mov	ecx, DWORD PTR [ebx]
	mov	eax, DWORD PTR [esi+196]
	push	4
	call	eax
	mov	esi, DWORD PTR ?AVS_linkage@@3PBUAVS_Linkage@@B ; AVS_linkage
	mov	edi, eax
	jmp	SHORT $LN106@GetFrame
$LN105@GetFrame:
	xor	edi, edi
$LN106@GetFrame:

; 813  :   BYTE* GetWritePtr(int plane=0) const AVS_BakedCode( return AVS_LinkCall(VFGetWritePtr)(plane) )

	test	esi, esi
	je	SHORT $LN111@GetFrame
	cmp	DWORD PTR [esi], 220			; 000000dcH
	jbe	SHORT $LN111@GetFrame
	mov	ecx, DWORD PTR [ebx]
	mov	eax, DWORD PTR [esi+220]
	push	4
	call	eax
	mov	esi, DWORD PTR ?AVS_linkage@@3PBUAVS_Linkage@@B ; AVS_linkage
	jmp	SHORT $LN112@GetFrame
$LN111@GetFrame:
	xor	eax, eax
$LN112@GetFrame:
; File c:\github\mvtools\sources\mvscdetection.cpp

; 64   : 		  MemZoneSet(dst->GetWritePtr(PLANAR_V), 0, dst->GetRowSize(PLANAR_V), dst->GetHeight(PLANAR_V), 0, 0, dst->GetPitch(PLANAR_V));

	push	DWORD PTR tv1302[ebp]
	xor	dl, dl
	mov	ecx, eax
	sub	esp, 8
	push	DWORD PTR tv1301[ebp]
	push	edi
	call	_MemZoneSet
	add	esp, 20					; 00000014H

; 65   : 	   }
; 66   : 	   else

	jmp	$LN381@GetFrame
$LN416@GetFrame:
	mov	esi, DWORD PTR ?AVS_linkage@@3PBUAVS_Linkage@@B ; AVS_linkage
$LN4@GetFrame:
; File c:\github\mvtools\sources\include\avisynth.h

; 797  :   int GetPitch(int plane=0) const AVS_BakedCode( return AVS_LinkCall(GetPitch)(plane) )

	test	esi, esi
	je	SHORT $LN117@GetFrame
	cmp	DWORD PTR [esi], 192			; 000000c0H
	jbe	SHORT $LN117@GetFrame
	mov	ecx, DWORD PTR [ebx]
	mov	eax, DWORD PTR [esi+192]
	push	0
	call	eax
	mov	esi, DWORD PTR ?AVS_linkage@@3PBUAVS_Linkage@@B ; AVS_linkage
	mov	DWORD PTR $T6[ebp], eax
	jmp	SHORT $LN118@GetFrame
$LN117@GetFrame:
	mov	DWORD PTR $T6[ebp], 0
$LN118@GetFrame:

; 799  :   int GetHeight(int plane=0) const AVS_BakedCode( return AVS_LinkCall(GetHeight)(plane) )

	test	esi, esi
	je	SHORT $LN123@GetFrame
	cmp	DWORD PTR [esi], 200			; 000000c8H
	jbe	SHORT $LN123@GetFrame
	mov	ecx, DWORD PTR [ebx]
	mov	eax, DWORD PTR [esi+200]
	push	0
	call	eax
	mov	esi, DWORD PTR ?AVS_linkage@@3PBUAVS_Linkage@@B ; AVS_linkage
	mov	DWORD PTR $T4[ebp], eax
	jmp	SHORT $LN124@GetFrame
$LN123@GetFrame:
	mov	DWORD PTR $T4[ebp], 0
$LN124@GetFrame:

; 798  :   int GetRowSize(int plane=0) const AVS_BakedCode( return AVS_LinkCall(GetRowSize)(plane) )

	test	esi, esi
	je	SHORT $LN129@GetFrame
	cmp	DWORD PTR [esi], 196			; 000000c4H
	jbe	SHORT $LN129@GetFrame
	mov	ecx, DWORD PTR [ebx]
	mov	eax, DWORD PTR [esi+196]
	push	0
	call	eax
	mov	esi, DWORD PTR ?AVS_linkage@@3PBUAVS_Linkage@@B ; AVS_linkage
	mov	DWORD PTR $T8[ebp], eax
	jmp	SHORT $LN130@GetFrame
$LN129@GetFrame:
	mov	DWORD PTR $T8[ebp], 0
$LN130@GetFrame:

; 813  :   BYTE* GetWritePtr(int plane=0) const AVS_BakedCode( return AVS_LinkCall(VFGetWritePtr)(plane) )

	test	esi, esi
	je	SHORT $LN135@GetFrame
	cmp	DWORD PTR [esi], 220			; 000000dcH
	jbe	SHORT $LN135@GetFrame
	mov	ecx, DWORD PTR [ebx]
	mov	eax, DWORD PTR [esi+220]
	push	0
	call	eax
	mov	esi, DWORD PTR ?AVS_linkage@@3PBUAVS_Linkage@@B ; AVS_linkage
	mov	edi, eax
	jmp	SHORT $LN136@GetFrame
$LN135@GetFrame:
	xor	edi, edi
$LN136@GetFrame:
; File c:\github\mvtools\sources\copycode.cpp

; 105  : 	for (int y=offsetY; y<height+offsetY; y++)

	cmp	DWORD PTR $T4[ebp], 0
	jle	$LN381@GetFrame
	mov	ebx, DWORD PTR $T4[ebp]
	mov	esi, DWORD PTR $T8[ebp]
	npad	6
$LL140@GetFrame:

; 106  : 	{
; 107  : 		memset(ptr, value, width);

	push	esi
	push	0
	push	edi
	call	_memset

; 108  : 		ptr += pitch;

	add	edi, DWORD PTR $T6[ebp]
	add	esp, 12					; 0000000cH
	sub	ebx, 1
	jne	SHORT $LL140@GetFrame
; File c:\github\mvtools\sources\mvscdetection.cpp

; 71   :    else {

	jmp	$LN422@GetFrame
$LN2@GetFrame:
; File c:\github\mvtools\sources\include\avisynth.h

; 623  :   bool IsYUV() const AVS_BakedCode(return AVS_LinkCall(IsYUV)())

	mov	esi, DWORD PTR ?AVS_linkage@@3PBUAVS_Linkage@@B ; AVS_linkage
	test	esi, esi
	je	$LN359@GetFrame
	cmp	DWORD PTR [esi], 24			; 00000018H
	jbe	SHORT $LN412@GetFrame
	mov	eax, DWORD PTR [esi+24]
	mov	ecx, edi
	call	eax
	movzx	eax, al
; File c:\github\mvtools\sources\mvscdetection.cpp

; 72   : 	   if((vi.IsYUV() || vi.IsYUVA()) && !vi.IsYUY2())

	test	al, al
	jne	SHORT $LN9@GetFrame
	mov	esi, DWORD PTR ?AVS_linkage@@3PBUAVS_Linkage@@B ; AVS_linkage
$LN412@GetFrame:
; File c:\github\mvtools\sources\include\avisynth.h

; 716  :   bool IsYUVA() const AVS_BakedCode( return AVS_LinkCallOptDefault(IsYUVA, false) )

	test	esi, esi
	je	$LN359@GetFrame
	cmp	DWORD PTR [esi], 564			; 00000234H
	jbe	$LN7@GetFrame
	mov	eax, DWORD PTR [esi+564]
	mov	ecx, edi
	call	eax
; File c:\github\mvtools\sources\mvscdetection.cpp

; 72   : 	   if((vi.IsYUV() || vi.IsYUVA()) && !vi.IsYUY2())

	test	al, al
	je	$LN417@GetFrame
$LN9@GetFrame:
; File c:\github\mvtools\sources\include\avisynth.h

; 624  :   bool IsYUY2() const AVS_BakedCode(return AVS_LinkCall(IsYUY2)())

	mov	esi, DWORD PTR ?AVS_linkage@@3PBUAVS_Linkage@@B ; AVS_linkage
	test	esi, esi
	je	SHORT $LN413@GetFrame
	cmp	DWORD PTR [esi], 28			; 0000001cH
	jbe	SHORT $LN413@GetFrame
	mov	eax, DWORD PTR [esi+28]
	mov	ecx, edi
	call	eax
	movzx	eax, al
; File c:\github\mvtools\sources\mvscdetection.cpp

; 72   : 	   if((vi.IsYUV() || vi.IsYUVA()) && !vi.IsYUY2())

	test	al, al
	jne	$LN417@GetFrame
	mov	esi, DWORD PTR ?AVS_linkage@@3PBUAVS_Linkage@@B ; AVS_linkage
$LN413@GetFrame:

; 73   : 	   {
; 74   :        if (pixelsize == 1) {

	mov	edi, DWORD PTR _this$[ebp]
	mov	eax, DWORD PTR [edi+136]
	cmp	eax, 1
	jne	$LN10@GetFrame
; File c:\github\mvtools\sources\include\avisynth.h

; 797  :   int GetPitch(int plane=0) const AVS_BakedCode( return AVS_LinkCall(GetPitch)(plane) )

	test	esi, esi
	je	SHORT $LN158@GetFrame
	cmp	DWORD PTR [esi], 192			; 000000c0H
	jbe	SHORT $LN158@GetFrame
	mov	ecx, DWORD PTR [ebx]
	push	eax
	mov	eax, DWORD PTR [esi+192]
	call	eax
	mov	esi, DWORD PTR ?AVS_linkage@@3PBUAVS_Linkage@@B ; AVS_linkage
	mov	DWORD PTR tv1297[ebp], eax
	jmp	SHORT $LN159@GetFrame
$LN158@GetFrame:
	mov	DWORD PTR tv1297[ebp], 0
$LN159@GetFrame:

; 799  :   int GetHeight(int plane=0) const AVS_BakedCode( return AVS_LinkCall(GetHeight)(plane) )

	test	esi, esi
	je	SHORT $LN164@GetFrame
	cmp	DWORD PTR [esi], 200			; 000000c8H
	jbe	SHORT $LN164@GetFrame
	mov	ecx, DWORD PTR [ebx]
	mov	eax, DWORD PTR [esi+200]
	push	1
	call	eax
	mov	esi, DWORD PTR ?AVS_linkage@@3PBUAVS_Linkage@@B ; AVS_linkage
	mov	DWORD PTR tv1296[ebp], eax
	jmp	SHORT $LN165@GetFrame
$LN164@GetFrame:
	mov	DWORD PTR tv1296[ebp], 0
$LN165@GetFrame:

; 798  :   int GetRowSize(int plane=0) const AVS_BakedCode( return AVS_LinkCall(GetRowSize)(plane) )

	test	esi, esi
	je	SHORT $LN170@GetFrame
	cmp	DWORD PTR [esi], 196			; 000000c4H
	jbe	SHORT $LN170@GetFrame
	mov	ecx, DWORD PTR [ebx]
	mov	eax, DWORD PTR [esi+196]
	push	1
	call	eax
	mov	esi, DWORD PTR ?AVS_linkage@@3PBUAVS_Linkage@@B ; AVS_linkage
	mov	DWORD PTR tv1295[ebp], eax
	jmp	SHORT $LN171@GetFrame
$LN170@GetFrame:
	mov	DWORD PTR tv1295[ebp], 0
$LN171@GetFrame:

; 813  :   BYTE* GetWritePtr(int plane=0) const AVS_BakedCode( return AVS_LinkCall(VFGetWritePtr)(plane) )

	test	esi, esi
	je	SHORT $LN176@GetFrame
	cmp	DWORD PTR [esi], 220			; 000000dcH
	jbe	SHORT $LN176@GetFrame
	mov	ecx, DWORD PTR [ebx]
	mov	eax, DWORD PTR [esi+220]
	push	1
	call	eax
	mov	esi, DWORD PTR ?AVS_linkage@@3PBUAVS_Linkage@@B ; AVS_linkage
	jmp	SHORT $LN177@GetFrame
$LN176@GetFrame:
	xor	eax, eax
$LN177@GetFrame:
; File c:\github\mvtools\sources\mvscdetection.cpp

; 75   :          MemZoneSet(dst->GetWritePtr(PLANAR_Y), sceneChangeValue, dst->GetRowSize(PLANAR_Y), dst->GetHeight(PLANAR_Y), 0, 0, dst->GetPitch(PLANAR_Y));

	push	DWORD PTR tv1297[ebp]
	mov	dl, BYTE PTR [edi+392]
	mov	ecx, eax
	sub	esp, 8
	push	DWORD PTR tv1296[ebp]
	push	DWORD PTR tv1295[ebp]
	call	_MemZoneSet
	add	esp, 20					; 00000014H
; File c:\github\mvtools\sources\include\avisynth.h

; 797  :   int GetPitch(int plane=0) const AVS_BakedCode( return AVS_LinkCall(GetPitch)(plane) )

	test	esi, esi
	je	SHORT $LN182@GetFrame
	cmp	DWORD PTR [esi], 192			; 000000c0H
	jbe	SHORT $LN182@GetFrame
	mov	ecx, DWORD PTR [ebx]
	mov	eax, DWORD PTR [esi+192]
	push	2
	call	eax
	mov	esi, DWORD PTR ?AVS_linkage@@3PBUAVS_Linkage@@B ; AVS_linkage
	mov	DWORD PTR tv1293[ebp], eax
	jmp	SHORT $LN183@GetFrame
$LN182@GetFrame:
	mov	DWORD PTR tv1293[ebp], 0
$LN183@GetFrame:

; 799  :   int GetHeight(int plane=0) const AVS_BakedCode( return AVS_LinkCall(GetHeight)(plane) )

	test	esi, esi
	je	SHORT $LN188@GetFrame
	cmp	DWORD PTR [esi], 200			; 000000c8H
	jbe	SHORT $LN188@GetFrame
	mov	ecx, DWORD PTR [ebx]
	mov	eax, DWORD PTR [esi+200]
	push	2
	call	eax
	mov	esi, DWORD PTR ?AVS_linkage@@3PBUAVS_Linkage@@B ; AVS_linkage
	mov	DWORD PTR tv1292[ebp], eax
	jmp	SHORT $LN189@GetFrame
$LN188@GetFrame:
	mov	DWORD PTR tv1292[ebp], 0
$LN189@GetFrame:

; 798  :   int GetRowSize(int plane=0) const AVS_BakedCode( return AVS_LinkCall(GetRowSize)(plane) )

	test	esi, esi
	je	SHORT $LN194@GetFrame
	cmp	DWORD PTR [esi], 196			; 000000c4H
	jbe	SHORT $LN194@GetFrame
	mov	ecx, DWORD PTR [ebx]
	mov	eax, DWORD PTR [esi+196]
	push	2
	call	eax
	mov	esi, DWORD PTR ?AVS_linkage@@3PBUAVS_Linkage@@B ; AVS_linkage
	mov	DWORD PTR tv1291[ebp], eax
	jmp	SHORT $LN195@GetFrame
$LN194@GetFrame:
	mov	DWORD PTR tv1291[ebp], 0
$LN195@GetFrame:

; 813  :   BYTE* GetWritePtr(int plane=0) const AVS_BakedCode( return AVS_LinkCall(VFGetWritePtr)(plane) )

	test	esi, esi
	je	SHORT $LN200@GetFrame
	cmp	DWORD PTR [esi], 220			; 000000dcH
	jbe	SHORT $LN200@GetFrame
	mov	ecx, DWORD PTR [ebx]
	mov	eax, DWORD PTR [esi+220]
	push	2
	call	eax
	mov	esi, DWORD PTR ?AVS_linkage@@3PBUAVS_Linkage@@B ; AVS_linkage
	jmp	SHORT $LN201@GetFrame
$LN200@GetFrame:
	xor	eax, eax
$LN201@GetFrame:
; File c:\github\mvtools\sources\mvscdetection.cpp

; 76   :          MemZoneSet(dst->GetWritePtr(PLANAR_U), sceneChangeValue, dst->GetRowSize(PLANAR_U), dst->GetHeight(PLANAR_U), 0, 0, dst->GetPitch(PLANAR_U));

	push	DWORD PTR tv1293[ebp]
	mov	dl, BYTE PTR [edi+392]
	mov	ecx, eax
	sub	esp, 8
	push	DWORD PTR tv1292[ebp]
	push	DWORD PTR tv1291[ebp]
	call	_MemZoneSet
	add	esp, 20					; 00000014H
; File c:\github\mvtools\sources\include\avisynth.h

; 797  :   int GetPitch(int plane=0) const AVS_BakedCode( return AVS_LinkCall(GetPitch)(plane) )

	test	esi, esi
	je	SHORT $LN206@GetFrame
	cmp	DWORD PTR [esi], 192			; 000000c0H
	jbe	SHORT $LN206@GetFrame
	mov	ecx, DWORD PTR [ebx]
	mov	eax, DWORD PTR [esi+192]
	push	4
	call	eax
	mov	esi, DWORD PTR ?AVS_linkage@@3PBUAVS_Linkage@@B ; AVS_linkage
	mov	DWORD PTR tv1289[ebp], eax
	jmp	SHORT $LN207@GetFrame
$LN206@GetFrame:
	mov	DWORD PTR tv1289[ebp], 0
$LN207@GetFrame:

; 799  :   int GetHeight(int plane=0) const AVS_BakedCode( return AVS_LinkCall(GetHeight)(plane) )

	test	esi, esi
	je	SHORT $LN212@GetFrame
	cmp	DWORD PTR [esi], 200			; 000000c8H
	jbe	SHORT $LN212@GetFrame
	mov	ecx, DWORD PTR [ebx]
	mov	eax, DWORD PTR [esi+200]
	push	4
	call	eax
	mov	esi, DWORD PTR ?AVS_linkage@@3PBUAVS_Linkage@@B ; AVS_linkage
	mov	DWORD PTR tv1288[ebp], eax
	jmp	SHORT $LN213@GetFrame
$LN212@GetFrame:
	mov	DWORD PTR tv1288[ebp], 0
$LN213@GetFrame:

; 798  :   int GetRowSize(int plane=0) const AVS_BakedCode( return AVS_LinkCall(GetRowSize)(plane) )

	test	esi, esi
	je	SHORT $LN218@GetFrame
	cmp	DWORD PTR [esi], 196			; 000000c4H
	jbe	SHORT $LN218@GetFrame
	mov	ecx, DWORD PTR [ebx]
	mov	eax, DWORD PTR [esi+196]
	push	4
	call	eax
	mov	esi, DWORD PTR ?AVS_linkage@@3PBUAVS_Linkage@@B ; AVS_linkage
	mov	DWORD PTR tv1287[ebp], eax
	jmp	SHORT $LN219@GetFrame
$LN218@GetFrame:
	mov	DWORD PTR tv1287[ebp], 0
$LN219@GetFrame:

; 813  :   BYTE* GetWritePtr(int plane=0) const AVS_BakedCode( return AVS_LinkCall(VFGetWritePtr)(plane) )

	test	esi, esi
	je	SHORT $LN224@GetFrame
	cmp	DWORD PTR [esi], 220			; 000000dcH
	jbe	SHORT $LN224@GetFrame
	mov	ecx, DWORD PTR [ebx]
	mov	eax, DWORD PTR [esi+220]
	push	4
	call	eax
	mov	esi, DWORD PTR ?AVS_linkage@@3PBUAVS_Linkage@@B ; AVS_linkage
	jmp	SHORT $LN225@GetFrame
$LN224@GetFrame:
	xor	eax, eax
$LN225@GetFrame:
; File c:\github\mvtools\sources\mvscdetection.cpp

; 77   :          MemZoneSet(dst->GetWritePtr(PLANAR_V), sceneChangeValue, dst->GetRowSize(PLANAR_V), dst->GetHeight(PLANAR_V), 0, 0, dst->GetPitch(PLANAR_V));

	push	DWORD PTR tv1289[ebp]
	mov	dl, BYTE PTR [edi+392]
	mov	ecx, eax
	sub	esp, 8
	push	DWORD PTR tv1288[ebp]
	push	DWORD PTR tv1287[ebp]
	call	_MemZoneSet
	add	esp, 20					; 00000014H
	jmp	$LN381@GetFrame
$LN10@GetFrame:

; 78   :        }
; 79   :        else if (pixelsize == 2) {

	cmp	eax, 2
	jne	$LN12@GetFrame
; File c:\github\mvtools\sources\include\avisynth.h

; 797  :   int GetPitch(int plane=0) const AVS_BakedCode( return AVS_LinkCall(GetPitch)(plane) )

	test	esi, esi
	je	SHORT $LN230@GetFrame
	cmp	DWORD PTR [esi], 192			; 000000c0H
	jbe	SHORT $LN230@GetFrame
	mov	ecx, DWORD PTR [ebx]
	mov	eax, DWORD PTR [esi+192]
	push	1
	call	eax
	mov	esi, DWORD PTR ?AVS_linkage@@3PBUAVS_Linkage@@B ; AVS_linkage
	mov	DWORD PTR tv1285[ebp], eax
	jmp	SHORT $LN231@GetFrame
$LN230@GetFrame:
	mov	DWORD PTR tv1285[ebp], 0
$LN231@GetFrame:

; 799  :   int GetHeight(int plane=0) const AVS_BakedCode( return AVS_LinkCall(GetHeight)(plane) )

	test	esi, esi
	je	SHORT $LN236@GetFrame
	cmp	DWORD PTR [esi], 200			; 000000c8H
	jbe	SHORT $LN236@GetFrame
	mov	ecx, DWORD PTR [ebx]
	mov	eax, DWORD PTR [esi+200]
	push	1
	call	eax
	mov	esi, DWORD PTR ?AVS_linkage@@3PBUAVS_Linkage@@B ; AVS_linkage
	mov	DWORD PTR tv1284[ebp], eax
	jmp	SHORT $LN237@GetFrame
$LN236@GetFrame:
	mov	DWORD PTR tv1284[ebp], 0
$LN237@GetFrame:

; 813  :   BYTE* GetWritePtr(int plane=0) const AVS_BakedCode( return AVS_LinkCall(VFGetWritePtr)(plane) )

	test	esi, esi
	je	SHORT $LN242@GetFrame
	cmp	DWORD PTR [esi], 220			; 000000dcH
	jbe	SHORT $LN242@GetFrame
	mov	ecx, DWORD PTR [ebx]
	mov	eax, DWORD PTR [esi+220]
	push	1
	call	eax
	mov	esi, DWORD PTR ?AVS_linkage@@3PBUAVS_Linkage@@B ; AVS_linkage
	mov	ecx, eax
	jmp	SHORT $LN243@GetFrame
$LN242@GetFrame:
	xor	ecx, ecx
$LN243@GetFrame:
; File c:\github\mvtools\sources\mvscdetection.cpp

; 80   :          fill_plane<uint16_t>(dst->GetWritePtr(PLANAR_Y), dst->GetHeight(PLANAR_Y), dst->GetPitch(PLANAR_Y), sceneChangeValue);

	movzx	eax, WORD PTR [edi+392]
	mov	edx, DWORD PTR tv1284[ebp]
	push	eax
	push	DWORD PTR tv1285[ebp]
	call	??$fill_plane@G@@YAXPAEHHG@Z		; fill_plane<unsigned short>
	add	esp, 8
; File c:\github\mvtools\sources\include\avisynth.h

; 797  :   int GetPitch(int plane=0) const AVS_BakedCode( return AVS_LinkCall(GetPitch)(plane) )

	test	esi, esi
	je	SHORT $LN248@GetFrame
	cmp	DWORD PTR [esi], 192			; 000000c0H
	jbe	SHORT $LN248@GetFrame
	mov	ecx, DWORD PTR [ebx]
	mov	eax, DWORD PTR [esi+192]
	push	2
	call	eax
	mov	esi, DWORD PTR ?AVS_linkage@@3PBUAVS_Linkage@@B ; AVS_linkage
	mov	DWORD PTR tv1282[ebp], eax
	jmp	SHORT $LN249@GetFrame
$LN248@GetFrame:
	mov	DWORD PTR tv1282[ebp], 0
$LN249@GetFrame:

; 799  :   int GetHeight(int plane=0) const AVS_BakedCode( return AVS_LinkCall(GetHeight)(plane) )

	test	esi, esi
	je	SHORT $LN254@GetFrame
	cmp	DWORD PTR [esi], 200			; 000000c8H
	jbe	SHORT $LN254@GetFrame
	mov	ecx, DWORD PTR [ebx]
	mov	eax, DWORD PTR [esi+200]
	push	2
	call	eax
	mov	esi, DWORD PTR ?AVS_linkage@@3PBUAVS_Linkage@@B ; AVS_linkage
	mov	DWORD PTR tv1281[ebp], eax
	jmp	SHORT $LN255@GetFrame
$LN254@GetFrame:
	mov	DWORD PTR tv1281[ebp], 0
$LN255@GetFrame:

; 813  :   BYTE* GetWritePtr(int plane=0) const AVS_BakedCode( return AVS_LinkCall(VFGetWritePtr)(plane) )

	test	esi, esi
	je	SHORT $LN260@GetFrame
	cmp	DWORD PTR [esi], 220			; 000000dcH
	jbe	SHORT $LN260@GetFrame
	mov	ecx, DWORD PTR [ebx]
	mov	eax, DWORD PTR [esi+220]
	push	2
	call	eax
	mov	esi, DWORD PTR ?AVS_linkage@@3PBUAVS_Linkage@@B ; AVS_linkage
	mov	ecx, eax
	jmp	SHORT $LN261@GetFrame
$LN260@GetFrame:
	xor	ecx, ecx
$LN261@GetFrame:
; File c:\github\mvtools\sources\mvscdetection.cpp

; 81   :          fill_plane<uint16_t>(dst->GetWritePtr(PLANAR_U), dst->GetHeight(PLANAR_U), dst->GetPitch(PLANAR_U), sceneChangeValue);

	movzx	eax, WORD PTR [edi+392]
	mov	edx, DWORD PTR tv1281[ebp]
	push	eax
	push	DWORD PTR tv1282[ebp]
	call	??$fill_plane@G@@YAXPAEHHG@Z		; fill_plane<unsigned short>
	add	esp, 8
; File c:\github\mvtools\sources\include\avisynth.h

; 797  :   int GetPitch(int plane=0) const AVS_BakedCode( return AVS_LinkCall(GetPitch)(plane) )

	test	esi, esi
	je	SHORT $LN266@GetFrame
	cmp	DWORD PTR [esi], 192			; 000000c0H
	jbe	SHORT $LN266@GetFrame
	mov	ecx, DWORD PTR [ebx]
	mov	eax, DWORD PTR [esi+192]
	push	4
	call	eax
	mov	esi, DWORD PTR ?AVS_linkage@@3PBUAVS_Linkage@@B ; AVS_linkage
	mov	DWORD PTR tv1279[ebp], eax
	jmp	SHORT $LN267@GetFrame
$LN266@GetFrame:
	mov	DWORD PTR tv1279[ebp], 0
$LN267@GetFrame:

; 799  :   int GetHeight(int plane=0) const AVS_BakedCode( return AVS_LinkCall(GetHeight)(plane) )

	test	esi, esi
	je	SHORT $LN272@GetFrame
	cmp	DWORD PTR [esi], 200			; 000000c8H
	jbe	SHORT $LN272@GetFrame
	mov	ecx, DWORD PTR [ebx]
	mov	eax, DWORD PTR [esi+200]
	push	4
	call	eax
	mov	esi, DWORD PTR ?AVS_linkage@@3PBUAVS_Linkage@@B ; AVS_linkage
	mov	DWORD PTR tv1278[ebp], eax
	jmp	SHORT $LN273@GetFrame
$LN272@GetFrame:
	mov	DWORD PTR tv1278[ebp], 0
$LN273@GetFrame:

; 813  :   BYTE* GetWritePtr(int plane=0) const AVS_BakedCode( return AVS_LinkCall(VFGetWritePtr)(plane) )

	test	esi, esi
	je	SHORT $LN278@GetFrame
	cmp	DWORD PTR [esi], 220			; 000000dcH
	jbe	SHORT $LN278@GetFrame
	mov	ecx, DWORD PTR [ebx]
	mov	eax, DWORD PTR [esi+220]
	push	4
	call	eax
	mov	esi, DWORD PTR ?AVS_linkage@@3PBUAVS_Linkage@@B ; AVS_linkage
	mov	ecx, eax
	jmp	SHORT $LN279@GetFrame
$LN278@GetFrame:
	xor	ecx, ecx
$LN279@GetFrame:
; File c:\github\mvtools\sources\mvscdetection.cpp

; 82   :          fill_plane<uint16_t>(dst->GetWritePtr(PLANAR_V), dst->GetHeight(PLANAR_V), dst->GetPitch(PLANAR_V), sceneChangeValue);

	movzx	eax, WORD PTR [edi+392]
	mov	edx, DWORD PTR tv1278[ebp]
	push	eax
	push	DWORD PTR tv1279[ebp]
	call	??$fill_plane@G@@YAXPAEHHG@Z		; fill_plane<unsigned short>
	add	esp, 8
	jmp	$LN381@GetFrame
$LN12@GetFrame:

; 83   :        }
; 84   :        else if (pixelsize == 4) {

	cmp	eax, 4
	jne	$LN381@GetFrame

; 85   :          fill_plane<float>(dst->GetWritePtr(PLANAR_Y), dst->GetHeight(PLANAR_Y), dst->GetPitch(PLANAR_Y), sceneChangeValue_f);

	mov	eax, DWORD PTR _this$[ebp]
; File c:\github\mvtools\sources\include\avisynth.h

; 976  :   VideoFrame* operator->() const { return p; }

	mov	edi, DWORD PTR [ebx]
; File c:\github\mvtools\sources\mvscdetection.cpp

; 85   :          fill_plane<float>(dst->GetWritePtr(PLANAR_Y), dst->GetHeight(PLANAR_Y), dst->GetPitch(PLANAR_Y), sceneChangeValue_f);

	mov	ecx, edi
	push	1
	movss	xmm0, DWORD PTR [eax+396]
	movss	DWORD PTR _val$[ebp], xmm0
	call	?GetPitch@VideoFrame@@QBEHH@Z		; VideoFrame::GetPitch
	push	1
	mov	ecx, edi
	mov	esi, eax
	call	?GetHeight@VideoFrame@@QBEHH@Z		; VideoFrame::GetHeight
	push	1
	mov	ecx, edi
	mov	DWORD PTR __Count$1$[ebp], eax
	call	?GetWritePtr@VideoFrame@@QBEPAEH@Z	; VideoFrame::GetWritePtr
	mov	edi, eax
; File c:\github\mvtools\sources\copycode.cpp

; 59   :   size_t size = height * pitch / sizeof(pixel_t);

	mov	eax, DWORD PTR __Count$1$[ebp]
	imul	eax, esi
	shr	eax, 2
; File c:\program files (x86)\microsoft visual studio 14.0\vc\include\xutility

; 2797 : 	for (; 0 < _Count; --_Count, (void)++_Dest)

	test	eax, eax
	je	SHORT $LN301@GetFrame
; File c:\github\mvtools\sources\include\avisynth.h

; 976  :   VideoFrame* operator->() const { return p; }

	mov	ecx, eax
	mov	eax, DWORD PTR _val$[ebp]
	rep stosd
$LN301@GetFrame:
; File c:\github\mvtools\sources\mvscdetection.cpp

; 86   :          fill_plane<float>(dst->GetWritePtr(PLANAR_U), dst->GetHeight(PLANAR_U), dst->GetPitch(PLANAR_U), sceneChangeValue_f);

	mov	eax, DWORD PTR _this$[ebp]
; File c:\github\mvtools\sources\include\avisynth.h

; 976  :   VideoFrame* operator->() const { return p; }

	mov	edi, DWORD PTR [ebx]
; File c:\github\mvtools\sources\mvscdetection.cpp

; 86   :          fill_plane<float>(dst->GetWritePtr(PLANAR_U), dst->GetHeight(PLANAR_U), dst->GetPitch(PLANAR_U), sceneChangeValue_f);

	mov	ecx, edi
	push	2
	movss	xmm0, DWORD PTR [eax+396]
	movss	DWORD PTR _val$[ebp], xmm0
	call	?GetPitch@VideoFrame@@QBEHH@Z		; VideoFrame::GetPitch
	push	2
	mov	ecx, edi
	mov	esi, eax
	call	?GetHeight@VideoFrame@@QBEHH@Z		; VideoFrame::GetHeight
	push	2
	mov	ecx, edi
	mov	DWORD PTR __Count$1$[ebp], eax
	call	?GetWritePtr@VideoFrame@@QBEPAEH@Z	; VideoFrame::GetWritePtr
	mov	edi, eax
; File c:\github\mvtools\sources\copycode.cpp

; 59   :   size_t size = height * pitch / sizeof(pixel_t);

	mov	eax, DWORD PTR __Count$1$[ebp]
	imul	eax, esi
	shr	eax, 2
; File c:\program files (x86)\microsoft visual studio 14.0\vc\include\xutility

; 2797 : 	for (; 0 < _Count; --_Count, (void)++_Dest)

	test	eax, eax
	je	SHORT $LN326@GetFrame
; File c:\github\mvtools\sources\include\avisynth.h

; 976  :   VideoFrame* operator->() const { return p; }

	mov	ecx, eax
	mov	eax, DWORD PTR _val$[ebp]
	rep stosd
$LN326@GetFrame:
; File c:\github\mvtools\sources\mvscdetection.cpp

; 87   :          fill_plane<float>(dst->GetWritePtr(PLANAR_V), dst->GetHeight(PLANAR_V), dst->GetPitch(PLANAR_V), sceneChangeValue_f);

	mov	eax, DWORD PTR _this$[ebp]
; File c:\github\mvtools\sources\include\avisynth.h

; 976  :   VideoFrame* operator->() const { return p; }

	mov	edi, DWORD PTR [ebx]
; File c:\github\mvtools\sources\mvscdetection.cpp

; 87   :          fill_plane<float>(dst->GetWritePtr(PLANAR_V), dst->GetHeight(PLANAR_V), dst->GetPitch(PLANAR_V), sceneChangeValue_f);

	mov	ecx, edi
	push	4
	movss	xmm0, DWORD PTR [eax+396]
	movss	DWORD PTR _val$[ebp], xmm0
	call	?GetPitch@VideoFrame@@QBEHH@Z		; VideoFrame::GetPitch
	push	4
	mov	ecx, edi
	mov	esi, eax
	call	?GetHeight@VideoFrame@@QBEHH@Z		; VideoFrame::GetHeight
	push	4
	mov	ecx, edi
	mov	DWORD PTR __Count$1$[ebp], eax
	call	?GetWritePtr@VideoFrame@@QBEPAEH@Z	; VideoFrame::GetWritePtr
	mov	edi, eax
; File c:\github\mvtools\sources\copycode.cpp

; 59   :   size_t size = height * pitch / sizeof(pixel_t);

	mov	eax, DWORD PTR __Count$1$[ebp]
	imul	eax, esi
; File c:\github\mvtools\sources\mvscdetection.cpp

; 90   : 	   else

	mov	esi, DWORD PTR ?AVS_linkage@@3PBUAVS_Linkage@@B ; AVS_linkage
; File c:\github\mvtools\sources\copycode.cpp

; 59   :   size_t size = height * pitch / sizeof(pixel_t);

	shr	eax, 2
; File c:\program files (x86)\microsoft visual studio 14.0\vc\include\xutility

; 2797 : 	for (; 0 < _Count; --_Count, (void)++_Dest)

	test	eax, eax
	je	$LN381@GetFrame
; File c:\github\mvtools\sources\include\avisynth.h

; 976  :   VideoFrame* operator->() const { return p; }

	mov	ecx, eax
	mov	eax, DWORD PTR _val$[ebp]
	rep stosd
; File c:\github\mvtools\sources\mvscdetection.cpp

; 90   : 	   else

	jmp	$LN381@GetFrame
$LN417@GetFrame:
	mov	esi, DWORD PTR ?AVS_linkage@@3PBUAVS_Linkage@@B ; AVS_linkage
$LN7@GetFrame:
; File c:\github\mvtools\sources\include\avisynth.h

; 797  :   int GetPitch(int plane=0) const AVS_BakedCode( return AVS_LinkCall(GetPitch)(plane) )

	test	esi, esi
	je	SHORT $LN359@GetFrame
	cmp	DWORD PTR [esi], 192			; 000000c0H
	jbe	SHORT $LN359@GetFrame
	mov	ecx, DWORD PTR [ebx]
	mov	eax, DWORD PTR [esi+192]
	push	0
	call	eax
	mov	esi, DWORD PTR ?AVS_linkage@@3PBUAVS_Linkage@@B ; AVS_linkage
	mov	DWORD PTR $T3[ebp], eax
	jmp	SHORT $LN360@GetFrame
$LN359@GetFrame:
	mov	DWORD PTR $T3[ebp], 0
$LN360@GetFrame:

; 799  :   int GetHeight(int plane=0) const AVS_BakedCode( return AVS_LinkCall(GetHeight)(plane) )

	test	esi, esi
	je	SHORT $LN365@GetFrame
	cmp	DWORD PTR [esi], 200			; 000000c8H
	jbe	SHORT $LN365@GetFrame
	mov	ecx, DWORD PTR [ebx]
	mov	eax, DWORD PTR [esi+200]
	push	0
	call	eax
	mov	esi, DWORD PTR ?AVS_linkage@@3PBUAVS_Linkage@@B ; AVS_linkage
	mov	DWORD PTR $T7[ebp], eax
	jmp	SHORT $LN366@GetFrame
$LN365@GetFrame:
	mov	DWORD PTR $T7[ebp], 0
$LN366@GetFrame:

; 798  :   int GetRowSize(int plane=0) const AVS_BakedCode( return AVS_LinkCall(GetRowSize)(plane) )

	test	esi, esi
	je	SHORT $LN371@GetFrame
	cmp	DWORD PTR [esi], 196			; 000000c4H
	jbe	SHORT $LN371@GetFrame
	mov	ecx, DWORD PTR [ebx]
	mov	eax, DWORD PTR [esi+196]
	push	0
	call	eax
	mov	esi, DWORD PTR ?AVS_linkage@@3PBUAVS_Linkage@@B ; AVS_linkage
	mov	DWORD PTR $T5[ebp], eax
	jmp	SHORT $LN372@GetFrame
$LN371@GetFrame:
	mov	DWORD PTR $T5[ebp], 0
$LN372@GetFrame:

; 813  :   BYTE* GetWritePtr(int plane=0) const AVS_BakedCode( return AVS_LinkCall(VFGetWritePtr)(plane) )

	test	esi, esi
	je	SHORT $LN377@GetFrame
	cmp	DWORD PTR [esi], 220			; 000000dcH
	jbe	SHORT $LN377@GetFrame
	mov	ecx, DWORD PTR [ebx]
	mov	eax, DWORD PTR [esi+220]
	push	0
	call	eax
	mov	esi, DWORD PTR ?AVS_linkage@@3PBUAVS_Linkage@@B ; AVS_linkage
	mov	edi, eax
	jmp	SHORT $LN378@GetFrame
$LN377@GetFrame:
	xor	edi, edi
$LN378@GetFrame:
; File c:\github\mvtools\sources\copycode.cpp

; 105  : 	for (int y=offsetY; y<height+offsetY; y++)

	cmp	DWORD PTR $T7[ebp], 0
; File c:\github\mvtools\sources\mvscdetection.cpp

; 92   : 		  MemZoneSet(dst->GetWritePtr(), sceneChangeValue, dst->GetRowSize(), dst->GetHeight(), 0, 0, dst->GetPitch());

	mov	eax, DWORD PTR _this$[ebp]
	mov	al, BYTE PTR [eax+392]
; File c:\github\mvtools\sources\copycode.cpp

; 105  : 	for (int y=offsetY; y<height+offsetY; y++)

	jle	SHORT $LN381@GetFrame
	mov	ebx, DWORD PTR $T7[ebp]
	mov	esi, DWORD PTR $T5[ebp]
	movzx	eax, al
	mov	DWORD PTR tv1262[ebp], eax
$LL382@GetFrame:

; 106  : 	{
; 107  : 		memset(ptr, value, width);

	push	esi
	push	eax
	push	edi
	call	_memset

; 108  : 		ptr += pitch;

	add	edi, DWORD PTR $T3[ebp]
	add	esp, 12					; 0000000cH
	mov	eax, DWORD PTR tv1262[ebp]
	sub	ebx, 1
	jne	SHORT $LL382@GetFrame
$LN422@GetFrame:
	mov	ebx, DWORD PTR ___$ReturnUdt$[ebp]
	mov	esi, DWORD PTR ?AVS_linkage@@3PBUAVS_Linkage@@B ; AVS_linkage
$LN381@GetFrame:
; File c:\github\mvtools\sources\include\avisynth.h

; 982  :   ~PVideoFrame() AVS_BakedCode( AVS_LinkCall(PVideoFrame_DESTRUCTOR)() )

	mov	DWORD PTR __$EHRec$[ebp+8], 2
	test	esi, esi
	je	SHORT $LN414@GetFrame
	cmp	DWORD PTR [esi], 272			; 00000110H
	jbe	SHORT $LN414@GetFrame
	mov	edx, DWORD PTR [esi+272]
	lea	ecx, DWORD PTR _mvn$[ebp]
	call	edx
$LN414@GetFrame:
; File c:\github\mvtools\sources\mvscdetection.cpp

; 97   : }

	mov	ecx, DWORD PTR __$EHRec$[ebp]
	mov	eax, ebx
	pop	edi
	pop	esi
	pop	ebx
	mov	DWORD PTR fs:0, ecx
	mov	esp, ebp
	pop	ebp
	ret	16					; 00000010H
_TEXT	ENDS
;	COMDAT text$x
text$x	SEGMENT
__unwindfunclet$?GetFrame@MVSCDetection@@UAG?AVPVideoFrame@@HPAVIScriptEnvironment@@@Z$0:
	mov	eax, DWORD PTR $T2[ebp]
	and	eax, 1
	je	$LN17@GetFrame
	and	DWORD PTR $T2[ebp], -2			; fffffffeH
	mov	ecx, DWORD PTR ___$ReturnUdt$[ebp]
	jmp	??1PVideoFrame@@QAE@XZ			; PVideoFrame::~PVideoFrame
$LN17@GetFrame:
	ret	0
__unwindfunclet$?GetFrame@MVSCDetection@@UAG?AVPVideoFrame@@HPAVIScriptEnvironment@@@Z$1:
	lea	ecx, DWORD PTR _mvn$[ebp]
	jmp	??1PVideoFrame@@QAE@XZ			; PVideoFrame::~PVideoFrame
__unwindfunclet$?GetFrame@MVSCDetection@@UAG?AVPVideoFrame@@HPAVIScriptEnvironment@@@Z$2:
	call	DWORD PTR __imp____std_terminate
	ret	0
__ehhandler$?GetFrame@MVSCDetection@@UAG?AVPVideoFrame@@HPAVIScriptEnvironment@@@Z:
	mov	eax, OFFSET __ehfuncinfo$?GetFrame@MVSCDetection@@UAG?AVPVideoFrame@@HPAVIScriptEnvironment@@@Z
	jmp	___CxxFrameHandler3
text$x	ENDS
?GetFrame@MVSCDetection@@UAG?AVPVideoFrame@@HPAVIScriptEnvironment@@@Z ENDP ; MVSCDetection::GetFrame
; Function compile flags: /Ogtpy
; File c:\github\mvtools\sources\include\avs\minmax.h
;	COMDAT ??$clamp@M@@YAMMMM@Z
_TEXT	SEGMENT
??$clamp@M@@YAMMMM@Z PROC				; clamp<float>, COMDAT
; _n$ = xmm0s
; _min$ = xmm1s
; _max$ = xmm2s

; 49   : {

	minss	xmm2, xmm0
	maxss	xmm1, xmm2

; 50   :     n = n > max ? max : n;
; 51   :     return n < min ? min : n;

	movaps	xmm0, xmm1

; 52   : }

	ret	0
??$clamp@M@@YAMMMM@Z ENDP				; clamp<float>
_TEXT	ENDS
; Function compile flags: /Ogtpy
; File c:\github\mvtools\sources\include\avs\minmax.h
;	COMDAT ??$clamp@H@@YAHHHH@Z
_TEXT	SEGMENT
_max$ = 8						; size = 4
??$clamp@H@@YAHHHH@Z PROC				; clamp<int>, COMDAT
; _n$ = ecx
; _min$ = edx

; 50   :     n = n > max ? max : n;

	cmp	ecx, DWORD PTR _max$[esp-4]
	cmovg	ecx, DWORD PTR _max$[esp-4]

; 51   :     return n < min ? min : n;

	cmp	ecx, edx
	cmovl	ecx, edx
	mov	eax, ecx

; 52   : }

	ret	0
??$clamp@H@@YAHHHH@Z ENDP				; clamp<int>
_TEXT	ENDS
END
