; Listing generated by Microsoft (R) Optimizing Compiler Version 19.00.24215.1 

	TITLE	c:\github\mvtools\sources\overlap.cpp
	.686P
	.XMM
	include listing.inc
	.model	flat

INCLUDELIB OLDNAMES

EXTRN	_Overlaps16x16_sse2:PROC
EXTRN	_Overlaps2x2_sse2:PROC
EXTRN	_Overlaps8x16_sse2:PROC
EXTRN	_Overlaps16x4_sse2:PROC
EXTRN	_Overlaps8x1_sse2:PROC
EXTRN	_Overlaps8x2_sse2:PROC
EXTRN	_Overlaps32x32_sse2:PROC
EXTRN	_Overlaps8x8_sse2:PROC
EXTRN	_Overlaps32x16_sse2:PROC
EXTRN	_Overlaps16x2_sse2:PROC
EXTRN	_Overlaps2x4_sse2:PROC
EXTRN	_Overlaps16x32_sse2:PROC
EXTRN	_Overlaps4x4_sse2:PROC
EXTRN	_Overlaps16x8_sse2:PROC
EXTRN	_Overlaps32x8_sse2:PROC
EXTRN	_Overlaps4x8_sse2:PROC
EXTRN	_Overlaps4x2_sse2:PROC
EXTRN	_Overlaps8x4_sse2:PROC
?piecewise_construct@std@@3Upiecewise_construct_t@1@B	ORG $+1 ; std::piecewise_construct
PUBLIC	??$?0V?$tuple@$$QAV?$tuple@HHHW4arch_t@@@std@@@std@@V?$tuple@$$V@1@$0A@$$Z$S@?$pair@$$CBV?$tuple@HHHW4arch_t@@@std@@P6AXPAGHPBEHPAFH@Z@std@@QAE@AAV?$tuple@$$QAV?$tuple@HHHW4arch_t@@@std@@@1@AAV?$tuple@$$V@1@U?$integer_sequence@I$0A@@1@U?$integer_sequence@I$S@1@@Z ; std::pair<std::tuple<int,int,int,enum arch_t> const ,void (__cdecl*)(unsigned short *,int,unsigned char const *,int,short *,int)>::pair<std::tuple<int,int,int,enum arch_t> const ,void (__cdecl*)(unsigned short *,int,unsigned char const *,int,short *,int)><std::tuple<std::tuple<int,int,int,enum arch_t> &&>,std::tuple<>,0>
PUBLIC	??$?0V?$tuple@$$QAV?$tuple@HHHW4arch_t@@@std@@@std@@V?$tuple@$$V@1@$0A@$$Z$S@?$pair@$$CBV?$tuple@HHHW4arch_t@@@std@@P6AXPAHHPBE1HPAFH@Z@std@@QAE@AAV?$tuple@$$QAV?$tuple@HHHW4arch_t@@@std@@@1@AAV?$tuple@$$V@1@U?$integer_sequence@I$0A@@1@U?$integer_sequence@I$S@1@@Z ; std::pair<std::tuple<int,int,int,enum arch_t> const ,void (__cdecl*)(int *,int,unsigned char const *,unsigned char const *,int,short *,int)>::pair<std::tuple<int,int,int,enum arch_t> const ,void (__cdecl*)(int *,int,unsigned char const *,unsigned char const *,int,short *,int)><std::tuple<std::tuple<int,int,int,enum arch_t> &&>,std::tuple<>,0>
PUBLIC	??$?0$$QAV?$tuple@HHHW4arch_t@@@std@@$$Z$$V@?$pair@$$CBV?$tuple@HHHW4arch_t@@@std@@P6AXPAGHPBEHPAFH@Z@std@@QAE@Upiecewise_construct_t@1@V?$tuple@$$QAV?$tuple@HHHW4arch_t@@@std@@@1@V?$tuple@$$V@1@@Z ; std::pair<std::tuple<int,int,int,enum arch_t> const ,void (__cdecl*)(unsigned short *,int,unsigned char const *,int,short *,int)>::pair<std::tuple<int,int,int,enum arch_t> const ,void (__cdecl*)(unsigned short *,int,unsigned char const *,int,short *,int)><std::tuple<int,int,int,enum arch_t> &&>
PUBLIC	??$?0$$QAV?$tuple@HHHW4arch_t@@@std@@$$Z$$V@?$pair@$$CBV?$tuple@HHHW4arch_t@@@std@@P6AXPAHHPBE1HPAFH@Z@std@@QAE@Upiecewise_construct_t@1@V?$tuple@$$QAV?$tuple@HHHW4arch_t@@@std@@@1@V?$tuple@$$V@1@@Z ; std::pair<std::tuple<int,int,int,enum arch_t> const ,void (__cdecl*)(int *,int,unsigned char const *,unsigned char const *,int,short *,int)>::pair<std::tuple<int,int,int,enum arch_t> const ,void (__cdecl*)(int *,int,unsigned char const *,unsigned char const *,int,short *,int)><std::tuple<int,int,int,enum arch_t> &&>
PUBLIC	??$construct@U?$pair@$$CBV?$tuple@HHHW4arch_t@@@std@@P6AXPAGHPBEHPAFH@Z@std@@ABUpiecewise_construct_t@2@V?$tuple@$$QAV?$tuple@HHHW4arch_t@@@std@@@2@V?$tuple@$$V@2@@?$allocator@U?$_Tree_node@U?$pair@$$CBV?$tuple@HHHW4arch_t@@@std@@P6AXPAGHPBEHPAFH@Z@std@@PAX@std@@@std@@QAEXPAU?$pair@$$CBV?$tuple@HHHW4arch_t@@@std@@P6AXPAGHPBEHPAFH@Z@1@ABUpiecewise_construct_t@1@$$QAV?$tuple@$$QAV?$tuple@HHHW4arch_t@@@std@@@1@$$QAV?$tuple@$$V@1@@Z ; std::allocator<std::_Tree_node<std::pair<std::tuple<int,int,int,enum arch_t> const ,void (__cdecl*)(unsigned short *,int,unsigned char const *,int,short *,int)>,void *> >::construct<std::pair<std::tuple<int,int,int,enum arch_t> const ,void (__cdecl*)(unsigned short *,int,unsigned char const *,int,short *,int)>,std::piecewise_construct_t const &,std::tuple<std::tuple<int,int,int,enum arch_t> &&>,std::tuple<> >
PUBLIC	??$construct@U?$pair@$$CBV?$tuple@HHHW4arch_t@@@std@@P6AXPAHHPBE1HPAFH@Z@std@@ABUpiecewise_construct_t@2@V?$tuple@$$QAV?$tuple@HHHW4arch_t@@@std@@@2@V?$tuple@$$V@2@@?$allocator@U?$_Tree_node@U?$pair@$$CBV?$tuple@HHHW4arch_t@@@std@@P6AXPAHHPBE1HPAFH@Z@std@@PAX@std@@@std@@QAEXPAU?$pair@$$CBV?$tuple@HHHW4arch_t@@@std@@P6AXPAHHPBE1HPAFH@Z@1@ABUpiecewise_construct_t@1@$$QAV?$tuple@$$QAV?$tuple@HHHW4arch_t@@@std@@@1@$$QAV?$tuple@$$V@1@@Z ; std::allocator<std::_Tree_node<std::pair<std::tuple<int,int,int,enum arch_t> const ,void (__cdecl*)(int *,int,unsigned char const *,unsigned char const *,int,short *,int)>,void *> >::construct<std::pair<std::tuple<int,int,int,enum arch_t> const ,void (__cdecl*)(int *,int,unsigned char const *,unsigned char const *,int,short *,int)>,std::piecewise_construct_t const &,std::tuple<std::tuple<int,int,int,enum arch_t> &&>,std::tuple<> >
PUBLIC	??$_Buynode_if_nil@AAU?$pair@$$CBV?$tuple@HHHW4arch_t@@@std@@P6AXPAGHPBEHPAFH@Z@std@@@?$_Tree@V?$_Tmap_traits@V?$tuple@HHHW4arch_t@@@std@@P6AXPAGHPBEHPAFH@ZU?$less@V?$tuple@HHHW4arch_t@@@std@@@2@V?$allocator@U?$pair@$$CBV?$tuple@HHHW4arch_t@@@std@@P6AXPAGHPBEHPAFH@Z@std@@@2@$0A@@std@@@std@@IAEPAU?$_Tree_node@U?$pair@$$CBV?$tuple@HHHW4arch_t@@@std@@P6AXPAGHPBEHPAFH@Z@std@@PAX@1@PAU21@AAU?$pair@$$CBV?$tuple@HHHW4arch_t@@@std@@P6AXPAGHPBEHPAFH@Z@1@@Z ; std::_Tree<std::_Tmap_traits<std::tuple<int,int,int,enum arch_t>,void (__cdecl*)(unsigned short *,int,unsigned char const *,int,short *,int),std::less<std::tuple<int,int,int,enum arch_t> >,std::allocator<std::pair<std::tuple<int,int,int,enum arch_t> const ,void (__cdecl*)(unsigned short *,int,unsigned char const *,int,short *,int)> >,0> >::_Buynode_if_nil<std::pair<std::tuple<int,int,int,enum arch_t> const ,void (__cdecl*)(unsigned short *,int,unsigned char const *,int,short *,int)> &>
PUBLIC	??$construct@U?$pair@$$CBV?$tuple@HHHW4arch_t@@@std@@P6AXPAGHPBEHPAFH@Z@std@@ABUpiecewise_construct_t@2@V?$tuple@$$QAV?$tuple@HHHW4arch_t@@@std@@@2@V?$tuple@$$V@2@@?$allocator_traits@V?$allocator@U?$_Tree_node@U?$pair@$$CBV?$tuple@HHHW4arch_t@@@std@@P6AXPAGHPBEHPAFH@Z@std@@PAX@std@@@std@@@std@@SAXAAV?$allocator@U?$_Tree_node@U?$pair@$$CBV?$tuple@HHHW4arch_t@@@std@@P6AXPAGHPBEHPAFH@Z@std@@PAX@std@@@1@PAU?$pair@$$CBV?$tuple@HHHW4arch_t@@@std@@P6AXPAGHPBEHPAFH@Z@1@ABUpiecewise_construct_t@1@$$QAV?$tuple@$$QAV?$tuple@HHHW4arch_t@@@std@@@1@$$QAV?$tuple@$$V@1@@Z ; std::allocator_traits<std::allocator<std::_Tree_node<std::pair<std::tuple<int,int,int,enum arch_t> const ,void (__cdecl*)(unsigned short *,int,unsigned char const *,int,short *,int)>,void *> > >::construct<std::pair<std::tuple<int,int,int,enum arch_t> const ,void (__cdecl*)(unsigned short *,int,unsigned char const *,int,short *,int)>,std::piecewise_construct_t const &,std::tuple<std::tuple<int,int,int,enum arch_t> &&>,std::tuple<> >
PUBLIC	??$_Buynode_if_nil@AAU?$pair@$$CBV?$tuple@HHHW4arch_t@@@std@@P6AXPAHHPBE1HPAFH@Z@std@@@?$_Tree@V?$_Tmap_traits@V?$tuple@HHHW4arch_t@@@std@@P6AXPAHHPBE1HPAFH@ZU?$less@V?$tuple@HHHW4arch_t@@@std@@@2@V?$allocator@U?$pair@$$CBV?$tuple@HHHW4arch_t@@@std@@P6AXPAHHPBE1HPAFH@Z@std@@@2@$0A@@std@@@std@@IAEPAU?$_Tree_node@U?$pair@$$CBV?$tuple@HHHW4arch_t@@@std@@P6AXPAHHPBE1HPAFH@Z@std@@PAX@1@PAU21@AAU?$pair@$$CBV?$tuple@HHHW4arch_t@@@std@@P6AXPAHHPBE1HPAFH@Z@1@@Z ; std::_Tree<std::_Tmap_traits<std::tuple<int,int,int,enum arch_t>,void (__cdecl*)(int *,int,unsigned char const *,unsigned char const *,int,short *,int),std::less<std::tuple<int,int,int,enum arch_t> >,std::allocator<std::pair<std::tuple<int,int,int,enum arch_t> const ,void (__cdecl*)(int *,int,unsigned char const *,unsigned char const *,int,short *,int)> >,0> >::_Buynode_if_nil<std::pair<std::tuple<int,int,int,enum arch_t> const ,void (__cdecl*)(int *,int,unsigned char const *,unsigned char const *,int,short *,int)> &>
PUBLIC	??$construct@U?$pair@$$CBV?$tuple@HHHW4arch_t@@@std@@P6AXPAHHPBE1HPAFH@Z@std@@ABUpiecewise_construct_t@2@V?$tuple@$$QAV?$tuple@HHHW4arch_t@@@std@@@2@V?$tuple@$$V@2@@?$allocator_traits@V?$allocator@U?$_Tree_node@U?$pair@$$CBV?$tuple@HHHW4arch_t@@@std@@P6AXPAHHPBE1HPAFH@Z@std@@PAX@std@@@std@@@std@@SAXAAV?$allocator@U?$_Tree_node@U?$pair@$$CBV?$tuple@HHHW4arch_t@@@std@@P6AXPAHHPBE1HPAFH@Z@std@@PAX@std@@@1@PAU?$pair@$$CBV?$tuple@HHHW4arch_t@@@std@@P6AXPAHHPBE1HPAFH@Z@1@ABUpiecewise_construct_t@1@$$QAV?$tuple@$$QAV?$tuple@HHHW4arch_t@@@std@@@1@$$QAV?$tuple@$$V@1@@Z ; std::allocator_traits<std::allocator<std::_Tree_node<std::pair<std::tuple<int,int,int,enum arch_t> const ,void (__cdecl*)(int *,int,unsigned char const *,unsigned char const *,int,short *,int)>,void *> > >::construct<std::pair<std::tuple<int,int,int,enum arch_t> const ,void (__cdecl*)(int *,int,unsigned char const *,unsigned char const *,int,short *,int)>,std::piecewise_construct_t const &,std::tuple<std::tuple<int,int,int,enum arch_t> &&>,std::tuple<> >
PUBLIC	?max_size@?$allocator@U?$_Tree_node@U?$pair@$$CBV?$tuple@HHHW4arch_t@@@std@@P6AXPAGHPBEHPAFH@Z@std@@PAX@std@@@std@@QBEIXZ ; std::allocator<std::_Tree_node<std::pair<std::tuple<int,int,int,enum arch_t> const ,void (__cdecl*)(unsigned short *,int,unsigned char const *,int,short *,int)>,void *> >::max_size
PUBLIC	?max_size@?$allocator@U?$_Tree_node@U?$pair@$$CBV?$tuple@HHHW4arch_t@@@std@@P6AXPAHHPBE1HPAFH@Z@std@@PAX@std@@@std@@QBEIXZ ; std::allocator<std::_Tree_node<std::pair<std::tuple<int,int,int,enum arch_t> const ,void (__cdecl*)(int *,int,unsigned char const *,unsigned char const *,int,short *,int)>,void *> >::max_size
PUBLIC	?max_size@?$allocator_traits@V?$allocator@U?$_Tree_node@U?$pair@$$CBV?$tuple@HHHW4arch_t@@@std@@P6AXPAGHPBEHPAFH@Z@std@@PAX@std@@@std@@@std@@SAIABV?$allocator@U?$_Tree_node@U?$pair@$$CBV?$tuple@HHHW4arch_t@@@std@@P6AXPAGHPBEHPAFH@Z@std@@PAX@std@@@2@@Z ; std::allocator_traits<std::allocator<std::_Tree_node<std::pair<std::tuple<int,int,int,enum arch_t> const ,void (__cdecl*)(unsigned short *,int,unsigned char const *,int,short *,int)>,void *> > >::max_size
PUBLIC	?_Get_first@?$_Compressed_pair@U?$_Wrap_alloc@V?$allocator@U?$_Tree_node@U?$pair@$$CBV?$tuple@HHHW4arch_t@@@std@@P6AXPAGHPBEHPAFH@Z@std@@PAX@std@@@std@@@std@@V?$_Tree_val@U?$_Tree_simple_types@U?$pair@$$CBV?$tuple@HHHW4arch_t@@@std@@P6AXPAGHPBEHPAFH@Z@std@@@std@@@2@$00@std@@QBEABU?$_Wrap_alloc@V?$allocator@U?$_Tree_node@U?$pair@$$CBV?$tuple@HHHW4arch_t@@@std@@P6AXPAGHPBEHPAFH@Z@std@@PAX@std@@@std@@@2@XZ ; std::_Compressed_pair<std::_Wrap_alloc<std::allocator<std::_Tree_node<std::pair<std::tuple<int,int,int,enum arch_t> const ,void (__cdecl*)(unsigned short *,int,unsigned char const *,int,short *,int)>,void *> > >,std::_Tree_val<std::_Tree_simple_types<std::pair<std::tuple<int,int,int,enum arch_t> const ,void (__cdecl*)(unsigned short *,int,unsigned char const *,int,short *,int)> > >,1>::_Get_first
PUBLIC	?max_size@?$allocator_traits@V?$allocator@U?$_Tree_node@U?$pair@$$CBV?$tuple@HHHW4arch_t@@@std@@P6AXPAHHPBE1HPAFH@Z@std@@PAX@std@@@std@@@std@@SAIABV?$allocator@U?$_Tree_node@U?$pair@$$CBV?$tuple@HHHW4arch_t@@@std@@P6AXPAHHPBE1HPAFH@Z@std@@PAX@std@@@2@@Z ; std::allocator_traits<std::allocator<std::_Tree_node<std::pair<std::tuple<int,int,int,enum arch_t> const ,void (__cdecl*)(int *,int,unsigned char const *,unsigned char const *,int,short *,int)>,void *> > >::max_size
PUBLIC	?_Get_first@?$_Compressed_pair@U?$_Wrap_alloc@V?$allocator@U?$_Tree_node@U?$pair@$$CBV?$tuple@HHHW4arch_t@@@std@@P6AXPAHHPBE1HPAFH@Z@std@@PAX@std@@@std@@@std@@V?$_Tree_val@U?$_Tree_simple_types@U?$pair@$$CBV?$tuple@HHHW4arch_t@@@std@@P6AXPAHHPBE1HPAFH@Z@std@@@std@@@2@$00@std@@QBEABU?$_Wrap_alloc@V?$allocator@U?$_Tree_node@U?$pair@$$CBV?$tuple@HHHW4arch_t@@@std@@P6AXPAHHPBE1HPAFH@Z@std@@PAX@std@@@std@@@2@XZ ; std::_Compressed_pair<std::_Wrap_alloc<std::allocator<std::_Tree_node<std::pair<std::tuple<int,int,int,enum arch_t> const ,void (__cdecl*)(int *,int,unsigned char const *,unsigned char const *,int,short *,int)>,void *> > >,std::_Tree_val<std::_Tree_simple_types<std::pair<std::tuple<int,int,int,enum arch_t> const ,void (__cdecl*)(int *,int,unsigned char const *,unsigned char const *,int,short *,int)> > >,1>::_Get_first
PUBLIC	?_Getal@?$_Tree_comp_alloc@V?$_Tmap_traits@V?$tuple@HHHW4arch_t@@@std@@P6AXPAGHPBEHPAFH@ZU?$less@V?$tuple@HHHW4arch_t@@@std@@@2@V?$allocator@U?$pair@$$CBV?$tuple@HHHW4arch_t@@@std@@P6AXPAGHPBEHPAFH@Z@std@@@2@$0A@@std@@@std@@QBEABU?$_Wrap_alloc@V?$allocator@U?$_Tree_node@U?$pair@$$CBV?$tuple@HHHW4arch_t@@@std@@P6AXPAGHPBEHPAFH@Z@std@@PAX@std@@@std@@@2@XZ ; std::_Tree_comp_alloc<std::_Tmap_traits<std::tuple<int,int,int,enum arch_t>,void (__cdecl*)(unsigned short *,int,unsigned char const *,int,short *,int),std::less<std::tuple<int,int,int,enum arch_t> >,std::allocator<std::pair<std::tuple<int,int,int,enum arch_t> const ,void (__cdecl*)(unsigned short *,int,unsigned char const *,int,short *,int)> >,0> >::_Getal
PUBLIC	?max_size@?$_Wrap_alloc@V?$allocator@U?$_Tree_node@U?$pair@$$CBV?$tuple@HHHW4arch_t@@@std@@P6AXPAGHPBEHPAFH@Z@std@@PAX@std@@@std@@@std@@QBEIU_Nil@2@@Z ; std::_Wrap_alloc<std::allocator<std::_Tree_node<std::pair<std::tuple<int,int,int,enum arch_t> const ,void (__cdecl*)(unsigned short *,int,unsigned char const *,int,short *,int)>,void *> > >::max_size
PUBLIC	?_Getal@?$_Tree_comp_alloc@V?$_Tmap_traits@V?$tuple@HHHW4arch_t@@@std@@P6AXPAHHPBE1HPAFH@ZU?$less@V?$tuple@HHHW4arch_t@@@std@@@2@V?$allocator@U?$pair@$$CBV?$tuple@HHHW4arch_t@@@std@@P6AXPAHHPBE1HPAFH@Z@std@@@2@$0A@@std@@@std@@QBEABU?$_Wrap_alloc@V?$allocator@U?$_Tree_node@U?$pair@$$CBV?$tuple@HHHW4arch_t@@@std@@P6AXPAHHPBE1HPAFH@Z@std@@PAX@std@@@std@@@2@XZ ; std::_Tree_comp_alloc<std::_Tmap_traits<std::tuple<int,int,int,enum arch_t>,void (__cdecl*)(int *,int,unsigned char const *,unsigned char const *,int,short *,int),std::less<std::tuple<int,int,int,enum arch_t> >,std::allocator<std::pair<std::tuple<int,int,int,enum arch_t> const ,void (__cdecl*)(int *,int,unsigned char const *,unsigned char const *,int,short *,int)> >,0> >::_Getal
PUBLIC	?max_size@?$_Wrap_alloc@V?$allocator@U?$_Tree_node@U?$pair@$$CBV?$tuple@HHHW4arch_t@@@std@@P6AXPAHHPBE1HPAFH@Z@std@@PAX@std@@@std@@@std@@QBEIU_Nil@2@@Z ; std::_Wrap_alloc<std::allocator<std::_Tree_node<std::pair<std::tuple<int,int,int,enum arch_t> const ,void (__cdecl*)(int *,int,unsigned char const *,unsigned char const *,int,short *,int)>,void *> > >::max_size
PUBLIC	?max_size@?$_Tree@V?$_Tmap_traits@V?$tuple@HHHW4arch_t@@@std@@P6AXPAGHPBEHPAFH@ZU?$less@V?$tuple@HHHW4arch_t@@@std@@@2@V?$allocator@U?$pair@$$CBV?$tuple@HHHW4arch_t@@@std@@P6AXPAGHPBEHPAFH@Z@std@@@2@$0A@@std@@@std@@QBEIXZ ; std::_Tree<std::_Tmap_traits<std::tuple<int,int,int,enum arch_t>,void (__cdecl*)(unsigned short *,int,unsigned char const *,int,short *,int),std::less<std::tuple<int,int,int,enum arch_t> >,std::allocator<std::pair<std::tuple<int,int,int,enum arch_t> const ,void (__cdecl*)(unsigned short *,int,unsigned char const *,int,short *,int)> >,0> >::max_size
PUBLIC	??F?$_Tree_iterator@V?$_Tree_val@U?$_Tree_simple_types@U?$pair@$$CBV?$tuple@HHHW4arch_t@@@std@@P6AXPAGHPBEHPAFH@Z@std@@@std@@@std@@@std@@QAEAAV01@XZ ; std::_Tree_iterator<std::_Tree_val<std::_Tree_simple_types<std::pair<std::tuple<int,int,int,enum arch_t> const ,void (__cdecl*)(unsigned short *,int,unsigned char const *,int,short *,int)> > > >::operator--
PUBLIC	?max_size@?$_Tree@V?$_Tmap_traits@V?$tuple@HHHW4arch_t@@@std@@P6AXPAHHPBE1HPAFH@ZU?$less@V?$tuple@HHHW4arch_t@@@std@@@2@V?$allocator@U?$pair@$$CBV?$tuple@HHHW4arch_t@@@std@@P6AXPAHHPBE1HPAFH@Z@std@@@2@$0A@@std@@@std@@QBEIXZ ; std::_Tree<std::_Tmap_traits<std::tuple<int,int,int,enum arch_t>,void (__cdecl*)(int *,int,unsigned char const *,unsigned char const *,int,short *,int),std::less<std::tuple<int,int,int,enum arch_t> >,std::allocator<std::pair<std::tuple<int,int,int,enum arch_t> const ,void (__cdecl*)(int *,int,unsigned char const *,unsigned char const *,int,short *,int)> >,0> >::max_size
PUBLIC	??F?$_Tree_iterator@V?$_Tree_val@U?$_Tree_simple_types@U?$pair@$$CBV?$tuple@HHHW4arch_t@@@std@@P6AXPAHHPBE1HPAFH@Z@std@@@std@@@std@@@std@@QAEAAV01@XZ ; std::_Tree_iterator<std::_Tree_val<std::_Tree_simple_types<std::pair<std::tuple<int,int,int,enum arch_t> const ,void (__cdecl*)(int *,int,unsigned char const *,unsigned char const *,int,short *,int)> > > >::operator--
PUBLIC	??$_Insert_nohint@AAU?$pair@$$CBV?$tuple@HHHW4arch_t@@@std@@P6AXPAGHPBEHPAFH@Z@std@@PAU?$_Tree_node@U?$pair@$$CBV?$tuple@HHHW4arch_t@@@std@@P6AXPAGHPBEHPAFH@Z@std@@PAX@2@@?$_Tree@V?$_Tmap_traits@V?$tuple@HHHW4arch_t@@@std@@P6AXPAGHPBEHPAFH@ZU?$less@V?$tuple@HHHW4arch_t@@@std@@@2@V?$allocator@U?$pair@$$CBV?$tuple@HHHW4arch_t@@@std@@P6AXPAGHPBEHPAFH@Z@std@@@2@$0A@@std@@@std@@IAE?AU?$pair@V?$_Tree_iterator@V?$_Tree_val@U?$_Tree_simple_types@U?$pair@$$CBV?$tuple@HHHW4arch_t@@@std@@P6AXPAGHPBEHPAFH@Z@std@@@std@@@std@@@std@@_N@1@_NAAU?$pair@$$CBV?$tuple@HHHW4arch_t@@@std@@P6AXPAGHPBEHPAFH@Z@1@PAU?$_Tree_node@U?$pair@$$CBV?$tuple@HHHW4arch_t@@@std@@P6AXPAGHPBEHPAFH@Z@std@@PAX@1@@Z ; std::_Tree<std::_Tmap_traits<std::tuple<int,int,int,enum arch_t>,void (__cdecl*)(unsigned short *,int,unsigned char const *,int,short *,int),std::less<std::tuple<int,int,int,enum arch_t> >,std::allocator<std::pair<std::tuple<int,int,int,enum arch_t> const ,void (__cdecl*)(unsigned short *,int,unsigned char const *,int,short *,int)> >,0> >::_Insert_nohint<std::pair<std::tuple<int,int,int,enum arch_t> const ,void (__cdecl*)(unsigned short *,int,unsigned char const *,int,short *,int)> &,std::_Tree_node<std::pair<std::tuple<int,int,int,enum arch_t> const ,void (__cdecl*)(unsigned short *,int,unsigned char const *,int,short *,int)>,void *> *>
PUBLIC	??$_Insert_at@AAU?$pair@$$CBV?$tuple@HHHW4arch_t@@@std@@P6AXPAGHPBEHPAFH@Z@std@@PAU?$_Tree_node@U?$pair@$$CBV?$tuple@HHHW4arch_t@@@std@@P6AXPAGHPBEHPAFH@Z@std@@PAX@2@@?$_Tree@V?$_Tmap_traits@V?$tuple@HHHW4arch_t@@@std@@P6AXPAGHPBEHPAFH@ZU?$less@V?$tuple@HHHW4arch_t@@@std@@@2@V?$allocator@U?$pair@$$CBV?$tuple@HHHW4arch_t@@@std@@P6AXPAGHPBEHPAFH@Z@std@@@2@$0A@@std@@@std@@IAE?AV?$_Tree_iterator@V?$_Tree_val@U?$_Tree_simple_types@U?$pair@$$CBV?$tuple@HHHW4arch_t@@@std@@P6AXPAGHPBEHPAFH@Z@std@@@std@@@std@@@1@_NPAU?$_Tree_node@U?$pair@$$CBV?$tuple@HHHW4arch_t@@@std@@P6AXPAGHPBEHPAFH@Z@std@@PAX@1@AAU?$pair@$$CBV?$tuple@HHHW4arch_t@@@std@@P6AXPAGHPBEHPAFH@Z@1@1@Z ; std::_Tree<std::_Tmap_traits<std::tuple<int,int,int,enum arch_t>,void (__cdecl*)(unsigned short *,int,unsigned char const *,int,short *,int),std::less<std::tuple<int,int,int,enum arch_t> >,std::allocator<std::pair<std::tuple<int,int,int,enum arch_t> const ,void (__cdecl*)(unsigned short *,int,unsigned char const *,int,short *,int)> >,0> >::_Insert_at<std::pair<std::tuple<int,int,int,enum arch_t> const ,void (__cdecl*)(unsigned short *,int,unsigned char const *,int,short *,int)> &,std::_Tree_node<std::pair<std::tuple<int,int,int,enum arch_t> const ,void (__cdecl*)(unsigned short *,int,unsigned char const *,int,short *,int)>,void *> *>
PUBLIC	??$forward@AAU?$pair@$$CBV?$tuple@HHHW4arch_t@@@std@@P6AXPAGHPBEHPAFH@Z@std@@@std@@YAAAU?$pair@$$CBV?$tuple@HHHW4arch_t@@@std@@P6AXPAGHPBEHPAFH@Z@0@AAU10@@Z ; std::forward<std::pair<std::tuple<int,int,int,enum arch_t> const ,void (__cdecl*)(unsigned short *,int,unsigned char const *,int,short *,int)> &>
PUBLIC	??$construct@U?$pair@$$CBV?$tuple@HHHW4arch_t@@@std@@P6AXPAGHPBEHPAFH@Z@std@@ABUpiecewise_construct_t@2@V?$tuple@$$QAV?$tuple@HHHW4arch_t@@@std@@@2@V?$tuple@$$V@2@@?$_Wrap_alloc@V?$allocator@U?$_Tree_node@U?$pair@$$CBV?$tuple@HHHW4arch_t@@@std@@P6AXPAGHPBEHPAFH@Z@std@@PAX@std@@@std@@@std@@QAEXPAU?$pair@$$CBV?$tuple@HHHW4arch_t@@@std@@P6AXPAGHPBEHPAFH@Z@1@ABUpiecewise_construct_t@1@$$QAV?$tuple@$$QAV?$tuple@HHHW4arch_t@@@std@@@1@$$QAV?$tuple@$$V@1@@Z ; std::_Wrap_alloc<std::allocator<std::_Tree_node<std::pair<std::tuple<int,int,int,enum arch_t> const ,void (__cdecl*)(unsigned short *,int,unsigned char const *,int,short *,int)>,void *> > >::construct<std::pair<std::tuple<int,int,int,enum arch_t> const ,void (__cdecl*)(unsigned short *,int,unsigned char const *,int,short *,int)>,std::piecewise_construct_t const &,std::tuple<std::tuple<int,int,int,enum arch_t> &&>,std::tuple<> >
PUBLIC	??$_Insert_nohint@AAU?$pair@$$CBV?$tuple@HHHW4arch_t@@@std@@P6AXPAHHPBE1HPAFH@Z@std@@PAU?$_Tree_node@U?$pair@$$CBV?$tuple@HHHW4arch_t@@@std@@P6AXPAHHPBE1HPAFH@Z@std@@PAX@2@@?$_Tree@V?$_Tmap_traits@V?$tuple@HHHW4arch_t@@@std@@P6AXPAHHPBE1HPAFH@ZU?$less@V?$tuple@HHHW4arch_t@@@std@@@2@V?$allocator@U?$pair@$$CBV?$tuple@HHHW4arch_t@@@std@@P6AXPAHHPBE1HPAFH@Z@std@@@2@$0A@@std@@@std@@IAE?AU?$pair@V?$_Tree_iterator@V?$_Tree_val@U?$_Tree_simple_types@U?$pair@$$CBV?$tuple@HHHW4arch_t@@@std@@P6AXPAHHPBE1HPAFH@Z@std@@@std@@@std@@@std@@_N@1@_NAAU?$pair@$$CBV?$tuple@HHHW4arch_t@@@std@@P6AXPAHHPBE1HPAFH@Z@1@PAU?$_Tree_node@U?$pair@$$CBV?$tuple@HHHW4arch_t@@@std@@P6AXPAHHPBE1HPAFH@Z@std@@PAX@1@@Z ; std::_Tree<std::_Tmap_traits<std::tuple<int,int,int,enum arch_t>,void (__cdecl*)(int *,int,unsigned char const *,unsigned char const *,int,short *,int),std::less<std::tuple<int,int,int,enum arch_t> >,std::allocator<std::pair<std::tuple<int,int,int,enum arch_t> const ,void (__cdecl*)(int *,int,unsigned char const *,unsigned char const *,int,short *,int)> >,0> >::_Insert_nohint<std::pair<std::tuple<int,int,int,enum arch_t> const ,void (__cdecl*)(int *,int,unsigned char const *,unsigned char const *,int,short *,int)> &,std::_Tree_node<std::pair<std::tuple<int,int,int,enum arch_t> const ,void (__cdecl*)(int *,int,unsigned char const *,unsigned char const *,int,short *,int)>,void *> *>
PUBLIC	??$_Insert_at@AAU?$pair@$$CBV?$tuple@HHHW4arch_t@@@std@@P6AXPAHHPBE1HPAFH@Z@std@@PAU?$_Tree_node@U?$pair@$$CBV?$tuple@HHHW4arch_t@@@std@@P6AXPAHHPBE1HPAFH@Z@std@@PAX@2@@?$_Tree@V?$_Tmap_traits@V?$tuple@HHHW4arch_t@@@std@@P6AXPAHHPBE1HPAFH@ZU?$less@V?$tuple@HHHW4arch_t@@@std@@@2@V?$allocator@U?$pair@$$CBV?$tuple@HHHW4arch_t@@@std@@P6AXPAHHPBE1HPAFH@Z@std@@@2@$0A@@std@@@std@@IAE?AV?$_Tree_iterator@V?$_Tree_val@U?$_Tree_simple_types@U?$pair@$$CBV?$tuple@HHHW4arch_t@@@std@@P6AXPAHHPBE1HPAFH@Z@std@@@std@@@std@@@1@_NPAU?$_Tree_node@U?$pair@$$CBV?$tuple@HHHW4arch_t@@@std@@P6AXPAHHPBE1HPAFH@Z@std@@PAX@1@AAU?$pair@$$CBV?$tuple@HHHW4arch_t@@@std@@P6AXPAHHPBE1HPAFH@Z@1@1@Z ; std::_Tree<std::_Tmap_traits<std::tuple<int,int,int,enum arch_t>,void (__cdecl*)(int *,int,unsigned char const *,unsigned char const *,int,short *,int),std::less<std::tuple<int,int,int,enum arch_t> >,std::allocator<std::pair<std::tuple<int,int,int,enum arch_t> const ,void (__cdecl*)(int *,int,unsigned char const *,unsigned char const *,int,short *,int)> >,0> >::_Insert_at<std::pair<std::tuple<int,int,int,enum arch_t> const ,void (__cdecl*)(int *,int,unsigned char const *,unsigned char const *,int,short *,int)> &,std::_Tree_node<std::pair<std::tuple<int,int,int,enum arch_t> const ,void (__cdecl*)(int *,int,unsigned char const *,unsigned char const *,int,short *,int)>,void *> *>
PUBLIC	??$forward@AAU?$pair@$$CBV?$tuple@HHHW4arch_t@@@std@@P6AXPAHHPBE1HPAFH@Z@std@@@std@@YAAAU?$pair@$$CBV?$tuple@HHHW4arch_t@@@std@@P6AXPAHHPBE1HPAFH@Z@0@AAU10@@Z ; std::forward<std::pair<std::tuple<int,int,int,enum arch_t> const ,void (__cdecl*)(int *,int,unsigned char const *,unsigned char const *,int,short *,int)> &>
PUBLIC	??$construct@U?$pair@$$CBV?$tuple@HHHW4arch_t@@@std@@P6AXPAHHPBE1HPAFH@Z@std@@ABUpiecewise_construct_t@2@V?$tuple@$$QAV?$tuple@HHHW4arch_t@@@std@@@2@V?$tuple@$$V@2@@?$_Wrap_alloc@V?$allocator@U?$_Tree_node@U?$pair@$$CBV?$tuple@HHHW4arch_t@@@std@@P6AXPAHHPBE1HPAFH@Z@std@@PAX@std@@@std@@@std@@QAEXPAU?$pair@$$CBV?$tuple@HHHW4arch_t@@@std@@P6AXPAHHPBE1HPAFH@Z@1@ABUpiecewise_construct_t@1@$$QAV?$tuple@$$QAV?$tuple@HHHW4arch_t@@@std@@@1@$$QAV?$tuple@$$V@1@@Z ; std::_Wrap_alloc<std::allocator<std::_Tree_node<std::pair<std::tuple<int,int,int,enum arch_t> const ,void (__cdecl*)(int *,int,unsigned char const *,unsigned char const *,int,short *,int)>,void *> > >::construct<std::pair<std::tuple<int,int,int,enum arch_t> const ,void (__cdecl*)(int *,int,unsigned char const *,unsigned char const *,int,short *,int)>,std::piecewise_construct_t const &,std::tuple<std::tuple<int,int,int,enum arch_t> &&>,std::tuple<> >
PUBLIC	?_Mysize@?$_Tree_comp_alloc@V?$_Tmap_traits@V?$tuple@HHHW4arch_t@@@std@@P6AXPAGHPBEHPAFH@ZU?$less@V?$tuple@HHHW4arch_t@@@std@@@2@V?$allocator@U?$pair@$$CBV?$tuple@HHHW4arch_t@@@std@@P6AXPAGHPBEHPAFH@Z@std@@@2@$0A@@std@@@std@@QBEABIXZ ; std::_Tree_comp_alloc<std::_Tmap_traits<std::tuple<int,int,int,enum arch_t>,void (__cdecl*)(unsigned short *,int,unsigned char const *,int,short *,int),std::less<std::tuple<int,int,int,enum arch_t> >,std::allocator<std::pair<std::tuple<int,int,int,enum arch_t> const ,void (__cdecl*)(unsigned short *,int,unsigned char const *,int,short *,int)> >,0> >::_Mysize
PUBLIC	?_Mysize@?$_Tree_comp_alloc@V?$_Tmap_traits@V?$tuple@HHHW4arch_t@@@std@@P6AXPAHHPBE1HPAFH@ZU?$less@V?$tuple@HHHW4arch_t@@@std@@@2@V?$allocator@U?$pair@$$CBV?$tuple@HHHW4arch_t@@@std@@P6AXPAHHPBE1HPAFH@Z@std@@@2@$0A@@std@@@std@@QBEABIXZ ; std::_Tree_comp_alloc<std::_Tmap_traits<std::tuple<int,int,int,enum arch_t>,void (__cdecl*)(int *,int,unsigned char const *,unsigned char const *,int,short *,int),std::less<std::tuple<int,int,int,enum arch_t> >,std::allocator<std::pair<std::tuple<int,int,int,enum arch_t> const ,void (__cdecl*)(int *,int,unsigned char const *,unsigned char const *,int,short *,int)> >,0> >::_Mysize
PUBLIC	??0?$_Tree_unchecked_const_iterator@V?$_Tree_val@U?$_Tree_simple_types@U?$pair@$$CBV?$tuple@HHHW4arch_t@@@std@@P6AXPAHHPBE1HPAFH@Z@std@@@std@@@std@@U_Iterator_base0@2@@std@@QAE@XZ ; std::_Tree_unchecked_const_iterator<std::_Tree_val<std::_Tree_simple_types<std::pair<std::tuple<int,int,int,enum arch_t> const ,void (__cdecl*)(int *,int,unsigned char const *,unsigned char const *,int,short *,int)> > >,std::_Iterator_base0>::_Tree_unchecked_const_iterator<std::_Tree_val<std::_Tree_simple_types<std::pair<std::tuple<int,int,int,enum arch_t> const ,void (__cdecl*)(int *,int,unsigned char const *,unsigned char const *,int,short *,int)> > >,std::_Iterator_base0>
PUBLIC	??F?$_Tree_unchecked_const_iterator@V?$_Tree_val@U?$_Tree_simple_types@U?$pair@$$CBV?$tuple@HHHW4arch_t@@@std@@P6AXPAHHPBE1HPAFH@Z@std@@@std@@@std@@U_Iterator_base0@2@@std@@QAEAAV01@XZ ; std::_Tree_unchecked_const_iterator<std::_Tree_val<std::_Tree_simple_types<std::pair<std::tuple<int,int,int,enum arch_t> const ,void (__cdecl*)(int *,int,unsigned char const *,unsigned char const *,int,short *,int)> > >,std::_Iterator_base0>::operator--
PUBLIC	??0?$_Tree_unchecked_const_iterator@V?$_Tree_val@U?$_Tree_simple_types@U?$pair@$$CBV?$tuple@HHHW4arch_t@@@std@@P6AXPAGHPBEHPAFH@Z@std@@@std@@@std@@U_Iterator_base0@2@@std@@QAE@XZ ; std::_Tree_unchecked_const_iterator<std::_Tree_val<std::_Tree_simple_types<std::pair<std::tuple<int,int,int,enum arch_t> const ,void (__cdecl*)(unsigned short *,int,unsigned char const *,int,short *,int)> > >,std::_Iterator_base0>::_Tree_unchecked_const_iterator<std::_Tree_val<std::_Tree_simple_types<std::pair<std::tuple<int,int,int,enum arch_t> const ,void (__cdecl*)(unsigned short *,int,unsigned char const *,int,short *,int)> > >,std::_Iterator_base0>
PUBLIC	??F?$_Tree_unchecked_const_iterator@V?$_Tree_val@U?$_Tree_simple_types@U?$pair@$$CBV?$tuple@HHHW4arch_t@@@std@@P6AXPAGHPBEHPAFH@Z@std@@@std@@@std@@U_Iterator_base0@2@@std@@QAEAAV01@XZ ; std::_Tree_unchecked_const_iterator<std::_Tree_val<std::_Tree_simple_types<std::pair<std::tuple<int,int,int,enum arch_t> const ,void (__cdecl*)(unsigned short *,int,unsigned char const *,int,short *,int)> > >,std::_Iterator_base0>::operator--
PUBLIC	?size@?$_Tree@V?$_Tmap_traits@V?$tuple@HHHW4arch_t@@@std@@P6AXPAGHPBEHPAFH@ZU?$less@V?$tuple@HHHW4arch_t@@@std@@@2@V?$allocator@U?$pair@$$CBV?$tuple@HHHW4arch_t@@@std@@P6AXPAGHPBEHPAFH@Z@std@@@2@$0A@@std@@@std@@QBEIXZ ; std::_Tree<std::_Tmap_traits<std::tuple<int,int,int,enum arch_t>,void (__cdecl*)(unsigned short *,int,unsigned char const *,int,short *,int),std::less<std::tuple<int,int,int,enum arch_t> >,std::allocator<std::pair<std::tuple<int,int,int,enum arch_t> const ,void (__cdecl*)(unsigned short *,int,unsigned char const *,int,short *,int)> >,0> >::size
PUBLIC	?_Destroy_if_not_nil@?$_Tree@V?$_Tmap_traits@V?$tuple@HHHW4arch_t@@@std@@P6AXPAGHPBEHPAFH@ZU?$less@V?$tuple@HHHW4arch_t@@@std@@@2@V?$allocator@U?$pair@$$CBV?$tuple@HHHW4arch_t@@@std@@P6AXPAGHPBEHPAFH@Z@std@@@2@$0A@@std@@@std@@IAEXPAU?$_Tree_node@U?$pair@$$CBV?$tuple@HHHW4arch_t@@@std@@P6AXPAGHPBEHPAFH@Z@std@@PAX@2@@Z ; std::_Tree<std::_Tmap_traits<std::tuple<int,int,int,enum arch_t>,void (__cdecl*)(unsigned short *,int,unsigned char const *,int,short *,int),std::less<std::tuple<int,int,int,enum arch_t> >,std::allocator<std::pair<std::tuple<int,int,int,enum arch_t> const ,void (__cdecl*)(unsigned short *,int,unsigned char const *,int,short *,int)> >,0> >::_Destroy_if_not_nil
PUBLIC	?_Buynode0@?$_Tree_comp_alloc@V?$_Tmap_traits@V?$tuple@HHHW4arch_t@@@std@@P6AXPAGHPBEHPAFH@ZU?$less@V?$tuple@HHHW4arch_t@@@std@@@2@V?$allocator@U?$pair@$$CBV?$tuple@HHHW4arch_t@@@std@@P6AXPAGHPBEHPAFH@Z@std@@@2@$0A@@std@@@std@@QAEPAU?$_Tree_node@U?$pair@$$CBV?$tuple@HHHW4arch_t@@@std@@P6AXPAGHPBEHPAFH@Z@std@@PAX@2@XZ ; std::_Tree_comp_alloc<std::_Tmap_traits<std::tuple<int,int,int,enum arch_t>,void (__cdecl*)(unsigned short *,int,unsigned char const *,int,short *,int),std::less<std::tuple<int,int,int,enum arch_t> >,std::allocator<std::pair<std::tuple<int,int,int,enum arch_t> const ,void (__cdecl*)(unsigned short *,int,unsigned char const *,int,short *,int)> >,0> >::_Buynode0
PUBLIC	?_Freenode0@?$_Tree_comp_alloc@V?$_Tmap_traits@V?$tuple@HHHW4arch_t@@@std@@P6AXPAGHPBEHPAFH@ZU?$less@V?$tuple@HHHW4arch_t@@@std@@@2@V?$allocator@U?$pair@$$CBV?$tuple@HHHW4arch_t@@@std@@P6AXPAGHPBEHPAFH@Z@std@@@2@$0A@@std@@@std@@QAEXPAU?$_Tree_node@U?$pair@$$CBV?$tuple@HHHW4arch_t@@@std@@P6AXPAGHPBEHPAFH@Z@std@@PAX@2@@Z ; std::_Tree_comp_alloc<std::_Tmap_traits<std::tuple<int,int,int,enum arch_t>,void (__cdecl*)(unsigned short *,int,unsigned char const *,int,short *,int),std::less<std::tuple<int,int,int,enum arch_t> >,std::allocator<std::pair<std::tuple<int,int,int,enum arch_t> const ,void (__cdecl*)(unsigned short *,int,unsigned char const *,int,short *,int)> >,0> >::_Freenode0
PUBLIC	??0?$_Tree_const_iterator@V?$_Tree_val@U?$_Tree_simple_types@U?$pair@$$CBV?$tuple@HHHW4arch_t@@@std@@P6AXPAGHPBEHPAFH@Z@std@@@std@@@std@@@std@@QAE@XZ ; std::_Tree_const_iterator<std::_Tree_val<std::_Tree_simple_types<std::pair<std::tuple<int,int,int,enum arch_t> const ,void (__cdecl*)(unsigned short *,int,unsigned char const *,int,short *,int)> > > >::_Tree_const_iterator<std::_Tree_val<std::_Tree_simple_types<std::pair<std::tuple<int,int,int,enum arch_t> const ,void (__cdecl*)(unsigned short *,int,unsigned char const *,int,short *,int)> > > >
PUBLIC	??F?$_Tree_const_iterator@V?$_Tree_val@U?$_Tree_simple_types@U?$pair@$$CBV?$tuple@HHHW4arch_t@@@std@@P6AXPAGHPBEHPAFH@Z@std@@@std@@@std@@@std@@QAEAAV01@XZ ; std::_Tree_const_iterator<std::_Tree_val<std::_Tree_simple_types<std::pair<std::tuple<int,int,int,enum arch_t> const ,void (__cdecl*)(unsigned short *,int,unsigned char const *,int,short *,int)> > > >::operator--
PUBLIC	?size@?$_Tree@V?$_Tmap_traits@V?$tuple@HHHW4arch_t@@@std@@P6AXPAHHPBE1HPAFH@ZU?$less@V?$tuple@HHHW4arch_t@@@std@@@2@V?$allocator@U?$pair@$$CBV?$tuple@HHHW4arch_t@@@std@@P6AXPAHHPBE1HPAFH@Z@std@@@2@$0A@@std@@@std@@QBEIXZ ; std::_Tree<std::_Tmap_traits<std::tuple<int,int,int,enum arch_t>,void (__cdecl*)(int *,int,unsigned char const *,unsigned char const *,int,short *,int),std::less<std::tuple<int,int,int,enum arch_t> >,std::allocator<std::pair<std::tuple<int,int,int,enum arch_t> const ,void (__cdecl*)(int *,int,unsigned char const *,unsigned char const *,int,short *,int)> >,0> >::size
PUBLIC	?_Destroy_if_not_nil@?$_Tree@V?$_Tmap_traits@V?$tuple@HHHW4arch_t@@@std@@P6AXPAHHPBE1HPAFH@ZU?$less@V?$tuple@HHHW4arch_t@@@std@@@2@V?$allocator@U?$pair@$$CBV?$tuple@HHHW4arch_t@@@std@@P6AXPAHHPBE1HPAFH@Z@std@@@2@$0A@@std@@@std@@IAEXPAU?$_Tree_node@U?$pair@$$CBV?$tuple@HHHW4arch_t@@@std@@P6AXPAHHPBE1HPAFH@Z@std@@PAX@2@@Z ; std::_Tree<std::_Tmap_traits<std::tuple<int,int,int,enum arch_t>,void (__cdecl*)(int *,int,unsigned char const *,unsigned char const *,int,short *,int),std::less<std::tuple<int,int,int,enum arch_t> >,std::allocator<std::pair<std::tuple<int,int,int,enum arch_t> const ,void (__cdecl*)(int *,int,unsigned char const *,unsigned char const *,int,short *,int)> >,0> >::_Destroy_if_not_nil
PUBLIC	?_Buynode0@?$_Tree_comp_alloc@V?$_Tmap_traits@V?$tuple@HHHW4arch_t@@@std@@P6AXPAHHPBE1HPAFH@ZU?$less@V?$tuple@HHHW4arch_t@@@std@@@2@V?$allocator@U?$pair@$$CBV?$tuple@HHHW4arch_t@@@std@@P6AXPAHHPBE1HPAFH@Z@std@@@2@$0A@@std@@@std@@QAEPAU?$_Tree_node@U?$pair@$$CBV?$tuple@HHHW4arch_t@@@std@@P6AXPAHHPBE1HPAFH@Z@std@@PAX@2@XZ ; std::_Tree_comp_alloc<std::_Tmap_traits<std::tuple<int,int,int,enum arch_t>,void (__cdecl*)(int *,int,unsigned char const *,unsigned char const *,int,short *,int),std::less<std::tuple<int,int,int,enum arch_t> >,std::allocator<std::pair<std::tuple<int,int,int,enum arch_t> const ,void (__cdecl*)(int *,int,unsigned char const *,unsigned char const *,int,short *,int)> >,0> >::_Buynode0
PUBLIC	?_Freenode0@?$_Tree_comp_alloc@V?$_Tmap_traits@V?$tuple@HHHW4arch_t@@@std@@P6AXPAHHPBE1HPAFH@ZU?$less@V?$tuple@HHHW4arch_t@@@std@@@2@V?$allocator@U?$pair@$$CBV?$tuple@HHHW4arch_t@@@std@@P6AXPAHHPBE1HPAFH@Z@std@@@2@$0A@@std@@@std@@QAEXPAU?$_Tree_node@U?$pair@$$CBV?$tuple@HHHW4arch_t@@@std@@P6AXPAHHPBE1HPAFH@Z@std@@PAX@2@@Z ; std::_Tree_comp_alloc<std::_Tmap_traits<std::tuple<int,int,int,enum arch_t>,void (__cdecl*)(int *,int,unsigned char const *,unsigned char const *,int,short *,int),std::less<std::tuple<int,int,int,enum arch_t> >,std::allocator<std::pair<std::tuple<int,int,int,enum arch_t> const ,void (__cdecl*)(int *,int,unsigned char const *,unsigned char const *,int,short *,int)> >,0> >::_Freenode0
PUBLIC	??0?$_Tree_const_iterator@V?$_Tree_val@U?$_Tree_simple_types@U?$pair@$$CBV?$tuple@HHHW4arch_t@@@std@@P6AXPAHHPBE1HPAFH@Z@std@@@std@@@std@@@std@@QAE@XZ ; std::_Tree_const_iterator<std::_Tree_val<std::_Tree_simple_types<std::pair<std::tuple<int,int,int,enum arch_t> const ,void (__cdecl*)(int *,int,unsigned char const *,unsigned char const *,int,short *,int)> > > >::_Tree_const_iterator<std::_Tree_val<std::_Tree_simple_types<std::pair<std::tuple<int,int,int,enum arch_t> const ,void (__cdecl*)(int *,int,unsigned char const *,unsigned char const *,int,short *,int)> > > >
PUBLIC	??F?$_Tree_const_iterator@V?$_Tree_val@U?$_Tree_simple_types@U?$pair@$$CBV?$tuple@HHHW4arch_t@@@std@@P6AXPAHHPBE1HPAFH@Z@std@@@std@@@std@@@std@@QAEAAV01@XZ ; std::_Tree_const_iterator<std::_Tree_val<std::_Tree_simple_types<std::pair<std::tuple<int,int,int,enum arch_t> const ,void (__cdecl*)(int *,int,unsigned char const *,unsigned char const *,int,short *,int)> > > >::operator--
PUBLIC	??$forward@AAV?$_Tree_iterator@V?$_Tree_val@U?$_Tree_simple_types@U?$pair@$$CBV?$tuple@HHHW4arch_t@@@std@@P6AXPAGHPBEHPAFH@Z@std@@@std@@@std@@@std@@@std@@YAAAV?$_Tree_iterator@V?$_Tree_val@U?$_Tree_simple_types@U?$pair@$$CBV?$tuple@HHHW4arch_t@@@std@@P6AXPAGHPBEHPAFH@Z@std@@@std@@@std@@@0@AAV10@@Z ; std::forward<std::_Tree_iterator<std::_Tree_val<std::_Tree_simple_types<std::pair<std::tuple<int,int,int,enum arch_t> const ,void (__cdecl*)(unsigned short *,int,unsigned char const *,int,short *,int)> > > > &>
PUBLIC	??$forward@V?$_Tree_iterator@V?$_Tree_val@U?$_Tree_simple_types@U?$pair@$$CBV?$tuple@HHHW4arch_t@@@std@@P6AXPAGHPBEHPAFH@Z@std@@@std@@@std@@@std@@@std@@YA$$QAV?$_Tree_iterator@V?$_Tree_val@U?$_Tree_simple_types@U?$pair@$$CBV?$tuple@HHHW4arch_t@@@std@@P6AXPAGHPBEHPAFH@Z@std@@@std@@@std@@@0@AAV10@@Z ; std::forward<std::_Tree_iterator<std::_Tree_val<std::_Tree_simple_types<std::pair<std::tuple<int,int,int,enum arch_t> const ,void (__cdecl*)(unsigned short *,int,unsigned char const *,int,short *,int)> > > > >
PUBLIC	??$_Insert_hint@AAU?$pair@$$CBV?$tuple@HHHW4arch_t@@@std@@P6AXPAGHPBEHPAFH@Z@std@@PAU?$_Tree_node@U?$pair@$$CBV?$tuple@HHHW4arch_t@@@std@@P6AXPAGHPBEHPAFH@Z@std@@PAX@2@@?$_Tree@V?$_Tmap_traits@V?$tuple@HHHW4arch_t@@@std@@P6AXPAGHPBEHPAFH@ZU?$less@V?$tuple@HHHW4arch_t@@@std@@@2@V?$allocator@U?$pair@$$CBV?$tuple@HHHW4arch_t@@@std@@P6AXPAGHPBEHPAFH@Z@std@@@2@$0A@@std@@@std@@IAE?AV?$_Tree_iterator@V?$_Tree_val@U?$_Tree_simple_types@U?$pair@$$CBV?$tuple@HHHW4arch_t@@@std@@P6AXPAGHPBEHPAFH@Z@std@@@std@@@std@@@1@V?$_Tree_const_iterator@V?$_Tree_val@U?$_Tree_simple_types@U?$pair@$$CBV?$tuple@HHHW4arch_t@@@std@@P6AXPAGHPBEHPAFH@Z@std@@@std@@@std@@@1@AAU?$pair@$$CBV?$tuple@HHHW4arch_t@@@std@@P6AXPAGHPBEHPAFH@Z@1@PAU?$_Tree_node@U?$pair@$$CBV?$tuple@HHHW4arch_t@@@std@@P6AXPAGHPBEHPAFH@Z@std@@PAX@1@@Z ; std::_Tree<std::_Tmap_traits<std::tuple<int,int,int,enum arch_t>,void (__cdecl*)(unsigned short *,int,unsigned char const *,int,short *,int),std::less<std::tuple<int,int,int,enum arch_t> >,std::allocator<std::pair<std::tuple<int,int,int,enum arch_t> const ,void (__cdecl*)(unsigned short *,int,unsigned char const *,int,short *,int)> >,0> >::_Insert_hint<std::pair<std::tuple<int,int,int,enum arch_t> const ,void (__cdecl*)(unsigned short *,int,unsigned char const *,int,short *,int)> &,std::_Tree_node<std::pair<std::tuple<int,int,int,enum arch_t> const ,void (__cdecl*)(unsigned short *,int,unsigned char const *,int,short *,int)>,void *> *>
PUBLIC	??$_Buynode@ABUpiecewise_construct_t@std@@V?$tuple@$$QAV?$tuple@HHHW4arch_t@@@std@@@2@V?$tuple@$$V@2@@?$_Tree_comp_alloc@V?$_Tmap_traits@V?$tuple@HHHW4arch_t@@@std@@P6AXPAGHPBEHPAFH@ZU?$less@V?$tuple@HHHW4arch_t@@@std@@@2@V?$allocator@U?$pair@$$CBV?$tuple@HHHW4arch_t@@@std@@P6AXPAGHPBEHPAFH@Z@std@@@2@$0A@@std@@@std@@QAEPAU?$_Tree_node@U?$pair@$$CBV?$tuple@HHHW4arch_t@@@std@@P6AXPAGHPBEHPAFH@Z@std@@PAX@1@ABUpiecewise_construct_t@1@$$QAV?$tuple@$$QAV?$tuple@HHHW4arch_t@@@std@@@1@$$QAV?$tuple@$$V@1@@Z ; std::_Tree_comp_alloc<std::_Tmap_traits<std::tuple<int,int,int,enum arch_t>,void (__cdecl*)(unsigned short *,int,unsigned char const *,int,short *,int),std::less<std::tuple<int,int,int,enum arch_t> >,std::allocator<std::pair<std::tuple<int,int,int,enum arch_t> const ,void (__cdecl*)(unsigned short *,int,unsigned char const *,int,short *,int)> >,0> >::_Buynode<std::piecewise_construct_t const &,std::tuple<std::tuple<int,int,int,enum arch_t> &&>,std::tuple<> >
PUBLIC	??$forward@AAV?$_Tree_iterator@V?$_Tree_val@U?$_Tree_simple_types@U?$pair@$$CBV?$tuple@HHHW4arch_t@@@std@@P6AXPAHHPBE1HPAFH@Z@std@@@std@@@std@@@std@@@std@@YAAAV?$_Tree_iterator@V?$_Tree_val@U?$_Tree_simple_types@U?$pair@$$CBV?$tuple@HHHW4arch_t@@@std@@P6AXPAHHPBE1HPAFH@Z@std@@@std@@@std@@@0@AAV10@@Z ; std::forward<std::_Tree_iterator<std::_Tree_val<std::_Tree_simple_types<std::pair<std::tuple<int,int,int,enum arch_t> const ,void (__cdecl*)(int *,int,unsigned char const *,unsigned char const *,int,short *,int)> > > > &>
PUBLIC	??$forward@V?$_Tree_iterator@V?$_Tree_val@U?$_Tree_simple_types@U?$pair@$$CBV?$tuple@HHHW4arch_t@@@std@@P6AXPAHHPBE1HPAFH@Z@std@@@std@@@std@@@std@@@std@@YA$$QAV?$_Tree_iterator@V?$_Tree_val@U?$_Tree_simple_types@U?$pair@$$CBV?$tuple@HHHW4arch_t@@@std@@P6AXPAHHPBE1HPAFH@Z@std@@@std@@@std@@@0@AAV10@@Z ; std::forward<std::_Tree_iterator<std::_Tree_val<std::_Tree_simple_types<std::pair<std::tuple<int,int,int,enum arch_t> const ,void (__cdecl*)(int *,int,unsigned char const *,unsigned char const *,int,short *,int)> > > > >
PUBLIC	??$_Insert_hint@AAU?$pair@$$CBV?$tuple@HHHW4arch_t@@@std@@P6AXPAHHPBE1HPAFH@Z@std@@PAU?$_Tree_node@U?$pair@$$CBV?$tuple@HHHW4arch_t@@@std@@P6AXPAHHPBE1HPAFH@Z@std@@PAX@2@@?$_Tree@V?$_Tmap_traits@V?$tuple@HHHW4arch_t@@@std@@P6AXPAHHPBE1HPAFH@ZU?$less@V?$tuple@HHHW4arch_t@@@std@@@2@V?$allocator@U?$pair@$$CBV?$tuple@HHHW4arch_t@@@std@@P6AXPAHHPBE1HPAFH@Z@std@@@2@$0A@@std@@@std@@IAE?AV?$_Tree_iterator@V?$_Tree_val@U?$_Tree_simple_types@U?$pair@$$CBV?$tuple@HHHW4arch_t@@@std@@P6AXPAHHPBE1HPAFH@Z@std@@@std@@@std@@@1@V?$_Tree_const_iterator@V?$_Tree_val@U?$_Tree_simple_types@U?$pair@$$CBV?$tuple@HHHW4arch_t@@@std@@P6AXPAHHPBE1HPAFH@Z@std@@@std@@@std@@@1@AAU?$pair@$$CBV?$tuple@HHHW4arch_t@@@std@@P6AXPAHHPBE1HPAFH@Z@1@PAU?$_Tree_node@U?$pair@$$CBV?$tuple@HHHW4arch_t@@@std@@P6AXPAHHPBE1HPAFH@Z@std@@PAX@1@@Z ; std::_Tree<std::_Tmap_traits<std::tuple<int,int,int,enum arch_t>,void (__cdecl*)(int *,int,unsigned char const *,unsigned char const *,int,short *,int),std::less<std::tuple<int,int,int,enum arch_t> >,std::allocator<std::pair<std::tuple<int,int,int,enum arch_t> const ,void (__cdecl*)(int *,int,unsigned char const *,unsigned char const *,int,short *,int)> >,0> >::_Insert_hint<std::pair<std::tuple<int,int,int,enum arch_t> const ,void (__cdecl*)(int *,int,unsigned char const *,unsigned char const *,int,short *,int)> &,std::_Tree_node<std::pair<std::tuple<int,int,int,enum arch_t> const ,void (__cdecl*)(int *,int,unsigned char const *,unsigned char const *,int,short *,int)>,void *> *>
PUBLIC	??$_Buynode@ABUpiecewise_construct_t@std@@V?$tuple@$$QAV?$tuple@HHHW4arch_t@@@std@@@2@V?$tuple@$$V@2@@?$_Tree_comp_alloc@V?$_Tmap_traits@V?$tuple@HHHW4arch_t@@@std@@P6AXPAHHPBE1HPAFH@ZU?$less@V?$tuple@HHHW4arch_t@@@std@@@2@V?$allocator@U?$pair@$$CBV?$tuple@HHHW4arch_t@@@std@@P6AXPAHHPBE1HPAFH@Z@std@@@2@$0A@@std@@@std@@QAEPAU?$_Tree_node@U?$pair@$$CBV?$tuple@HHHW4arch_t@@@std@@P6AXPAHHPBE1HPAFH@Z@std@@PAX@1@ABUpiecewise_construct_t@1@$$QAV?$tuple@$$QAV?$tuple@HHHW4arch_t@@@std@@@1@$$QAV?$tuple@$$V@1@@Z ; std::_Tree_comp_alloc<std::_Tmap_traits<std::tuple<int,int,int,enum arch_t>,void (__cdecl*)(int *,int,unsigned char const *,unsigned char const *,int,short *,int),std::less<std::tuple<int,int,int,enum arch_t> >,std::allocator<std::pair<std::tuple<int,int,int,enum arch_t> const ,void (__cdecl*)(int *,int,unsigned char const *,unsigned char const *,int,short *,int)> >,0> >::_Buynode<std::piecewise_construct_t const &,std::tuple<std::tuple<int,int,int,enum arch_t> &&>,std::tuple<> >
PUBLIC	?_Get_first@?$_Compressed_pair@U?$less@V?$tuple@HHHW4arch_t@@@std@@@std@@V?$_Compressed_pair@U?$_Wrap_alloc@V?$allocator@U?$_Tree_node@U?$pair@$$CBV?$tuple@HHHW4arch_t@@@std@@P6AXPAGHPBEHPAFH@Z@std@@PAX@std@@@std@@@std@@V?$_Tree_val@U?$_Tree_simple_types@U?$pair@$$CBV?$tuple@HHHW4arch_t@@@std@@P6AXPAGHPBEHPAFH@Z@std@@@std@@@2@$00@2@$00@std@@QBEABU?$less@V?$tuple@HHHW4arch_t@@@std@@@2@XZ ; std::_Compressed_pair<std::less<std::tuple<int,int,int,enum arch_t> >,std::_Compressed_pair<std::_Wrap_alloc<std::allocator<std::_Tree_node<std::pair<std::tuple<int,int,int,enum arch_t> const ,void (__cdecl*)(unsigned short *,int,unsigned char const *,int,short *,int)>,void *> > >,std::_Tree_val<std::_Tree_simple_types<std::pair<std::tuple<int,int,int,enum arch_t> const ,void (__cdecl*)(unsigned short *,int,unsigned char const *,int,short *,int)> > >,1>,1>::_Get_first
PUBLIC	?_Get_first@?$_Compressed_pair@U?$less@V?$tuple@HHHW4arch_t@@@std@@@std@@V?$_Compressed_pair@U?$_Wrap_alloc@V?$allocator@U?$_Tree_node@U?$pair@$$CBV?$tuple@HHHW4arch_t@@@std@@P6AXPAHHPBE1HPAFH@Z@std@@PAX@std@@@std@@@std@@V?$_Tree_val@U?$_Tree_simple_types@U?$pair@$$CBV?$tuple@HHHW4arch_t@@@std@@P6AXPAHHPBE1HPAFH@Z@std@@@std@@@2@$00@2@$00@std@@QBEABU?$less@V?$tuple@HHHW4arch_t@@@std@@@2@XZ ; std::_Compressed_pair<std::less<std::tuple<int,int,int,enum arch_t> >,std::_Compressed_pair<std::_Wrap_alloc<std::allocator<std::_Tree_node<std::pair<std::tuple<int,int,int,enum arch_t> const ,void (__cdecl*)(int *,int,unsigned char const *,unsigned char const *,int,short *,int)>,void *> > >,std::_Tree_val<std::_Tree_simple_types<std::pair<std::tuple<int,int,int,enum arch_t> const ,void (__cdecl*)(int *,int,unsigned char const *,unsigned char const *,int,short *,int)> > >,1>,1>::_Get_first
PUBLIC	?_Getcomp@?$_Tree_comp_alloc@V?$_Tmap_traits@V?$tuple@HHHW4arch_t@@@std@@P6AXPAGHPBEHPAFH@ZU?$less@V?$tuple@HHHW4arch_t@@@std@@@2@V?$allocator@U?$pair@$$CBV?$tuple@HHHW4arch_t@@@std@@P6AXPAGHPBEHPAFH@Z@std@@@2@$0A@@std@@@std@@QBEABU?$less@V?$tuple@HHHW4arch_t@@@std@@@2@XZ ; std::_Tree_comp_alloc<std::_Tmap_traits<std::tuple<int,int,int,enum arch_t>,void (__cdecl*)(unsigned short *,int,unsigned char const *,int,short *,int),std::less<std::tuple<int,int,int,enum arch_t> >,std::allocator<std::pair<std::tuple<int,int,int,enum arch_t> const ,void (__cdecl*)(unsigned short *,int,unsigned char const *,int,short *,int)> >,0> >::_Getcomp
PUBLIC	?_Getcomp@?$_Tree_comp_alloc@V?$_Tmap_traits@V?$tuple@HHHW4arch_t@@@std@@P6AXPAHHPBE1HPAFH@ZU?$less@V?$tuple@HHHW4arch_t@@@std@@@2@V?$allocator@U?$pair@$$CBV?$tuple@HHHW4arch_t@@@std@@P6AXPAHHPBE1HPAFH@Z@std@@@2@$0A@@std@@@std@@QBEABU?$less@V?$tuple@HHHW4arch_t@@@std@@@2@XZ ; std::_Tree_comp_alloc<std::_Tmap_traits<std::tuple<int,int,int,enum arch_t>,void (__cdecl*)(int *,int,unsigned char const *,unsigned char const *,int,short *,int),std::less<std::tuple<int,int,int,enum arch_t> >,std::allocator<std::pair<std::tuple<int,int,int,enum arch_t> const ,void (__cdecl*)(int *,int,unsigned char const *,unsigned char const *,int,short *,int)> >,0> >::_Getcomp
PUBLIC	?_Compare@?$_Tree@V?$_Tmap_traits@V?$tuple@HHHW4arch_t@@@std@@P6AXPAGHPBEHPAFH@ZU?$less@V?$tuple@HHHW4arch_t@@@std@@@2@V?$allocator@U?$pair@$$CBV?$tuple@HHHW4arch_t@@@std@@P6AXPAGHPBEHPAFH@Z@std@@@2@$0A@@std@@@std@@IBE_NABV?$tuple@HHHW4arch_t@@@2@0@Z ; std::_Tree<std::_Tmap_traits<std::tuple<int,int,int,enum arch_t>,void (__cdecl*)(unsigned short *,int,unsigned char const *,int,short *,int),std::less<std::tuple<int,int,int,enum arch_t> >,std::allocator<std::pair<std::tuple<int,int,int,enum arch_t> const ,void (__cdecl*)(unsigned short *,int,unsigned char const *,int,short *,int)> >,0> >::_Compare
PUBLIC	?_Compare@?$_Tree@V?$_Tmap_traits@V?$tuple@HHHW4arch_t@@@std@@P6AXPAHHPBE1HPAFH@ZU?$less@V?$tuple@HHHW4arch_t@@@std@@@2@V?$allocator@U?$pair@$$CBV?$tuple@HHHW4arch_t@@@std@@P6AXPAHHPBE1HPAFH@Z@std@@@2@$0A@@std@@@std@@IBE_NABV?$tuple@HHHW4arch_t@@@2@0@Z ; std::_Tree<std::_Tmap_traits<std::tuple<int,int,int,enum arch_t>,void (__cdecl*)(int *,int,unsigned char const *,unsigned char const *,int,short *,int),std::less<std::tuple<int,int,int,enum arch_t> >,std::allocator<std::pair<std::tuple<int,int,int,enum arch_t> const ,void (__cdecl*)(int *,int,unsigned char const *,unsigned char const *,int,short *,int)> >,0> >::_Compare
PUBLIC	??$_Kfn@$$CBV?$tuple@HHHW4arch_t@@@std@@P6AXPAGHPBEHPAFH@Z@?$_Tmap_traits@V?$tuple@HHHW4arch_t@@@std@@P6AXPAGHPBEHPAFH@ZU?$less@V?$tuple@HHHW4arch_t@@@std@@@2@V?$allocator@U?$pair@$$CBV?$tuple@HHHW4arch_t@@@std@@P6AXPAGHPBEHPAFH@Z@std@@@2@$0A@@std@@SAABV?$tuple@HHHW4arch_t@@@1@ABU?$pair@$$CBV?$tuple@HHHW4arch_t@@@std@@P6AXPAGHPBEHPAFH@Z@1@@Z ; std::_Tmap_traits<std::tuple<int,int,int,enum arch_t>,void (__cdecl*)(unsigned short *,int,unsigned char const *,int,short *,int),std::less<std::tuple<int,int,int,enum arch_t> >,std::allocator<std::pair<std::tuple<int,int,int,enum arch_t> const ,void (__cdecl*)(unsigned short *,int,unsigned char const *,int,short *,int)> >,0>::_Kfn<std::tuple<int,int,int,enum arch_t> const ,void (__cdecl*)(unsigned short *,int,unsigned char const *,int,short *,int)>
PUBLIC	??$_Kfn@$$CBV?$tuple@HHHW4arch_t@@@std@@P6AXPAHHPBE1HPAFH@Z@?$_Tmap_traits@V?$tuple@HHHW4arch_t@@@std@@P6AXPAHHPBE1HPAFH@ZU?$less@V?$tuple@HHHW4arch_t@@@std@@@2@V?$allocator@U?$pair@$$CBV?$tuple@HHHW4arch_t@@@std@@P6AXPAHHPBE1HPAFH@Z@std@@@2@$0A@@std@@SAABV?$tuple@HHHW4arch_t@@@1@ABU?$pair@$$CBV?$tuple@HHHW4arch_t@@@std@@P6AXPAHHPBE1HPAFH@Z@1@@Z ; std::_Tmap_traits<std::tuple<int,int,int,enum arch_t>,void (__cdecl*)(int *,int,unsigned char const *,unsigned char const *,int,short *,int),std::less<std::tuple<int,int,int,enum arch_t> >,std::allocator<std::pair<std::tuple<int,int,int,enum arch_t> const ,void (__cdecl*)(int *,int,unsigned char const *,unsigned char const *,int,short *,int)> >,0>::_Kfn<std::tuple<int,int,int,enum arch_t> const ,void (__cdecl*)(int *,int,unsigned char const *,unsigned char const *,int,short *,int)>
PUBLIC	??$_Lbound@V?$tuple@HHHW4arch_t@@@std@@@?$_Tree@V?$_Tmap_traits@V?$tuple@HHHW4arch_t@@@std@@P6AXPAGHPBEHPAFH@ZU?$less@V?$tuple@HHHW4arch_t@@@std@@@2@V?$allocator@U?$pair@$$CBV?$tuple@HHHW4arch_t@@@std@@P6AXPAGHPBEHPAFH@Z@std@@@2@$0A@@std@@@std@@IBEPAU?$_Tree_node@U?$pair@$$CBV?$tuple@HHHW4arch_t@@@std@@P6AXPAGHPBEHPAFH@Z@std@@PAX@1@ABV?$tuple@HHHW4arch_t@@@1@@Z ; std::_Tree<std::_Tmap_traits<std::tuple<int,int,int,enum arch_t>,void (__cdecl*)(unsigned short *,int,unsigned char const *,int,short *,int),std::less<std::tuple<int,int,int,enum arch_t> >,std::allocator<std::pair<std::tuple<int,int,int,enum arch_t> const ,void (__cdecl*)(unsigned short *,int,unsigned char const *,int,short *,int)> >,0> >::_Lbound<std::tuple<int,int,int,enum arch_t> >
PUBLIC	??$_Lbound@V?$tuple@HHHW4arch_t@@@std@@@?$_Tree@V?$_Tmap_traits@V?$tuple@HHHW4arch_t@@@std@@P6AXPAHHPBE1HPAFH@ZU?$less@V?$tuple@HHHW4arch_t@@@std@@@2@V?$allocator@U?$pair@$$CBV?$tuple@HHHW4arch_t@@@std@@P6AXPAHHPBE1HPAFH@Z@std@@@2@$0A@@std@@@std@@IBEPAU?$_Tree_node@U?$pair@$$CBV?$tuple@HHHW4arch_t@@@std@@P6AXPAHHPBE1HPAFH@Z@std@@PAX@1@ABV?$tuple@HHHW4arch_t@@@1@@Z ; std::_Tree<std::_Tmap_traits<std::tuple<int,int,int,enum arch_t>,void (__cdecl*)(int *,int,unsigned char const *,unsigned char const *,int,short *,int),std::less<std::tuple<int,int,int,enum arch_t> >,std::allocator<std::pair<std::tuple<int,int,int,enum arch_t> const ,void (__cdecl*)(int *,int,unsigned char const *,unsigned char const *,int,short *,int)> >,0> >::_Lbound<std::tuple<int,int,int,enum arch_t> >
PUBLIC	??$construct@PAU?$_Tree_node@U?$pair@$$CBV?$tuple@HHHW4arch_t@@@std@@P6AXPAGHPBEHPAFH@Z@std@@PAX@std@@AAPAU12@@?$allocator@U?$_Tree_node@U?$pair@$$CBV?$tuple@HHHW4arch_t@@@std@@P6AXPAGHPBEHPAFH@Z@std@@PAX@std@@@std@@QAEXPAPAU?$_Tree_node@U?$pair@$$CBV?$tuple@HHHW4arch_t@@@std@@P6AXPAGHPBEHPAFH@Z@std@@PAX@1@AAPAU21@@Z ; std::allocator<std::_Tree_node<std::pair<std::tuple<int,int,int,enum arch_t> const ,void (__cdecl*)(unsigned short *,int,unsigned char const *,int,short *,int)>,void *> >::construct<std::_Tree_node<std::pair<std::tuple<int,int,int,enum arch_t> const ,void (__cdecl*)(unsigned short *,int,unsigned char const *,int,short *,int)>,void *> *,std::_Tree_node<std::pair<std::tuple<int,int,int,enum arch_t> const ,void (__cdecl*)(unsigned short *,int,unsigned char const *,int,short *,int)>,void *> * &>
PUBLIC	??$construct@PAU?$_Tree_node@U?$pair@$$CBV?$tuple@HHHW4arch_t@@@std@@P6AXPAHHPBE1HPAFH@Z@std@@PAX@std@@AAPAU12@@?$allocator@U?$_Tree_node@U?$pair@$$CBV?$tuple@HHHW4arch_t@@@std@@P6AXPAHHPBE1HPAFH@Z@std@@PAX@std@@@std@@QAEXPAPAU?$_Tree_node@U?$pair@$$CBV?$tuple@HHHW4arch_t@@@std@@P6AXPAHHPBE1HPAFH@Z@std@@PAX@1@AAPAU21@@Z ; std::allocator<std::_Tree_node<std::pair<std::tuple<int,int,int,enum arch_t> const ,void (__cdecl*)(int *,int,unsigned char const *,unsigned char const *,int,short *,int)>,void *> >::construct<std::_Tree_node<std::pair<std::tuple<int,int,int,enum arch_t> const ,void (__cdecl*)(int *,int,unsigned char const *,unsigned char const *,int,short *,int)>,void *> *,std::_Tree_node<std::pair<std::tuple<int,int,int,enum arch_t> const ,void (__cdecl*)(int *,int,unsigned char const *,unsigned char const *,int,short *,int)>,void *> * &>
PUBLIC	??$destroy@U?$pair@$$CBV?$tuple@HHHW4arch_t@@@std@@P6AXPAGHPBEHPAFH@Z@std@@@?$allocator@U?$_Tree_node@U?$pair@$$CBV?$tuple@HHHW4arch_t@@@std@@P6AXPAGHPBEHPAFH@Z@std@@PAX@std@@@std@@QAEXPAU?$pair@$$CBV?$tuple@HHHW4arch_t@@@std@@P6AXPAGHPBEHPAFH@Z@1@@Z ; std::allocator<std::_Tree_node<std::pair<std::tuple<int,int,int,enum arch_t> const ,void (__cdecl*)(unsigned short *,int,unsigned char const *,int,short *,int)>,void *> >::destroy<std::pair<std::tuple<int,int,int,enum arch_t> const ,void (__cdecl*)(unsigned short *,int,unsigned char const *,int,short *,int)> >
PUBLIC	??$destroy@U?$pair@$$CBV?$tuple@HHHW4arch_t@@@std@@P6AXPAHHPBE1HPAFH@Z@std@@@?$allocator@U?$_Tree_node@U?$pair@$$CBV?$tuple@HHHW4arch_t@@@std@@P6AXPAHHPBE1HPAFH@Z@std@@PAX@std@@@std@@QAEXPAU?$pair@$$CBV?$tuple@HHHW4arch_t@@@std@@P6AXPAHHPBE1HPAFH@Z@1@@Z ; std::allocator<std::_Tree_node<std::pair<std::tuple<int,int,int,enum arch_t> const ,void (__cdecl*)(int *,int,unsigned char const *,unsigned char const *,int,short *,int)>,void *> >::destroy<std::pair<std::tuple<int,int,int,enum arch_t> const ,void (__cdecl*)(int *,int,unsigned char const *,unsigned char const *,int,short *,int)> >
PUBLIC	??$destroy@PAU?$_Tree_node@U?$pair@$$CBV?$tuple@HHHW4arch_t@@@std@@P6AXPAGHPBEHPAFH@Z@std@@PAX@std@@@?$allocator@U?$_Tree_node@U?$pair@$$CBV?$tuple@HHHW4arch_t@@@std@@P6AXPAGHPBEHPAFH@Z@std@@PAX@std@@@std@@QAEXPAPAU?$_Tree_node@U?$pair@$$CBV?$tuple@HHHW4arch_t@@@std@@P6AXPAGHPBEHPAFH@Z@std@@PAX@1@@Z ; std::allocator<std::_Tree_node<std::pair<std::tuple<int,int,int,enum arch_t> const ,void (__cdecl*)(unsigned short *,int,unsigned char const *,int,short *,int)>,void *> >::destroy<std::_Tree_node<std::pair<std::tuple<int,int,int,enum arch_t> const ,void (__cdecl*)(unsigned short *,int,unsigned char const *,int,short *,int)>,void *> *>
PUBLIC	??$destroy@PAU?$_Tree_node@U?$pair@$$CBV?$tuple@HHHW4arch_t@@@std@@P6AXPAHHPBE1HPAFH@Z@std@@PAX@std@@@?$allocator@U?$_Tree_node@U?$pair@$$CBV?$tuple@HHHW4arch_t@@@std@@P6AXPAHHPBE1HPAFH@Z@std@@PAX@std@@@std@@QAEXPAPAU?$_Tree_node@U?$pair@$$CBV?$tuple@HHHW4arch_t@@@std@@P6AXPAHHPBE1HPAFH@Z@std@@PAX@1@@Z ; std::allocator<std::_Tree_node<std::pair<std::tuple<int,int,int,enum arch_t> const ,void (__cdecl*)(int *,int,unsigned char const *,unsigned char const *,int,short *,int)>,void *> >::destroy<std::_Tree_node<std::pair<std::tuple<int,int,int,enum arch_t> const ,void (__cdecl*)(int *,int,unsigned char const *,unsigned char const *,int,short *,int)>,void *> *>
PUBLIC	??$?0AAV?$_Tree_iterator@V?$_Tree_val@U?$_Tree_simple_types@U?$pair@$$CBV?$tuple@HHHW4arch_t@@@std@@P6AXPAGHPBEHPAFH@Z@std@@@std@@@std@@@std@@_NX$0A@@?$pair@V?$_Tree_iterator@V?$_Tree_val@U?$_Tree_simple_types@U?$pair@$$CBV?$tuple@HHHW4arch_t@@@std@@P6AXPAGHPBEHPAFH@Z@std@@@std@@@std@@@std@@_N@std@@QAE@AAV?$_Tree_iterator@V?$_Tree_val@U?$_Tree_simple_types@U?$pair@$$CBV?$tuple@HHHW4arch_t@@@std@@P6AXPAGHPBEHPAFH@Z@std@@@std@@@std@@@1@$$QA_N@Z ; std::pair<std::_Tree_iterator<std::_Tree_val<std::_Tree_simple_types<std::pair<std::tuple<int,int,int,enum arch_t> const ,void (__cdecl*)(unsigned short *,int,unsigned char const *,int,short *,int)> > > >,bool>::pair<std::_Tree_iterator<std::_Tree_val<std::_Tree_simple_types<std::pair<std::tuple<int,int,int,enum arch_t> const ,void (__cdecl*)(unsigned short *,int,unsigned char const *,int,short *,int)> > > >,bool><std::_Tree_iterator<std::_Tree_val<std::_Tree_simple_types<std::pair<std::tuple<int,int,int,enum arch_t> const ,void (__cdecl*)(unsigned short *,int,unsigned char const *,int,short *,int)> > > > &,bool,void,0>
PUBLIC	??$?0V?$_Tree_iterator@V?$_Tree_val@U?$_Tree_simple_types@U?$pair@$$CBV?$tuple@HHHW4arch_t@@@std@@P6AXPAGHPBEHPAFH@Z@std@@@std@@@std@@@std@@_NX$0A@@?$pair@V?$_Tree_iterator@V?$_Tree_val@U?$_Tree_simple_types@U?$pair@$$CBV?$tuple@HHHW4arch_t@@@std@@P6AXPAGHPBEHPAFH@Z@std@@@std@@@std@@@std@@_N@std@@QAE@$$QAV?$_Tree_iterator@V?$_Tree_val@U?$_Tree_simple_types@U?$pair@$$CBV?$tuple@HHHW4arch_t@@@std@@P6AXPAGHPBEHPAFH@Z@std@@@std@@@std@@@1@$$QA_N@Z ; std::pair<std::_Tree_iterator<std::_Tree_val<std::_Tree_simple_types<std::pair<std::tuple<int,int,int,enum arch_t> const ,void (__cdecl*)(unsigned short *,int,unsigned char const *,int,short *,int)> > > >,bool>::pair<std::_Tree_iterator<std::_Tree_val<std::_Tree_simple_types<std::pair<std::tuple<int,int,int,enum arch_t> const ,void (__cdecl*)(unsigned short *,int,unsigned char const *,int,short *,int)> > > >,bool><std::_Tree_iterator<std::_Tree_val<std::_Tree_simple_types<std::pair<std::tuple<int,int,int,enum arch_t> const ,void (__cdecl*)(unsigned short *,int,unsigned char const *,int,short *,int)> > > >,bool,void,0>
PUBLIC	??$emplace_hint@ABUpiecewise_construct_t@std@@V?$tuple@$$QAV?$tuple@HHHW4arch_t@@@std@@@2@V?$tuple@$$V@2@@?$_Tree@V?$_Tmap_traits@V?$tuple@HHHW4arch_t@@@std@@P6AXPAGHPBEHPAFH@ZU?$less@V?$tuple@HHHW4arch_t@@@std@@@2@V?$allocator@U?$pair@$$CBV?$tuple@HHHW4arch_t@@@std@@P6AXPAGHPBEHPAFH@Z@std@@@2@$0A@@std@@@std@@QAE?AV?$_Tree_iterator@V?$_Tree_val@U?$_Tree_simple_types@U?$pair@$$CBV?$tuple@HHHW4arch_t@@@std@@P6AXPAGHPBEHPAFH@Z@std@@@std@@@std@@@1@V?$_Tree_const_iterator@V?$_Tree_val@U?$_Tree_simple_types@U?$pair@$$CBV?$tuple@HHHW4arch_t@@@std@@P6AXPAGHPBEHPAFH@Z@std@@@std@@@std@@@1@ABUpiecewise_construct_t@1@$$QAV?$tuple@$$QAV?$tuple@HHHW4arch_t@@@std@@@1@$$QAV?$tuple@$$V@1@@Z ; std::_Tree<std::_Tmap_traits<std::tuple<int,int,int,enum arch_t>,void (__cdecl*)(unsigned short *,int,unsigned char const *,int,short *,int),std::less<std::tuple<int,int,int,enum arch_t> >,std::allocator<std::pair<std::tuple<int,int,int,enum arch_t> const ,void (__cdecl*)(unsigned short *,int,unsigned char const *,int,short *,int)> >,0> >::emplace_hint<std::piecewise_construct_t const &,std::tuple<std::tuple<int,int,int,enum arch_t> &&>,std::tuple<> >
PUBLIC	??$?0AAV?$_Tree_iterator@V?$_Tree_val@U?$_Tree_simple_types@U?$pair@$$CBV?$tuple@HHHW4arch_t@@@std@@P6AXPAHHPBE1HPAFH@Z@std@@@std@@@std@@@std@@_NX$0A@@?$pair@V?$_Tree_iterator@V?$_Tree_val@U?$_Tree_simple_types@U?$pair@$$CBV?$tuple@HHHW4arch_t@@@std@@P6AXPAHHPBE1HPAFH@Z@std@@@std@@@std@@@std@@_N@std@@QAE@AAV?$_Tree_iterator@V?$_Tree_val@U?$_Tree_simple_types@U?$pair@$$CBV?$tuple@HHHW4arch_t@@@std@@P6AXPAHHPBE1HPAFH@Z@std@@@std@@@std@@@1@$$QA_N@Z ; std::pair<std::_Tree_iterator<std::_Tree_val<std::_Tree_simple_types<std::pair<std::tuple<int,int,int,enum arch_t> const ,void (__cdecl*)(int *,int,unsigned char const *,unsigned char const *,int,short *,int)> > > >,bool>::pair<std::_Tree_iterator<std::_Tree_val<std::_Tree_simple_types<std::pair<std::tuple<int,int,int,enum arch_t> const ,void (__cdecl*)(int *,int,unsigned char const *,unsigned char const *,int,short *,int)> > > >,bool><std::_Tree_iterator<std::_Tree_val<std::_Tree_simple_types<std::pair<std::tuple<int,int,int,enum arch_t> const ,void (__cdecl*)(int *,int,unsigned char const *,unsigned char const *,int,short *,int)> > > > &,bool,void,0>
PUBLIC	??$?0V?$_Tree_iterator@V?$_Tree_val@U?$_Tree_simple_types@U?$pair@$$CBV?$tuple@HHHW4arch_t@@@std@@P6AXPAHHPBE1HPAFH@Z@std@@@std@@@std@@@std@@_NX$0A@@?$pair@V?$_Tree_iterator@V?$_Tree_val@U?$_Tree_simple_types@U?$pair@$$CBV?$tuple@HHHW4arch_t@@@std@@P6AXPAHHPBE1HPAFH@Z@std@@@std@@@std@@@std@@_N@std@@QAE@$$QAV?$_Tree_iterator@V?$_Tree_val@U?$_Tree_simple_types@U?$pair@$$CBV?$tuple@HHHW4arch_t@@@std@@P6AXPAHHPBE1HPAFH@Z@std@@@std@@@std@@@1@$$QA_N@Z ; std::pair<std::_Tree_iterator<std::_Tree_val<std::_Tree_simple_types<std::pair<std::tuple<int,int,int,enum arch_t> const ,void (__cdecl*)(int *,int,unsigned char const *,unsigned char const *,int,short *,int)> > > >,bool>::pair<std::_Tree_iterator<std::_Tree_val<std::_Tree_simple_types<std::pair<std::tuple<int,int,int,enum arch_t> const ,void (__cdecl*)(int *,int,unsigned char const *,unsigned char const *,int,short *,int)> > > >,bool><std::_Tree_iterator<std::_Tree_val<std::_Tree_simple_types<std::pair<std::tuple<int,int,int,enum arch_t> const ,void (__cdecl*)(int *,int,unsigned char const *,unsigned char const *,int,short *,int)> > > >,bool,void,0>
PUBLIC	??$emplace_hint@ABUpiecewise_construct_t@std@@V?$tuple@$$QAV?$tuple@HHHW4arch_t@@@std@@@2@V?$tuple@$$V@2@@?$_Tree@V?$_Tmap_traits@V?$tuple@HHHW4arch_t@@@std@@P6AXPAHHPBE1HPAFH@ZU?$less@V?$tuple@HHHW4arch_t@@@std@@@2@V?$allocator@U?$pair@$$CBV?$tuple@HHHW4arch_t@@@std@@P6AXPAHHPBE1HPAFH@Z@std@@@2@$0A@@std@@@std@@QAE?AV?$_Tree_iterator@V?$_Tree_val@U?$_Tree_simple_types@U?$pair@$$CBV?$tuple@HHHW4arch_t@@@std@@P6AXPAHHPBE1HPAFH@Z@std@@@std@@@std@@@1@V?$_Tree_const_iterator@V?$_Tree_val@U?$_Tree_simple_types@U?$pair@$$CBV?$tuple@HHHW4arch_t@@@std@@P6AXPAHHPBE1HPAFH@Z@std@@@std@@@std@@@1@ABUpiecewise_construct_t@1@$$QAV?$tuple@$$QAV?$tuple@HHHW4arch_t@@@std@@@1@$$QAV?$tuple@$$V@1@@Z ; std::_Tree<std::_Tmap_traits<std::tuple<int,int,int,enum arch_t>,void (__cdecl*)(int *,int,unsigned char const *,unsigned char const *,int,short *,int),std::less<std::tuple<int,int,int,enum arch_t> >,std::allocator<std::pair<std::tuple<int,int,int,enum arch_t> const ,void (__cdecl*)(int *,int,unsigned char const *,unsigned char const *,int,short *,int)> >,0> >::emplace_hint<std::piecewise_construct_t const &,std::tuple<std::tuple<int,int,int,enum arch_t> &&>,std::tuple<> >
PUBLIC	?_Kfn@?$_Tree@V?$_Tmap_traits@V?$tuple@HHHW4arch_t@@@std@@P6AXPAGHPBEHPAFH@ZU?$less@V?$tuple@HHHW4arch_t@@@std@@@2@V?$allocator@U?$pair@$$CBV?$tuple@HHHW4arch_t@@@std@@P6AXPAGHPBEHPAFH@Z@std@@@2@$0A@@std@@@std@@IBEABV?$tuple@HHHW4arch_t@@@2@ABU?$pair@$$CBV?$tuple@HHHW4arch_t@@@std@@P6AXPAGHPBEHPAFH@Z@2@@Z ; std::_Tree<std::_Tmap_traits<std::tuple<int,int,int,enum arch_t>,void (__cdecl*)(unsigned short *,int,unsigned char const *,int,short *,int),std::less<std::tuple<int,int,int,enum arch_t> >,std::allocator<std::pair<std::tuple<int,int,int,enum arch_t> const ,void (__cdecl*)(unsigned short *,int,unsigned char const *,int,short *,int)> >,0> >::_Kfn
PUBLIC	??0?$allocator@U?$_Tree_node@U?$pair@$$CBV?$tuple@HHHW4arch_t@@@std@@P6AXPAGHPBEHPAFH@Z@std@@PAX@std@@@std@@QAE@XZ ; std::allocator<std::_Tree_node<std::pair<std::tuple<int,int,int,enum arch_t> const ,void (__cdecl*)(unsigned short *,int,unsigned char const *,int,short *,int)>,void *> >::allocator<std::_Tree_node<std::pair<std::tuple<int,int,int,enum arch_t> const ,void (__cdecl*)(unsigned short *,int,unsigned char const *,int,short *,int)>,void *> >
PUBLIC	?_Get_first@?$_Compressed_pair@U?$less@V?$tuple@HHHW4arch_t@@@std@@@std@@V?$_Compressed_pair@U?$_Wrap_alloc@V?$allocator@U?$_Tree_node@U?$pair@$$CBV?$tuple@HHHW4arch_t@@@std@@P6AXPAGHPBEHPAFH@Z@std@@PAX@std@@@std@@@std@@V?$_Tree_val@U?$_Tree_simple_types@U?$pair@$$CBV?$tuple@HHHW4arch_t@@@std@@P6AXPAGHPBEHPAFH@Z@std@@@std@@@2@$00@2@$00@std@@QAEAAU?$less@V?$tuple@HHHW4arch_t@@@std@@@2@XZ ; std::_Compressed_pair<std::less<std::tuple<int,int,int,enum arch_t> >,std::_Compressed_pair<std::_Wrap_alloc<std::allocator<std::_Tree_node<std::pair<std::tuple<int,int,int,enum arch_t> const ,void (__cdecl*)(unsigned short *,int,unsigned char const *,int,short *,int)>,void *> > >,std::_Tree_val<std::_Tree_simple_types<std::pair<std::tuple<int,int,int,enum arch_t> const ,void (__cdecl*)(unsigned short *,int,unsigned char const *,int,short *,int)> > >,1>,1>::_Get_first
PUBLIC	?_Kfn@?$_Tree@V?$_Tmap_traits@V?$tuple@HHHW4arch_t@@@std@@P6AXPAHHPBE1HPAFH@ZU?$less@V?$tuple@HHHW4arch_t@@@std@@@2@V?$allocator@U?$pair@$$CBV?$tuple@HHHW4arch_t@@@std@@P6AXPAHHPBE1HPAFH@Z@std@@@2@$0A@@std@@@std@@IBEABV?$tuple@HHHW4arch_t@@@2@ABU?$pair@$$CBV?$tuple@HHHW4arch_t@@@std@@P6AXPAHHPBE1HPAFH@Z@2@@Z ; std::_Tree<std::_Tmap_traits<std::tuple<int,int,int,enum arch_t>,void (__cdecl*)(int *,int,unsigned char const *,unsigned char const *,int,short *,int),std::less<std::tuple<int,int,int,enum arch_t> >,std::allocator<std::pair<std::tuple<int,int,int,enum arch_t> const ,void (__cdecl*)(int *,int,unsigned char const *,unsigned char const *,int,short *,int)> >,0> >::_Kfn
PUBLIC	??0?$allocator@U?$_Tree_node@U?$pair@$$CBV?$tuple@HHHW4arch_t@@@std@@P6AXPAHHPBE1HPAFH@Z@std@@PAX@std@@@std@@QAE@XZ ; std::allocator<std::_Tree_node<std::pair<std::tuple<int,int,int,enum arch_t> const ,void (__cdecl*)(int *,int,unsigned char const *,unsigned char const *,int,short *,int)>,void *> >::allocator<std::_Tree_node<std::pair<std::tuple<int,int,int,enum arch_t> const ,void (__cdecl*)(int *,int,unsigned char const *,unsigned char const *,int,short *,int)>,void *> >
PUBLIC	?_Get_first@?$_Compressed_pair@U?$less@V?$tuple@HHHW4arch_t@@@std@@@std@@V?$_Compressed_pair@U?$_Wrap_alloc@V?$allocator@U?$_Tree_node@U?$pair@$$CBV?$tuple@HHHW4arch_t@@@std@@P6AXPAHHPBE1HPAFH@Z@std@@PAX@std@@@std@@@std@@V?$_Tree_val@U?$_Tree_simple_types@U?$pair@$$CBV?$tuple@HHHW4arch_t@@@std@@P6AXPAHHPBE1HPAFH@Z@std@@@std@@@2@$00@2@$00@std@@QAEAAU?$less@V?$tuple@HHHW4arch_t@@@std@@@2@XZ ; std::_Compressed_pair<std::less<std::tuple<int,int,int,enum arch_t> >,std::_Compressed_pair<std::_Wrap_alloc<std::allocator<std::_Tree_node<std::pair<std::tuple<int,int,int,enum arch_t> const ,void (__cdecl*)(int *,int,unsigned char const *,unsigned char const *,int,short *,int)>,void *> > >,std::_Tree_val<std::_Tree_simple_types<std::pair<std::tuple<int,int,int,enum arch_t> const ,void (__cdecl*)(int *,int,unsigned char const *,unsigned char const *,int,short *,int)> > >,1>,1>::_Get_first
PUBLIC	?lower_bound@?$_Tree@V?$_Tmap_traits@V?$tuple@HHHW4arch_t@@@std@@P6AXPAGHPBEHPAFH@ZU?$less@V?$tuple@HHHW4arch_t@@@std@@@2@V?$allocator@U?$pair@$$CBV?$tuple@HHHW4arch_t@@@std@@P6AXPAGHPBEHPAFH@Z@std@@@2@$0A@@std@@@std@@QAE?AV?$_Tree_iterator@V?$_Tree_val@U?$_Tree_simple_types@U?$pair@$$CBV?$tuple@HHHW4arch_t@@@std@@P6AXPAGHPBEHPAFH@Z@std@@@std@@@std@@@2@ABV?$tuple@HHHW4arch_t@@@2@@Z ; std::_Tree<std::_Tmap_traits<std::tuple<int,int,int,enum arch_t>,void (__cdecl*)(unsigned short *,int,unsigned char const *,int,short *,int),std::less<std::tuple<int,int,int,enum arch_t> >,std::allocator<std::pair<std::tuple<int,int,int,enum arch_t> const ,void (__cdecl*)(unsigned short *,int,unsigned char const *,int,short *,int)> >,0> >::lower_bound
PUBLIC	?_Key@?$_Tree@V?$_Tmap_traits@V?$tuple@HHHW4arch_t@@@std@@P6AXPAGHPBEHPAFH@ZU?$less@V?$tuple@HHHW4arch_t@@@std@@@2@V?$allocator@U?$pair@$$CBV?$tuple@HHHW4arch_t@@@std@@P6AXPAGHPBEHPAFH@Z@std@@@2@$0A@@std@@@std@@IBEABV?$tuple@HHHW4arch_t@@@2@PAU?$_Tree_node@U?$pair@$$CBV?$tuple@HHHW4arch_t@@@std@@P6AXPAGHPBEHPAFH@Z@std@@PAX@2@@Z ; std::_Tree<std::_Tmap_traits<std::tuple<int,int,int,enum arch_t>,void (__cdecl*)(unsigned short *,int,unsigned char const *,int,short *,int),std::less<std::tuple<int,int,int,enum arch_t> >,std::allocator<std::pair<std::tuple<int,int,int,enum arch_t> const ,void (__cdecl*)(unsigned short *,int,unsigned char const *,int,short *,int)> >,0> >::_Key
PUBLIC	?_Getcomp@?$_Tree_comp_alloc@V?$_Tmap_traits@V?$tuple@HHHW4arch_t@@@std@@P6AXPAGHPBEHPAFH@ZU?$less@V?$tuple@HHHW4arch_t@@@std@@@2@V?$allocator@U?$pair@$$CBV?$tuple@HHHW4arch_t@@@std@@P6AXPAGHPBEHPAFH@Z@std@@@2@$0A@@std@@@std@@QAEAAU?$less@V?$tuple@HHHW4arch_t@@@std@@@2@XZ ; std::_Tree_comp_alloc<std::_Tmap_traits<std::tuple<int,int,int,enum arch_t>,void (__cdecl*)(unsigned short *,int,unsigned char const *,int,short *,int),std::less<std::tuple<int,int,int,enum arch_t> >,std::allocator<std::pair<std::tuple<int,int,int,enum arch_t> const ,void (__cdecl*)(unsigned short *,int,unsigned char const *,int,short *,int)> >,0> >::_Getcomp
PUBLIC	??0?$_Wrap_alloc@V?$allocator@U?$_Tree_node@U?$pair@$$CBV?$tuple@HHHW4arch_t@@@std@@P6AXPAGHPBEHPAFH@Z@std@@PAX@std@@@std@@@std@@QAE@XZ ; std::_Wrap_alloc<std::allocator<std::_Tree_node<std::pair<std::tuple<int,int,int,enum arch_t> const ,void (__cdecl*)(unsigned short *,int,unsigned char const *,int,short *,int)>,void *> > >::_Wrap_alloc<std::allocator<std::_Tree_node<std::pair<std::tuple<int,int,int,enum arch_t> const ,void (__cdecl*)(unsigned short *,int,unsigned char const *,int,short *,int)>,void *> > >
PUBLIC	??0?$_Tree_val@U?$_Tree_simple_types@U?$pair@$$CBV?$tuple@HHHW4arch_t@@@std@@P6AXPAGHPBEHPAFH@Z@std@@@std@@@std@@QAE@XZ ; std::_Tree_val<std::_Tree_simple_types<std::pair<std::tuple<int,int,int,enum arch_t> const ,void (__cdecl*)(unsigned short *,int,unsigned char const *,int,short *,int)> > >::_Tree_val<std::_Tree_simple_types<std::pair<std::tuple<int,int,int,enum arch_t> const ,void (__cdecl*)(unsigned short *,int,unsigned char const *,int,short *,int)> > >
PUBLIC	?lower_bound@?$_Tree@V?$_Tmap_traits@V?$tuple@HHHW4arch_t@@@std@@P6AXPAHHPBE1HPAFH@ZU?$less@V?$tuple@HHHW4arch_t@@@std@@@2@V?$allocator@U?$pair@$$CBV?$tuple@HHHW4arch_t@@@std@@P6AXPAHHPBE1HPAFH@Z@std@@@2@$0A@@std@@@std@@QAE?AV?$_Tree_iterator@V?$_Tree_val@U?$_Tree_simple_types@U?$pair@$$CBV?$tuple@HHHW4arch_t@@@std@@P6AXPAHHPBE1HPAFH@Z@std@@@std@@@std@@@2@ABV?$tuple@HHHW4arch_t@@@2@@Z ; std::_Tree<std::_Tmap_traits<std::tuple<int,int,int,enum arch_t>,void (__cdecl*)(int *,int,unsigned char const *,unsigned char const *,int,short *,int),std::less<std::tuple<int,int,int,enum arch_t> >,std::allocator<std::pair<std::tuple<int,int,int,enum arch_t> const ,void (__cdecl*)(int *,int,unsigned char const *,unsigned char const *,int,short *,int)> >,0> >::lower_bound
PUBLIC	?_Key@?$_Tree@V?$_Tmap_traits@V?$tuple@HHHW4arch_t@@@std@@P6AXPAHHPBE1HPAFH@ZU?$less@V?$tuple@HHHW4arch_t@@@std@@@2@V?$allocator@U?$pair@$$CBV?$tuple@HHHW4arch_t@@@std@@P6AXPAHHPBE1HPAFH@Z@std@@@2@$0A@@std@@@std@@IBEABV?$tuple@HHHW4arch_t@@@2@PAU?$_Tree_node@U?$pair@$$CBV?$tuple@HHHW4arch_t@@@std@@P6AXPAHHPBE1HPAFH@Z@std@@PAX@2@@Z ; std::_Tree<std::_Tmap_traits<std::tuple<int,int,int,enum arch_t>,void (__cdecl*)(int *,int,unsigned char const *,unsigned char const *,int,short *,int),std::less<std::tuple<int,int,int,enum arch_t> >,std::allocator<std::pair<std::tuple<int,int,int,enum arch_t> const ,void (__cdecl*)(int *,int,unsigned char const *,unsigned char const *,int,short *,int)> >,0> >::_Key
PUBLIC	?_Getcomp@?$_Tree_comp_alloc@V?$_Tmap_traits@V?$tuple@HHHW4arch_t@@@std@@P6AXPAHHPBE1HPAFH@ZU?$less@V?$tuple@HHHW4arch_t@@@std@@@2@V?$allocator@U?$pair@$$CBV?$tuple@HHHW4arch_t@@@std@@P6AXPAHHPBE1HPAFH@Z@std@@@2@$0A@@std@@@std@@QAEAAU?$less@V?$tuple@HHHW4arch_t@@@std@@@2@XZ ; std::_Tree_comp_alloc<std::_Tmap_traits<std::tuple<int,int,int,enum arch_t>,void (__cdecl*)(int *,int,unsigned char const *,unsigned char const *,int,short *,int),std::less<std::tuple<int,int,int,enum arch_t> >,std::allocator<std::pair<std::tuple<int,int,int,enum arch_t> const ,void (__cdecl*)(int *,int,unsigned char const *,unsigned char const *,int,short *,int)> >,0> >::_Getcomp
PUBLIC	??0?$_Wrap_alloc@V?$allocator@U?$_Tree_node@U?$pair@$$CBV?$tuple@HHHW4arch_t@@@std@@P6AXPAHHPBE1HPAFH@Z@std@@PAX@std@@@std@@@std@@QAE@XZ ; std::_Wrap_alloc<std::allocator<std::_Tree_node<std::pair<std::tuple<int,int,int,enum arch_t> const ,void (__cdecl*)(int *,int,unsigned char const *,unsigned char const *,int,short *,int)>,void *> > >::_Wrap_alloc<std::allocator<std::_Tree_node<std::pair<std::tuple<int,int,int,enum arch_t> const ,void (__cdecl*)(int *,int,unsigned char const *,unsigned char const *,int,short *,int)>,void *> > >
PUBLIC	??0?$_Tree_val@U?$_Tree_simple_types@U?$pair@$$CBV?$tuple@HHHW4arch_t@@@std@@P6AXPAHHPBE1HPAFH@Z@std@@@std@@@std@@QAE@XZ ; std::_Tree_val<std::_Tree_simple_types<std::pair<std::tuple<int,int,int,enum arch_t> const ,void (__cdecl*)(int *,int,unsigned char const *,unsigned char const *,int,short *,int)> > >::_Tree_val<std::_Tree_simple_types<std::pair<std::tuple<int,int,int,enum arch_t> const ,void (__cdecl*)(int *,int,unsigned char const *,unsigned char const *,int,short *,int)> > >
PUBLIC	??$construct@PAU?$_Tree_node@U?$pair@$$CBV?$tuple@HHHW4arch_t@@@std@@P6AXPAGHPBEHPAFH@Z@std@@PAX@std@@AAPAU12@@?$allocator_traits@V?$allocator@U?$_Tree_node@U?$pair@$$CBV?$tuple@HHHW4arch_t@@@std@@P6AXPAGHPBEHPAFH@Z@std@@PAX@std@@@std@@@std@@SAXAAV?$allocator@U?$_Tree_node@U?$pair@$$CBV?$tuple@HHHW4arch_t@@@std@@P6AXPAGHPBEHPAFH@Z@std@@PAX@std@@@1@PAPAU?$_Tree_node@U?$pair@$$CBV?$tuple@HHHW4arch_t@@@std@@P6AXPAGHPBEHPAFH@Z@std@@PAX@1@AAPAU31@@Z ; std::allocator_traits<std::allocator<std::_Tree_node<std::pair<std::tuple<int,int,int,enum arch_t> const ,void (__cdecl*)(unsigned short *,int,unsigned char const *,int,short *,int)>,void *> > >::construct<std::_Tree_node<std::pair<std::tuple<int,int,int,enum arch_t> const ,void (__cdecl*)(unsigned short *,int,unsigned char const *,int,short *,int)>,void *> *,std::_Tree_node<std::pair<std::tuple<int,int,int,enum arch_t> const ,void (__cdecl*)(unsigned short *,int,unsigned char const *,int,short *,int)>,void *> * &>
PUBLIC	??$forward@AAPAU?$_Tree_node@U?$pair@$$CBV?$tuple@HHHW4arch_t@@@std@@P6AXPAGHPBEHPAFH@Z@std@@PAX@std@@@std@@YAAAPAU?$_Tree_node@U?$pair@$$CBV?$tuple@HHHW4arch_t@@@std@@P6AXPAGHPBEHPAFH@Z@std@@PAX@0@AAPAU10@@Z ; std::forward<std::_Tree_node<std::pair<std::tuple<int,int,int,enum arch_t> const ,void (__cdecl*)(unsigned short *,int,unsigned char const *,int,short *,int)>,void *> * &>
PUBLIC	??$construct@PAU?$_Tree_node@U?$pair@$$CBV?$tuple@HHHW4arch_t@@@std@@P6AXPAHHPBE1HPAFH@Z@std@@PAX@std@@AAPAU12@@?$allocator_traits@V?$allocator@U?$_Tree_node@U?$pair@$$CBV?$tuple@HHHW4arch_t@@@std@@P6AXPAHHPBE1HPAFH@Z@std@@PAX@std@@@std@@@std@@SAXAAV?$allocator@U?$_Tree_node@U?$pair@$$CBV?$tuple@HHHW4arch_t@@@std@@P6AXPAHHPBE1HPAFH@Z@std@@PAX@std@@@1@PAPAU?$_Tree_node@U?$pair@$$CBV?$tuple@HHHW4arch_t@@@std@@P6AXPAHHPBE1HPAFH@Z@std@@PAX@1@AAPAU31@@Z ; std::allocator_traits<std::allocator<std::_Tree_node<std::pair<std::tuple<int,int,int,enum arch_t> const ,void (__cdecl*)(int *,int,unsigned char const *,unsigned char const *,int,short *,int)>,void *> > >::construct<std::_Tree_node<std::pair<std::tuple<int,int,int,enum arch_t> const ,void (__cdecl*)(int *,int,unsigned char const *,unsigned char const *,int,short *,int)>,void *> *,std::_Tree_node<std::pair<std::tuple<int,int,int,enum arch_t> const ,void (__cdecl*)(int *,int,unsigned char const *,unsigned char const *,int,short *,int)>,void *> * &>
PUBLIC	??$forward@AAPAU?$_Tree_node@U?$pair@$$CBV?$tuple@HHHW4arch_t@@@std@@P6AXPAHHPBE1HPAFH@Z@std@@PAX@std@@@std@@YAAAPAU?$_Tree_node@U?$pair@$$CBV?$tuple@HHHW4arch_t@@@std@@P6AXPAHHPBE1HPAFH@Z@std@@PAX@0@AAPAU10@@Z ; std::forward<std::_Tree_node<std::pair<std::tuple<int,int,int,enum arch_t> const ,void (__cdecl*)(int *,int,unsigned char const *,unsigned char const *,int,short *,int)>,void *> * &>
PUBLIC	??$destroy@U?$pair@$$CBV?$tuple@HHHW4arch_t@@@std@@P6AXPAGHPBEHPAFH@Z@std@@@?$allocator_traits@V?$allocator@U?$_Tree_node@U?$pair@$$CBV?$tuple@HHHW4arch_t@@@std@@P6AXPAGHPBEHPAFH@Z@std@@PAX@std@@@std@@@std@@SAXAAV?$allocator@U?$_Tree_node@U?$pair@$$CBV?$tuple@HHHW4arch_t@@@std@@P6AXPAGHPBEHPAFH@Z@std@@PAX@std@@@1@PAU?$pair@$$CBV?$tuple@HHHW4arch_t@@@std@@P6AXPAGHPBEHPAFH@Z@1@@Z ; std::allocator_traits<std::allocator<std::_Tree_node<std::pair<std::tuple<int,int,int,enum arch_t> const ,void (__cdecl*)(unsigned short *,int,unsigned char const *,int,short *,int)>,void *> > >::destroy<std::pair<std::tuple<int,int,int,enum arch_t> const ,void (__cdecl*)(unsigned short *,int,unsigned char const *,int,short *,int)> >
PUBLIC	??$destroy@U?$pair@$$CBV?$tuple@HHHW4arch_t@@@std@@P6AXPAHHPBE1HPAFH@Z@std@@@?$allocator_traits@V?$allocator@U?$_Tree_node@U?$pair@$$CBV?$tuple@HHHW4arch_t@@@std@@P6AXPAHHPBE1HPAFH@Z@std@@PAX@std@@@std@@@std@@SAXAAV?$allocator@U?$_Tree_node@U?$pair@$$CBV?$tuple@HHHW4arch_t@@@std@@P6AXPAHHPBE1HPAFH@Z@std@@PAX@std@@@1@PAU?$pair@$$CBV?$tuple@HHHW4arch_t@@@std@@P6AXPAHHPBE1HPAFH@Z@1@@Z ; std::allocator_traits<std::allocator<std::_Tree_node<std::pair<std::tuple<int,int,int,enum arch_t> const ,void (__cdecl*)(int *,int,unsigned char const *,unsigned char const *,int,short *,int)>,void *> > >::destroy<std::pair<std::tuple<int,int,int,enum arch_t> const ,void (__cdecl*)(int *,int,unsigned char const *,unsigned char const *,int,short *,int)> >
PUBLIC	??$?0$$V@?$_Compressed_pair@U?$_Wrap_alloc@V?$allocator@U?$_Tree_node@U?$pair@$$CBV?$tuple@HHHW4arch_t@@@std@@P6AXPAGHPBEHPAFH@Z@std@@PAX@std@@@std@@@std@@V?$_Tree_val@U?$_Tree_simple_types@U?$pair@$$CBV?$tuple@HHHW4arch_t@@@std@@P6AXPAGHPBEHPAFH@Z@std@@@std@@@2@$00@std@@QAE@U_Zero_then_variadic_args_t@1@@Z ; std::_Compressed_pair<std::_Wrap_alloc<std::allocator<std::_Tree_node<std::pair<std::tuple<int,int,int,enum arch_t> const ,void (__cdecl*)(unsigned short *,int,unsigned char const *,int,short *,int)>,void *> > >,std::_Tree_val<std::_Tree_simple_types<std::pair<std::tuple<int,int,int,enum arch_t> const ,void (__cdecl*)(unsigned short *,int,unsigned char const *,int,short *,int)> > >,1>::_Compressed_pair<std::_Wrap_alloc<std::allocator<std::_Tree_node<std::pair<std::tuple<int,int,int,enum arch_t> const ,void (__cdecl*)(unsigned short *,int,unsigned char const *,int,short *,int)>,void *> > >,std::_Tree_val<std::_Tree_simple_types<std::pair<std::tuple<int,int,int,enum arch_t> const ,void (__cdecl*)(unsigned short *,int,unsigned char const *,int,short *,int)> > >,1><>
PUBLIC	??$destroy@PAU?$_Tree_node@U?$pair@$$CBV?$tuple@HHHW4arch_t@@@std@@P6AXPAGHPBEHPAFH@Z@std@@PAX@std@@@?$allocator_traits@V?$allocator@U?$_Tree_node@U?$pair@$$CBV?$tuple@HHHW4arch_t@@@std@@P6AXPAGHPBEHPAFH@Z@std@@PAX@std@@@std@@@std@@SAXAAV?$allocator@U?$_Tree_node@U?$pair@$$CBV?$tuple@HHHW4arch_t@@@std@@P6AXPAGHPBEHPAFH@Z@std@@PAX@std@@@1@PAPAU?$_Tree_node@U?$pair@$$CBV?$tuple@HHHW4arch_t@@@std@@P6AXPAGHPBEHPAFH@Z@std@@PAX@1@@Z ; std::allocator_traits<std::allocator<std::_Tree_node<std::pair<std::tuple<int,int,int,enum arch_t> const ,void (__cdecl*)(unsigned short *,int,unsigned char const *,int,short *,int)>,void *> > >::destroy<std::_Tree_node<std::pair<std::tuple<int,int,int,enum arch_t> const ,void (__cdecl*)(unsigned short *,int,unsigned char const *,int,short *,int)>,void *> *>
PUBLIC	??$?0$$V@?$_Compressed_pair@U?$_Wrap_alloc@V?$allocator@U?$_Tree_node@U?$pair@$$CBV?$tuple@HHHW4arch_t@@@std@@P6AXPAHHPBE1HPAFH@Z@std@@PAX@std@@@std@@@std@@V?$_Tree_val@U?$_Tree_simple_types@U?$pair@$$CBV?$tuple@HHHW4arch_t@@@std@@P6AXPAHHPBE1HPAFH@Z@std@@@std@@@2@$00@std@@QAE@U_Zero_then_variadic_args_t@1@@Z ; std::_Compressed_pair<std::_Wrap_alloc<std::allocator<std::_Tree_node<std::pair<std::tuple<int,int,int,enum arch_t> const ,void (__cdecl*)(int *,int,unsigned char const *,unsigned char const *,int,short *,int)>,void *> > >,std::_Tree_val<std::_Tree_simple_types<std::pair<std::tuple<int,int,int,enum arch_t> const ,void (__cdecl*)(int *,int,unsigned char const *,unsigned char const *,int,short *,int)> > >,1>::_Compressed_pair<std::_Wrap_alloc<std::allocator<std::_Tree_node<std::pair<std::tuple<int,int,int,enum arch_t> const ,void (__cdecl*)(int *,int,unsigned char const *,unsigned char const *,int,short *,int)>,void *> > >,std::_Tree_val<std::_Tree_simple_types<std::pair<std::tuple<int,int,int,enum arch_t> const ,void (__cdecl*)(int *,int,unsigned char const *,unsigned char const *,int,short *,int)> > >,1><>
PUBLIC	??$destroy@PAU?$_Tree_node@U?$pair@$$CBV?$tuple@HHHW4arch_t@@@std@@P6AXPAHHPBE1HPAFH@Z@std@@PAX@std@@@?$allocator_traits@V?$allocator@U?$_Tree_node@U?$pair@$$CBV?$tuple@HHHW4arch_t@@@std@@P6AXPAHHPBE1HPAFH@Z@std@@PAX@std@@@std@@@std@@SAXAAV?$allocator@U?$_Tree_node@U?$pair@$$CBV?$tuple@HHHW4arch_t@@@std@@P6AXPAHHPBE1HPAFH@Z@std@@PAX@std@@@1@PAPAU?$_Tree_node@U?$pair@$$CBV?$tuple@HHHW4arch_t@@@std@@P6AXPAHHPBE1HPAFH@Z@std@@PAX@1@@Z ; std::allocator_traits<std::allocator<std::_Tree_node<std::pair<std::tuple<int,int,int,enum arch_t> const ,void (__cdecl*)(int *,int,unsigned char const *,unsigned char const *,int,short *,int)>,void *> > >::destroy<std::_Tree_node<std::pair<std::tuple<int,int,int,enum arch_t> const ,void (__cdecl*)(int *,int,unsigned char const *,unsigned char const *,int,short *,int)>,void *> *>
PUBLIC	??$_Try_emplace@V?$tuple@HHHW4arch_t@@@std@@$$V@?$map@V?$tuple@HHHW4arch_t@@@std@@P6AXPAGHPBEHPAFH@ZU?$less@V?$tuple@HHHW4arch_t@@@std@@@2@V?$allocator@U?$pair@$$CBV?$tuple@HHHW4arch_t@@@std@@P6AXPAGHPBEHPAFH@Z@std@@@2@@std@@QAE?AU?$pair@V?$_Tree_iterator@V?$_Tree_val@U?$_Tree_simple_types@U?$pair@$$CBV?$tuple@HHHW4arch_t@@@std@@P6AXPAGHPBEHPAFH@Z@std@@@std@@@std@@@std@@_N@1@$$QAV?$tuple@HHHW4arch_t@@@1@@Z ; std::map<std::tuple<int,int,int,enum arch_t>,void (__cdecl*)(unsigned short *,int,unsigned char const *,int,short *,int),std::less<std::tuple<int,int,int,enum arch_t> >,std::allocator<std::pair<std::tuple<int,int,int,enum arch_t> const ,void (__cdecl*)(unsigned short *,int,unsigned char const *,int,short *,int)> > >::_Try_emplace<std::tuple<int,int,int,enum arch_t> >
PUBLIC	??$_Try_emplace@V?$tuple@HHHW4arch_t@@@std@@$$V@?$map@V?$tuple@HHHW4arch_t@@@std@@P6AXPAHHPBE1HPAFH@ZU?$less@V?$tuple@HHHW4arch_t@@@std@@@2@V?$allocator@U?$pair@$$CBV?$tuple@HHHW4arch_t@@@std@@P6AXPAHHPBE1HPAFH@Z@std@@@2@@std@@QAE?AU?$pair@V?$_Tree_iterator@V?$_Tree_val@U?$_Tree_simple_types@U?$pair@$$CBV?$tuple@HHHW4arch_t@@@std@@P6AXPAHHPBE1HPAFH@Z@std@@@std@@@std@@@std@@_N@1@$$QAV?$tuple@HHHW4arch_t@@@1@@Z ; std::map<std::tuple<int,int,int,enum arch_t>,void (__cdecl*)(int *,int,unsigned char const *,unsigned char const *,int,short *,int),std::less<std::tuple<int,int,int,enum arch_t> >,std::allocator<std::pair<std::tuple<int,int,int,enum arch_t> const ,void (__cdecl*)(int *,int,unsigned char const *,unsigned char const *,int,short *,int)> > >::_Try_emplace<std::tuple<int,int,int,enum arch_t> >
PUBLIC	??$construct@PAU?$_Tree_node@U?$pair@$$CBV?$tuple@HHHW4arch_t@@@std@@P6AXPAGHPBEHPAFH@Z@std@@PAX@std@@AAPAU12@@?$_Wrap_alloc@V?$allocator@U?$_Tree_node@U?$pair@$$CBV?$tuple@HHHW4arch_t@@@std@@P6AXPAGHPBEHPAFH@Z@std@@PAX@std@@@std@@@std@@QAEXPAPAU?$_Tree_node@U?$pair@$$CBV?$tuple@HHHW4arch_t@@@std@@P6AXPAGHPBEHPAFH@Z@std@@PAX@1@AAPAU21@@Z ; std::_Wrap_alloc<std::allocator<std::_Tree_node<std::pair<std::tuple<int,int,int,enum arch_t> const ,void (__cdecl*)(unsigned short *,int,unsigned char const *,int,short *,int)>,void *> > >::construct<std::_Tree_node<std::pair<std::tuple<int,int,int,enum arch_t> const ,void (__cdecl*)(unsigned short *,int,unsigned char const *,int,short *,int)>,void *> *,std::_Tree_node<std::pair<std::tuple<int,int,int,enum arch_t> const ,void (__cdecl*)(unsigned short *,int,unsigned char const *,int,short *,int)>,void *> * &>
PUBLIC	??$construct@PAU?$_Tree_node@U?$pair@$$CBV?$tuple@HHHW4arch_t@@@std@@P6AXPAHHPBE1HPAFH@Z@std@@PAX@std@@AAPAU12@@?$_Wrap_alloc@V?$allocator@U?$_Tree_node@U?$pair@$$CBV?$tuple@HHHW4arch_t@@@std@@P6AXPAHHPBE1HPAFH@Z@std@@PAX@std@@@std@@@std@@QAEXPAPAU?$_Tree_node@U?$pair@$$CBV?$tuple@HHHW4arch_t@@@std@@P6AXPAHHPBE1HPAFH@Z@std@@PAX@1@AAPAU21@@Z ; std::_Wrap_alloc<std::allocator<std::_Tree_node<std::pair<std::tuple<int,int,int,enum arch_t> const ,void (__cdecl*)(int *,int,unsigned char const *,unsigned char const *,int,short *,int)>,void *> > >::construct<std::_Tree_node<std::pair<std::tuple<int,int,int,enum arch_t> const ,void (__cdecl*)(int *,int,unsigned char const *,unsigned char const *,int,short *,int)>,void *> *,std::_Tree_node<std::pair<std::tuple<int,int,int,enum arch_t> const ,void (__cdecl*)(int *,int,unsigned char const *,unsigned char const *,int,short *,int)>,void *> * &>
PUBLIC	??$destroy@U?$pair@$$CBV?$tuple@HHHW4arch_t@@@std@@P6AXPAGHPBEHPAFH@Z@std@@@?$_Wrap_alloc@V?$allocator@U?$_Tree_node@U?$pair@$$CBV?$tuple@HHHW4arch_t@@@std@@P6AXPAGHPBEHPAFH@Z@std@@PAX@std@@@std@@@std@@QAEXPAU?$pair@$$CBV?$tuple@HHHW4arch_t@@@std@@P6AXPAGHPBEHPAFH@Z@1@@Z ; std::_Wrap_alloc<std::allocator<std::_Tree_node<std::pair<std::tuple<int,int,int,enum arch_t> const ,void (__cdecl*)(unsigned short *,int,unsigned char const *,int,short *,int)>,void *> > >::destroy<std::pair<std::tuple<int,int,int,enum arch_t> const ,void (__cdecl*)(unsigned short *,int,unsigned char const *,int,short *,int)> >
PUBLIC	??$destroy@U?$pair@$$CBV?$tuple@HHHW4arch_t@@@std@@P6AXPAHHPBE1HPAFH@Z@std@@@?$_Wrap_alloc@V?$allocator@U?$_Tree_node@U?$pair@$$CBV?$tuple@HHHW4arch_t@@@std@@P6AXPAHHPBE1HPAFH@Z@std@@PAX@std@@@std@@@std@@QAEXPAU?$pair@$$CBV?$tuple@HHHW4arch_t@@@std@@P6AXPAHHPBE1HPAFH@Z@1@@Z ; std::_Wrap_alloc<std::allocator<std::_Tree_node<std::pair<std::tuple<int,int,int,enum arch_t> const ,void (__cdecl*)(int *,int,unsigned char const *,unsigned char const *,int,short *,int)>,void *> > >::destroy<std::pair<std::tuple<int,int,int,enum arch_t> const ,void (__cdecl*)(int *,int,unsigned char const *,unsigned char const *,int,short *,int)> >
PUBLIC	??$?0ABU?$less@V?$tuple@HHHW4arch_t@@@std@@@std@@U_Zero_then_variadic_args_t@1@@?$_Compressed_pair@U?$less@V?$tuple@HHHW4arch_t@@@std@@@std@@V?$_Compressed_pair@U?$_Wrap_alloc@V?$allocator@U?$_Tree_node@U?$pair@$$CBV?$tuple@HHHW4arch_t@@@std@@P6AXPAGHPBEHPAFH@Z@std@@PAX@std@@@std@@@std@@V?$_Tree_val@U?$_Tree_simple_types@U?$pair@$$CBV?$tuple@HHHW4arch_t@@@std@@P6AXPAGHPBEHPAFH@Z@std@@@std@@@2@$00@2@$00@std@@QAE@U_One_then_variadic_args_t@1@ABU?$less@V?$tuple@HHHW4arch_t@@@std@@@1@$$QAU_Zero_then_variadic_args_t@1@@Z ; std::_Compressed_pair<std::less<std::tuple<int,int,int,enum arch_t> >,std::_Compressed_pair<std::_Wrap_alloc<std::allocator<std::_Tree_node<std::pair<std::tuple<int,int,int,enum arch_t> const ,void (__cdecl*)(unsigned short *,int,unsigned char const *,int,short *,int)>,void *> > >,std::_Tree_val<std::_Tree_simple_types<std::pair<std::tuple<int,int,int,enum arch_t> const ,void (__cdecl*)(unsigned short *,int,unsigned char const *,int,short *,int)> > >,1>,1>::_Compressed_pair<std::less<std::tuple<int,int,int,enum arch_t> >,std::_Compressed_pair<std::_Wrap_alloc<std::allocator<std::_Tree_node<std::pair<std::tuple<int,int,int,enum arch_t> const ,void (__cdecl*)(unsigned short *,int,unsigned char const *,int,short *,int)>,void *> > >,std::_Tree_val<std::_Tree_simple_types<std::pair<std::tuple<int,int,int,enum arch_t> const ,void (__cdecl*)(unsigned short *,int,unsigned char const *,int,short *,int)> > >,1>,1><std::less<std::tuple<int,int,int,enum arch_t> > const &,std::_Zero_then_variadic_args_t>
PUBLIC	??$destroy@PAU?$_Tree_node@U?$pair@$$CBV?$tuple@HHHW4arch_t@@@std@@P6AXPAGHPBEHPAFH@Z@std@@PAX@std@@@?$_Wrap_alloc@V?$allocator@U?$_Tree_node@U?$pair@$$CBV?$tuple@HHHW4arch_t@@@std@@P6AXPAGHPBEHPAFH@Z@std@@PAX@std@@@std@@@std@@QAEXPAPAU?$_Tree_node@U?$pair@$$CBV?$tuple@HHHW4arch_t@@@std@@P6AXPAGHPBEHPAFH@Z@std@@PAX@1@@Z ; std::_Wrap_alloc<std::allocator<std::_Tree_node<std::pair<std::tuple<int,int,int,enum arch_t> const ,void (__cdecl*)(unsigned short *,int,unsigned char const *,int,short *,int)>,void *> > >::destroy<std::_Tree_node<std::pair<std::tuple<int,int,int,enum arch_t> const ,void (__cdecl*)(unsigned short *,int,unsigned char const *,int,short *,int)>,void *> *>
PUBLIC	??$addressof@PAU?$_Tree_node@U?$pair@$$CBV?$tuple@HHHW4arch_t@@@std@@P6AXPAGHPBEHPAFH@Z@std@@PAX@std@@@std@@YAPAPAU?$_Tree_node@U?$pair@$$CBV?$tuple@HHHW4arch_t@@@std@@P6AXPAGHPBEHPAFH@Z@std@@PAX@0@AAPAU10@@Z ; std::addressof<std::_Tree_node<std::pair<std::tuple<int,int,int,enum arch_t> const ,void (__cdecl*)(unsigned short *,int,unsigned char const *,int,short *,int)>,void *> *>
PUBLIC	??$?0ABU?$less@V?$tuple@HHHW4arch_t@@@std@@@std@@U_Zero_then_variadic_args_t@1@@?$_Compressed_pair@U?$less@V?$tuple@HHHW4arch_t@@@std@@@std@@V?$_Compressed_pair@U?$_Wrap_alloc@V?$allocator@U?$_Tree_node@U?$pair@$$CBV?$tuple@HHHW4arch_t@@@std@@P6AXPAHHPBE1HPAFH@Z@std@@PAX@std@@@std@@@std@@V?$_Tree_val@U?$_Tree_simple_types@U?$pair@$$CBV?$tuple@HHHW4arch_t@@@std@@P6AXPAHHPBE1HPAFH@Z@std@@@std@@@2@$00@2@$00@std@@QAE@U_One_then_variadic_args_t@1@ABU?$less@V?$tuple@HHHW4arch_t@@@std@@@1@$$QAU_Zero_then_variadic_args_t@1@@Z ; std::_Compressed_pair<std::less<std::tuple<int,int,int,enum arch_t> >,std::_Compressed_pair<std::_Wrap_alloc<std::allocator<std::_Tree_node<std::pair<std::tuple<int,int,int,enum arch_t> const ,void (__cdecl*)(int *,int,unsigned char const *,unsigned char const *,int,short *,int)>,void *> > >,std::_Tree_val<std::_Tree_simple_types<std::pair<std::tuple<int,int,int,enum arch_t> const ,void (__cdecl*)(int *,int,unsigned char const *,unsigned char const *,int,short *,int)> > >,1>,1>::_Compressed_pair<std::less<std::tuple<int,int,int,enum arch_t> >,std::_Compressed_pair<std::_Wrap_alloc<std::allocator<std::_Tree_node<std::pair<std::tuple<int,int,int,enum arch_t> const ,void (__cdecl*)(int *,int,unsigned char const *,unsigned char const *,int,short *,int)>,void *> > >,std::_Tree_val<std::_Tree_simple_types<std::pair<std::tuple<int,int,int,enum arch_t> const ,void (__cdecl*)(int *,int,unsigned char const *,unsigned char const *,int,short *,int)> > >,1>,1><std::less<std::tuple<int,int,int,enum arch_t> > const &,std::_Zero_then_variadic_args_t>
PUBLIC	??$destroy@PAU?$_Tree_node@U?$pair@$$CBV?$tuple@HHHW4arch_t@@@std@@P6AXPAHHPBE1HPAFH@Z@std@@PAX@std@@@?$_Wrap_alloc@V?$allocator@U?$_Tree_node@U?$pair@$$CBV?$tuple@HHHW4arch_t@@@std@@P6AXPAHHPBE1HPAFH@Z@std@@PAX@std@@@std@@@std@@QAEXPAPAU?$_Tree_node@U?$pair@$$CBV?$tuple@HHHW4arch_t@@@std@@P6AXPAHHPBE1HPAFH@Z@std@@PAX@1@@Z ; std::_Wrap_alloc<std::allocator<std::_Tree_node<std::pair<std::tuple<int,int,int,enum arch_t> const ,void (__cdecl*)(int *,int,unsigned char const *,unsigned char const *,int,short *,int)>,void *> > >::destroy<std::_Tree_node<std::pair<std::tuple<int,int,int,enum arch_t> const ,void (__cdecl*)(int *,int,unsigned char const *,unsigned char const *,int,short *,int)>,void *> *>
PUBLIC	??$addressof@PAU?$_Tree_node@U?$pair@$$CBV?$tuple@HHHW4arch_t@@@std@@P6AXPAHHPBE1HPAFH@Z@std@@PAX@std@@@std@@YAPAPAU?$_Tree_node@U?$pair@$$CBV?$tuple@HHHW4arch_t@@@std@@P6AXPAHHPBE1HPAFH@Z@std@@PAX@0@AAPAU10@@Z ; std::addressof<std::_Tree_node<std::pair<std::tuple<int,int,int,enum arch_t> const ,void (__cdecl*)(int *,int,unsigned char const *,unsigned char const *,int,short *,int)>,void *> *>
PUBLIC	??$addressof@U?$pair@$$CBV?$tuple@HHHW4arch_t@@@std@@P6AXPAHHPBE1HPAFH@Z@std@@@std@@YAPAU?$pair@$$CBV?$tuple@HHHW4arch_t@@@std@@P6AXPAHHPBE1HPAFH@Z@0@AAU10@@Z ; std::addressof<std::pair<std::tuple<int,int,int,enum arch_t> const ,void (__cdecl*)(int *,int,unsigned char const *,unsigned char const *,int,short *,int)> >
PUBLIC	??$addressof@U?$pair@$$CBV?$tuple@HHHW4arch_t@@@std@@P6AXPAGHPBEHPAFH@Z@std@@@std@@YAPAU?$pair@$$CBV?$tuple@HHHW4arch_t@@@std@@P6AXPAGHPBEHPAFH@Z@0@AAU10@@Z ; std::addressof<std::pair<std::tuple<int,int,int,enum arch_t> const ,void (__cdecl*)(unsigned short *,int,unsigned char const *,int,short *,int)> >
PUBLIC	??$try_emplace@$$V@?$map@V?$tuple@HHHW4arch_t@@@std@@P6AXPAGHPBEHPAFH@ZU?$less@V?$tuple@HHHW4arch_t@@@std@@@2@V?$allocator@U?$pair@$$CBV?$tuple@HHHW4arch_t@@@std@@P6AXPAGHPBEHPAFH@Z@std@@@2@@std@@QAE?AU?$pair@V?$_Tree_iterator@V?$_Tree_val@U?$_Tree_simple_types@U?$pair@$$CBV?$tuple@HHHW4arch_t@@@std@@P6AXPAGHPBEHPAFH@Z@std@@@std@@@std@@@std@@_N@1@$$QAV?$tuple@HHHW4arch_t@@@1@@Z ; std::map<std::tuple<int,int,int,enum arch_t>,void (__cdecl*)(unsigned short *,int,unsigned char const *,int,short *,int),std::less<std::tuple<int,int,int,enum arch_t> >,std::allocator<std::pair<std::tuple<int,int,int,enum arch_t> const ,void (__cdecl*)(unsigned short *,int,unsigned char const *,int,short *,int)> > >::try_emplace<>
PUBLIC	??$try_emplace@$$V@?$map@V?$tuple@HHHW4arch_t@@@std@@P6AXPAHHPBE1HPAFH@ZU?$less@V?$tuple@HHHW4arch_t@@@std@@@2@V?$allocator@U?$pair@$$CBV?$tuple@HHHW4arch_t@@@std@@P6AXPAHHPBE1HPAFH@Z@std@@@2@@std@@QAE?AU?$pair@V?$_Tree_iterator@V?$_Tree_val@U?$_Tree_simple_types@U?$pair@$$CBV?$tuple@HHHW4arch_t@@@std@@P6AXPAHHPBE1HPAFH@Z@std@@@std@@@std@@@std@@_N@1@$$QAV?$tuple@HHHW4arch_t@@@1@@Z ; std::map<std::tuple<int,int,int,enum arch_t>,void (__cdecl*)(int *,int,unsigned char const *,unsigned char const *,int,short *,int),std::less<std::tuple<int,int,int,enum arch_t> >,std::allocator<std::pair<std::tuple<int,int,int,enum arch_t> const ,void (__cdecl*)(int *,int,unsigned char const *,unsigned char const *,int,short *,int)> > >::try_emplace<>
PUBLIC	??$OverlapsLsb_C@$01$01@@YAXPAHHPBE1HPAFH@Z	; OverlapsLsb_C<2,2>
PUBLIC	??$OverlapsLsb_C@$01$03@@YAXPAHHPBE1HPAFH@Z	; OverlapsLsb_C<2,4>
PUBLIC	??$OverlapsLsb_C@$03$01@@YAXPAHHPBE1HPAFH@Z	; OverlapsLsb_C<4,2>
PUBLIC	??$OverlapsLsb_C@$03$03@@YAXPAHHPBE1HPAFH@Z	; OverlapsLsb_C<4,4>
PUBLIC	??$OverlapsLsb_C@$03$07@@YAXPAHHPBE1HPAFH@Z	; OverlapsLsb_C<4,8>
PUBLIC	??$OverlapsLsb_C@$07$00@@YAXPAHHPBE1HPAFH@Z	; OverlapsLsb_C<8,1>
PUBLIC	??$OverlapsLsb_C@$07$01@@YAXPAHHPBE1HPAFH@Z	; OverlapsLsb_C<8,2>
PUBLIC	??$OverlapsLsb_C@$07$03@@YAXPAHHPBE1HPAFH@Z	; OverlapsLsb_C<8,4>
PUBLIC	??$OverlapsLsb_C@$07$07@@YAXPAHHPBE1HPAFH@Z	; OverlapsLsb_C<8,8>
PUBLIC	??$OverlapsLsb_C@$07$0BA@@@YAXPAHHPBE1HPAFH@Z	; OverlapsLsb_C<8,16>
PUBLIC	??$OverlapsLsb_C@$0BA@$01@@YAXPAHHPBE1HPAFH@Z	; OverlapsLsb_C<16,2>
PUBLIC	??$OverlapsLsb_C@$0BA@$03@@YAXPAHHPBE1HPAFH@Z	; OverlapsLsb_C<16,4>
PUBLIC	??$OverlapsLsb_C@$0BA@$07@@YAXPAHHPBE1HPAFH@Z	; OverlapsLsb_C<16,8>
PUBLIC	??$OverlapsLsb_C@$0BA@$0BA@@@YAXPAHHPBE1HPAFH@Z	; OverlapsLsb_C<16,16>
PUBLIC	??$OverlapsLsb_C@$0BA@$0CA@@@YAXPAHHPBE1HPAFH@Z	; OverlapsLsb_C<16,32>
PUBLIC	??$OverlapsLsb_C@$0CA@$07@@YAXPAHHPBE1HPAFH@Z	; OverlapsLsb_C<32,8>
PUBLIC	??$OverlapsLsb_C@$0CA@$0BA@@@YAXPAHHPBE1HPAFH@Z	; OverlapsLsb_C<32,16>
PUBLIC	??$OverlapsLsb_C@$0CA@$0CA@@@YAXPAHHPBE1HPAFH@Z	; OverlapsLsb_C<32,32>
PUBLIC	??$Overlaps_sse4@G$03$01@@YAXPAGHPBEHPAFH@Z	; Overlaps_sse4<unsigned short,4,2>
PUBLIC	??$Overlaps_sse4@G$03$03@@YAXPAGHPBEHPAFH@Z	; Overlaps_sse4<unsigned short,4,4>
PUBLIC	??$Overlaps_sse4@G$03$07@@YAXPAGHPBEHPAFH@Z	; Overlaps_sse4<unsigned short,4,8>
PUBLIC	??$Overlaps_sse4@G$07$00@@YAXPAGHPBEHPAFH@Z	; Overlaps_sse4<unsigned short,8,1>
PUBLIC	??$Overlaps_sse4@G$07$01@@YAXPAGHPBEHPAFH@Z	; Overlaps_sse4<unsigned short,8,2>
PUBLIC	??$Overlaps_sse4@G$07$03@@YAXPAGHPBEHPAFH@Z	; Overlaps_sse4<unsigned short,8,4>
PUBLIC	??$Overlaps_sse4@G$07$07@@YAXPAGHPBEHPAFH@Z	; Overlaps_sse4<unsigned short,8,8>
PUBLIC	??$Overlaps_sse4@G$07$0BA@@@YAXPAGHPBEHPAFH@Z	; Overlaps_sse4<unsigned short,8,16>
PUBLIC	??$Overlaps_sse4@G$0BA@$01@@YAXPAGHPBEHPAFH@Z	; Overlaps_sse4<unsigned short,16,2>
PUBLIC	??$Overlaps_sse4@G$0BA@$03@@YAXPAGHPBEHPAFH@Z	; Overlaps_sse4<unsigned short,16,4>
PUBLIC	??$Overlaps_sse4@G$0BA@$07@@YAXPAGHPBEHPAFH@Z	; Overlaps_sse4<unsigned short,16,8>
PUBLIC	??$Overlaps_sse4@G$0BA@$0BA@@@YAXPAGHPBEHPAFH@Z	; Overlaps_sse4<unsigned short,16,16>
PUBLIC	??$Overlaps_sse4@G$0BA@$0CA@@@YAXPAGHPBEHPAFH@Z	; Overlaps_sse4<unsigned short,16,32>
PUBLIC	??$Overlaps_sse4@G$0CA@$07@@YAXPAGHPBEHPAFH@Z	; Overlaps_sse4<unsigned short,32,8>
PUBLIC	??$Overlaps_sse4@G$0CA@$0BA@@@YAXPAGHPBEHPAFH@Z	; Overlaps_sse4<unsigned short,32,16>
PUBLIC	??$Overlaps_sse4@G$0CA@$0CA@@@YAXPAGHPBEHPAFH@Z	; Overlaps_sse4<unsigned short,32,32>
PUBLIC	??$Overlaps_C@G$01$01@@YAXPAGHPBEHPAFH@Z	; Overlaps_C<unsigned short,2,2>
PUBLIC	??$Overlaps_C@G$01$03@@YAXPAGHPBEHPAFH@Z	; Overlaps_C<unsigned short,2,4>
PUBLIC	??$Overlaps_C@G$03$01@@YAXPAGHPBEHPAFH@Z	; Overlaps_C<unsigned short,4,2>
PUBLIC	??$Overlaps_C@G$03$03@@YAXPAGHPBEHPAFH@Z	; Overlaps_C<unsigned short,4,4>
PUBLIC	??$Overlaps_C@G$03$07@@YAXPAGHPBEHPAFH@Z	; Overlaps_C<unsigned short,4,8>
PUBLIC	??$Overlaps_C@G$07$00@@YAXPAGHPBEHPAFH@Z	; Overlaps_C<unsigned short,8,1>
PUBLIC	??$Overlaps_C@G$07$01@@YAXPAGHPBEHPAFH@Z	; Overlaps_C<unsigned short,8,2>
PUBLIC	??$Overlaps_C@G$07$03@@YAXPAGHPBEHPAFH@Z	; Overlaps_C<unsigned short,8,4>
PUBLIC	??$Overlaps_C@G$07$07@@YAXPAGHPBEHPAFH@Z	; Overlaps_C<unsigned short,8,8>
PUBLIC	??$Overlaps_C@G$07$0BA@@@YAXPAGHPBEHPAFH@Z	; Overlaps_C<unsigned short,8,16>
PUBLIC	??$Overlaps_C@G$0BA@$01@@YAXPAGHPBEHPAFH@Z	; Overlaps_C<unsigned short,16,2>
PUBLIC	??$Overlaps_C@G$0BA@$03@@YAXPAGHPBEHPAFH@Z	; Overlaps_C<unsigned short,16,4>
PUBLIC	??$Overlaps_C@G$0BA@$07@@YAXPAGHPBEHPAFH@Z	; Overlaps_C<unsigned short,16,8>
PUBLIC	??$Overlaps_C@G$0BA@$0BA@@@YAXPAGHPBEHPAFH@Z	; Overlaps_C<unsigned short,16,16>
PUBLIC	??$Overlaps_C@G$0BA@$0CA@@@YAXPAGHPBEHPAFH@Z	; Overlaps_C<unsigned short,16,32>
PUBLIC	??$Overlaps_C@G$0CA@$07@@YAXPAGHPBEHPAFH@Z	; Overlaps_C<unsigned short,32,8>
PUBLIC	??$Overlaps_C@G$0CA@$0BA@@@YAXPAGHPBEHPAFH@Z	; Overlaps_C<unsigned short,32,16>
PUBLIC	??$Overlaps_C@G$0CA@$0CA@@@YAXPAGHPBEHPAFH@Z	; Overlaps_C<unsigned short,32,32>
PUBLIC	??$Overlaps_C@E$01$01@@YAXPAGHPBEHPAFH@Z	; Overlaps_C<unsigned char,2,2>
PUBLIC	??$Overlaps_C@E$01$03@@YAXPAGHPBEHPAFH@Z	; Overlaps_C<unsigned char,2,4>
PUBLIC	??$Overlaps_C@E$03$01@@YAXPAGHPBEHPAFH@Z	; Overlaps_C<unsigned char,4,2>
PUBLIC	??$Overlaps_C@E$03$03@@YAXPAGHPBEHPAFH@Z	; Overlaps_C<unsigned char,4,4>
PUBLIC	??$Overlaps_C@E$03$07@@YAXPAGHPBEHPAFH@Z	; Overlaps_C<unsigned char,4,8>
PUBLIC	??$Overlaps_C@E$07$00@@YAXPAGHPBEHPAFH@Z	; Overlaps_C<unsigned char,8,1>
PUBLIC	??$Overlaps_C@E$07$01@@YAXPAGHPBEHPAFH@Z	; Overlaps_C<unsigned char,8,2>
PUBLIC	??$Overlaps_C@E$07$03@@YAXPAGHPBEHPAFH@Z	; Overlaps_C<unsigned char,8,4>
PUBLIC	??$Overlaps_C@E$07$07@@YAXPAGHPBEHPAFH@Z	; Overlaps_C<unsigned char,8,8>
PUBLIC	??$Overlaps_C@E$07$0BA@@@YAXPAGHPBEHPAFH@Z	; Overlaps_C<unsigned char,8,16>
PUBLIC	??$Overlaps_C@E$0BA@$01@@YAXPAGHPBEHPAFH@Z	; Overlaps_C<unsigned char,16,2>
PUBLIC	??$Overlaps_C@E$0BA@$03@@YAXPAGHPBEHPAFH@Z	; Overlaps_C<unsigned char,16,4>
PUBLIC	??$Overlaps_C@E$0BA@$07@@YAXPAGHPBEHPAFH@Z	; Overlaps_C<unsigned char,16,8>
PUBLIC	??$Overlaps_C@E$0BA@$0BA@@@YAXPAGHPBEHPAFH@Z	; Overlaps_C<unsigned char,16,16>
PUBLIC	??$Overlaps_C@E$0BA@$0CA@@@YAXPAGHPBEHPAFH@Z	; Overlaps_C<unsigned char,16,32>
PUBLIC	??$Overlaps_C@E$0CA@$07@@YAXPAGHPBEHPAFH@Z	; Overlaps_C<unsigned char,32,8>
PUBLIC	??$Overlaps_C@E$0CA@$0BA@@@YAXPAGHPBEHPAFH@Z	; Overlaps_C<unsigned char,32,16>
PUBLIC	??$Overlaps_C@E$0CA@$0CA@@@YAXPAGHPBEHPAFH@Z	; Overlaps_C<unsigned char,32,32>
PUBLIC	?allocate@?$allocator@U?$_Tree_node@U?$pair@$$CBV?$tuple@HHHW4arch_t@@@std@@P6AXPAGHPBEHPAFH@Z@std@@PAX@std@@@std@@QAEPAU?$_Tree_node@U?$pair@$$CBV?$tuple@HHHW4arch_t@@@std@@P6AXPAGHPBEHPAFH@Z@std@@PAX@2@I@Z ; std::allocator<std::_Tree_node<std::pair<std::tuple<int,int,int,enum arch_t> const ,void (__cdecl*)(unsigned short *,int,unsigned char const *,int,short *,int)>,void *> >::allocate
PUBLIC	?_Get_second@?$_Compressed_pair@U?$_Wrap_alloc@V?$allocator@U?$_Tree_node@U?$pair@$$CBV?$tuple@HHHW4arch_t@@@std@@P6AXPAGHPBEHPAFH@Z@std@@PAX@std@@@std@@@std@@V?$_Tree_val@U?$_Tree_simple_types@U?$pair@$$CBV?$tuple@HHHW4arch_t@@@std@@P6AXPAGHPBEHPAFH@Z@std@@@std@@@2@$00@std@@QBEABV?$_Tree_val@U?$_Tree_simple_types@U?$pair@$$CBV?$tuple@HHHW4arch_t@@@std@@P6AXPAGHPBEHPAFH@Z@std@@@std@@@2@XZ ; std::_Compressed_pair<std::_Wrap_alloc<std::allocator<std::_Tree_node<std::pair<std::tuple<int,int,int,enum arch_t> const ,void (__cdecl*)(unsigned short *,int,unsigned char const *,int,short *,int)>,void *> > >,std::_Tree_val<std::_Tree_simple_types<std::pair<std::tuple<int,int,int,enum arch_t> const ,void (__cdecl*)(unsigned short *,int,unsigned char const *,int,short *,int)> > >,1>::_Get_second
PUBLIC	?_Get_second@?$_Compressed_pair@U?$less@V?$tuple@HHHW4arch_t@@@std@@@std@@V?$_Compressed_pair@U?$_Wrap_alloc@V?$allocator@U?$_Tree_node@U?$pair@$$CBV?$tuple@HHHW4arch_t@@@std@@P6AXPAGHPBEHPAFH@Z@std@@PAX@std@@@std@@@std@@V?$_Tree_val@U?$_Tree_simple_types@U?$pair@$$CBV?$tuple@HHHW4arch_t@@@std@@P6AXPAGHPBEHPAFH@Z@std@@@std@@@2@$00@2@$00@std@@QBEABV?$_Compressed_pair@U?$_Wrap_alloc@V?$allocator@U?$_Tree_node@U?$pair@$$CBV?$tuple@HHHW4arch_t@@@std@@P6AXPAGHPBEHPAFH@Z@std@@PAX@std@@@std@@@std@@V?$_Tree_val@U?$_Tree_simple_types@U?$pair@$$CBV?$tuple@HHHW4arch_t@@@std@@P6AXPAGHPBEHPAFH@Z@std@@@std@@@2@$00@2@XZ ; std::_Compressed_pair<std::less<std::tuple<int,int,int,enum arch_t> >,std::_Compressed_pair<std::_Wrap_alloc<std::allocator<std::_Tree_node<std::pair<std::tuple<int,int,int,enum arch_t> const ,void (__cdecl*)(unsigned short *,int,unsigned char const *,int,short *,int)>,void *> > >,std::_Tree_val<std::_Tree_simple_types<std::pair<std::tuple<int,int,int,enum arch_t> const ,void (__cdecl*)(unsigned short *,int,unsigned char const *,int,short *,int)> > >,1>,1>::_Get_second
PUBLIC	?allocate@?$allocator@U?$_Tree_node@U?$pair@$$CBV?$tuple@HHHW4arch_t@@@std@@P6AXPAHHPBE1HPAFH@Z@std@@PAX@std@@@std@@QAEPAU?$_Tree_node@U?$pair@$$CBV?$tuple@HHHW4arch_t@@@std@@P6AXPAHHPBE1HPAFH@Z@std@@PAX@2@I@Z ; std::allocator<std::_Tree_node<std::pair<std::tuple<int,int,int,enum arch_t> const ,void (__cdecl*)(int *,int,unsigned char const *,unsigned char const *,int,short *,int)>,void *> >::allocate
PUBLIC	?_Get_second@?$_Compressed_pair@U?$_Wrap_alloc@V?$allocator@U?$_Tree_node@U?$pair@$$CBV?$tuple@HHHW4arch_t@@@std@@P6AXPAHHPBE1HPAFH@Z@std@@PAX@std@@@std@@@std@@V?$_Tree_val@U?$_Tree_simple_types@U?$pair@$$CBV?$tuple@HHHW4arch_t@@@std@@P6AXPAHHPBE1HPAFH@Z@std@@@std@@@2@$00@std@@QBEABV?$_Tree_val@U?$_Tree_simple_types@U?$pair@$$CBV?$tuple@HHHW4arch_t@@@std@@P6AXPAHHPBE1HPAFH@Z@std@@@std@@@2@XZ ; std::_Compressed_pair<std::_Wrap_alloc<std::allocator<std::_Tree_node<std::pair<std::tuple<int,int,int,enum arch_t> const ,void (__cdecl*)(int *,int,unsigned char const *,unsigned char const *,int,short *,int)>,void *> > >,std::_Tree_val<std::_Tree_simple_types<std::pair<std::tuple<int,int,int,enum arch_t> const ,void (__cdecl*)(int *,int,unsigned char const *,unsigned char const *,int,short *,int)> > >,1>::_Get_second
PUBLIC	?_Get_second@?$_Compressed_pair@U?$less@V?$tuple@HHHW4arch_t@@@std@@@std@@V?$_Compressed_pair@U?$_Wrap_alloc@V?$allocator@U?$_Tree_node@U?$pair@$$CBV?$tuple@HHHW4arch_t@@@std@@P6AXPAHHPBE1HPAFH@Z@std@@PAX@std@@@std@@@std@@V?$_Tree_val@U?$_Tree_simple_types@U?$pair@$$CBV?$tuple@HHHW4arch_t@@@std@@P6AXPAHHPBE1HPAFH@Z@std@@@std@@@2@$00@2@$00@std@@QBEABV?$_Compressed_pair@U?$_Wrap_alloc@V?$allocator@U?$_Tree_node@U?$pair@$$CBV?$tuple@HHHW4arch_t@@@std@@P6AXPAHHPBE1HPAFH@Z@std@@PAX@std@@@std@@@std@@V?$_Tree_val@U?$_Tree_simple_types@U?$pair@$$CBV?$tuple@HHHW4arch_t@@@std@@P6AXPAHHPBE1HPAFH@Z@std@@@std@@@2@$00@2@XZ ; std::_Compressed_pair<std::less<std::tuple<int,int,int,enum arch_t> >,std::_Compressed_pair<std::_Wrap_alloc<std::allocator<std::_Tree_node<std::pair<std::tuple<int,int,int,enum arch_t> const ,void (__cdecl*)(int *,int,unsigned char const *,unsigned char const *,int,short *,int)>,void *> > >,std::_Tree_val<std::_Tree_simple_types<std::pair<std::tuple<int,int,int,enum arch_t> const ,void (__cdecl*)(int *,int,unsigned char const *,unsigned char const *,int,short *,int)> > >,1>,1>::_Get_second
PUBLIC	?_Get_data@?$_Tree_comp_alloc@V?$_Tmap_traits@V?$tuple@HHHW4arch_t@@@std@@P6AXPAGHPBEHPAFH@ZU?$less@V?$tuple@HHHW4arch_t@@@std@@@2@V?$allocator@U?$pair@$$CBV?$tuple@HHHW4arch_t@@@std@@P6AXPAGHPBEHPAFH@Z@std@@@2@$0A@@std@@@std@@QBEABV?$_Tree_val@U?$_Tree_simple_types@U?$pair@$$CBV?$tuple@HHHW4arch_t@@@std@@P6AXPAGHPBEHPAFH@Z@std@@@std@@@2@XZ ; std::_Tree_comp_alloc<std::_Tmap_traits<std::tuple<int,int,int,enum arch_t>,void (__cdecl*)(unsigned short *,int,unsigned char const *,int,short *,int),std::less<std::tuple<int,int,int,enum arch_t> >,std::allocator<std::pair<std::tuple<int,int,int,enum arch_t> const ,void (__cdecl*)(unsigned short *,int,unsigned char const *,int,short *,int)> >,0> >::_Get_data
PUBLIC	?allocate@?$_Wrap_alloc@V?$allocator@U?$_Tree_node@U?$pair@$$CBV?$tuple@HHHW4arch_t@@@std@@P6AXPAGHPBEHPAFH@Z@std@@PAX@std@@@std@@@std@@QAEPAU?$_Tree_node@U?$pair@$$CBV?$tuple@HHHW4arch_t@@@std@@P6AXPAGHPBEHPAFH@Z@std@@PAX@2@I@Z ; std::_Wrap_alloc<std::allocator<std::_Tree_node<std::pair<std::tuple<int,int,int,enum arch_t> const ,void (__cdecl*)(unsigned short *,int,unsigned char const *,int,short *,int)>,void *> > >::allocate
PUBLIC	?_Color@?$_Tree_val@U?$_Tree_simple_types@U?$pair@$$CBV?$tuple@HHHW4arch_t@@@std@@P6AXPAGHPBEHPAFH@Z@std@@@std@@@std@@SAAADPAU?$_Tree_node@U?$pair@$$CBV?$tuple@HHHW4arch_t@@@std@@P6AXPAGHPBEHPAFH@Z@std@@PAX@2@@Z ; std::_Tree_val<std::_Tree_simple_types<std::pair<std::tuple<int,int,int,enum arch_t> const ,void (__cdecl*)(unsigned short *,int,unsigned char const *,int,short *,int)> > >::_Color
PUBLIC	?_Isnil@?$_Tree_val@U?$_Tree_simple_types@U?$pair@$$CBV?$tuple@HHHW4arch_t@@@std@@P6AXPAGHPBEHPAFH@Z@std@@@std@@@std@@SAAADPAU?$_Tree_node@U?$pair@$$CBV?$tuple@HHHW4arch_t@@@std@@P6AXPAGHPBEHPAFH@Z@std@@PAX@2@@Z ; std::_Tree_val<std::_Tree_simple_types<std::pair<std::tuple<int,int,int,enum arch_t> const ,void (__cdecl*)(unsigned short *,int,unsigned char const *,int,short *,int)> > >::_Isnil
PUBLIC	?_Max@?$_Tree_val@U?$_Tree_simple_types@U?$pair@$$CBV?$tuple@HHHW4arch_t@@@std@@P6AXPAGHPBEHPAFH@Z@std@@@std@@@std@@SAPAU?$_Tree_node@U?$pair@$$CBV?$tuple@HHHW4arch_t@@@std@@P6AXPAGHPBEHPAFH@Z@std@@PAX@2@PAU32@@Z ; std::_Tree_val<std::_Tree_simple_types<std::pair<std::tuple<int,int,int,enum arch_t> const ,void (__cdecl*)(unsigned short *,int,unsigned char const *,int,short *,int)> > >::_Max
PUBLIC	?_Min@?$_Tree_val@U?$_Tree_simple_types@U?$pair@$$CBV?$tuple@HHHW4arch_t@@@std@@P6AXPAGHPBEHPAFH@Z@std@@@std@@@std@@SAPAU?$_Tree_node@U?$pair@$$CBV?$tuple@HHHW4arch_t@@@std@@P6AXPAGHPBEHPAFH@Z@std@@PAX@2@PAU32@@Z ; std::_Tree_val<std::_Tree_simple_types<std::pair<std::tuple<int,int,int,enum arch_t> const ,void (__cdecl*)(unsigned short *,int,unsigned char const *,int,short *,int)> > >::_Min
PUBLIC	?_Get_data@?$_Tree_comp_alloc@V?$_Tmap_traits@V?$tuple@HHHW4arch_t@@@std@@P6AXPAHHPBE1HPAFH@ZU?$less@V?$tuple@HHHW4arch_t@@@std@@@2@V?$allocator@U?$pair@$$CBV?$tuple@HHHW4arch_t@@@std@@P6AXPAHHPBE1HPAFH@Z@std@@@2@$0A@@std@@@std@@QBEABV?$_Tree_val@U?$_Tree_simple_types@U?$pair@$$CBV?$tuple@HHHW4arch_t@@@std@@P6AXPAHHPBE1HPAFH@Z@std@@@std@@@2@XZ ; std::_Tree_comp_alloc<std::_Tmap_traits<std::tuple<int,int,int,enum arch_t>,void (__cdecl*)(int *,int,unsigned char const *,unsigned char const *,int,short *,int),std::less<std::tuple<int,int,int,enum arch_t> >,std::allocator<std::pair<std::tuple<int,int,int,enum arch_t> const ,void (__cdecl*)(int *,int,unsigned char const *,unsigned char const *,int,short *,int)> >,0> >::_Get_data
PUBLIC	?allocate@?$_Wrap_alloc@V?$allocator@U?$_Tree_node@U?$pair@$$CBV?$tuple@HHHW4arch_t@@@std@@P6AXPAHHPBE1HPAFH@Z@std@@PAX@std@@@std@@@std@@QAEPAU?$_Tree_node@U?$pair@$$CBV?$tuple@HHHW4arch_t@@@std@@P6AXPAHHPBE1HPAFH@Z@std@@PAX@2@I@Z ; std::_Wrap_alloc<std::allocator<std::_Tree_node<std::pair<std::tuple<int,int,int,enum arch_t> const ,void (__cdecl*)(int *,int,unsigned char const *,unsigned char const *,int,short *,int)>,void *> > >::allocate
PUBLIC	?_Color@?$_Tree_val@U?$_Tree_simple_types@U?$pair@$$CBV?$tuple@HHHW4arch_t@@@std@@P6AXPAHHPBE1HPAFH@Z@std@@@std@@@std@@SAAADPAU?$_Tree_node@U?$pair@$$CBV?$tuple@HHHW4arch_t@@@std@@P6AXPAHHPBE1HPAFH@Z@std@@PAX@2@@Z ; std::_Tree_val<std::_Tree_simple_types<std::pair<std::tuple<int,int,int,enum arch_t> const ,void (__cdecl*)(int *,int,unsigned char const *,unsigned char const *,int,short *,int)> > >::_Color
PUBLIC	?_Isnil@?$_Tree_val@U?$_Tree_simple_types@U?$pair@$$CBV?$tuple@HHHW4arch_t@@@std@@P6AXPAHHPBE1HPAFH@Z@std@@@std@@@std@@SAAADPAU?$_Tree_node@U?$pair@$$CBV?$tuple@HHHW4arch_t@@@std@@P6AXPAHHPBE1HPAFH@Z@std@@PAX@2@@Z ; std::_Tree_val<std::_Tree_simple_types<std::pair<std::tuple<int,int,int,enum arch_t> const ,void (__cdecl*)(int *,int,unsigned char const *,unsigned char const *,int,short *,int)> > >::_Isnil
PUBLIC	?_Max@?$_Tree_val@U?$_Tree_simple_types@U?$pair@$$CBV?$tuple@HHHW4arch_t@@@std@@P6AXPAHHPBE1HPAFH@Z@std@@@std@@@std@@SAPAU?$_Tree_node@U?$pair@$$CBV?$tuple@HHHW4arch_t@@@std@@P6AXPAHHPBE1HPAFH@Z@std@@PAX@2@PAU32@@Z ; std::_Tree_val<std::_Tree_simple_types<std::pair<std::tuple<int,int,int,enum arch_t> const ,void (__cdecl*)(int *,int,unsigned char const *,unsigned char const *,int,short *,int)> > >::_Max
PUBLIC	?_Min@?$_Tree_val@U?$_Tree_simple_types@U?$pair@$$CBV?$tuple@HHHW4arch_t@@@std@@P6AXPAHHPBE1HPAFH@Z@std@@@std@@@std@@SAPAU?$_Tree_node@U?$pair@$$CBV?$tuple@HHHW4arch_t@@@std@@P6AXPAHHPBE1HPAFH@Z@std@@PAX@2@PAU32@@Z ; std::_Tree_val<std::_Tree_simple_types<std::pair<std::tuple<int,int,int,enum arch_t> const ,void (__cdecl*)(int *,int,unsigned char const *,unsigned char const *,int,short *,int)> > >::_Min
PUBLIC	??0?$_Tree_unchecked_const_iterator@V?$_Tree_val@U?$_Tree_simple_types@U?$pair@$$CBV?$tuple@HHHW4arch_t@@@std@@P6AXPAHHPBE1HPAFH@Z@std@@@std@@@std@@U_Iterator_base0@2@@std@@QAE@PAU?$_Tree_node@U?$pair@$$CBV?$tuple@HHHW4arch_t@@@std@@P6AXPAHHPBE1HPAFH@Z@std@@PAX@1@PBV?$_Tree_val@U?$_Tree_simple_types@U?$pair@$$CBV?$tuple@HHHW4arch_t@@@std@@P6AXPAHHPBE1HPAFH@Z@std@@@std@@@1@@Z ; std::_Tree_unchecked_const_iterator<std::_Tree_val<std::_Tree_simple_types<std::pair<std::tuple<int,int,int,enum arch_t> const ,void (__cdecl*)(int *,int,unsigned char const *,unsigned char const *,int,short *,int)> > >,std::_Iterator_base0>::_Tree_unchecked_const_iterator<std::_Tree_val<std::_Tree_simple_types<std::pair<std::tuple<int,int,int,enum arch_t> const ,void (__cdecl*)(int *,int,unsigned char const *,unsigned char const *,int,short *,int)> > >,std::_Iterator_base0>
PUBLIC	??E?$_Tree_unchecked_const_iterator@V?$_Tree_val@U?$_Tree_simple_types@U?$pair@$$CBV?$tuple@HHHW4arch_t@@@std@@P6AXPAHHPBE1HPAFH@Z@std@@@std@@@std@@U_Iterator_base0@2@@std@@QAEAAV01@XZ ; std::_Tree_unchecked_const_iterator<std::_Tree_val<std::_Tree_simple_types<std::pair<std::tuple<int,int,int,enum arch_t> const ,void (__cdecl*)(int *,int,unsigned char const *,unsigned char const *,int,short *,int)> > >,std::_Iterator_base0>::operator++
PUBLIC	??0?$_Tree_unchecked_const_iterator@V?$_Tree_val@U?$_Tree_simple_types@U?$pair@$$CBV?$tuple@HHHW4arch_t@@@std@@P6AXPAGHPBEHPAFH@Z@std@@@std@@@std@@U_Iterator_base0@2@@std@@QAE@PAU?$_Tree_node@U?$pair@$$CBV?$tuple@HHHW4arch_t@@@std@@P6AXPAGHPBEHPAFH@Z@std@@PAX@1@PBV?$_Tree_val@U?$_Tree_simple_types@U?$pair@$$CBV?$tuple@HHHW4arch_t@@@std@@P6AXPAGHPBEHPAFH@Z@std@@@std@@@1@@Z ; std::_Tree_unchecked_const_iterator<std::_Tree_val<std::_Tree_simple_types<std::pair<std::tuple<int,int,int,enum arch_t> const ,void (__cdecl*)(unsigned short *,int,unsigned char const *,int,short *,int)> > >,std::_Iterator_base0>::_Tree_unchecked_const_iterator<std::_Tree_val<std::_Tree_simple_types<std::pair<std::tuple<int,int,int,enum arch_t> const ,void (__cdecl*)(unsigned short *,int,unsigned char const *,int,short *,int)> > >,std::_Iterator_base0>
PUBLIC	??E?$_Tree_unchecked_const_iterator@V?$_Tree_val@U?$_Tree_simple_types@U?$pair@$$CBV?$tuple@HHHW4arch_t@@@std@@P6AXPAGHPBEHPAFH@Z@std@@@std@@@std@@U_Iterator_base0@2@@std@@QAEAAV01@XZ ; std::_Tree_unchecked_const_iterator<std::_Tree_val<std::_Tree_simple_types<std::pair<std::tuple<int,int,int,enum arch_t> const ,void (__cdecl*)(unsigned short *,int,unsigned char const *,int,short *,int)> > >,std::_Iterator_base0>::operator++
PUBLIC	?_Erase@?$_Tree@V?$_Tmap_traits@V?$tuple@HHHW4arch_t@@@std@@P6AXPAGHPBEHPAFH@ZU?$less@V?$tuple@HHHW4arch_t@@@std@@@2@V?$allocator@U?$pair@$$CBV?$tuple@HHHW4arch_t@@@std@@P6AXPAGHPBEHPAFH@Z@std@@@2@$0A@@std@@@std@@IAEXPAU?$_Tree_node@U?$pair@$$CBV?$tuple@HHHW4arch_t@@@std@@P6AXPAGHPBEHPAFH@Z@std@@PAX@2@@Z ; std::_Tree<std::_Tmap_traits<std::tuple<int,int,int,enum arch_t>,void (__cdecl*)(unsigned short *,int,unsigned char const *,int,short *,int),std::less<std::tuple<int,int,int,enum arch_t> >,std::allocator<std::pair<std::tuple<int,int,int,enum arch_t> const ,void (__cdecl*)(unsigned short *,int,unsigned char const *,int,short *,int)> >,0> >::_Erase
PUBLIC	?_Lrotate@?$_Tree@V?$_Tmap_traits@V?$tuple@HHHW4arch_t@@@std@@P6AXPAGHPBEHPAFH@ZU?$less@V?$tuple@HHHW4arch_t@@@std@@@2@V?$allocator@U?$pair@$$CBV?$tuple@HHHW4arch_t@@@std@@P6AXPAGHPBEHPAFH@Z@std@@@2@$0A@@std@@@std@@IAEXPAU?$_Tree_node@U?$pair@$$CBV?$tuple@HHHW4arch_t@@@std@@P6AXPAGHPBEHPAFH@Z@std@@PAX@2@@Z ; std::_Tree<std::_Tmap_traits<std::tuple<int,int,int,enum arch_t>,void (__cdecl*)(unsigned short *,int,unsigned char const *,int,short *,int),std::less<std::tuple<int,int,int,enum arch_t> >,std::allocator<std::pair<std::tuple<int,int,int,enum arch_t> const ,void (__cdecl*)(unsigned short *,int,unsigned char const *,int,short *,int)> >,0> >::_Lrotate
PUBLIC	?_Rmost@?$_Tree@V?$_Tmap_traits@V?$tuple@HHHW4arch_t@@@std@@P6AXPAGHPBEHPAFH@ZU?$less@V?$tuple@HHHW4arch_t@@@std@@@2@V?$allocator@U?$pair@$$CBV?$tuple@HHHW4arch_t@@@std@@P6AXPAGHPBEHPAFH@Z@std@@@2@$0A@@std@@@std@@IBEAAPAU?$_Tree_node@U?$pair@$$CBV?$tuple@HHHW4arch_t@@@std@@P6AXPAGHPBEHPAFH@Z@std@@PAX@2@XZ ; std::_Tree<std::_Tmap_traits<std::tuple<int,int,int,enum arch_t>,void (__cdecl*)(unsigned short *,int,unsigned char const *,int,short *,int),std::less<std::tuple<int,int,int,enum arch_t> >,std::allocator<std::pair<std::tuple<int,int,int,enum arch_t> const ,void (__cdecl*)(unsigned short *,int,unsigned char const *,int,short *,int)> >,0> >::_Rmost
PUBLIC	?_Root@?$_Tree@V?$_Tmap_traits@V?$tuple@HHHW4arch_t@@@std@@P6AXPAGHPBEHPAFH@ZU?$less@V?$tuple@HHHW4arch_t@@@std@@@2@V?$allocator@U?$pair@$$CBV?$tuple@HHHW4arch_t@@@std@@P6AXPAGHPBEHPAFH@Z@std@@@2@$0A@@std@@@std@@IBEAAPAU?$_Tree_node@U?$pair@$$CBV?$tuple@HHHW4arch_t@@@std@@P6AXPAGHPBEHPAFH@Z@std@@PAX@2@XZ ; std::_Tree<std::_Tmap_traits<std::tuple<int,int,int,enum arch_t>,void (__cdecl*)(unsigned short *,int,unsigned char const *,int,short *,int),std::less<std::tuple<int,int,int,enum arch_t> >,std::allocator<std::pair<std::tuple<int,int,int,enum arch_t> const ,void (__cdecl*)(unsigned short *,int,unsigned char const *,int,short *,int)> >,0> >::_Root
PUBLIC	?_Rrotate@?$_Tree@V?$_Tmap_traits@V?$tuple@HHHW4arch_t@@@std@@P6AXPAGHPBEHPAFH@ZU?$less@V?$tuple@HHHW4arch_t@@@std@@@2@V?$allocator@U?$pair@$$CBV?$tuple@HHHW4arch_t@@@std@@P6AXPAGHPBEHPAFH@Z@std@@@2@$0A@@std@@@std@@IAEXPAU?$_Tree_node@U?$pair@$$CBV?$tuple@HHHW4arch_t@@@std@@P6AXPAGHPBEHPAFH@Z@std@@PAX@2@@Z ; std::_Tree<std::_Tmap_traits<std::tuple<int,int,int,enum arch_t>,void (__cdecl*)(unsigned short *,int,unsigned char const *,int,short *,int),std::less<std::tuple<int,int,int,enum arch_t> >,std::allocator<std::pair<std::tuple<int,int,int,enum arch_t> const ,void (__cdecl*)(unsigned short *,int,unsigned char const *,int,short *,int)> >,0> >::_Rrotate
PUBLIC	?_Color@?$_Tree_comp_alloc@V?$_Tmap_traits@V?$tuple@HHHW4arch_t@@@std@@P6AXPAGHPBEHPAFH@ZU?$less@V?$tuple@HHHW4arch_t@@@std@@@2@V?$allocator@U?$pair@$$CBV?$tuple@HHHW4arch_t@@@std@@P6AXPAGHPBEHPAFH@Z@std@@@2@$0A@@std@@@std@@SAAADPAU?$_Tree_node@U?$pair@$$CBV?$tuple@HHHW4arch_t@@@std@@P6AXPAGHPBEHPAFH@Z@std@@PAX@2@@Z ; std::_Tree_comp_alloc<std::_Tmap_traits<std::tuple<int,int,int,enum arch_t>,void (__cdecl*)(unsigned short *,int,unsigned char const *,int,short *,int),std::less<std::tuple<int,int,int,enum arch_t> >,std::allocator<std::pair<std::tuple<int,int,int,enum arch_t> const ,void (__cdecl*)(unsigned short *,int,unsigned char const *,int,short *,int)> >,0> >::_Color
PUBLIC	?_Isnil@?$_Tree_comp_alloc@V?$_Tmap_traits@V?$tuple@HHHW4arch_t@@@std@@P6AXPAGHPBEHPAFH@ZU?$less@V?$tuple@HHHW4arch_t@@@std@@@2@V?$allocator@U?$pair@$$CBV?$tuple@HHHW4arch_t@@@std@@P6AXPAGHPBEHPAFH@Z@std@@@2@$0A@@std@@@std@@SAAADPAU?$_Tree_node@U?$pair@$$CBV?$tuple@HHHW4arch_t@@@std@@P6AXPAGHPBEHPAFH@Z@std@@PAX@2@@Z ; std::_Tree_comp_alloc<std::_Tmap_traits<std::tuple<int,int,int,enum arch_t>,void (__cdecl*)(unsigned short *,int,unsigned char const *,int,short *,int),std::less<std::tuple<int,int,int,enum arch_t> >,std::allocator<std::pair<std::tuple<int,int,int,enum arch_t> const ,void (__cdecl*)(unsigned short *,int,unsigned char const *,int,short *,int)> >,0> >::_Isnil
PUBLIC	?_Myval@?$_Tree_comp_alloc@V?$_Tmap_traits@V?$tuple@HHHW4arch_t@@@std@@P6AXPAGHPBEHPAFH@ZU?$less@V?$tuple@HHHW4arch_t@@@std@@@2@V?$allocator@U?$pair@$$CBV?$tuple@HHHW4arch_t@@@std@@P6AXPAGHPBEHPAFH@Z@std@@@2@$0A@@std@@@std@@SAAAU?$pair@$$CBV?$tuple@HHHW4arch_t@@@std@@P6AXPAGHPBEHPAFH@Z@2@PAU?$_Tree_node@U?$pair@$$CBV?$tuple@HHHW4arch_t@@@std@@P6AXPAGHPBEHPAFH@Z@std@@PAX@2@@Z ; std::_Tree_comp_alloc<std::_Tmap_traits<std::tuple<int,int,int,enum arch_t>,void (__cdecl*)(unsigned short *,int,unsigned char const *,int,short *,int),std::less<std::tuple<int,int,int,enum arch_t> >,std::allocator<std::pair<std::tuple<int,int,int,enum arch_t> const ,void (__cdecl*)(unsigned short *,int,unsigned char const *,int,short *,int)> >,0> >::_Myval
PUBLIC	?_Max@?$_Tree_comp_alloc@V?$_Tmap_traits@V?$tuple@HHHW4arch_t@@@std@@P6AXPAGHPBEHPAFH@ZU?$less@V?$tuple@HHHW4arch_t@@@std@@@2@V?$allocator@U?$pair@$$CBV?$tuple@HHHW4arch_t@@@std@@P6AXPAGHPBEHPAFH@Z@std@@@2@$0A@@std@@@std@@SAPAU?$_Tree_node@U?$pair@$$CBV?$tuple@HHHW4arch_t@@@std@@P6AXPAGHPBEHPAFH@Z@std@@PAX@2@PAU32@@Z ; std::_Tree_comp_alloc<std::_Tmap_traits<std::tuple<int,int,int,enum arch_t>,void (__cdecl*)(unsigned short *,int,unsigned char const *,int,short *,int),std::less<std::tuple<int,int,int,enum arch_t> >,std::allocator<std::pair<std::tuple<int,int,int,enum arch_t> const ,void (__cdecl*)(unsigned short *,int,unsigned char const *,int,short *,int)> >,0> >::_Max
PUBLIC	?_Min@?$_Tree_comp_alloc@V?$_Tmap_traits@V?$tuple@HHHW4arch_t@@@std@@P6AXPAGHPBEHPAFH@ZU?$less@V?$tuple@HHHW4arch_t@@@std@@@2@V?$allocator@U?$pair@$$CBV?$tuple@HHHW4arch_t@@@std@@P6AXPAGHPBEHPAFH@Z@std@@@2@$0A@@std@@@std@@SAPAU?$_Tree_node@U?$pair@$$CBV?$tuple@HHHW4arch_t@@@std@@P6AXPAGHPBEHPAFH@Z@std@@PAX@2@PAU32@@Z ; std::_Tree_comp_alloc<std::_Tmap_traits<std::tuple<int,int,int,enum arch_t>,void (__cdecl*)(unsigned short *,int,unsigned char const *,int,short *,int),std::less<std::tuple<int,int,int,enum arch_t> >,std::allocator<std::pair<std::tuple<int,int,int,enum arch_t> const ,void (__cdecl*)(unsigned short *,int,unsigned char const *,int,short *,int)> >,0> >::_Min
PUBLIC	?_Buyheadnode@?$_Tree_comp_alloc@V?$_Tmap_traits@V?$tuple@HHHW4arch_t@@@std@@P6AXPAGHPBEHPAFH@ZU?$less@V?$tuple@HHHW4arch_t@@@std@@@2@V?$allocator@U?$pair@$$CBV?$tuple@HHHW4arch_t@@@std@@P6AXPAGHPBEHPAFH@Z@std@@@2@$0A@@std@@@std@@QAEPAU?$_Tree_node@U?$pair@$$CBV?$tuple@HHHW4arch_t@@@std@@P6AXPAGHPBEHPAFH@Z@std@@PAX@2@XZ ; std::_Tree_comp_alloc<std::_Tmap_traits<std::tuple<int,int,int,enum arch_t>,void (__cdecl*)(unsigned short *,int,unsigned char const *,int,short *,int),std::less<std::tuple<int,int,int,enum arch_t> >,std::allocator<std::pair<std::tuple<int,int,int,enum arch_t> const ,void (__cdecl*)(unsigned short *,int,unsigned char const *,int,short *,int)> >,0> >::_Buyheadnode
PUBLIC	?_Myhead@?$_Tree_comp_alloc@V?$_Tmap_traits@V?$tuple@HHHW4arch_t@@@std@@P6AXPAGHPBEHPAFH@ZU?$less@V?$tuple@HHHW4arch_t@@@std@@@2@V?$allocator@U?$pair@$$CBV?$tuple@HHHW4arch_t@@@std@@P6AXPAGHPBEHPAFH@Z@std@@@2@$0A@@std@@@std@@QBEABQAU?$_Tree_node@U?$pair@$$CBV?$tuple@HHHW4arch_t@@@std@@P6AXPAGHPBEHPAFH@Z@std@@PAX@2@XZ ; std::_Tree_comp_alloc<std::_Tmap_traits<std::tuple<int,int,int,enum arch_t>,void (__cdecl*)(unsigned short *,int,unsigned char const *,int,short *,int),std::less<std::tuple<int,int,int,enum arch_t> >,std::allocator<std::pair<std::tuple<int,int,int,enum arch_t> const ,void (__cdecl*)(unsigned short *,int,unsigned char const *,int,short *,int)> >,0> >::_Myhead
PUBLIC	?_Mysize@?$_Tree_comp_alloc@V?$_Tmap_traits@V?$tuple@HHHW4arch_t@@@std@@P6AXPAGHPBEHPAFH@ZU?$less@V?$tuple@HHHW4arch_t@@@std@@@2@V?$allocator@U?$pair@$$CBV?$tuple@HHHW4arch_t@@@std@@P6AXPAGHPBEHPAFH@Z@std@@@2@$0A@@std@@@std@@QAEAAIXZ ; std::_Tree_comp_alloc<std::_Tmap_traits<std::tuple<int,int,int,enum arch_t>,void (__cdecl*)(unsigned short *,int,unsigned char const *,int,short *,int),std::less<std::tuple<int,int,int,enum arch_t> >,std::allocator<std::pair<std::tuple<int,int,int,enum arch_t> const ,void (__cdecl*)(unsigned short *,int,unsigned char const *,int,short *,int)> >,0> >::_Mysize
PUBLIC	?deallocate@?$allocator@U?$_Tree_node@U?$pair@$$CBV?$tuple@HHHW4arch_t@@@std@@P6AXPAGHPBEHPAFH@Z@std@@PAX@std@@@std@@QAEXPAU?$_Tree_node@U?$pair@$$CBV?$tuple@HHHW4arch_t@@@std@@P6AXPAGHPBEHPAFH@Z@std@@PAX@2@I@Z ; std::allocator<std::_Tree_node<std::pair<std::tuple<int,int,int,enum arch_t> const ,void (__cdecl*)(unsigned short *,int,unsigned char const *,int,short *,int)>,void *> >::deallocate
PUBLIC	?_Left@?$_Tree_val@U?$_Tree_simple_types@U?$pair@$$CBV?$tuple@HHHW4arch_t@@@std@@P6AXPAGHPBEHPAFH@Z@std@@@std@@@std@@SAAAPAU?$_Tree_node@U?$pair@$$CBV?$tuple@HHHW4arch_t@@@std@@P6AXPAGHPBEHPAFH@Z@std@@PAX@2@PAU32@@Z ; std::_Tree_val<std::_Tree_simple_types<std::pair<std::tuple<int,int,int,enum arch_t> const ,void (__cdecl*)(unsigned short *,int,unsigned char const *,int,short *,int)> > >::_Left
PUBLIC	?_Parent@?$_Tree_val@U?$_Tree_simple_types@U?$pair@$$CBV?$tuple@HHHW4arch_t@@@std@@P6AXPAGHPBEHPAFH@Z@std@@@std@@@std@@SAAAPAU?$_Tree_node@U?$pair@$$CBV?$tuple@HHHW4arch_t@@@std@@P6AXPAGHPBEHPAFH@Z@std@@PAX@2@PAU32@@Z ; std::_Tree_val<std::_Tree_simple_types<std::pair<std::tuple<int,int,int,enum arch_t> const ,void (__cdecl*)(unsigned short *,int,unsigned char const *,int,short *,int)> > >::_Parent
PUBLIC	?_Right@?$_Tree_val@U?$_Tree_simple_types@U?$pair@$$CBV?$tuple@HHHW4arch_t@@@std@@P6AXPAGHPBEHPAFH@Z@std@@@std@@@std@@SAAAPAU?$_Tree_node@U?$pair@$$CBV?$tuple@HHHW4arch_t@@@std@@P6AXPAGHPBEHPAFH@Z@std@@PAX@2@PAU32@@Z ; std::_Tree_val<std::_Tree_simple_types<std::pair<std::tuple<int,int,int,enum arch_t> const ,void (__cdecl*)(unsigned short *,int,unsigned char const *,int,short *,int)> > >::_Right
PUBLIC	?_Myval@?$_Tree_val@U?$_Tree_simple_types@U?$pair@$$CBV?$tuple@HHHW4arch_t@@@std@@P6AXPAGHPBEHPAFH@Z@std@@@std@@@std@@SAAAU?$pair@$$CBV?$tuple@HHHW4arch_t@@@std@@P6AXPAGHPBEHPAFH@Z@2@PAU?$_Tree_node@U?$pair@$$CBV?$tuple@HHHW4arch_t@@@std@@P6AXPAGHPBEHPAFH@Z@std@@PAX@2@@Z ; std::_Tree_val<std::_Tree_simple_types<std::pair<std::tuple<int,int,int,enum arch_t> const ,void (__cdecl*)(unsigned short *,int,unsigned char const *,int,short *,int)> > >::_Myval
PUBLIC	??0?$_Tree_const_iterator@V?$_Tree_val@U?$_Tree_simple_types@U?$pair@$$CBV?$tuple@HHHW4arch_t@@@std@@P6AXPAGHPBEHPAFH@Z@std@@@std@@@std@@@std@@QAE@PAU?$_Tree_node@U?$pair@$$CBV?$tuple@HHHW4arch_t@@@std@@P6AXPAGHPBEHPAFH@Z@std@@PAX@1@PBV?$_Tree_val@U?$_Tree_simple_types@U?$pair@$$CBV?$tuple@HHHW4arch_t@@@std@@P6AXPAGHPBEHPAFH@Z@std@@@std@@@1@@Z ; std::_Tree_const_iterator<std::_Tree_val<std::_Tree_simple_types<std::pair<std::tuple<int,int,int,enum arch_t> const ,void (__cdecl*)(unsigned short *,int,unsigned char const *,int,short *,int)> > > >::_Tree_const_iterator<std::_Tree_val<std::_Tree_simple_types<std::pair<std::tuple<int,int,int,enum arch_t> const ,void (__cdecl*)(unsigned short *,int,unsigned char const *,int,short *,int)> > > >
PUBLIC	??E?$_Tree_const_iterator@V?$_Tree_val@U?$_Tree_simple_types@U?$pair@$$CBV?$tuple@HHHW4arch_t@@@std@@P6AXPAGHPBEHPAFH@Z@std@@@std@@@std@@@std@@QAEAAV01@XZ ; std::_Tree_const_iterator<std::_Tree_val<std::_Tree_simple_types<std::pair<std::tuple<int,int,int,enum arch_t> const ,void (__cdecl*)(unsigned short *,int,unsigned char const *,int,short *,int)> > > >::operator++
PUBLIC	?_Get_first@?$_Compressed_pair@U?$_Wrap_alloc@V?$allocator@U?$_Tree_node@U?$pair@$$CBV?$tuple@HHHW4arch_t@@@std@@P6AXPAGHPBEHPAFH@Z@std@@PAX@std@@@std@@@std@@V?$_Tree_val@U?$_Tree_simple_types@U?$pair@$$CBV?$tuple@HHHW4arch_t@@@std@@P6AXPAGHPBEHPAFH@Z@std@@@std@@@2@$00@std@@QAEAAU?$_Wrap_alloc@V?$allocator@U?$_Tree_node@U?$pair@$$CBV?$tuple@HHHW4arch_t@@@std@@P6AXPAGHPBEHPAFH@Z@std@@PAX@std@@@std@@@2@XZ ; std::_Compressed_pair<std::_Wrap_alloc<std::allocator<std::_Tree_node<std::pair<std::tuple<int,int,int,enum arch_t> const ,void (__cdecl*)(unsigned short *,int,unsigned char const *,int,short *,int)>,void *> > >,std::_Tree_val<std::_Tree_simple_types<std::pair<std::tuple<int,int,int,enum arch_t> const ,void (__cdecl*)(unsigned short *,int,unsigned char const *,int,short *,int)> > >,1>::_Get_first
PUBLIC	?_Get_second@?$_Compressed_pair@U?$_Wrap_alloc@V?$allocator@U?$_Tree_node@U?$pair@$$CBV?$tuple@HHHW4arch_t@@@std@@P6AXPAGHPBEHPAFH@Z@std@@PAX@std@@@std@@@std@@V?$_Tree_val@U?$_Tree_simple_types@U?$pair@$$CBV?$tuple@HHHW4arch_t@@@std@@P6AXPAGHPBEHPAFH@Z@std@@@std@@@2@$00@std@@QAEAAV?$_Tree_val@U?$_Tree_simple_types@U?$pair@$$CBV?$tuple@HHHW4arch_t@@@std@@P6AXPAGHPBEHPAFH@Z@std@@@std@@@2@XZ ; std::_Compressed_pair<std::_Wrap_alloc<std::allocator<std::_Tree_node<std::pair<std::tuple<int,int,int,enum arch_t> const ,void (__cdecl*)(unsigned short *,int,unsigned char const *,int,short *,int)>,void *> > >,std::_Tree_val<std::_Tree_simple_types<std::pair<std::tuple<int,int,int,enum arch_t> const ,void (__cdecl*)(unsigned short *,int,unsigned char const *,int,short *,int)> > >,1>::_Get_second
PUBLIC	?_Get_second@?$_Compressed_pair@U?$less@V?$tuple@HHHW4arch_t@@@std@@@std@@V?$_Compressed_pair@U?$_Wrap_alloc@V?$allocator@U?$_Tree_node@U?$pair@$$CBV?$tuple@HHHW4arch_t@@@std@@P6AXPAGHPBEHPAFH@Z@std@@PAX@std@@@std@@@std@@V?$_Tree_val@U?$_Tree_simple_types@U?$pair@$$CBV?$tuple@HHHW4arch_t@@@std@@P6AXPAGHPBEHPAFH@Z@std@@@std@@@2@$00@2@$00@std@@QAEAAV?$_Compressed_pair@U?$_Wrap_alloc@V?$allocator@U?$_Tree_node@U?$pair@$$CBV?$tuple@HHHW4arch_t@@@std@@P6AXPAGHPBEHPAFH@Z@std@@PAX@std@@@std@@@std@@V?$_Tree_val@U?$_Tree_simple_types@U?$pair@$$CBV?$tuple@HHHW4arch_t@@@std@@P6AXPAGHPBEHPAFH@Z@std@@@std@@@2@$00@2@XZ ; std::_Compressed_pair<std::less<std::tuple<int,int,int,enum arch_t> >,std::_Compressed_pair<std::_Wrap_alloc<std::allocator<std::_Tree_node<std::pair<std::tuple<int,int,int,enum arch_t> const ,void (__cdecl*)(unsigned short *,int,unsigned char const *,int,short *,int)>,void *> > >,std::_Tree_val<std::_Tree_simple_types<std::pair<std::tuple<int,int,int,enum arch_t> const ,void (__cdecl*)(unsigned short *,int,unsigned char const *,int,short *,int)> > >,1>,1>::_Get_second
PUBLIC	?_Erase@?$_Tree@V?$_Tmap_traits@V?$tuple@HHHW4arch_t@@@std@@P6AXPAHHPBE1HPAFH@ZU?$less@V?$tuple@HHHW4arch_t@@@std@@@2@V?$allocator@U?$pair@$$CBV?$tuple@HHHW4arch_t@@@std@@P6AXPAHHPBE1HPAFH@Z@std@@@2@$0A@@std@@@std@@IAEXPAU?$_Tree_node@U?$pair@$$CBV?$tuple@HHHW4arch_t@@@std@@P6AXPAHHPBE1HPAFH@Z@std@@PAX@2@@Z ; std::_Tree<std::_Tmap_traits<std::tuple<int,int,int,enum arch_t>,void (__cdecl*)(int *,int,unsigned char const *,unsigned char const *,int,short *,int),std::less<std::tuple<int,int,int,enum arch_t> >,std::allocator<std::pair<std::tuple<int,int,int,enum arch_t> const ,void (__cdecl*)(int *,int,unsigned char const *,unsigned char const *,int,short *,int)> >,0> >::_Erase
PUBLIC	?_Lrotate@?$_Tree@V?$_Tmap_traits@V?$tuple@HHHW4arch_t@@@std@@P6AXPAHHPBE1HPAFH@ZU?$less@V?$tuple@HHHW4arch_t@@@std@@@2@V?$allocator@U?$pair@$$CBV?$tuple@HHHW4arch_t@@@std@@P6AXPAHHPBE1HPAFH@Z@std@@@2@$0A@@std@@@std@@IAEXPAU?$_Tree_node@U?$pair@$$CBV?$tuple@HHHW4arch_t@@@std@@P6AXPAHHPBE1HPAFH@Z@std@@PAX@2@@Z ; std::_Tree<std::_Tmap_traits<std::tuple<int,int,int,enum arch_t>,void (__cdecl*)(int *,int,unsigned char const *,unsigned char const *,int,short *,int),std::less<std::tuple<int,int,int,enum arch_t> >,std::allocator<std::pair<std::tuple<int,int,int,enum arch_t> const ,void (__cdecl*)(int *,int,unsigned char const *,unsigned char const *,int,short *,int)> >,0> >::_Lrotate
PUBLIC	?_Rmost@?$_Tree@V?$_Tmap_traits@V?$tuple@HHHW4arch_t@@@std@@P6AXPAHHPBE1HPAFH@ZU?$less@V?$tuple@HHHW4arch_t@@@std@@@2@V?$allocator@U?$pair@$$CBV?$tuple@HHHW4arch_t@@@std@@P6AXPAHHPBE1HPAFH@Z@std@@@2@$0A@@std@@@std@@IBEAAPAU?$_Tree_node@U?$pair@$$CBV?$tuple@HHHW4arch_t@@@std@@P6AXPAHHPBE1HPAFH@Z@std@@PAX@2@XZ ; std::_Tree<std::_Tmap_traits<std::tuple<int,int,int,enum arch_t>,void (__cdecl*)(int *,int,unsigned char const *,unsigned char const *,int,short *,int),std::less<std::tuple<int,int,int,enum arch_t> >,std::allocator<std::pair<std::tuple<int,int,int,enum arch_t> const ,void (__cdecl*)(int *,int,unsigned char const *,unsigned char const *,int,short *,int)> >,0> >::_Rmost
PUBLIC	?_Root@?$_Tree@V?$_Tmap_traits@V?$tuple@HHHW4arch_t@@@std@@P6AXPAHHPBE1HPAFH@ZU?$less@V?$tuple@HHHW4arch_t@@@std@@@2@V?$allocator@U?$pair@$$CBV?$tuple@HHHW4arch_t@@@std@@P6AXPAHHPBE1HPAFH@Z@std@@@2@$0A@@std@@@std@@IBEAAPAU?$_Tree_node@U?$pair@$$CBV?$tuple@HHHW4arch_t@@@std@@P6AXPAHHPBE1HPAFH@Z@std@@PAX@2@XZ ; std::_Tree<std::_Tmap_traits<std::tuple<int,int,int,enum arch_t>,void (__cdecl*)(int *,int,unsigned char const *,unsigned char const *,int,short *,int),std::less<std::tuple<int,int,int,enum arch_t> >,std::allocator<std::pair<std::tuple<int,int,int,enum arch_t> const ,void (__cdecl*)(int *,int,unsigned char const *,unsigned char const *,int,short *,int)> >,0> >::_Root
PUBLIC	?_Rrotate@?$_Tree@V?$_Tmap_traits@V?$tuple@HHHW4arch_t@@@std@@P6AXPAHHPBE1HPAFH@ZU?$less@V?$tuple@HHHW4arch_t@@@std@@@2@V?$allocator@U?$pair@$$CBV?$tuple@HHHW4arch_t@@@std@@P6AXPAHHPBE1HPAFH@Z@std@@@2@$0A@@std@@@std@@IAEXPAU?$_Tree_node@U?$pair@$$CBV?$tuple@HHHW4arch_t@@@std@@P6AXPAHHPBE1HPAFH@Z@std@@PAX@2@@Z ; std::_Tree<std::_Tmap_traits<std::tuple<int,int,int,enum arch_t>,void (__cdecl*)(int *,int,unsigned char const *,unsigned char const *,int,short *,int),std::less<std::tuple<int,int,int,enum arch_t> >,std::allocator<std::pair<std::tuple<int,int,int,enum arch_t> const ,void (__cdecl*)(int *,int,unsigned char const *,unsigned char const *,int,short *,int)> >,0> >::_Rrotate
PUBLIC	?_Color@?$_Tree_comp_alloc@V?$_Tmap_traits@V?$tuple@HHHW4arch_t@@@std@@P6AXPAHHPBE1HPAFH@ZU?$less@V?$tuple@HHHW4arch_t@@@std@@@2@V?$allocator@U?$pair@$$CBV?$tuple@HHHW4arch_t@@@std@@P6AXPAHHPBE1HPAFH@Z@std@@@2@$0A@@std@@@std@@SAAADPAU?$_Tree_node@U?$pair@$$CBV?$tuple@HHHW4arch_t@@@std@@P6AXPAHHPBE1HPAFH@Z@std@@PAX@2@@Z ; std::_Tree_comp_alloc<std::_Tmap_traits<std::tuple<int,int,int,enum arch_t>,void (__cdecl*)(int *,int,unsigned char const *,unsigned char const *,int,short *,int),std::less<std::tuple<int,int,int,enum arch_t> >,std::allocator<std::pair<std::tuple<int,int,int,enum arch_t> const ,void (__cdecl*)(int *,int,unsigned char const *,unsigned char const *,int,short *,int)> >,0> >::_Color
PUBLIC	?_Isnil@?$_Tree_comp_alloc@V?$_Tmap_traits@V?$tuple@HHHW4arch_t@@@std@@P6AXPAHHPBE1HPAFH@ZU?$less@V?$tuple@HHHW4arch_t@@@std@@@2@V?$allocator@U?$pair@$$CBV?$tuple@HHHW4arch_t@@@std@@P6AXPAHHPBE1HPAFH@Z@std@@@2@$0A@@std@@@std@@SAAADPAU?$_Tree_node@U?$pair@$$CBV?$tuple@HHHW4arch_t@@@std@@P6AXPAHHPBE1HPAFH@Z@std@@PAX@2@@Z ; std::_Tree_comp_alloc<std::_Tmap_traits<std::tuple<int,int,int,enum arch_t>,void (__cdecl*)(int *,int,unsigned char const *,unsigned char const *,int,short *,int),std::less<std::tuple<int,int,int,enum arch_t> >,std::allocator<std::pair<std::tuple<int,int,int,enum arch_t> const ,void (__cdecl*)(int *,int,unsigned char const *,unsigned char const *,int,short *,int)> >,0> >::_Isnil
PUBLIC	?_Myval@?$_Tree_comp_alloc@V?$_Tmap_traits@V?$tuple@HHHW4arch_t@@@std@@P6AXPAHHPBE1HPAFH@ZU?$less@V?$tuple@HHHW4arch_t@@@std@@@2@V?$allocator@U?$pair@$$CBV?$tuple@HHHW4arch_t@@@std@@P6AXPAHHPBE1HPAFH@Z@std@@@2@$0A@@std@@@std@@SAAAU?$pair@$$CBV?$tuple@HHHW4arch_t@@@std@@P6AXPAHHPBE1HPAFH@Z@2@PAU?$_Tree_node@U?$pair@$$CBV?$tuple@HHHW4arch_t@@@std@@P6AXPAHHPBE1HPAFH@Z@std@@PAX@2@@Z ; std::_Tree_comp_alloc<std::_Tmap_traits<std::tuple<int,int,int,enum arch_t>,void (__cdecl*)(int *,int,unsigned char const *,unsigned char const *,int,short *,int),std::less<std::tuple<int,int,int,enum arch_t> >,std::allocator<std::pair<std::tuple<int,int,int,enum arch_t> const ,void (__cdecl*)(int *,int,unsigned char const *,unsigned char const *,int,short *,int)> >,0> >::_Myval
PUBLIC	?_Max@?$_Tree_comp_alloc@V?$_Tmap_traits@V?$tuple@HHHW4arch_t@@@std@@P6AXPAHHPBE1HPAFH@ZU?$less@V?$tuple@HHHW4arch_t@@@std@@@2@V?$allocator@U?$pair@$$CBV?$tuple@HHHW4arch_t@@@std@@P6AXPAHHPBE1HPAFH@Z@std@@@2@$0A@@std@@@std@@SAPAU?$_Tree_node@U?$pair@$$CBV?$tuple@HHHW4arch_t@@@std@@P6AXPAHHPBE1HPAFH@Z@std@@PAX@2@PAU32@@Z ; std::_Tree_comp_alloc<std::_Tmap_traits<std::tuple<int,int,int,enum arch_t>,void (__cdecl*)(int *,int,unsigned char const *,unsigned char const *,int,short *,int),std::less<std::tuple<int,int,int,enum arch_t> >,std::allocator<std::pair<std::tuple<int,int,int,enum arch_t> const ,void (__cdecl*)(int *,int,unsigned char const *,unsigned char const *,int,short *,int)> >,0> >::_Max
PUBLIC	?_Min@?$_Tree_comp_alloc@V?$_Tmap_traits@V?$tuple@HHHW4arch_t@@@std@@P6AXPAHHPBE1HPAFH@ZU?$less@V?$tuple@HHHW4arch_t@@@std@@@2@V?$allocator@U?$pair@$$CBV?$tuple@HHHW4arch_t@@@std@@P6AXPAHHPBE1HPAFH@Z@std@@@2@$0A@@std@@@std@@SAPAU?$_Tree_node@U?$pair@$$CBV?$tuple@HHHW4arch_t@@@std@@P6AXPAHHPBE1HPAFH@Z@std@@PAX@2@PAU32@@Z ; std::_Tree_comp_alloc<std::_Tmap_traits<std::tuple<int,int,int,enum arch_t>,void (__cdecl*)(int *,int,unsigned char const *,unsigned char const *,int,short *,int),std::less<std::tuple<int,int,int,enum arch_t> >,std::allocator<std::pair<std::tuple<int,int,int,enum arch_t> const ,void (__cdecl*)(int *,int,unsigned char const *,unsigned char const *,int,short *,int)> >,0> >::_Min
PUBLIC	?_Buyheadnode@?$_Tree_comp_alloc@V?$_Tmap_traits@V?$tuple@HHHW4arch_t@@@std@@P6AXPAHHPBE1HPAFH@ZU?$less@V?$tuple@HHHW4arch_t@@@std@@@2@V?$allocator@U?$pair@$$CBV?$tuple@HHHW4arch_t@@@std@@P6AXPAHHPBE1HPAFH@Z@std@@@2@$0A@@std@@@std@@QAEPAU?$_Tree_node@U?$pair@$$CBV?$tuple@HHHW4arch_t@@@std@@P6AXPAHHPBE1HPAFH@Z@std@@PAX@2@XZ ; std::_Tree_comp_alloc<std::_Tmap_traits<std::tuple<int,int,int,enum arch_t>,void (__cdecl*)(int *,int,unsigned char const *,unsigned char const *,int,short *,int),std::less<std::tuple<int,int,int,enum arch_t> >,std::allocator<std::pair<std::tuple<int,int,int,enum arch_t> const ,void (__cdecl*)(int *,int,unsigned char const *,unsigned char const *,int,short *,int)> >,0> >::_Buyheadnode
PUBLIC	?_Myhead@?$_Tree_comp_alloc@V?$_Tmap_traits@V?$tuple@HHHW4arch_t@@@std@@P6AXPAHHPBE1HPAFH@ZU?$less@V?$tuple@HHHW4arch_t@@@std@@@2@V?$allocator@U?$pair@$$CBV?$tuple@HHHW4arch_t@@@std@@P6AXPAHHPBE1HPAFH@Z@std@@@2@$0A@@std@@@std@@QBEABQAU?$_Tree_node@U?$pair@$$CBV?$tuple@HHHW4arch_t@@@std@@P6AXPAHHPBE1HPAFH@Z@std@@PAX@2@XZ ; std::_Tree_comp_alloc<std::_Tmap_traits<std::tuple<int,int,int,enum arch_t>,void (__cdecl*)(int *,int,unsigned char const *,unsigned char const *,int,short *,int),std::less<std::tuple<int,int,int,enum arch_t> >,std::allocator<std::pair<std::tuple<int,int,int,enum arch_t> const ,void (__cdecl*)(int *,int,unsigned char const *,unsigned char const *,int,short *,int)> >,0> >::_Myhead
PUBLIC	?_Mysize@?$_Tree_comp_alloc@V?$_Tmap_traits@V?$tuple@HHHW4arch_t@@@std@@P6AXPAHHPBE1HPAFH@ZU?$less@V?$tuple@HHHW4arch_t@@@std@@@2@V?$allocator@U?$pair@$$CBV?$tuple@HHHW4arch_t@@@std@@P6AXPAHHPBE1HPAFH@Z@std@@@2@$0A@@std@@@std@@QAEAAIXZ ; std::_Tree_comp_alloc<std::_Tmap_traits<std::tuple<int,int,int,enum arch_t>,void (__cdecl*)(int *,int,unsigned char const *,unsigned char const *,int,short *,int),std::less<std::tuple<int,int,int,enum arch_t> >,std::allocator<std::pair<std::tuple<int,int,int,enum arch_t> const ,void (__cdecl*)(int *,int,unsigned char const *,unsigned char const *,int,short *,int)> >,0> >::_Mysize
PUBLIC	?deallocate@?$allocator@U?$_Tree_node@U?$pair@$$CBV?$tuple@HHHW4arch_t@@@std@@P6AXPAHHPBE1HPAFH@Z@std@@PAX@std@@@std@@QAEXPAU?$_Tree_node@U?$pair@$$CBV?$tuple@HHHW4arch_t@@@std@@P6AXPAHHPBE1HPAFH@Z@std@@PAX@2@I@Z ; std::allocator<std::_Tree_node<std::pair<std::tuple<int,int,int,enum arch_t> const ,void (__cdecl*)(int *,int,unsigned char const *,unsigned char const *,int,short *,int)>,void *> >::deallocate
PUBLIC	?_Left@?$_Tree_val@U?$_Tree_simple_types@U?$pair@$$CBV?$tuple@HHHW4arch_t@@@std@@P6AXPAHHPBE1HPAFH@Z@std@@@std@@@std@@SAAAPAU?$_Tree_node@U?$pair@$$CBV?$tuple@HHHW4arch_t@@@std@@P6AXPAHHPBE1HPAFH@Z@std@@PAX@2@PAU32@@Z ; std::_Tree_val<std::_Tree_simple_types<std::pair<std::tuple<int,int,int,enum arch_t> const ,void (__cdecl*)(int *,int,unsigned char const *,unsigned char const *,int,short *,int)> > >::_Left
PUBLIC	?_Parent@?$_Tree_val@U?$_Tree_simple_types@U?$pair@$$CBV?$tuple@HHHW4arch_t@@@std@@P6AXPAHHPBE1HPAFH@Z@std@@@std@@@std@@SAAAPAU?$_Tree_node@U?$pair@$$CBV?$tuple@HHHW4arch_t@@@std@@P6AXPAHHPBE1HPAFH@Z@std@@PAX@2@PAU32@@Z ; std::_Tree_val<std::_Tree_simple_types<std::pair<std::tuple<int,int,int,enum arch_t> const ,void (__cdecl*)(int *,int,unsigned char const *,unsigned char const *,int,short *,int)> > >::_Parent
PUBLIC	?_Right@?$_Tree_val@U?$_Tree_simple_types@U?$pair@$$CBV?$tuple@HHHW4arch_t@@@std@@P6AXPAHHPBE1HPAFH@Z@std@@@std@@@std@@SAAAPAU?$_Tree_node@U?$pair@$$CBV?$tuple@HHHW4arch_t@@@std@@P6AXPAHHPBE1HPAFH@Z@std@@PAX@2@PAU32@@Z ; std::_Tree_val<std::_Tree_simple_types<std::pair<std::tuple<int,int,int,enum arch_t> const ,void (__cdecl*)(int *,int,unsigned char const *,unsigned char const *,int,short *,int)> > >::_Right
PUBLIC	?_Myval@?$_Tree_val@U?$_Tree_simple_types@U?$pair@$$CBV?$tuple@HHHW4arch_t@@@std@@P6AXPAHHPBE1HPAFH@Z@std@@@std@@@std@@SAAAU?$pair@$$CBV?$tuple@HHHW4arch_t@@@std@@P6AXPAHHPBE1HPAFH@Z@2@PAU?$_Tree_node@U?$pair@$$CBV?$tuple@HHHW4arch_t@@@std@@P6AXPAHHPBE1HPAFH@Z@std@@PAX@2@@Z ; std::_Tree_val<std::_Tree_simple_types<std::pair<std::tuple<int,int,int,enum arch_t> const ,void (__cdecl*)(int *,int,unsigned char const *,unsigned char const *,int,short *,int)> > >::_Myval
PUBLIC	??0?$_Tree_const_iterator@V?$_Tree_val@U?$_Tree_simple_types@U?$pair@$$CBV?$tuple@HHHW4arch_t@@@std@@P6AXPAHHPBE1HPAFH@Z@std@@@std@@@std@@@std@@QAE@PAU?$_Tree_node@U?$pair@$$CBV?$tuple@HHHW4arch_t@@@std@@P6AXPAHHPBE1HPAFH@Z@std@@PAX@1@PBV?$_Tree_val@U?$_Tree_simple_types@U?$pair@$$CBV?$tuple@HHHW4arch_t@@@std@@P6AXPAHHPBE1HPAFH@Z@std@@@std@@@1@@Z ; std::_Tree_const_iterator<std::_Tree_val<std::_Tree_simple_types<std::pair<std::tuple<int,int,int,enum arch_t> const ,void (__cdecl*)(int *,int,unsigned char const *,unsigned char const *,int,short *,int)> > > >::_Tree_const_iterator<std::_Tree_val<std::_Tree_simple_types<std::pair<std::tuple<int,int,int,enum arch_t> const ,void (__cdecl*)(int *,int,unsigned char const *,unsigned char const *,int,short *,int)> > > >
PUBLIC	??E?$_Tree_const_iterator@V?$_Tree_val@U?$_Tree_simple_types@U?$pair@$$CBV?$tuple@HHHW4arch_t@@@std@@P6AXPAHHPBE1HPAFH@Z@std@@@std@@@std@@@std@@QAEAAV01@XZ ; std::_Tree_const_iterator<std::_Tree_val<std::_Tree_simple_types<std::pair<std::tuple<int,int,int,enum arch_t> const ,void (__cdecl*)(int *,int,unsigned char const *,unsigned char const *,int,short *,int)> > > >::operator++
PUBLIC	?_Get_first@?$_Compressed_pair@U?$_Wrap_alloc@V?$allocator@U?$_Tree_node@U?$pair@$$CBV?$tuple@HHHW4arch_t@@@std@@P6AXPAHHPBE1HPAFH@Z@std@@PAX@std@@@std@@@std@@V?$_Tree_val@U?$_Tree_simple_types@U?$pair@$$CBV?$tuple@HHHW4arch_t@@@std@@P6AXPAHHPBE1HPAFH@Z@std@@@std@@@2@$00@std@@QAEAAU?$_Wrap_alloc@V?$allocator@U?$_Tree_node@U?$pair@$$CBV?$tuple@HHHW4arch_t@@@std@@P6AXPAHHPBE1HPAFH@Z@std@@PAX@std@@@std@@@2@XZ ; std::_Compressed_pair<std::_Wrap_alloc<std::allocator<std::_Tree_node<std::pair<std::tuple<int,int,int,enum arch_t> const ,void (__cdecl*)(int *,int,unsigned char const *,unsigned char const *,int,short *,int)>,void *> > >,std::_Tree_val<std::_Tree_simple_types<std::pair<std::tuple<int,int,int,enum arch_t> const ,void (__cdecl*)(int *,int,unsigned char const *,unsigned char const *,int,short *,int)> > >,1>::_Get_first
PUBLIC	?_Get_second@?$_Compressed_pair@U?$_Wrap_alloc@V?$allocator@U?$_Tree_node@U?$pair@$$CBV?$tuple@HHHW4arch_t@@@std@@P6AXPAHHPBE1HPAFH@Z@std@@PAX@std@@@std@@@std@@V?$_Tree_val@U?$_Tree_simple_types@U?$pair@$$CBV?$tuple@HHHW4arch_t@@@std@@P6AXPAHHPBE1HPAFH@Z@std@@@std@@@2@$00@std@@QAEAAV?$_Tree_val@U?$_Tree_simple_types@U?$pair@$$CBV?$tuple@HHHW4arch_t@@@std@@P6AXPAHHPBE1HPAFH@Z@std@@@std@@@2@XZ ; std::_Compressed_pair<std::_Wrap_alloc<std::allocator<std::_Tree_node<std::pair<std::tuple<int,int,int,enum arch_t> const ,void (__cdecl*)(int *,int,unsigned char const *,unsigned char const *,int,short *,int)>,void *> > >,std::_Tree_val<std::_Tree_simple_types<std::pair<std::tuple<int,int,int,enum arch_t> const ,void (__cdecl*)(int *,int,unsigned char const *,unsigned char const *,int,short *,int)> > >,1>::_Get_second
PUBLIC	?_Get_second@?$_Compressed_pair@U?$less@V?$tuple@HHHW4arch_t@@@std@@@std@@V?$_Compressed_pair@U?$_Wrap_alloc@V?$allocator@U?$_Tree_node@U?$pair@$$CBV?$tuple@HHHW4arch_t@@@std@@P6AXPAHHPBE1HPAFH@Z@std@@PAX@std@@@std@@@std@@V?$_Tree_val@U?$_Tree_simple_types@U?$pair@$$CBV?$tuple@HHHW4arch_t@@@std@@P6AXPAHHPBE1HPAFH@Z@std@@@std@@@2@$00@2@$00@std@@QAEAAV?$_Compressed_pair@U?$_Wrap_alloc@V?$allocator@U?$_Tree_node@U?$pair@$$CBV?$tuple@HHHW4arch_t@@@std@@P6AXPAHHPBE1HPAFH@Z@std@@PAX@std@@@std@@@std@@V?$_Tree_val@U?$_Tree_simple_types@U?$pair@$$CBV?$tuple@HHHW4arch_t@@@std@@P6AXPAHHPBE1HPAFH@Z@std@@@std@@@2@$00@2@XZ ; std::_Compressed_pair<std::less<std::tuple<int,int,int,enum arch_t> >,std::_Compressed_pair<std::_Wrap_alloc<std::allocator<std::_Tree_node<std::pair<std::tuple<int,int,int,enum arch_t> const ,void (__cdecl*)(int *,int,unsigned char const *,unsigned char const *,int,short *,int)>,void *> > >,std::_Tree_val<std::_Tree_simple_types<std::pair<std::tuple<int,int,int,enum arch_t> const ,void (__cdecl*)(int *,int,unsigned char const *,unsigned char const *,int,short *,int)> > >,1>,1>::_Get_second
PUBLIC	?_Mynode@?$_Tree_unchecked_const_iterator@V?$_Tree_val@U?$_Tree_simple_types@U?$pair@$$CBV?$tuple@HHHW4arch_t@@@std@@P6AXPAHHPBE1HPAFH@Z@std@@@std@@@std@@U_Iterator_base0@2@@std@@QBEPAU?$_Tree_node@U?$pair@$$CBV?$tuple@HHHW4arch_t@@@std@@P6AXPAHHPBE1HPAFH@Z@std@@PAX@2@XZ ; std::_Tree_unchecked_const_iterator<std::_Tree_val<std::_Tree_simple_types<std::pair<std::tuple<int,int,int,enum arch_t> const ,void (__cdecl*)(int *,int,unsigned char const *,unsigned char const *,int,short *,int)> > >,std::_Iterator_base0>::_Mynode
PUBLIC	?_Mynode@?$_Tree_unchecked_const_iterator@V?$_Tree_val@U?$_Tree_simple_types@U?$pair@$$CBV?$tuple@HHHW4arch_t@@@std@@P6AXPAGHPBEHPAFH@Z@std@@@std@@@std@@U_Iterator_base0@2@@std@@QBEPAU?$_Tree_node@U?$pair@$$CBV?$tuple@HHHW4arch_t@@@std@@P6AXPAGHPBEHPAFH@Z@std@@PAX@2@XZ ; std::_Tree_unchecked_const_iterator<std::_Tree_val<std::_Tree_simple_types<std::pair<std::tuple<int,int,int,enum arch_t> const ,void (__cdecl*)(unsigned short *,int,unsigned char const *,int,short *,int)> > >,std::_Iterator_base0>::_Mynode
PUBLIC	?erase@?$_Tree@V?$_Tmap_traits@V?$tuple@HHHW4arch_t@@@std@@P6AXPAGHPBEHPAFH@ZU?$less@V?$tuple@HHHW4arch_t@@@std@@@2@V?$allocator@U?$pair@$$CBV?$tuple@HHHW4arch_t@@@std@@P6AXPAGHPBEHPAFH@Z@std@@@2@$0A@@std@@@std@@QAE?AV?$_Tree_iterator@V?$_Tree_val@U?$_Tree_simple_types@U?$pair@$$CBV?$tuple@HHHW4arch_t@@@std@@P6AXPAGHPBEHPAFH@Z@std@@@std@@@std@@@2@V?$_Tree_const_iterator@V?$_Tree_val@U?$_Tree_simple_types@U?$pair@$$CBV?$tuple@HHHW4arch_t@@@std@@P6AXPAGHPBEHPAFH@Z@std@@@std@@@std@@@2@@Z ; std::_Tree<std::_Tmap_traits<std::tuple<int,int,int,enum arch_t>,void (__cdecl*)(unsigned short *,int,unsigned char const *,int,short *,int),std::less<std::tuple<int,int,int,enum arch_t> >,std::allocator<std::pair<std::tuple<int,int,int,enum arch_t> const ,void (__cdecl*)(unsigned short *,int,unsigned char const *,int,short *,int)> >,0> >::erase
PUBLIC	?clear@?$_Tree@V?$_Tmap_traits@V?$tuple@HHHW4arch_t@@@std@@P6AXPAGHPBEHPAFH@ZU?$less@V?$tuple@HHHW4arch_t@@@std@@@2@V?$allocator@U?$pair@$$CBV?$tuple@HHHW4arch_t@@@std@@P6AXPAGHPBEHPAFH@Z@std@@@2@$0A@@std@@@std@@QAEXXZ ; std::_Tree<std::_Tmap_traits<std::tuple<int,int,int,enum arch_t>,void (__cdecl*)(unsigned short *,int,unsigned char const *,int,short *,int),std::less<std::tuple<int,int,int,enum arch_t> >,std::allocator<std::pair<std::tuple<int,int,int,enum arch_t> const ,void (__cdecl*)(unsigned short *,int,unsigned char const *,int,short *,int)> >,0> >::clear
PUBLIC	?_Lmost@?$_Tree@V?$_Tmap_traits@V?$tuple@HHHW4arch_t@@@std@@P6AXPAGHPBEHPAFH@ZU?$less@V?$tuple@HHHW4arch_t@@@std@@@2@V?$allocator@U?$pair@$$CBV?$tuple@HHHW4arch_t@@@std@@P6AXPAGHPBEHPAFH@Z@std@@@2@$0A@@std@@@std@@IBEAAPAU?$_Tree_node@U?$pair@$$CBV?$tuple@HHHW4arch_t@@@std@@P6AXPAGHPBEHPAFH@Z@std@@PAX@2@XZ ; std::_Tree<std::_Tmap_traits<std::tuple<int,int,int,enum arch_t>,void (__cdecl*)(unsigned short *,int,unsigned char const *,int,short *,int),std::less<std::tuple<int,int,int,enum arch_t> >,std::allocator<std::pair<std::tuple<int,int,int,enum arch_t> const ,void (__cdecl*)(unsigned short *,int,unsigned char const *,int,short *,int)> >,0> >::_Lmost
PUBLIC	?_Left@?$_Tree_comp_alloc@V?$_Tmap_traits@V?$tuple@HHHW4arch_t@@@std@@P6AXPAGHPBEHPAFH@ZU?$less@V?$tuple@HHHW4arch_t@@@std@@@2@V?$allocator@U?$pair@$$CBV?$tuple@HHHW4arch_t@@@std@@P6AXPAGHPBEHPAFH@Z@std@@@2@$0A@@std@@@std@@SAAAPAU?$_Tree_node@U?$pair@$$CBV?$tuple@HHHW4arch_t@@@std@@P6AXPAGHPBEHPAFH@Z@std@@PAX@2@PAU32@@Z ; std::_Tree_comp_alloc<std::_Tmap_traits<std::tuple<int,int,int,enum arch_t>,void (__cdecl*)(unsigned short *,int,unsigned char const *,int,short *,int),std::less<std::tuple<int,int,int,enum arch_t> >,std::allocator<std::pair<std::tuple<int,int,int,enum arch_t> const ,void (__cdecl*)(unsigned short *,int,unsigned char const *,int,short *,int)> >,0> >::_Left
PUBLIC	?_Parent@?$_Tree_comp_alloc@V?$_Tmap_traits@V?$tuple@HHHW4arch_t@@@std@@P6AXPAGHPBEHPAFH@ZU?$less@V?$tuple@HHHW4arch_t@@@std@@@2@V?$allocator@U?$pair@$$CBV?$tuple@HHHW4arch_t@@@std@@P6AXPAGHPBEHPAFH@Z@std@@@2@$0A@@std@@@std@@SAAAPAU?$_Tree_node@U?$pair@$$CBV?$tuple@HHHW4arch_t@@@std@@P6AXPAGHPBEHPAFH@Z@std@@PAX@2@PAU32@@Z ; std::_Tree_comp_alloc<std::_Tmap_traits<std::tuple<int,int,int,enum arch_t>,void (__cdecl*)(unsigned short *,int,unsigned char const *,int,short *,int),std::less<std::tuple<int,int,int,enum arch_t> >,std::allocator<std::pair<std::tuple<int,int,int,enum arch_t> const ,void (__cdecl*)(unsigned short *,int,unsigned char const *,int,short *,int)> >,0> >::_Parent
PUBLIC	?_Right@?$_Tree_comp_alloc@V?$_Tmap_traits@V?$tuple@HHHW4arch_t@@@std@@P6AXPAGHPBEHPAFH@ZU?$less@V?$tuple@HHHW4arch_t@@@std@@@2@V?$allocator@U?$pair@$$CBV?$tuple@HHHW4arch_t@@@std@@P6AXPAGHPBEHPAFH@Z@std@@@2@$0A@@std@@@std@@SAAAPAU?$_Tree_node@U?$pair@$$CBV?$tuple@HHHW4arch_t@@@std@@P6AXPAGHPBEHPAFH@Z@std@@PAX@2@PAU32@@Z ; std::_Tree_comp_alloc<std::_Tmap_traits<std::tuple<int,int,int,enum arch_t>,void (__cdecl*)(unsigned short *,int,unsigned char const *,int,short *,int),std::less<std::tuple<int,int,int,enum arch_t> >,std::allocator<std::pair<std::tuple<int,int,int,enum arch_t> const ,void (__cdecl*)(unsigned short *,int,unsigned char const *,int,short *,int)> >,0> >::_Right
PUBLIC	?_Construct@?$_Tree_comp_alloc@V?$_Tmap_traits@V?$tuple@HHHW4arch_t@@@std@@P6AXPAGHPBEHPAFH@ZU?$less@V?$tuple@HHHW4arch_t@@@std@@@2@V?$allocator@U?$pair@$$CBV?$tuple@HHHW4arch_t@@@std@@P6AXPAGHPBEHPAFH@Z@std@@@2@$0A@@std@@@std@@QAEXXZ ; std::_Tree_comp_alloc<std::_Tmap_traits<std::tuple<int,int,int,enum arch_t>,void (__cdecl*)(unsigned short *,int,unsigned char const *,int,short *,int),std::less<std::tuple<int,int,int,enum arch_t> >,std::allocator<std::pair<std::tuple<int,int,int,enum arch_t> const ,void (__cdecl*)(unsigned short *,int,unsigned char const *,int,short *,int)> >,0> >::_Construct
PUBLIC	?_Getal@?$_Tree_comp_alloc@V?$_Tmap_traits@V?$tuple@HHHW4arch_t@@@std@@P6AXPAGHPBEHPAFH@ZU?$less@V?$tuple@HHHW4arch_t@@@std@@@2@V?$allocator@U?$pair@$$CBV?$tuple@HHHW4arch_t@@@std@@P6AXPAGHPBEHPAFH@Z@std@@@2@$0A@@std@@@std@@QAEAAU?$_Wrap_alloc@V?$allocator@U?$_Tree_node@U?$pair@$$CBV?$tuple@HHHW4arch_t@@@std@@P6AXPAGHPBEHPAFH@Z@std@@PAX@std@@@std@@@2@XZ ; std::_Tree_comp_alloc<std::_Tmap_traits<std::tuple<int,int,int,enum arch_t>,void (__cdecl*)(unsigned short *,int,unsigned char const *,int,short *,int),std::less<std::tuple<int,int,int,enum arch_t> >,std::allocator<std::pair<std::tuple<int,int,int,enum arch_t> const ,void (__cdecl*)(unsigned short *,int,unsigned char const *,int,short *,int)> >,0> >::_Getal
PUBLIC	?_Get_data@?$_Tree_comp_alloc@V?$_Tmap_traits@V?$tuple@HHHW4arch_t@@@std@@P6AXPAGHPBEHPAFH@ZU?$less@V?$tuple@HHHW4arch_t@@@std@@@2@V?$allocator@U?$pair@$$CBV?$tuple@HHHW4arch_t@@@std@@P6AXPAGHPBEHPAFH@Z@std@@@2@$0A@@std@@@std@@QAEAAV?$_Tree_val@U?$_Tree_simple_types@U?$pair@$$CBV?$tuple@HHHW4arch_t@@@std@@P6AXPAGHPBEHPAFH@Z@std@@@std@@@2@XZ ; std::_Tree_comp_alloc<std::_Tmap_traits<std::tuple<int,int,int,enum arch_t>,void (__cdecl*)(unsigned short *,int,unsigned char const *,int,short *,int),std::less<std::tuple<int,int,int,enum arch_t> >,std::allocator<std::pair<std::tuple<int,int,int,enum arch_t> const ,void (__cdecl*)(unsigned short *,int,unsigned char const *,int,short *,int)> >,0> >::_Get_data
PUBLIC	?deallocate@?$_Wrap_alloc@V?$allocator@U?$_Tree_node@U?$pair@$$CBV?$tuple@HHHW4arch_t@@@std@@P6AXPAGHPBEHPAFH@Z@std@@PAX@std@@@std@@@std@@QAEXPAU?$_Tree_node@U?$pair@$$CBV?$tuple@HHHW4arch_t@@@std@@P6AXPAGHPBEHPAFH@Z@std@@PAX@2@I@Z ; std::_Wrap_alloc<std::allocator<std::_Tree_node<std::pair<std::tuple<int,int,int,enum arch_t> const ,void (__cdecl*)(unsigned short *,int,unsigned char const *,int,short *,int)>,void *> > >::deallocate
PUBLIC	??D?$_Tree_const_iterator@V?$_Tree_val@U?$_Tree_simple_types@U?$pair@$$CBV?$tuple@HHHW4arch_t@@@std@@P6AXPAGHPBEHPAFH@Z@std@@@std@@@std@@@std@@QBEABU?$pair@$$CBV?$tuple@HHHW4arch_t@@@std@@P6AXPAGHPBEHPAFH@Z@1@XZ ; std::_Tree_const_iterator<std::_Tree_val<std::_Tree_simple_types<std::pair<std::tuple<int,int,int,enum arch_t> const ,void (__cdecl*)(unsigned short *,int,unsigned char const *,int,short *,int)> > > >::operator*
PUBLIC	??E?$_Tree_const_iterator@V?$_Tree_val@U?$_Tree_simple_types@U?$pair@$$CBV?$tuple@HHHW4arch_t@@@std@@P6AXPAGHPBEHPAFH@Z@std@@@std@@@std@@@std@@QAE?AV01@H@Z ; std::_Tree_const_iterator<std::_Tree_val<std::_Tree_simple_types<std::pair<std::tuple<int,int,int,enum arch_t> const ,void (__cdecl*)(unsigned short *,int,unsigned char const *,int,short *,int)> > > >::operator++
PUBLIC	??8?$_Tree_const_iterator@V?$_Tree_val@U?$_Tree_simple_types@U?$pair@$$CBV?$tuple@HHHW4arch_t@@@std@@P6AXPAGHPBEHPAFH@Z@std@@@std@@@std@@@std@@QBE_NABV01@@Z ; std::_Tree_const_iterator<std::_Tree_val<std::_Tree_simple_types<std::pair<std::tuple<int,int,int,enum arch_t> const ,void (__cdecl*)(unsigned short *,int,unsigned char const *,int,short *,int)> > > >::operator==
PUBLIC	??9?$_Tree_const_iterator@V?$_Tree_val@U?$_Tree_simple_types@U?$pair@$$CBV?$tuple@HHHW4arch_t@@@std@@P6AXPAGHPBEHPAFH@Z@std@@@std@@@std@@@std@@QBE_NABV01@@Z ; std::_Tree_const_iterator<std::_Tree_val<std::_Tree_simple_types<std::pair<std::tuple<int,int,int,enum arch_t> const ,void (__cdecl*)(unsigned short *,int,unsigned char const *,int,short *,int)> > > >::operator!=
PUBLIC	??0?$_Tree_iterator@V?$_Tree_val@U?$_Tree_simple_types@U?$pair@$$CBV?$tuple@HHHW4arch_t@@@std@@P6AXPAGHPBEHPAFH@Z@std@@@std@@@std@@@std@@QAE@PAU?$_Tree_node@U?$pair@$$CBV?$tuple@HHHW4arch_t@@@std@@P6AXPAGHPBEHPAFH@Z@std@@PAX@1@PBV?$_Tree_val@U?$_Tree_simple_types@U?$pair@$$CBV?$tuple@HHHW4arch_t@@@std@@P6AXPAGHPBEHPAFH@Z@std@@@std@@@1@@Z ; std::_Tree_iterator<std::_Tree_val<std::_Tree_simple_types<std::pair<std::tuple<int,int,int,enum arch_t> const ,void (__cdecl*)(unsigned short *,int,unsigned char const *,int,short *,int)> > > >::_Tree_iterator<std::_Tree_val<std::_Tree_simple_types<std::pair<std::tuple<int,int,int,enum arch_t> const ,void (__cdecl*)(unsigned short *,int,unsigned char const *,int,short *,int)> > > >
PUBLIC	?erase@?$_Tree@V?$_Tmap_traits@V?$tuple@HHHW4arch_t@@@std@@P6AXPAHHPBE1HPAFH@ZU?$less@V?$tuple@HHHW4arch_t@@@std@@@2@V?$allocator@U?$pair@$$CBV?$tuple@HHHW4arch_t@@@std@@P6AXPAHHPBE1HPAFH@Z@std@@@2@$0A@@std@@@std@@QAE?AV?$_Tree_iterator@V?$_Tree_val@U?$_Tree_simple_types@U?$pair@$$CBV?$tuple@HHHW4arch_t@@@std@@P6AXPAHHPBE1HPAFH@Z@std@@@std@@@std@@@2@V?$_Tree_const_iterator@V?$_Tree_val@U?$_Tree_simple_types@U?$pair@$$CBV?$tuple@HHHW4arch_t@@@std@@P6AXPAHHPBE1HPAFH@Z@std@@@std@@@std@@@2@@Z ; std::_Tree<std::_Tmap_traits<std::tuple<int,int,int,enum arch_t>,void (__cdecl*)(int *,int,unsigned char const *,unsigned char const *,int,short *,int),std::less<std::tuple<int,int,int,enum arch_t> >,std::allocator<std::pair<std::tuple<int,int,int,enum arch_t> const ,void (__cdecl*)(int *,int,unsigned char const *,unsigned char const *,int,short *,int)> >,0> >::erase
PUBLIC	?clear@?$_Tree@V?$_Tmap_traits@V?$tuple@HHHW4arch_t@@@std@@P6AXPAHHPBE1HPAFH@ZU?$less@V?$tuple@HHHW4arch_t@@@std@@@2@V?$allocator@U?$pair@$$CBV?$tuple@HHHW4arch_t@@@std@@P6AXPAHHPBE1HPAFH@Z@std@@@2@$0A@@std@@@std@@QAEXXZ ; std::_Tree<std::_Tmap_traits<std::tuple<int,int,int,enum arch_t>,void (__cdecl*)(int *,int,unsigned char const *,unsigned char const *,int,short *,int),std::less<std::tuple<int,int,int,enum arch_t> >,std::allocator<std::pair<std::tuple<int,int,int,enum arch_t> const ,void (__cdecl*)(int *,int,unsigned char const *,unsigned char const *,int,short *,int)> >,0> >::clear
PUBLIC	?_Lmost@?$_Tree@V?$_Tmap_traits@V?$tuple@HHHW4arch_t@@@std@@P6AXPAHHPBE1HPAFH@ZU?$less@V?$tuple@HHHW4arch_t@@@std@@@2@V?$allocator@U?$pair@$$CBV?$tuple@HHHW4arch_t@@@std@@P6AXPAHHPBE1HPAFH@Z@std@@@2@$0A@@std@@@std@@IBEAAPAU?$_Tree_node@U?$pair@$$CBV?$tuple@HHHW4arch_t@@@std@@P6AXPAHHPBE1HPAFH@Z@std@@PAX@2@XZ ; std::_Tree<std::_Tmap_traits<std::tuple<int,int,int,enum arch_t>,void (__cdecl*)(int *,int,unsigned char const *,unsigned char const *,int,short *,int),std::less<std::tuple<int,int,int,enum arch_t> >,std::allocator<std::pair<std::tuple<int,int,int,enum arch_t> const ,void (__cdecl*)(int *,int,unsigned char const *,unsigned char const *,int,short *,int)> >,0> >::_Lmost
PUBLIC	?_Left@?$_Tree_comp_alloc@V?$_Tmap_traits@V?$tuple@HHHW4arch_t@@@std@@P6AXPAHHPBE1HPAFH@ZU?$less@V?$tuple@HHHW4arch_t@@@std@@@2@V?$allocator@U?$pair@$$CBV?$tuple@HHHW4arch_t@@@std@@P6AXPAHHPBE1HPAFH@Z@std@@@2@$0A@@std@@@std@@SAAAPAU?$_Tree_node@U?$pair@$$CBV?$tuple@HHHW4arch_t@@@std@@P6AXPAHHPBE1HPAFH@Z@std@@PAX@2@PAU32@@Z ; std::_Tree_comp_alloc<std::_Tmap_traits<std::tuple<int,int,int,enum arch_t>,void (__cdecl*)(int *,int,unsigned char const *,unsigned char const *,int,short *,int),std::less<std::tuple<int,int,int,enum arch_t> >,std::allocator<std::pair<std::tuple<int,int,int,enum arch_t> const ,void (__cdecl*)(int *,int,unsigned char const *,unsigned char const *,int,short *,int)> >,0> >::_Left
PUBLIC	?_Parent@?$_Tree_comp_alloc@V?$_Tmap_traits@V?$tuple@HHHW4arch_t@@@std@@P6AXPAHHPBE1HPAFH@ZU?$less@V?$tuple@HHHW4arch_t@@@std@@@2@V?$allocator@U?$pair@$$CBV?$tuple@HHHW4arch_t@@@std@@P6AXPAHHPBE1HPAFH@Z@std@@@2@$0A@@std@@@std@@SAAAPAU?$_Tree_node@U?$pair@$$CBV?$tuple@HHHW4arch_t@@@std@@P6AXPAHHPBE1HPAFH@Z@std@@PAX@2@PAU32@@Z ; std::_Tree_comp_alloc<std::_Tmap_traits<std::tuple<int,int,int,enum arch_t>,void (__cdecl*)(int *,int,unsigned char const *,unsigned char const *,int,short *,int),std::less<std::tuple<int,int,int,enum arch_t> >,std::allocator<std::pair<std::tuple<int,int,int,enum arch_t> const ,void (__cdecl*)(int *,int,unsigned char const *,unsigned char const *,int,short *,int)> >,0> >::_Parent
PUBLIC	?_Right@?$_Tree_comp_alloc@V?$_Tmap_traits@V?$tuple@HHHW4arch_t@@@std@@P6AXPAHHPBE1HPAFH@ZU?$less@V?$tuple@HHHW4arch_t@@@std@@@2@V?$allocator@U?$pair@$$CBV?$tuple@HHHW4arch_t@@@std@@P6AXPAHHPBE1HPAFH@Z@std@@@2@$0A@@std@@@std@@SAAAPAU?$_Tree_node@U?$pair@$$CBV?$tuple@HHHW4arch_t@@@std@@P6AXPAHHPBE1HPAFH@Z@std@@PAX@2@PAU32@@Z ; std::_Tree_comp_alloc<std::_Tmap_traits<std::tuple<int,int,int,enum arch_t>,void (__cdecl*)(int *,int,unsigned char const *,unsigned char const *,int,short *,int),std::less<std::tuple<int,int,int,enum arch_t> >,std::allocator<std::pair<std::tuple<int,int,int,enum arch_t> const ,void (__cdecl*)(int *,int,unsigned char const *,unsigned char const *,int,short *,int)> >,0> >::_Right
PUBLIC	?_Construct@?$_Tree_comp_alloc@V?$_Tmap_traits@V?$tuple@HHHW4arch_t@@@std@@P6AXPAHHPBE1HPAFH@ZU?$less@V?$tuple@HHHW4arch_t@@@std@@@2@V?$allocator@U?$pair@$$CBV?$tuple@HHHW4arch_t@@@std@@P6AXPAHHPBE1HPAFH@Z@std@@@2@$0A@@std@@@std@@QAEXXZ ; std::_Tree_comp_alloc<std::_Tmap_traits<std::tuple<int,int,int,enum arch_t>,void (__cdecl*)(int *,int,unsigned char const *,unsigned char const *,int,short *,int),std::less<std::tuple<int,int,int,enum arch_t> >,std::allocator<std::pair<std::tuple<int,int,int,enum arch_t> const ,void (__cdecl*)(int *,int,unsigned char const *,unsigned char const *,int,short *,int)> >,0> >::_Construct
PUBLIC	?_Getal@?$_Tree_comp_alloc@V?$_Tmap_traits@V?$tuple@HHHW4arch_t@@@std@@P6AXPAHHPBE1HPAFH@ZU?$less@V?$tuple@HHHW4arch_t@@@std@@@2@V?$allocator@U?$pair@$$CBV?$tuple@HHHW4arch_t@@@std@@P6AXPAHHPBE1HPAFH@Z@std@@@2@$0A@@std@@@std@@QAEAAU?$_Wrap_alloc@V?$allocator@U?$_Tree_node@U?$pair@$$CBV?$tuple@HHHW4arch_t@@@std@@P6AXPAHHPBE1HPAFH@Z@std@@PAX@std@@@std@@@2@XZ ; std::_Tree_comp_alloc<std::_Tmap_traits<std::tuple<int,int,int,enum arch_t>,void (__cdecl*)(int *,int,unsigned char const *,unsigned char const *,int,short *,int),std::less<std::tuple<int,int,int,enum arch_t> >,std::allocator<std::pair<std::tuple<int,int,int,enum arch_t> const ,void (__cdecl*)(int *,int,unsigned char const *,unsigned char const *,int,short *,int)> >,0> >::_Getal
PUBLIC	?_Get_data@?$_Tree_comp_alloc@V?$_Tmap_traits@V?$tuple@HHHW4arch_t@@@std@@P6AXPAHHPBE1HPAFH@ZU?$less@V?$tuple@HHHW4arch_t@@@std@@@2@V?$allocator@U?$pair@$$CBV?$tuple@HHHW4arch_t@@@std@@P6AXPAHHPBE1HPAFH@Z@std@@@2@$0A@@std@@@std@@QAEAAV?$_Tree_val@U?$_Tree_simple_types@U?$pair@$$CBV?$tuple@HHHW4arch_t@@@std@@P6AXPAHHPBE1HPAFH@Z@std@@@std@@@2@XZ ; std::_Tree_comp_alloc<std::_Tmap_traits<std::tuple<int,int,int,enum arch_t>,void (__cdecl*)(int *,int,unsigned char const *,unsigned char const *,int,short *,int),std::less<std::tuple<int,int,int,enum arch_t> >,std::allocator<std::pair<std::tuple<int,int,int,enum arch_t> const ,void (__cdecl*)(int *,int,unsigned char const *,unsigned char const *,int,short *,int)> >,0> >::_Get_data
PUBLIC	?deallocate@?$_Wrap_alloc@V?$allocator@U?$_Tree_node@U?$pair@$$CBV?$tuple@HHHW4arch_t@@@std@@P6AXPAHHPBE1HPAFH@Z@std@@PAX@std@@@std@@@std@@QAEXPAU?$_Tree_node@U?$pair@$$CBV?$tuple@HHHW4arch_t@@@std@@P6AXPAHHPBE1HPAFH@Z@std@@PAX@2@I@Z ; std::_Wrap_alloc<std::allocator<std::_Tree_node<std::pair<std::tuple<int,int,int,enum arch_t> const ,void (__cdecl*)(int *,int,unsigned char const *,unsigned char const *,int,short *,int)>,void *> > >::deallocate
PUBLIC	??D?$_Tree_const_iterator@V?$_Tree_val@U?$_Tree_simple_types@U?$pair@$$CBV?$tuple@HHHW4arch_t@@@std@@P6AXPAHHPBE1HPAFH@Z@std@@@std@@@std@@@std@@QBEABU?$pair@$$CBV?$tuple@HHHW4arch_t@@@std@@P6AXPAHHPBE1HPAFH@Z@1@XZ ; std::_Tree_const_iterator<std::_Tree_val<std::_Tree_simple_types<std::pair<std::tuple<int,int,int,enum arch_t> const ,void (__cdecl*)(int *,int,unsigned char const *,unsigned char const *,int,short *,int)> > > >::operator*
PUBLIC	??E?$_Tree_const_iterator@V?$_Tree_val@U?$_Tree_simple_types@U?$pair@$$CBV?$tuple@HHHW4arch_t@@@std@@P6AXPAHHPBE1HPAFH@Z@std@@@std@@@std@@@std@@QAE?AV01@H@Z ; std::_Tree_const_iterator<std::_Tree_val<std::_Tree_simple_types<std::pair<std::tuple<int,int,int,enum arch_t> const ,void (__cdecl*)(int *,int,unsigned char const *,unsigned char const *,int,short *,int)> > > >::operator++
PUBLIC	??8?$_Tree_const_iterator@V?$_Tree_val@U?$_Tree_simple_types@U?$pair@$$CBV?$tuple@HHHW4arch_t@@@std@@P6AXPAHHPBE1HPAFH@Z@std@@@std@@@std@@@std@@QBE_NABV01@@Z ; std::_Tree_const_iterator<std::_Tree_val<std::_Tree_simple_types<std::pair<std::tuple<int,int,int,enum arch_t> const ,void (__cdecl*)(int *,int,unsigned char const *,unsigned char const *,int,short *,int)> > > >::operator==
PUBLIC	??9?$_Tree_const_iterator@V?$_Tree_val@U?$_Tree_simple_types@U?$pair@$$CBV?$tuple@HHHW4arch_t@@@std@@P6AXPAHHPBE1HPAFH@Z@std@@@std@@@std@@@std@@QBE_NABV01@@Z ; std::_Tree_const_iterator<std::_Tree_val<std::_Tree_simple_types<std::pair<std::tuple<int,int,int,enum arch_t> const ,void (__cdecl*)(int *,int,unsigned char const *,unsigned char const *,int,short *,int)> > > >::operator!=
PUBLIC	??0?$_Tree_iterator@V?$_Tree_val@U?$_Tree_simple_types@U?$pair@$$CBV?$tuple@HHHW4arch_t@@@std@@P6AXPAHHPBE1HPAFH@Z@std@@@std@@@std@@@std@@QAE@PAU?$_Tree_node@U?$pair@$$CBV?$tuple@HHHW4arch_t@@@std@@P6AXPAHHPBE1HPAFH@Z@std@@PAX@1@PBV?$_Tree_val@U?$_Tree_simple_types@U?$pair@$$CBV?$tuple@HHHW4arch_t@@@std@@P6AXPAHHPBE1HPAFH@Z@std@@@std@@@1@@Z ; std::_Tree_iterator<std::_Tree_val<std::_Tree_simple_types<std::pair<std::tuple<int,int,int,enum arch_t> const ,void (__cdecl*)(int *,int,unsigned char const *,unsigned char const *,int,short *,int)> > > >::_Tree_iterator<std::_Tree_val<std::_Tree_simple_types<std::pair<std::tuple<int,int,int,enum arch_t> const ,void (__cdecl*)(int *,int,unsigned char const *,unsigned char const *,int,short *,int)> > > >
PUBLIC	?begin@?$_Tree@V?$_Tmap_traits@V?$tuple@HHHW4arch_t@@@std@@P6AXPAGHPBEHPAFH@ZU?$less@V?$tuple@HHHW4arch_t@@@std@@@2@V?$allocator@U?$pair@$$CBV?$tuple@HHHW4arch_t@@@std@@P6AXPAGHPBEHPAFH@Z@std@@@2@$0A@@std@@@std@@QAE?AV?$_Tree_iterator@V?$_Tree_val@U?$_Tree_simple_types@U?$pair@$$CBV?$tuple@HHHW4arch_t@@@std@@P6AXPAGHPBEHPAFH@Z@std@@@std@@@std@@@2@XZ ; std::_Tree<std::_Tmap_traits<std::tuple<int,int,int,enum arch_t>,void (__cdecl*)(unsigned short *,int,unsigned char const *,int,short *,int),std::less<std::tuple<int,int,int,enum arch_t> >,std::allocator<std::pair<std::tuple<int,int,int,enum arch_t> const ,void (__cdecl*)(unsigned short *,int,unsigned char const *,int,short *,int)> >,0> >::begin
PUBLIC	?end@?$_Tree@V?$_Tmap_traits@V?$tuple@HHHW4arch_t@@@std@@P6AXPAGHPBEHPAFH@ZU?$less@V?$tuple@HHHW4arch_t@@@std@@@2@V?$allocator@U?$pair@$$CBV?$tuple@HHHW4arch_t@@@std@@P6AXPAGHPBEHPAFH@Z@std@@@2@$0A@@std@@@std@@QAE?AV?$_Tree_iterator@V?$_Tree_val@U?$_Tree_simple_types@U?$pair@$$CBV?$tuple@HHHW4arch_t@@@std@@P6AXPAGHPBEHPAFH@Z@std@@@std@@@std@@@2@XZ ; std::_Tree<std::_Tmap_traits<std::tuple<int,int,int,enum arch_t>,void (__cdecl*)(unsigned short *,int,unsigned char const *,int,short *,int),std::less<std::tuple<int,int,int,enum arch_t> >,std::allocator<std::pair<std::tuple<int,int,int,enum arch_t> const ,void (__cdecl*)(unsigned short *,int,unsigned char const *,int,short *,int)> >,0> >::end
PUBLIC	?erase@?$_Tree@V?$_Tmap_traits@V?$tuple@HHHW4arch_t@@@std@@P6AXPAGHPBEHPAFH@ZU?$less@V?$tuple@HHHW4arch_t@@@std@@@2@V?$allocator@U?$pair@$$CBV?$tuple@HHHW4arch_t@@@std@@P6AXPAGHPBEHPAFH@Z@std@@@2@$0A@@std@@@std@@QAE?AV?$_Tree_iterator@V?$_Tree_val@U?$_Tree_simple_types@U?$pair@$$CBV?$tuple@HHHW4arch_t@@@std@@P6AXPAGHPBEHPAFH@Z@std@@@std@@@std@@@2@V?$_Tree_const_iterator@V?$_Tree_val@U?$_Tree_simple_types@U?$pair@$$CBV?$tuple@HHHW4arch_t@@@std@@P6AXPAGHPBEHPAFH@Z@std@@@std@@@std@@@2@0@Z ; std::_Tree<std::_Tmap_traits<std::tuple<int,int,int,enum arch_t>,void (__cdecl*)(unsigned short *,int,unsigned char const *,int,short *,int),std::less<std::tuple<int,int,int,enum arch_t> >,std::allocator<std::pair<std::tuple<int,int,int,enum arch_t> const ,void (__cdecl*)(unsigned short *,int,unsigned char const *,int,short *,int)> >,0> >::erase
PUBLIC	??0?$_Tree_comp_alloc@V?$_Tmap_traits@V?$tuple@HHHW4arch_t@@@std@@P6AXPAGHPBEHPAFH@ZU?$less@V?$tuple@HHHW4arch_t@@@std@@@2@V?$allocator@U?$pair@$$CBV?$tuple@HHHW4arch_t@@@std@@P6AXPAGHPBEHPAFH@Z@std@@@2@$0A@@std@@@std@@QAE@ABU?$less@V?$tuple@HHHW4arch_t@@@std@@@1@@Z ; std::_Tree_comp_alloc<std::_Tmap_traits<std::tuple<int,int,int,enum arch_t>,void (__cdecl*)(unsigned short *,int,unsigned char const *,int,short *,int),std::less<std::tuple<int,int,int,enum arch_t> >,std::allocator<std::pair<std::tuple<int,int,int,enum arch_t> const ,void (__cdecl*)(unsigned short *,int,unsigned char const *,int,short *,int)> >,0> >::_Tree_comp_alloc<std::_Tmap_traits<std::tuple<int,int,int,enum arch_t>,void (__cdecl*)(unsigned short *,int,unsigned char const *,int,short *,int),std::less<std::tuple<int,int,int,enum arch_t> >,std::allocator<std::pair<std::tuple<int,int,int,enum arch_t> const ,void (__cdecl*)(unsigned short *,int,unsigned char const *,int,short *,int)> >,0> >
PUBLIC	?_Freeheadnode@?$_Tree_comp_alloc@V?$_Tmap_traits@V?$tuple@HHHW4arch_t@@@std@@P6AXPAGHPBEHPAFH@ZU?$less@V?$tuple@HHHW4arch_t@@@std@@@2@V?$allocator@U?$pair@$$CBV?$tuple@HHHW4arch_t@@@std@@P6AXPAGHPBEHPAFH@Z@std@@@2@$0A@@std@@@std@@QAEXPAU?$_Tree_node@U?$pair@$$CBV?$tuple@HHHW4arch_t@@@std@@P6AXPAGHPBEHPAFH@Z@std@@PAX@2@@Z ; std::_Tree_comp_alloc<std::_Tmap_traits<std::tuple<int,int,int,enum arch_t>,void (__cdecl*)(unsigned short *,int,unsigned char const *,int,short *,int),std::less<std::tuple<int,int,int,enum arch_t> >,std::allocator<std::pair<std::tuple<int,int,int,enum arch_t> const ,void (__cdecl*)(unsigned short *,int,unsigned char const *,int,short *,int)> >,0> >::_Freeheadnode
PUBLIC	?_Myhead@?$_Tree_comp_alloc@V?$_Tmap_traits@V?$tuple@HHHW4arch_t@@@std@@P6AXPAGHPBEHPAFH@ZU?$less@V?$tuple@HHHW4arch_t@@@std@@@2@V?$allocator@U?$pair@$$CBV?$tuple@HHHW4arch_t@@@std@@P6AXPAGHPBEHPAFH@Z@std@@@2@$0A@@std@@@std@@QAEAAPAU?$_Tree_node@U?$pair@$$CBV?$tuple@HHHW4arch_t@@@std@@P6AXPAGHPBEHPAFH@Z@std@@PAX@2@XZ ; std::_Tree_comp_alloc<std::_Tmap_traits<std::tuple<int,int,int,enum arch_t>,void (__cdecl*)(unsigned short *,int,unsigned char const *,int,short *,int),std::less<std::tuple<int,int,int,enum arch_t> >,std::allocator<std::pair<std::tuple<int,int,int,enum arch_t> const ,void (__cdecl*)(unsigned short *,int,unsigned char const *,int,short *,int)> >,0> >::_Myhead
PUBLIC	??D?$_Tree_iterator@V?$_Tree_val@U?$_Tree_simple_types@U?$pair@$$CBV?$tuple@HHHW4arch_t@@@std@@P6AXPAGHPBEHPAFH@Z@std@@@std@@@std@@@std@@QBEAAU?$pair@$$CBV?$tuple@HHHW4arch_t@@@std@@P6AXPAGHPBEHPAFH@Z@1@XZ ; std::_Tree_iterator<std::_Tree_val<std::_Tree_simple_types<std::pair<std::tuple<int,int,int,enum arch_t> const ,void (__cdecl*)(unsigned short *,int,unsigned char const *,int,short *,int)> > > >::operator*
PUBLIC	?begin@?$_Tree@V?$_Tmap_traits@V?$tuple@HHHW4arch_t@@@std@@P6AXPAHHPBE1HPAFH@ZU?$less@V?$tuple@HHHW4arch_t@@@std@@@2@V?$allocator@U?$pair@$$CBV?$tuple@HHHW4arch_t@@@std@@P6AXPAHHPBE1HPAFH@Z@std@@@2@$0A@@std@@@std@@QAE?AV?$_Tree_iterator@V?$_Tree_val@U?$_Tree_simple_types@U?$pair@$$CBV?$tuple@HHHW4arch_t@@@std@@P6AXPAHHPBE1HPAFH@Z@std@@@std@@@std@@@2@XZ ; std::_Tree<std::_Tmap_traits<std::tuple<int,int,int,enum arch_t>,void (__cdecl*)(int *,int,unsigned char const *,unsigned char const *,int,short *,int),std::less<std::tuple<int,int,int,enum arch_t> >,std::allocator<std::pair<std::tuple<int,int,int,enum arch_t> const ,void (__cdecl*)(int *,int,unsigned char const *,unsigned char const *,int,short *,int)> >,0> >::begin
PUBLIC	?end@?$_Tree@V?$_Tmap_traits@V?$tuple@HHHW4arch_t@@@std@@P6AXPAHHPBE1HPAFH@ZU?$less@V?$tuple@HHHW4arch_t@@@std@@@2@V?$allocator@U?$pair@$$CBV?$tuple@HHHW4arch_t@@@std@@P6AXPAHHPBE1HPAFH@Z@std@@@2@$0A@@std@@@std@@QAE?AV?$_Tree_iterator@V?$_Tree_val@U?$_Tree_simple_types@U?$pair@$$CBV?$tuple@HHHW4arch_t@@@std@@P6AXPAHHPBE1HPAFH@Z@std@@@std@@@std@@@2@XZ ; std::_Tree<std::_Tmap_traits<std::tuple<int,int,int,enum arch_t>,void (__cdecl*)(int *,int,unsigned char const *,unsigned char const *,int,short *,int),std::less<std::tuple<int,int,int,enum arch_t> >,std::allocator<std::pair<std::tuple<int,int,int,enum arch_t> const ,void (__cdecl*)(int *,int,unsigned char const *,unsigned char const *,int,short *,int)> >,0> >::end
PUBLIC	?erase@?$_Tree@V?$_Tmap_traits@V?$tuple@HHHW4arch_t@@@std@@P6AXPAHHPBE1HPAFH@ZU?$less@V?$tuple@HHHW4arch_t@@@std@@@2@V?$allocator@U?$pair@$$CBV?$tuple@HHHW4arch_t@@@std@@P6AXPAHHPBE1HPAFH@Z@std@@@2@$0A@@std@@@std@@QAE?AV?$_Tree_iterator@V?$_Tree_val@U?$_Tree_simple_types@U?$pair@$$CBV?$tuple@HHHW4arch_t@@@std@@P6AXPAHHPBE1HPAFH@Z@std@@@std@@@std@@@2@V?$_Tree_const_iterator@V?$_Tree_val@U?$_Tree_simple_types@U?$pair@$$CBV?$tuple@HHHW4arch_t@@@std@@P6AXPAHHPBE1HPAFH@Z@std@@@std@@@std@@@2@0@Z ; std::_Tree<std::_Tmap_traits<std::tuple<int,int,int,enum arch_t>,void (__cdecl*)(int *,int,unsigned char const *,unsigned char const *,int,short *,int),std::less<std::tuple<int,int,int,enum arch_t> >,std::allocator<std::pair<std::tuple<int,int,int,enum arch_t> const ,void (__cdecl*)(int *,int,unsigned char const *,unsigned char const *,int,short *,int)> >,0> >::erase
PUBLIC	??0?$_Tree_comp_alloc@V?$_Tmap_traits@V?$tuple@HHHW4arch_t@@@std@@P6AXPAHHPBE1HPAFH@ZU?$less@V?$tuple@HHHW4arch_t@@@std@@@2@V?$allocator@U?$pair@$$CBV?$tuple@HHHW4arch_t@@@std@@P6AXPAHHPBE1HPAFH@Z@std@@@2@$0A@@std@@@std@@QAE@ABU?$less@V?$tuple@HHHW4arch_t@@@std@@@1@@Z ; std::_Tree_comp_alloc<std::_Tmap_traits<std::tuple<int,int,int,enum arch_t>,void (__cdecl*)(int *,int,unsigned char const *,unsigned char const *,int,short *,int),std::less<std::tuple<int,int,int,enum arch_t> >,std::allocator<std::pair<std::tuple<int,int,int,enum arch_t> const ,void (__cdecl*)(int *,int,unsigned char const *,unsigned char const *,int,short *,int)> >,0> >::_Tree_comp_alloc<std::_Tmap_traits<std::tuple<int,int,int,enum arch_t>,void (__cdecl*)(int *,int,unsigned char const *,unsigned char const *,int,short *,int),std::less<std::tuple<int,int,int,enum arch_t> >,std::allocator<std::pair<std::tuple<int,int,int,enum arch_t> const ,void (__cdecl*)(int *,int,unsigned char const *,unsigned char const *,int,short *,int)> >,0> >
PUBLIC	?_Freeheadnode@?$_Tree_comp_alloc@V?$_Tmap_traits@V?$tuple@HHHW4arch_t@@@std@@P6AXPAHHPBE1HPAFH@ZU?$less@V?$tuple@HHHW4arch_t@@@std@@@2@V?$allocator@U?$pair@$$CBV?$tuple@HHHW4arch_t@@@std@@P6AXPAHHPBE1HPAFH@Z@std@@@2@$0A@@std@@@std@@QAEXPAU?$_Tree_node@U?$pair@$$CBV?$tuple@HHHW4arch_t@@@std@@P6AXPAHHPBE1HPAFH@Z@std@@PAX@2@@Z ; std::_Tree_comp_alloc<std::_Tmap_traits<std::tuple<int,int,int,enum arch_t>,void (__cdecl*)(int *,int,unsigned char const *,unsigned char const *,int,short *,int),std::less<std::tuple<int,int,int,enum arch_t> >,std::allocator<std::pair<std::tuple<int,int,int,enum arch_t> const ,void (__cdecl*)(int *,int,unsigned char const *,unsigned char const *,int,short *,int)> >,0> >::_Freeheadnode
PUBLIC	?_Myhead@?$_Tree_comp_alloc@V?$_Tmap_traits@V?$tuple@HHHW4arch_t@@@std@@P6AXPAHHPBE1HPAFH@ZU?$less@V?$tuple@HHHW4arch_t@@@std@@@2@V?$allocator@U?$pair@$$CBV?$tuple@HHHW4arch_t@@@std@@P6AXPAHHPBE1HPAFH@Z@std@@@2@$0A@@std@@@std@@QAEAAPAU?$_Tree_node@U?$pair@$$CBV?$tuple@HHHW4arch_t@@@std@@P6AXPAHHPBE1HPAFH@Z@std@@PAX@2@XZ ; std::_Tree_comp_alloc<std::_Tmap_traits<std::tuple<int,int,int,enum arch_t>,void (__cdecl*)(int *,int,unsigned char const *,unsigned char const *,int,short *,int),std::less<std::tuple<int,int,int,enum arch_t> >,std::allocator<std::pair<std::tuple<int,int,int,enum arch_t> const ,void (__cdecl*)(int *,int,unsigned char const *,unsigned char const *,int,short *,int)> >,0> >::_Myhead
PUBLIC	??D?$_Tree_iterator@V?$_Tree_val@U?$_Tree_simple_types@U?$pair@$$CBV?$tuple@HHHW4arch_t@@@std@@P6AXPAHHPBE1HPAFH@Z@std@@@std@@@std@@@std@@QBEAAU?$pair@$$CBV?$tuple@HHHW4arch_t@@@std@@P6AXPAHHPBE1HPAFH@Z@1@XZ ; std::_Tree_iterator<std::_Tree_val<std::_Tree_simple_types<std::pair<std::tuple<int,int,int,enum arch_t> const ,void (__cdecl*)(int *,int,unsigned char const *,unsigned char const *,int,short *,int)> > > >::operator*
PUBLIC	?pointer_to@?$pointer_traits@PAU?$pair@$$CBV?$tuple@HHHW4arch_t@@@std@@P6AXPAHHPBE1HPAFH@Z@std@@@std@@SAPAU?$pair@$$CBV?$tuple@HHHW4arch_t@@@std@@P6AXPAHHPBE1HPAFH@Z@2@AAU32@@Z ; std::pointer_traits<std::pair<std::tuple<int,int,int,enum arch_t> const ,void (__cdecl*)(int *,int,unsigned char const *,unsigned char const *,int,short *,int)> *>::pointer_to
PUBLIC	?pointer_to@?$pointer_traits@PAU?$pair@$$CBV?$tuple@HHHW4arch_t@@@std@@P6AXPAGHPBEHPAFH@Z@std@@@std@@SAPAU?$pair@$$CBV?$tuple@HHHW4arch_t@@@std@@P6AXPAGHPBEHPAFH@Z@2@AAU32@@Z ; std::pointer_traits<std::pair<std::tuple<int,int,int,enum arch_t> const ,void (__cdecl*)(unsigned short *,int,unsigned char const *,int,short *,int)> *>::pointer_to
PUBLIC	??0?$_Tree@V?$_Tmap_traits@V?$tuple@HHHW4arch_t@@@std@@P6AXPAGHPBEHPAFH@ZU?$less@V?$tuple@HHHW4arch_t@@@std@@@2@V?$allocator@U?$pair@$$CBV?$tuple@HHHW4arch_t@@@std@@P6AXPAGHPBEHPAFH@Z@std@@@2@$0A@@std@@@std@@QAE@ABU?$less@V?$tuple@HHHW4arch_t@@@std@@@1@@Z ; std::_Tree<std::_Tmap_traits<std::tuple<int,int,int,enum arch_t>,void (__cdecl*)(unsigned short *,int,unsigned char const *,int,short *,int),std::less<std::tuple<int,int,int,enum arch_t> >,std::allocator<std::pair<std::tuple<int,int,int,enum arch_t> const ,void (__cdecl*)(unsigned short *,int,unsigned char const *,int,short *,int)> >,0> >::_Tree<std::_Tmap_traits<std::tuple<int,int,int,enum arch_t>,void (__cdecl*)(unsigned short *,int,unsigned char const *,int,short *,int),std::less<std::tuple<int,int,int,enum arch_t> >,std::allocator<std::pair<std::tuple<int,int,int,enum arch_t> const ,void (__cdecl*)(unsigned short *,int,unsigned char const *,int,short *,int)> >,0> >
PUBLIC	?_Tidy@?$_Tree@V?$_Tmap_traits@V?$tuple@HHHW4arch_t@@@std@@P6AXPAGHPBEHPAFH@ZU?$less@V?$tuple@HHHW4arch_t@@@std@@@2@V?$allocator@U?$pair@$$CBV?$tuple@HHHW4arch_t@@@std@@P6AXPAGHPBEHPAFH@Z@std@@@2@$0A@@std@@@std@@IAEXXZ ; std::_Tree<std::_Tmap_traits<std::tuple<int,int,int,enum arch_t>,void (__cdecl*)(unsigned short *,int,unsigned char const *,int,short *,int),std::less<std::tuple<int,int,int,enum arch_t> >,std::allocator<std::pair<std::tuple<int,int,int,enum arch_t> const ,void (__cdecl*)(unsigned short *,int,unsigned char const *,int,short *,int)> >,0> >::_Tidy
PUBLIC	??1?$_Tree_comp_alloc@V?$_Tmap_traits@V?$tuple@HHHW4arch_t@@@std@@P6AXPAGHPBEHPAFH@ZU?$less@V?$tuple@HHHW4arch_t@@@std@@@2@V?$allocator@U?$pair@$$CBV?$tuple@HHHW4arch_t@@@std@@P6AXPAGHPBEHPAFH@Z@std@@@2@$0A@@std@@@std@@QAE@XZ ; std::_Tree_comp_alloc<std::_Tmap_traits<std::tuple<int,int,int,enum arch_t>,void (__cdecl*)(unsigned short *,int,unsigned char const *,int,short *,int),std::less<std::tuple<int,int,int,enum arch_t> >,std::allocator<std::pair<std::tuple<int,int,int,enum arch_t> const ,void (__cdecl*)(unsigned short *,int,unsigned char const *,int,short *,int)> >,0> >::~_Tree_comp_alloc<std::_Tmap_traits<std::tuple<int,int,int,enum arch_t>,void (__cdecl*)(unsigned short *,int,unsigned char const *,int,short *,int),std::less<std::tuple<int,int,int,enum arch_t> >,std::allocator<std::pair<std::tuple<int,int,int,enum arch_t> const ,void (__cdecl*)(unsigned short *,int,unsigned char const *,int,short *,int)> >,0> >
PUBLIC	??C?$_Tree_iterator@V?$_Tree_val@U?$_Tree_simple_types@U?$pair@$$CBV?$tuple@HHHW4arch_t@@@std@@P6AXPAGHPBEHPAFH@Z@std@@@std@@@std@@@std@@QBEPAU?$pair@$$CBV?$tuple@HHHW4arch_t@@@std@@P6AXPAGHPBEHPAFH@Z@1@XZ ; std::_Tree_iterator<std::_Tree_val<std::_Tree_simple_types<std::pair<std::tuple<int,int,int,enum arch_t> const ,void (__cdecl*)(unsigned short *,int,unsigned char const *,int,short *,int)> > > >::operator->
PUBLIC	??0?$_Tree@V?$_Tmap_traits@V?$tuple@HHHW4arch_t@@@std@@P6AXPAHHPBE1HPAFH@ZU?$less@V?$tuple@HHHW4arch_t@@@std@@@2@V?$allocator@U?$pair@$$CBV?$tuple@HHHW4arch_t@@@std@@P6AXPAHHPBE1HPAFH@Z@std@@@2@$0A@@std@@@std@@QAE@ABU?$less@V?$tuple@HHHW4arch_t@@@std@@@1@@Z ; std::_Tree<std::_Tmap_traits<std::tuple<int,int,int,enum arch_t>,void (__cdecl*)(int *,int,unsigned char const *,unsigned char const *,int,short *,int),std::less<std::tuple<int,int,int,enum arch_t> >,std::allocator<std::pair<std::tuple<int,int,int,enum arch_t> const ,void (__cdecl*)(int *,int,unsigned char const *,unsigned char const *,int,short *,int)> >,0> >::_Tree<std::_Tmap_traits<std::tuple<int,int,int,enum arch_t>,void (__cdecl*)(int *,int,unsigned char const *,unsigned char const *,int,short *,int),std::less<std::tuple<int,int,int,enum arch_t> >,std::allocator<std::pair<std::tuple<int,int,int,enum arch_t> const ,void (__cdecl*)(int *,int,unsigned char const *,unsigned char const *,int,short *,int)> >,0> >
PUBLIC	?_Tidy@?$_Tree@V?$_Tmap_traits@V?$tuple@HHHW4arch_t@@@std@@P6AXPAHHPBE1HPAFH@ZU?$less@V?$tuple@HHHW4arch_t@@@std@@@2@V?$allocator@U?$pair@$$CBV?$tuple@HHHW4arch_t@@@std@@P6AXPAHHPBE1HPAFH@Z@std@@@2@$0A@@std@@@std@@IAEXXZ ; std::_Tree<std::_Tmap_traits<std::tuple<int,int,int,enum arch_t>,void (__cdecl*)(int *,int,unsigned char const *,unsigned char const *,int,short *,int),std::less<std::tuple<int,int,int,enum arch_t> >,std::allocator<std::pair<std::tuple<int,int,int,enum arch_t> const ,void (__cdecl*)(int *,int,unsigned char const *,unsigned char const *,int,short *,int)> >,0> >::_Tidy
PUBLIC	??1?$_Tree_comp_alloc@V?$_Tmap_traits@V?$tuple@HHHW4arch_t@@@std@@P6AXPAHHPBE1HPAFH@ZU?$less@V?$tuple@HHHW4arch_t@@@std@@@2@V?$allocator@U?$pair@$$CBV?$tuple@HHHW4arch_t@@@std@@P6AXPAHHPBE1HPAFH@Z@std@@@2@$0A@@std@@@std@@QAE@XZ ; std::_Tree_comp_alloc<std::_Tmap_traits<std::tuple<int,int,int,enum arch_t>,void (__cdecl*)(int *,int,unsigned char const *,unsigned char const *,int,short *,int),std::less<std::tuple<int,int,int,enum arch_t> >,std::allocator<std::pair<std::tuple<int,int,int,enum arch_t> const ,void (__cdecl*)(int *,int,unsigned char const *,unsigned char const *,int,short *,int)> >,0> >::~_Tree_comp_alloc<std::_Tmap_traits<std::tuple<int,int,int,enum arch_t>,void (__cdecl*)(int *,int,unsigned char const *,unsigned char const *,int,short *,int),std::less<std::tuple<int,int,int,enum arch_t> >,std::allocator<std::pair<std::tuple<int,int,int,enum arch_t> const ,void (__cdecl*)(int *,int,unsigned char const *,unsigned char const *,int,short *,int)> >,0> >
PUBLIC	??C?$_Tree_iterator@V?$_Tree_val@U?$_Tree_simple_types@U?$pair@$$CBV?$tuple@HHHW4arch_t@@@std@@P6AXPAHHPBE1HPAFH@Z@std@@@std@@@std@@@std@@QBEPAU?$pair@$$CBV?$tuple@HHHW4arch_t@@@std@@P6AXPAHHPBE1HPAFH@Z@1@XZ ; std::_Tree_iterator<std::_Tree_val<std::_Tree_simple_types<std::pair<std::tuple<int,int,int,enum arch_t> const ,void (__cdecl*)(int *,int,unsigned char const *,unsigned char const *,int,short *,int)> > > >::operator->
PUBLIC	??0?$map@V?$tuple@HHHW4arch_t@@@std@@P6AXPAGHPBEHPAFH@ZU?$less@V?$tuple@HHHW4arch_t@@@std@@@2@V?$allocator@U?$pair@$$CBV?$tuple@HHHW4arch_t@@@std@@P6AXPAGHPBEHPAFH@Z@std@@@2@@std@@QAE@XZ ; std::map<std::tuple<int,int,int,enum arch_t>,void (__cdecl*)(unsigned short *,int,unsigned char const *,int,short *,int),std::less<std::tuple<int,int,int,enum arch_t> >,std::allocator<std::pair<std::tuple<int,int,int,enum arch_t> const ,void (__cdecl*)(unsigned short *,int,unsigned char const *,int,short *,int)> > >::map<std::tuple<int,int,int,enum arch_t>,void (__cdecl*)(unsigned short *,int,unsigned char const *,int,short *,int),std::less<std::tuple<int,int,int,enum arch_t> >,std::allocator<std::pair<std::tuple<int,int,int,enum arch_t> const ,void (__cdecl*)(unsigned short *,int,unsigned char const *,int,short *,int)> > >
PUBLIC	??A?$map@V?$tuple@HHHW4arch_t@@@std@@P6AXPAGHPBEHPAFH@ZU?$less@V?$tuple@HHHW4arch_t@@@std@@@2@V?$allocator@U?$pair@$$CBV?$tuple@HHHW4arch_t@@@std@@P6AXPAGHPBEHPAFH@Z@std@@@2@@std@@QAEAAP6AXPAGHPBEHPAFH@Z$$QAV?$tuple@HHHW4arch_t@@@1@@Z ; std::map<std::tuple<int,int,int,enum arch_t>,void (__cdecl*)(unsigned short *,int,unsigned char const *,int,short *,int),std::less<std::tuple<int,int,int,enum arch_t> >,std::allocator<std::pair<std::tuple<int,int,int,enum arch_t> const ,void (__cdecl*)(unsigned short *,int,unsigned char const *,int,short *,int)> > >::operator[]
PUBLIC	??1?$_Tree@V?$_Tmap_traits@V?$tuple@HHHW4arch_t@@@std@@P6AXPAGHPBEHPAFH@ZU?$less@V?$tuple@HHHW4arch_t@@@std@@@2@V?$allocator@U?$pair@$$CBV?$tuple@HHHW4arch_t@@@std@@P6AXPAGHPBEHPAFH@Z@std@@@2@$0A@@std@@@std@@QAE@XZ ; std::_Tree<std::_Tmap_traits<std::tuple<int,int,int,enum arch_t>,void (__cdecl*)(unsigned short *,int,unsigned char const *,int,short *,int),std::less<std::tuple<int,int,int,enum arch_t> >,std::allocator<std::pair<std::tuple<int,int,int,enum arch_t> const ,void (__cdecl*)(unsigned short *,int,unsigned char const *,int,short *,int)> >,0> >::~_Tree<std::_Tmap_traits<std::tuple<int,int,int,enum arch_t>,void (__cdecl*)(unsigned short *,int,unsigned char const *,int,short *,int),std::less<std::tuple<int,int,int,enum arch_t> >,std::allocator<std::pair<std::tuple<int,int,int,enum arch_t> const ,void (__cdecl*)(unsigned short *,int,unsigned char const *,int,short *,int)> >,0> >
PUBLIC	??0?$map@V?$tuple@HHHW4arch_t@@@std@@P6AXPAHHPBE1HPAFH@ZU?$less@V?$tuple@HHHW4arch_t@@@std@@@2@V?$allocator@U?$pair@$$CBV?$tuple@HHHW4arch_t@@@std@@P6AXPAHHPBE1HPAFH@Z@std@@@2@@std@@QAE@XZ ; std::map<std::tuple<int,int,int,enum arch_t>,void (__cdecl*)(int *,int,unsigned char const *,unsigned char const *,int,short *,int),std::less<std::tuple<int,int,int,enum arch_t> >,std::allocator<std::pair<std::tuple<int,int,int,enum arch_t> const ,void (__cdecl*)(int *,int,unsigned char const *,unsigned char const *,int,short *,int)> > >::map<std::tuple<int,int,int,enum arch_t>,void (__cdecl*)(int *,int,unsigned char const *,unsigned char const *,int,short *,int),std::less<std::tuple<int,int,int,enum arch_t> >,std::allocator<std::pair<std::tuple<int,int,int,enum arch_t> const ,void (__cdecl*)(int *,int,unsigned char const *,unsigned char const *,int,short *,int)> > >
PUBLIC	??A?$map@V?$tuple@HHHW4arch_t@@@std@@P6AXPAHHPBE1HPAFH@ZU?$less@V?$tuple@HHHW4arch_t@@@std@@@2@V?$allocator@U?$pair@$$CBV?$tuple@HHHW4arch_t@@@std@@P6AXPAHHPBE1HPAFH@Z@std@@@2@@std@@QAEAAP6AXPAHHPBE1HPAFH@Z$$QAV?$tuple@HHHW4arch_t@@@1@@Z ; std::map<std::tuple<int,int,int,enum arch_t>,void (__cdecl*)(int *,int,unsigned char const *,unsigned char const *,int,short *,int),std::less<std::tuple<int,int,int,enum arch_t> >,std::allocator<std::pair<std::tuple<int,int,int,enum arch_t> const ,void (__cdecl*)(int *,int,unsigned char const *,unsigned char const *,int,short *,int)> > >::operator[]
PUBLIC	??1?$_Tree@V?$_Tmap_traits@V?$tuple@HHHW4arch_t@@@std@@P6AXPAHHPBE1HPAFH@ZU?$less@V?$tuple@HHHW4arch_t@@@std@@@2@V?$allocator@U?$pair@$$CBV?$tuple@HHHW4arch_t@@@std@@P6AXPAHHPBE1HPAFH@Z@std@@@2@$0A@@std@@@std@@QAE@XZ ; std::_Tree<std::_Tmap_traits<std::tuple<int,int,int,enum arch_t>,void (__cdecl*)(int *,int,unsigned char const *,unsigned char const *,int,short *,int),std::less<std::tuple<int,int,int,enum arch_t> >,std::allocator<std::pair<std::tuple<int,int,int,enum arch_t> const ,void (__cdecl*)(int *,int,unsigned char const *,unsigned char const *,int,short *,int)> >,0> >::~_Tree<std::_Tmap_traits<std::tuple<int,int,int,enum arch_t>,void (__cdecl*)(int *,int,unsigned char const *,unsigned char const *,int,short *,int),std::less<std::tuple<int,int,int,enum arch_t> >,std::allocator<std::pair<std::tuple<int,int,int,enum arch_t> const ,void (__cdecl*)(int *,int,unsigned char const *,unsigned char const *,int,short *,int)> >,0> >
PUBLIC	??1?$map@V?$tuple@HHHW4arch_t@@@std@@P6AXPAHHPBE1HPAFH@ZU?$less@V?$tuple@HHHW4arch_t@@@std@@@2@V?$allocator@U?$pair@$$CBV?$tuple@HHHW4arch_t@@@std@@P6AXPAHHPBE1HPAFH@Z@std@@@2@@std@@QAE@XZ ; std::map<std::tuple<int,int,int,enum arch_t>,void (__cdecl*)(int *,int,unsigned char const *,unsigned char const *,int,short *,int),std::less<std::tuple<int,int,int,enum arch_t> >,std::allocator<std::pair<std::tuple<int,int,int,enum arch_t> const ,void (__cdecl*)(int *,int,unsigned char const *,unsigned char const *,int,short *,int)> > >::~map<std::tuple<int,int,int,enum arch_t>,void (__cdecl*)(int *,int,unsigned char const *,unsigned char const *,int,short *,int),std::less<std::tuple<int,int,int,enum arch_t> >,std::allocator<std::pair<std::tuple<int,int,int,enum arch_t> const ,void (__cdecl*)(int *,int,unsigned char const *,unsigned char const *,int,short *,int)> > >
PUBLIC	??1?$map@V?$tuple@HHHW4arch_t@@@std@@P6AXPAGHPBEHPAFH@ZU?$less@V?$tuple@HHHW4arch_t@@@std@@@2@V?$allocator@U?$pair@$$CBV?$tuple@HHHW4arch_t@@@std@@P6AXPAGHPBEHPAFH@Z@std@@@2@@std@@QAE@XZ ; std::map<std::tuple<int,int,int,enum arch_t>,void (__cdecl*)(unsigned short *,int,unsigned char const *,int,short *,int),std::less<std::tuple<int,int,int,enum arch_t> >,std::allocator<std::pair<std::tuple<int,int,int,enum arch_t> const ,void (__cdecl*)(unsigned short *,int,unsigned char const *,int,short *,int)> > >::~map<std::tuple<int,int,int,enum arch_t>,void (__cdecl*)(unsigned short *,int,unsigned char const *,int,short *,int),std::less<std::tuple<int,int,int,enum arch_t> >,std::allocator<std::pair<std::tuple<int,int,int,enum arch_t> const ,void (__cdecl*)(unsigned short *,int,unsigned char const *,int,short *,int)> > >
PUBLIC	?cos@@YAOO@Z					; cos
PUBLIC	_cosl
PUBLIC	?Short2Bytes_Int32toWord16@@YAXPAGHPAHHHHH@Z	; Short2Bytes_Int32toWord16
PUBLIC	?get_overlaps_lsb_function@@YAP6AXPAHHPBE1HPAFH@ZHHHW4arch_t@@@Z ; get_overlaps_lsb_function
PUBLIC	?Short2Bytes@@YAXPAEHPAGHHH@Z			; Short2Bytes
PUBLIC	?Short2Bytes_FloatInInt32ArrayToFloat@@YAXPAMHPAHHHH@Z ; Short2Bytes_FloatInInt32ArrayToFloat
PUBLIC	?Short2BytesLsb@@YAXPAE0HPAHHHH@Z		; Short2BytesLsb
PUBLIC	??$LimitChanges_sse2_new@G@@YAXPAEHPBEHHHH@Z	; LimitChanges_sse2_new<unsigned short>
PUBLIC	??$LimitChanges_sse2_new@E@@YAXPAEHPBEHHHH@Z	; LimitChanges_sse2_new<unsigned char>
PUBLIC	??$LimitChanges_c@G@@YAXPAEHPBEHHHH@Z		; LimitChanges_c<unsigned short>
PUBLIC	??$LimitChanges_c@E@@YAXPAEHPBEHHHH@Z		; LimitChanges_c<unsigned char>
PUBLIC	?get_overlaps_function@@YAP6AXPAGHPBEHPAFH@ZHHHW4arch_t@@@Z ; get_overlaps_function
PUBLIC	??1OverlapWindows@@QAE@XZ			; OverlapWindows::~OverlapWindows
PUBLIC	??0OverlapWindows@@QAE@HHHH@Z			; OverlapWindows::OverlapWindows
;	COMDAT xdata$x
xdata$x	SEGMENT
__ehfuncinfo$?get_overlaps_function@@YAP6AXPAGHPBEHPAFH@ZHHHW4arch_t@@@Z DD 019930522H
	DD	01H
	DD	FLAT:__unwindtable$?get_overlaps_function@@YAP6AXPAGHPBEHPAFH@ZHHHW4arch_t@@@Z
	DD	2 DUP(00H)
	DD	2 DUP(00H)
	DD	00H
	DD	01H
__unwindtable$?get_overlaps_function@@YAP6AXPAGHPBEHPAFH@ZHHHW4arch_t@@@Z DD 0ffffffffH
	DD	FLAT:__unwindfunclet$?get_overlaps_function@@YAP6AXPAGHPBEHPAFH@ZHHHW4arch_t@@@Z$0
xdata$x	ENDS
;	COMDAT xdata$x
xdata$x	SEGMENT
__ehfuncinfo$?get_overlaps_lsb_function@@YAP6AXPAHHPBE1HPAFH@ZHHHW4arch_t@@@Z DD 019930522H
	DD	01H
	DD	FLAT:__unwindtable$?get_overlaps_lsb_function@@YAP6AXPAHHPBE1HPAFH@ZHHHW4arch_t@@@Z
	DD	2 DUP(00H)
	DD	2 DUP(00H)
	DD	00H
	DD	01H
__unwindtable$?get_overlaps_lsb_function@@YAP6AXPAHHPBE1HPAFH@ZHHHW4arch_t@@@Z DD 0ffffffffH
	DD	FLAT:__unwindfunclet$?get_overlaps_lsb_function@@YAP6AXPAHHPBE1HPAFH@ZHHHW4arch_t@@@Z$0
xdata$x	ENDS
;	COMDAT xdata$x
xdata$x	SEGMENT
__ehfuncinfo$?clear@?$_Tree@V?$_Tmap_traits@V?$tuple@HHHW4arch_t@@@std@@P6AXPAHHPBE1HPAFH@ZU?$less@V?$tuple@HHHW4arch_t@@@std@@@2@V?$allocator@U?$pair@$$CBV?$tuple@HHHW4arch_t@@@std@@P6AXPAHHPBE1HPAFH@Z@std@@@2@$0A@@std@@@std@@QAEXXZ DD 019930522H
	DD	00H
	DD	00H
	DD	2 DUP(00H)
	DD	2 DUP(00H)
	DD	00H
	DD	05H
xdata$x	ENDS
;	COMDAT xdata$x
xdata$x	SEGMENT
__ehfuncinfo$?clear@?$_Tree@V?$_Tmap_traits@V?$tuple@HHHW4arch_t@@@std@@P6AXPAGHPBEHPAFH@ZU?$less@V?$tuple@HHHW4arch_t@@@std@@@2@V?$allocator@U?$pair@$$CBV?$tuple@HHHW4arch_t@@@std@@P6AXPAGHPBEHPAFH@Z@std@@@2@$0A@@std@@@std@@QAEXXZ DD 019930522H
	DD	00H
	DD	00H
	DD	2 DUP(00H)
	DD	2 DUP(00H)
	DD	00H
	DD	05H
xdata$x	ENDS
;	COMDAT xdata$x
xdata$x	SEGMENT
__ehfuncinfo$??$_Insert_hint@AAU?$pair@$$CBV?$tuple@HHHW4arch_t@@@std@@P6AXPAHHPBE1HPAFH@Z@std@@PAU?$_Tree_node@U?$pair@$$CBV?$tuple@HHHW4arch_t@@@std@@P6AXPAHHPBE1HPAFH@Z@std@@PAX@2@@?$_Tree@V?$_Tmap_traits@V?$tuple@HHHW4arch_t@@@std@@P6AXPAHHPBE1HPAFH@ZU?$less@V?$tuple@HHHW4arch_t@@@std@@@2@V?$allocator@U?$pair@$$CBV?$tuple@HHHW4arch_t@@@std@@P6AXPAHHPBE1HPAFH@Z@std@@@2@$0A@@std@@@std@@IAE?AV?$_Tree_iterator@V?$_Tree_val@U?$_Tree_simple_types@U?$pair@$$CBV?$tuple@HHHW4arch_t@@@std@@P6AXPAHHPBE1HPAFH@Z@std@@@std@@@std@@@1@V?$_Tree_const_iterator@V?$_Tree_val@U?$_Tree_simple_types@U?$pair@$$CBV?$tuple@HHHW4arch_t@@@std@@P6AXPAHHPBE1HPAFH@Z@std@@@std@@@std@@@1@AAU?$pair@$$CBV?$tuple@HHHW4arch_t@@@std@@P6AXPAHHPBE1HPAFH@Z@1@PAU?$_Tree_node@U?$pair@$$CBV?$tuple@HHHW4arch_t@@@std@@P6AXPAHHPBE1HPAFH@Z@std@@PAX@1@@Z DD 019930522H
	DD	02H
	DD	FLAT:__unwindtable$??$_Insert_hint@AAU?$pair@$$CBV?$tuple@HHHW4arch_t@@@std@@P6AXPAHHPBE1HPAFH@Z@std@@PAU?$_Tree_node@U?$pair@$$CBV?$tuple@HHHW4arch_t@@@std@@P6AXPAHHPBE1HPAFH@Z@std@@PAX@2@@?$_Tree@V?$_Tmap_traits@V?$tuple@HHHW4arch_t@@@std@@P6AXPAHHPBE1HPAFH@ZU?$less@V?$tuple@HHHW4arch_t@@@std@@@2@V?$allocator@U?$pair@$$CBV?$tuple@HHHW4arch_t@@@std@@P6AXPAHHPBE1HPAFH@Z@std@@@2@$0A@@std@@@std@@IAE?AV?$_Tree_iterator@V?$_Tree_val@U?$_Tree_simple_types@U?$pair@$$CBV?$tuple@HHHW4arch_t@@@std@@P6AXPAHHPBE1HPAFH@Z@std@@@std@@@std@@@1@V?$_Tree_const_iterator@V?$_Tree_val@U?$_Tree_simple_types@U?$pair@$$CBV?$tuple@HHHW4arch_t@@@std@@P6AXPAHHPBE1HPAFH@Z@std@@@std@@@std@@@1@AAU?$pair@$$CBV?$tuple@HHHW4arch_t@@@std@@P6AXPAHHPBE1HPAFH@Z@1@PAU?$_Tree_node@U?$pair@$$CBV?$tuple@HHHW4arch_t@@@std@@P6AXPAHHPBE1HPAFH@Z@std@@PAX@1@@Z
	DD	01H
	DD	FLAT:__tryblocktable$??$_Insert_hint@AAU?$pair@$$CBV?$tuple@HHHW4arch_t@@@std@@P6AXPAHHPBE1HPAFH@Z@std@@PAU?$_Tree_node@U?$pair@$$CBV?$tuple@HHHW4arch_t@@@std@@P6AXPAHHPBE1HPAFH@Z@std@@PAX@2@@?$_Tree@V?$_Tmap_traits@V?$tuple@HHHW4arch_t@@@std@@P6AXPAHHPBE1HPAFH@ZU?$less@V?$tuple@HHHW4arch_t@@@std@@@2@V?$allocator@U?$pair@$$CBV?$tuple@HHHW4arch_t@@@std@@P6AXPAHHPBE1HPAFH@Z@std@@@2@$0A@@std@@@std@@IAE?AV?$_Tree_iterator@V?$_Tree_val@U?$_Tree_simple_types@U?$pair@$$CBV?$tuple@HHHW4arch_t@@@std@@P6AXPAHHPBE1HPAFH@Z@std@@@std@@@std@@@1@V?$_Tree_const_iterator@V?$_Tree_val@U?$_Tree_simple_types@U?$pair@$$CBV?$tuple@HHHW4arch_t@@@std@@P6AXPAHHPBE1HPAFH@Z@std@@@std@@@std@@@1@AAU?$pair@$$CBV?$tuple@HHHW4arch_t@@@std@@P6AXPAHHPBE1HPAFH@Z@1@PAU?$_Tree_node@U?$pair@$$CBV?$tuple@HHHW4arch_t@@@std@@P6AXPAHHPBE1HPAFH@Z@std@@PAX@1@@Z
	DD	2 DUP(00H)
	DD	00H
	DD	01H
__unwindtable$??$_Insert_hint@AAU?$pair@$$CBV?$tuple@HHHW4arch_t@@@std@@P6AXPAHHPBE1HPAFH@Z@std@@PAU?$_Tree_node@U?$pair@$$CBV?$tuple@HHHW4arch_t@@@std@@P6AXPAHHPBE1HPAFH@Z@std@@PAX@2@@?$_Tree@V?$_Tmap_traits@V?$tuple@HHHW4arch_t@@@std@@P6AXPAHHPBE1HPAFH@ZU?$less@V?$tuple@HHHW4arch_t@@@std@@@2@V?$allocator@U?$pair@$$CBV?$tuple@HHHW4arch_t@@@std@@P6AXPAHHPBE1HPAFH@Z@std@@@2@$0A@@std@@@std@@IAE?AV?$_Tree_iterator@V?$_Tree_val@U?$_Tree_simple_types@U?$pair@$$CBV?$tuple@HHHW4arch_t@@@std@@P6AXPAHHPBE1HPAFH@Z@std@@@std@@@std@@@1@V?$_Tree_const_iterator@V?$_Tree_val@U?$_Tree_simple_types@U?$pair@$$CBV?$tuple@HHHW4arch_t@@@std@@P6AXPAHHPBE1HPAFH@Z@std@@@std@@@std@@@1@AAU?$pair@$$CBV?$tuple@HHHW4arch_t@@@std@@P6AXPAHHPBE1HPAFH@Z@1@PAU?$_Tree_node@U?$pair@$$CBV?$tuple@HHHW4arch_t@@@std@@P6AXPAHHPBE1HPAFH@Z@std@@PAX@1@@Z DD 0ffffffffH
	DD	00H
	DD	0ffffffffH
	DD	00H
__tryblocktable$??$_Insert_hint@AAU?$pair@$$CBV?$tuple@HHHW4arch_t@@@std@@P6AXPAHHPBE1HPAFH@Z@std@@PAU?$_Tree_node@U?$pair@$$CBV?$tuple@HHHW4arch_t@@@std@@P6AXPAHHPBE1HPAFH@Z@std@@PAX@2@@?$_Tree@V?$_Tmap_traits@V?$tuple@HHHW4arch_t@@@std@@P6AXPAHHPBE1HPAFH@ZU?$less@V?$tuple@HHHW4arch_t@@@std@@@2@V?$allocator@U?$pair@$$CBV?$tuple@HHHW4arch_t@@@std@@P6AXPAHHPBE1HPAFH@Z@std@@@2@$0A@@std@@@std@@IAE?AV?$_Tree_iterator@V?$_Tree_val@U?$_Tree_simple_types@U?$pair@$$CBV?$tuple@HHHW4arch_t@@@std@@P6AXPAHHPBE1HPAFH@Z@std@@@std@@@std@@@1@V?$_Tree_const_iterator@V?$_Tree_val@U?$_Tree_simple_types@U?$pair@$$CBV?$tuple@HHHW4arch_t@@@std@@P6AXPAHHPBE1HPAFH@Z@std@@@std@@@std@@@1@AAU?$pair@$$CBV?$tuple@HHHW4arch_t@@@std@@P6AXPAHHPBE1HPAFH@Z@1@PAU?$_Tree_node@U?$pair@$$CBV?$tuple@HHHW4arch_t@@@std@@P6AXPAHHPBE1HPAFH@Z@std@@PAX@1@@Z DD 00H
	DD	00H
	DD	01H
	DD	01H
	DD	FLAT:__catchsym$??$_Insert_hint@AAU?$pair@$$CBV?$tuple@HHHW4arch_t@@@std@@P6AXPAHHPBE1HPAFH@Z@std@@PAU?$_Tree_node@U?$pair@$$CBV?$tuple@HHHW4arch_t@@@std@@P6AXPAHHPBE1HPAFH@Z@std@@PAX@2@@?$_Tree@V?$_Tmap_traits@V?$tuple@HHHW4arch_t@@@std@@P6AXPAHHPBE1HPAFH@ZU?$less@V?$tuple@HHHW4arch_t@@@std@@@2@V?$allocator@U?$pair@$$CBV?$tuple@HHHW4arch_t@@@std@@P6AXPAHHPBE1HPAFH@Z@std@@@2@$0A@@std@@@std@@IAE?AV?$_Tree_iterator@V?$_Tree_val@U?$_Tree_simple_types@U?$pair@$$CBV?$tuple@HHHW4arch_t@@@std@@P6AXPAHHPBE1HPAFH@Z@std@@@std@@@std@@@1@V?$_Tree_const_iterator@V?$_Tree_val@U?$_Tree_simple_types@U?$pair@$$CBV?$tuple@HHHW4arch_t@@@std@@P6AXPAHHPBE1HPAFH@Z@std@@@std@@@std@@@1@AAU?$pair@$$CBV?$tuple@HHHW4arch_t@@@std@@P6AXPAHHPBE1HPAFH@Z@1@PAU?$_Tree_node@U?$pair@$$CBV?$tuple@HHHW4arch_t@@@std@@P6AXPAHHPBE1HPAFH@Z@std@@PAX@1@@Z$120
__catchsym$??$_Insert_hint@AAU?$pair@$$CBV?$tuple@HHHW4arch_t@@@std@@P6AXPAHHPBE1HPAFH@Z@std@@PAU?$_Tree_node@U?$pair@$$CBV?$tuple@HHHW4arch_t@@@std@@P6AXPAHHPBE1HPAFH@Z@std@@PAX@2@@?$_Tree@V?$_Tmap_traits@V?$tuple@HHHW4arch_t@@@std@@P6AXPAHHPBE1HPAFH@ZU?$less@V?$tuple@HHHW4arch_t@@@std@@@2@V?$allocator@U?$pair@$$CBV?$tuple@HHHW4arch_t@@@std@@P6AXPAHHPBE1HPAFH@Z@std@@@2@$0A@@std@@@std@@IAE?AV?$_Tree_iterator@V?$_Tree_val@U?$_Tree_simple_types@U?$pair@$$CBV?$tuple@HHHW4arch_t@@@std@@P6AXPAHHPBE1HPAFH@Z@std@@@std@@@std@@@1@V?$_Tree_const_iterator@V?$_Tree_val@U?$_Tree_simple_types@U?$pair@$$CBV?$tuple@HHHW4arch_t@@@std@@P6AXPAHHPBE1HPAFH@Z@std@@@std@@@std@@@1@AAU?$pair@$$CBV?$tuple@HHHW4arch_t@@@std@@P6AXPAHHPBE1HPAFH@Z@1@PAU?$_Tree_node@U?$pair@$$CBV?$tuple@HHHW4arch_t@@@std@@P6AXPAHHPBE1HPAFH@Z@std@@PAX@1@@Z$120 DD 040H
	DD	00H
	DD	00H
	DD	FLAT:__catch$??$_Insert_hint@AAU?$pair@$$CBV?$tuple@HHHW4arch_t@@@std@@P6AXPAHHPBE1HPAFH@Z@std@@PAU?$_Tree_node@U?$pair@$$CBV?$tuple@HHHW4arch_t@@@std@@P6AXPAHHPBE1HPAFH@Z@std@@PAX@2@@?$_Tree@V?$_Tmap_traits@V?$tuple@HHHW4arch_t@@@std@@P6AXPAHHPBE1HPAFH@ZU?$less@V?$tuple@HHHW4arch_t@@@std@@@2@V?$allocator@U?$pair@$$CBV?$tuple@HHHW4arch_t@@@std@@P6AXPAHHPBE1HPAFH@Z@std@@@2@$0A@@std@@@std@@IAE?AV?$_Tree_iterator@V?$_Tree_val@U?$_Tree_simple_types@U?$pair@$$CBV?$tuple@HHHW4arch_t@@@std@@P6AXPAHHPBE1HPAFH@Z@std@@@std@@@std@@@1@V?$_Tree_const_iterator@V?$_Tree_val@U?$_Tree_simple_types@U?$pair@$$CBV?$tuple@HHHW4arch_t@@@std@@P6AXPAHHPBE1HPAFH@Z@std@@@std@@@std@@@1@AAU?$pair@$$CBV?$tuple@HHHW4arch_t@@@std@@P6AXPAHHPBE1HPAFH@Z@1@PAU?$_Tree_node@U?$pair@$$CBV?$tuple@HHHW4arch_t@@@std@@P6AXPAHHPBE1HPAFH@Z@std@@PAX@1@@Z$0
xdata$x	ENDS
;	COMDAT xdata$x
xdata$x	SEGMENT
__ehfuncinfo$??$_Insert_hint@AAU?$pair@$$CBV?$tuple@HHHW4arch_t@@@std@@P6AXPAGHPBEHPAFH@Z@std@@PAU?$_Tree_node@U?$pair@$$CBV?$tuple@HHHW4arch_t@@@std@@P6AXPAGHPBEHPAFH@Z@std@@PAX@2@@?$_Tree@V?$_Tmap_traits@V?$tuple@HHHW4arch_t@@@std@@P6AXPAGHPBEHPAFH@ZU?$less@V?$tuple@HHHW4arch_t@@@std@@@2@V?$allocator@U?$pair@$$CBV?$tuple@HHHW4arch_t@@@std@@P6AXPAGHPBEHPAFH@Z@std@@@2@$0A@@std@@@std@@IAE?AV?$_Tree_iterator@V?$_Tree_val@U?$_Tree_simple_types@U?$pair@$$CBV?$tuple@HHHW4arch_t@@@std@@P6AXPAGHPBEHPAFH@Z@std@@@std@@@std@@@1@V?$_Tree_const_iterator@V?$_Tree_val@U?$_Tree_simple_types@U?$pair@$$CBV?$tuple@HHHW4arch_t@@@std@@P6AXPAGHPBEHPAFH@Z@std@@@std@@@std@@@1@AAU?$pair@$$CBV?$tuple@HHHW4arch_t@@@std@@P6AXPAGHPBEHPAFH@Z@1@PAU?$_Tree_node@U?$pair@$$CBV?$tuple@HHHW4arch_t@@@std@@P6AXPAGHPBEHPAFH@Z@std@@PAX@1@@Z DD 019930522H
	DD	02H
	DD	FLAT:__unwindtable$??$_Insert_hint@AAU?$pair@$$CBV?$tuple@HHHW4arch_t@@@std@@P6AXPAGHPBEHPAFH@Z@std@@PAU?$_Tree_node@U?$pair@$$CBV?$tuple@HHHW4arch_t@@@std@@P6AXPAGHPBEHPAFH@Z@std@@PAX@2@@?$_Tree@V?$_Tmap_traits@V?$tuple@HHHW4arch_t@@@std@@P6AXPAGHPBEHPAFH@ZU?$less@V?$tuple@HHHW4arch_t@@@std@@@2@V?$allocator@U?$pair@$$CBV?$tuple@HHHW4arch_t@@@std@@P6AXPAGHPBEHPAFH@Z@std@@@2@$0A@@std@@@std@@IAE?AV?$_Tree_iterator@V?$_Tree_val@U?$_Tree_simple_types@U?$pair@$$CBV?$tuple@HHHW4arch_t@@@std@@P6AXPAGHPBEHPAFH@Z@std@@@std@@@std@@@1@V?$_Tree_const_iterator@V?$_Tree_val@U?$_Tree_simple_types@U?$pair@$$CBV?$tuple@HHHW4arch_t@@@std@@P6AXPAGHPBEHPAFH@Z@std@@@std@@@std@@@1@AAU?$pair@$$CBV?$tuple@HHHW4arch_t@@@std@@P6AXPAGHPBEHPAFH@Z@1@PAU?$_Tree_node@U?$pair@$$CBV?$tuple@HHHW4arch_t@@@std@@P6AXPAGHPBEHPAFH@Z@std@@PAX@1@@Z
	DD	01H
	DD	FLAT:__tryblocktable$??$_Insert_hint@AAU?$pair@$$CBV?$tuple@HHHW4arch_t@@@std@@P6AXPAGHPBEHPAFH@Z@std@@PAU?$_Tree_node@U?$pair@$$CBV?$tuple@HHHW4arch_t@@@std@@P6AXPAGHPBEHPAFH@Z@std@@PAX@2@@?$_Tree@V?$_Tmap_traits@V?$tuple@HHHW4arch_t@@@std@@P6AXPAGHPBEHPAFH@ZU?$less@V?$tuple@HHHW4arch_t@@@std@@@2@V?$allocator@U?$pair@$$CBV?$tuple@HHHW4arch_t@@@std@@P6AXPAGHPBEHPAFH@Z@std@@@2@$0A@@std@@@std@@IAE?AV?$_Tree_iterator@V?$_Tree_val@U?$_Tree_simple_types@U?$pair@$$CBV?$tuple@HHHW4arch_t@@@std@@P6AXPAGHPBEHPAFH@Z@std@@@std@@@std@@@1@V?$_Tree_const_iterator@V?$_Tree_val@U?$_Tree_simple_types@U?$pair@$$CBV?$tuple@HHHW4arch_t@@@std@@P6AXPAGHPBEHPAFH@Z@std@@@std@@@std@@@1@AAU?$pair@$$CBV?$tuple@HHHW4arch_t@@@std@@P6AXPAGHPBEHPAFH@Z@1@PAU?$_Tree_node@U?$pair@$$CBV?$tuple@HHHW4arch_t@@@std@@P6AXPAGHPBEHPAFH@Z@std@@PAX@1@@Z
	DD	2 DUP(00H)
	DD	00H
	DD	01H
__unwindtable$??$_Insert_hint@AAU?$pair@$$CBV?$tuple@HHHW4arch_t@@@std@@P6AXPAGHPBEHPAFH@Z@std@@PAU?$_Tree_node@U?$pair@$$CBV?$tuple@HHHW4arch_t@@@std@@P6AXPAGHPBEHPAFH@Z@std@@PAX@2@@?$_Tree@V?$_Tmap_traits@V?$tuple@HHHW4arch_t@@@std@@P6AXPAGHPBEHPAFH@ZU?$less@V?$tuple@HHHW4arch_t@@@std@@@2@V?$allocator@U?$pair@$$CBV?$tuple@HHHW4arch_t@@@std@@P6AXPAGHPBEHPAFH@Z@std@@@2@$0A@@std@@@std@@IAE?AV?$_Tree_iterator@V?$_Tree_val@U?$_Tree_simple_types@U?$pair@$$CBV?$tuple@HHHW4arch_t@@@std@@P6AXPAGHPBEHPAFH@Z@std@@@std@@@std@@@1@V?$_Tree_const_iterator@V?$_Tree_val@U?$_Tree_simple_types@U?$pair@$$CBV?$tuple@HHHW4arch_t@@@std@@P6AXPAGHPBEHPAFH@Z@std@@@std@@@std@@@1@AAU?$pair@$$CBV?$tuple@HHHW4arch_t@@@std@@P6AXPAGHPBEHPAFH@Z@1@PAU?$_Tree_node@U?$pair@$$CBV?$tuple@HHHW4arch_t@@@std@@P6AXPAGHPBEHPAFH@Z@std@@PAX@1@@Z DD 0ffffffffH
	DD	00H
	DD	0ffffffffH
	DD	00H
__tryblocktable$??$_Insert_hint@AAU?$pair@$$CBV?$tuple@HHHW4arch_t@@@std@@P6AXPAGHPBEHPAFH@Z@std@@PAU?$_Tree_node@U?$pair@$$CBV?$tuple@HHHW4arch_t@@@std@@P6AXPAGHPBEHPAFH@Z@std@@PAX@2@@?$_Tree@V?$_Tmap_traits@V?$tuple@HHHW4arch_t@@@std@@P6AXPAGHPBEHPAFH@ZU?$less@V?$tuple@HHHW4arch_t@@@std@@@2@V?$allocator@U?$pair@$$CBV?$tuple@HHHW4arch_t@@@std@@P6AXPAGHPBEHPAFH@Z@std@@@2@$0A@@std@@@std@@IAE?AV?$_Tree_iterator@V?$_Tree_val@U?$_Tree_simple_types@U?$pair@$$CBV?$tuple@HHHW4arch_t@@@std@@P6AXPAGHPBEHPAFH@Z@std@@@std@@@std@@@1@V?$_Tree_const_iterator@V?$_Tree_val@U?$_Tree_simple_types@U?$pair@$$CBV?$tuple@HHHW4arch_t@@@std@@P6AXPAGHPBEHPAFH@Z@std@@@std@@@std@@@1@AAU?$pair@$$CBV?$tuple@HHHW4arch_t@@@std@@P6AXPAGHPBEHPAFH@Z@1@PAU?$_Tree_node@U?$pair@$$CBV?$tuple@HHHW4arch_t@@@std@@P6AXPAGHPBEHPAFH@Z@std@@PAX@1@@Z DD 00H
	DD	00H
	DD	01H
	DD	01H
	DD	FLAT:__catchsym$??$_Insert_hint@AAU?$pair@$$CBV?$tuple@HHHW4arch_t@@@std@@P6AXPAGHPBEHPAFH@Z@std@@PAU?$_Tree_node@U?$pair@$$CBV?$tuple@HHHW4arch_t@@@std@@P6AXPAGHPBEHPAFH@Z@std@@PAX@2@@?$_Tree@V?$_Tmap_traits@V?$tuple@HHHW4arch_t@@@std@@P6AXPAGHPBEHPAFH@ZU?$less@V?$tuple@HHHW4arch_t@@@std@@@2@V?$allocator@U?$pair@$$CBV?$tuple@HHHW4arch_t@@@std@@P6AXPAGHPBEHPAFH@Z@std@@@2@$0A@@std@@@std@@IAE?AV?$_Tree_iterator@V?$_Tree_val@U?$_Tree_simple_types@U?$pair@$$CBV?$tuple@HHHW4arch_t@@@std@@P6AXPAGHPBEHPAFH@Z@std@@@std@@@std@@@1@V?$_Tree_const_iterator@V?$_Tree_val@U?$_Tree_simple_types@U?$pair@$$CBV?$tuple@HHHW4arch_t@@@std@@P6AXPAGHPBEHPAFH@Z@std@@@std@@@std@@@1@AAU?$pair@$$CBV?$tuple@HHHW4arch_t@@@std@@P6AXPAGHPBEHPAFH@Z@1@PAU?$_Tree_node@U?$pair@$$CBV?$tuple@HHHW4arch_t@@@std@@P6AXPAGHPBEHPAFH@Z@std@@PAX@1@@Z$120
__catchsym$??$_Insert_hint@AAU?$pair@$$CBV?$tuple@HHHW4arch_t@@@std@@P6AXPAGHPBEHPAFH@Z@std@@PAU?$_Tree_node@U?$pair@$$CBV?$tuple@HHHW4arch_t@@@std@@P6AXPAGHPBEHPAFH@Z@std@@PAX@2@@?$_Tree@V?$_Tmap_traits@V?$tuple@HHHW4arch_t@@@std@@P6AXPAGHPBEHPAFH@ZU?$less@V?$tuple@HHHW4arch_t@@@std@@@2@V?$allocator@U?$pair@$$CBV?$tuple@HHHW4arch_t@@@std@@P6AXPAGHPBEHPAFH@Z@std@@@2@$0A@@std@@@std@@IAE?AV?$_Tree_iterator@V?$_Tree_val@U?$_Tree_simple_types@U?$pair@$$CBV?$tuple@HHHW4arch_t@@@std@@P6AXPAGHPBEHPAFH@Z@std@@@std@@@std@@@1@V?$_Tree_const_iterator@V?$_Tree_val@U?$_Tree_simple_types@U?$pair@$$CBV?$tuple@HHHW4arch_t@@@std@@P6AXPAGHPBEHPAFH@Z@std@@@std@@@std@@@1@AAU?$pair@$$CBV?$tuple@HHHW4arch_t@@@std@@P6AXPAGHPBEHPAFH@Z@1@PAU?$_Tree_node@U?$pair@$$CBV?$tuple@HHHW4arch_t@@@std@@P6AXPAGHPBEHPAFH@Z@std@@PAX@1@@Z$120 DD 040H
	DD	00H
	DD	00H
	DD	FLAT:__catch$??$_Insert_hint@AAU?$pair@$$CBV?$tuple@HHHW4arch_t@@@std@@P6AXPAGHPBEHPAFH@Z@std@@PAU?$_Tree_node@U?$pair@$$CBV?$tuple@HHHW4arch_t@@@std@@P6AXPAGHPBEHPAFH@Z@std@@PAX@2@@?$_Tree@V?$_Tmap_traits@V?$tuple@HHHW4arch_t@@@std@@P6AXPAGHPBEHPAFH@ZU?$less@V?$tuple@HHHW4arch_t@@@std@@@2@V?$allocator@U?$pair@$$CBV?$tuple@HHHW4arch_t@@@std@@P6AXPAGHPBEHPAFH@Z@std@@@2@$0A@@std@@@std@@IAE?AV?$_Tree_iterator@V?$_Tree_val@U?$_Tree_simple_types@U?$pair@$$CBV?$tuple@HHHW4arch_t@@@std@@P6AXPAGHPBEHPAFH@Z@std@@@std@@@std@@@1@V?$_Tree_const_iterator@V?$_Tree_val@U?$_Tree_simple_types@U?$pair@$$CBV?$tuple@HHHW4arch_t@@@std@@P6AXPAGHPBEHPAFH@Z@std@@@std@@@std@@@1@AAU?$pair@$$CBV?$tuple@HHHW4arch_t@@@std@@P6AXPAGHPBEHPAFH@Z@1@PAU?$_Tree_node@U?$pair@$$CBV?$tuple@HHHW4arch_t@@@std@@P6AXPAGHPBEHPAFH@Z@std@@PAX@1@@Z$0
xdata$x	ENDS
;	COMDAT xdata$x
xdata$x	SEGMENT
__ehfuncinfo$??$_Insert_nohint@AAU?$pair@$$CBV?$tuple@HHHW4arch_t@@@std@@P6AXPAHHPBE1HPAFH@Z@std@@PAU?$_Tree_node@U?$pair@$$CBV?$tuple@HHHW4arch_t@@@std@@P6AXPAHHPBE1HPAFH@Z@std@@PAX@2@@?$_Tree@V?$_Tmap_traits@V?$tuple@HHHW4arch_t@@@std@@P6AXPAHHPBE1HPAFH@ZU?$less@V?$tuple@HHHW4arch_t@@@std@@@2@V?$allocator@U?$pair@$$CBV?$tuple@HHHW4arch_t@@@std@@P6AXPAHHPBE1HPAFH@Z@std@@@2@$0A@@std@@@std@@IAE?AU?$pair@V?$_Tree_iterator@V?$_Tree_val@U?$_Tree_simple_types@U?$pair@$$CBV?$tuple@HHHW4arch_t@@@std@@P6AXPAHHPBE1HPAFH@Z@std@@@std@@@std@@@std@@_N@1@_NAAU?$pair@$$CBV?$tuple@HHHW4arch_t@@@std@@P6AXPAHHPBE1HPAFH@Z@1@PAU?$_Tree_node@U?$pair@$$CBV?$tuple@HHHW4arch_t@@@std@@P6AXPAHHPBE1HPAFH@Z@std@@PAX@1@@Z DD 019930522H
	DD	02H
	DD	FLAT:__unwindtable$??$_Insert_nohint@AAU?$pair@$$CBV?$tuple@HHHW4arch_t@@@std@@P6AXPAHHPBE1HPAFH@Z@std@@PAU?$_Tree_node@U?$pair@$$CBV?$tuple@HHHW4arch_t@@@std@@P6AXPAHHPBE1HPAFH@Z@std@@PAX@2@@?$_Tree@V?$_Tmap_traits@V?$tuple@HHHW4arch_t@@@std@@P6AXPAHHPBE1HPAFH@ZU?$less@V?$tuple@HHHW4arch_t@@@std@@@2@V?$allocator@U?$pair@$$CBV?$tuple@HHHW4arch_t@@@std@@P6AXPAHHPBE1HPAFH@Z@std@@@2@$0A@@std@@@std@@IAE?AU?$pair@V?$_Tree_iterator@V?$_Tree_val@U?$_Tree_simple_types@U?$pair@$$CBV?$tuple@HHHW4arch_t@@@std@@P6AXPAHHPBE1HPAFH@Z@std@@@std@@@std@@@std@@_N@1@_NAAU?$pair@$$CBV?$tuple@HHHW4arch_t@@@std@@P6AXPAHHPBE1HPAFH@Z@1@PAU?$_Tree_node@U?$pair@$$CBV?$tuple@HHHW4arch_t@@@std@@P6AXPAHHPBE1HPAFH@Z@std@@PAX@1@@Z
	DD	01H
	DD	FLAT:__tryblocktable$??$_Insert_nohint@AAU?$pair@$$CBV?$tuple@HHHW4arch_t@@@std@@P6AXPAHHPBE1HPAFH@Z@std@@PAU?$_Tree_node@U?$pair@$$CBV?$tuple@HHHW4arch_t@@@std@@P6AXPAHHPBE1HPAFH@Z@std@@PAX@2@@?$_Tree@V?$_Tmap_traits@V?$tuple@HHHW4arch_t@@@std@@P6AXPAHHPBE1HPAFH@ZU?$less@V?$tuple@HHHW4arch_t@@@std@@@2@V?$allocator@U?$pair@$$CBV?$tuple@HHHW4arch_t@@@std@@P6AXPAHHPBE1HPAFH@Z@std@@@2@$0A@@std@@@std@@IAE?AU?$pair@V?$_Tree_iterator@V?$_Tree_val@U?$_Tree_simple_types@U?$pair@$$CBV?$tuple@HHHW4arch_t@@@std@@P6AXPAHHPBE1HPAFH@Z@std@@@std@@@std@@@std@@_N@1@_NAAU?$pair@$$CBV?$tuple@HHHW4arch_t@@@std@@P6AXPAHHPBE1HPAFH@Z@1@PAU?$_Tree_node@U?$pair@$$CBV?$tuple@HHHW4arch_t@@@std@@P6AXPAHHPBE1HPAFH@Z@std@@PAX@1@@Z
	DD	2 DUP(00H)
	DD	00H
	DD	01H
__unwindtable$??$_Insert_nohint@AAU?$pair@$$CBV?$tuple@HHHW4arch_t@@@std@@P6AXPAHHPBE1HPAFH@Z@std@@PAU?$_Tree_node@U?$pair@$$CBV?$tuple@HHHW4arch_t@@@std@@P6AXPAHHPBE1HPAFH@Z@std@@PAX@2@@?$_Tree@V?$_Tmap_traits@V?$tuple@HHHW4arch_t@@@std@@P6AXPAHHPBE1HPAFH@ZU?$less@V?$tuple@HHHW4arch_t@@@std@@@2@V?$allocator@U?$pair@$$CBV?$tuple@HHHW4arch_t@@@std@@P6AXPAHHPBE1HPAFH@Z@std@@@2@$0A@@std@@@std@@IAE?AU?$pair@V?$_Tree_iterator@V?$_Tree_val@U?$_Tree_simple_types@U?$pair@$$CBV?$tuple@HHHW4arch_t@@@std@@P6AXPAHHPBE1HPAFH@Z@std@@@std@@@std@@@std@@_N@1@_NAAU?$pair@$$CBV?$tuple@HHHW4arch_t@@@std@@P6AXPAHHPBE1HPAFH@Z@1@PAU?$_Tree_node@U?$pair@$$CBV?$tuple@HHHW4arch_t@@@std@@P6AXPAHHPBE1HPAFH@Z@std@@PAX@1@@Z DD 0ffffffffH
	DD	00H
	DD	0ffffffffH
	DD	00H
__tryblocktable$??$_Insert_nohint@AAU?$pair@$$CBV?$tuple@HHHW4arch_t@@@std@@P6AXPAHHPBE1HPAFH@Z@std@@PAU?$_Tree_node@U?$pair@$$CBV?$tuple@HHHW4arch_t@@@std@@P6AXPAHHPBE1HPAFH@Z@std@@PAX@2@@?$_Tree@V?$_Tmap_traits@V?$tuple@HHHW4arch_t@@@std@@P6AXPAHHPBE1HPAFH@ZU?$less@V?$tuple@HHHW4arch_t@@@std@@@2@V?$allocator@U?$pair@$$CBV?$tuple@HHHW4arch_t@@@std@@P6AXPAHHPBE1HPAFH@Z@std@@@2@$0A@@std@@@std@@IAE?AU?$pair@V?$_Tree_iterator@V?$_Tree_val@U?$_Tree_simple_types@U?$pair@$$CBV?$tuple@HHHW4arch_t@@@std@@P6AXPAHHPBE1HPAFH@Z@std@@@std@@@std@@@std@@_N@1@_NAAU?$pair@$$CBV?$tuple@HHHW4arch_t@@@std@@P6AXPAHHPBE1HPAFH@Z@1@PAU?$_Tree_node@U?$pair@$$CBV?$tuple@HHHW4arch_t@@@std@@P6AXPAHHPBE1HPAFH@Z@std@@PAX@1@@Z DD 00H
	DD	00H
	DD	01H
	DD	01H
	DD	FLAT:__catchsym$??$_Insert_nohint@AAU?$pair@$$CBV?$tuple@HHHW4arch_t@@@std@@P6AXPAHHPBE1HPAFH@Z@std@@PAU?$_Tree_node@U?$pair@$$CBV?$tuple@HHHW4arch_t@@@std@@P6AXPAHHPBE1HPAFH@Z@std@@PAX@2@@?$_Tree@V?$_Tmap_traits@V?$tuple@HHHW4arch_t@@@std@@P6AXPAHHPBE1HPAFH@ZU?$less@V?$tuple@HHHW4arch_t@@@std@@@2@V?$allocator@U?$pair@$$CBV?$tuple@HHHW4arch_t@@@std@@P6AXPAHHPBE1HPAFH@Z@std@@@2@$0A@@std@@@std@@IAE?AU?$pair@V?$_Tree_iterator@V?$_Tree_val@U?$_Tree_simple_types@U?$pair@$$CBV?$tuple@HHHW4arch_t@@@std@@P6AXPAHHPBE1HPAFH@Z@std@@@std@@@std@@@std@@_N@1@_NAAU?$pair@$$CBV?$tuple@HHHW4arch_t@@@std@@P6AXPAHHPBE1HPAFH@Z@1@PAU?$_Tree_node@U?$pair@$$CBV?$tuple@HHHW4arch_t@@@std@@P6AXPAHHPBE1HPAFH@Z@std@@PAX@1@@Z$71
__catchsym$??$_Insert_nohint@AAU?$pair@$$CBV?$tuple@HHHW4arch_t@@@std@@P6AXPAHHPBE1HPAFH@Z@std@@PAU?$_Tree_node@U?$pair@$$CBV?$tuple@HHHW4arch_t@@@std@@P6AXPAHHPBE1HPAFH@Z@std@@PAX@2@@?$_Tree@V?$_Tmap_traits@V?$tuple@HHHW4arch_t@@@std@@P6AXPAHHPBE1HPAFH@ZU?$less@V?$tuple@HHHW4arch_t@@@std@@@2@V?$allocator@U?$pair@$$CBV?$tuple@HHHW4arch_t@@@std@@P6AXPAHHPBE1HPAFH@Z@std@@@2@$0A@@std@@@std@@IAE?AU?$pair@V?$_Tree_iterator@V?$_Tree_val@U?$_Tree_simple_types@U?$pair@$$CBV?$tuple@HHHW4arch_t@@@std@@P6AXPAHHPBE1HPAFH@Z@std@@@std@@@std@@@std@@_N@1@_NAAU?$pair@$$CBV?$tuple@HHHW4arch_t@@@std@@P6AXPAHHPBE1HPAFH@Z@1@PAU?$_Tree_node@U?$pair@$$CBV?$tuple@HHHW4arch_t@@@std@@P6AXPAHHPBE1HPAFH@Z@std@@PAX@1@@Z$71 DD 040H
	DD	00H
	DD	00H
	DD	FLAT:__catch$??$_Insert_nohint@AAU?$pair@$$CBV?$tuple@HHHW4arch_t@@@std@@P6AXPAHHPBE1HPAFH@Z@std@@PAU?$_Tree_node@U?$pair@$$CBV?$tuple@HHHW4arch_t@@@std@@P6AXPAHHPBE1HPAFH@Z@std@@PAX@2@@?$_Tree@V?$_Tmap_traits@V?$tuple@HHHW4arch_t@@@std@@P6AXPAHHPBE1HPAFH@ZU?$less@V?$tuple@HHHW4arch_t@@@std@@@2@V?$allocator@U?$pair@$$CBV?$tuple@HHHW4arch_t@@@std@@P6AXPAHHPBE1HPAFH@Z@std@@@2@$0A@@std@@@std@@IAE?AU?$pair@V?$_Tree_iterator@V?$_Tree_val@U?$_Tree_simple_types@U?$pair@$$CBV?$tuple@HHHW4arch_t@@@std@@P6AXPAHHPBE1HPAFH@Z@std@@@std@@@std@@@std@@_N@1@_NAAU?$pair@$$CBV?$tuple@HHHW4arch_t@@@std@@P6AXPAHHPBE1HPAFH@Z@1@PAU?$_Tree_node@U?$pair@$$CBV?$tuple@HHHW4arch_t@@@std@@P6AXPAHHPBE1HPAFH@Z@std@@PAX@1@@Z$0
xdata$x	ENDS
;	COMDAT xdata$x
xdata$x	SEGMENT
__ehfuncinfo$??$_Insert_nohint@AAU?$pair@$$CBV?$tuple@HHHW4arch_t@@@std@@P6AXPAGHPBEHPAFH@Z@std@@PAU?$_Tree_node@U?$pair@$$CBV?$tuple@HHHW4arch_t@@@std@@P6AXPAGHPBEHPAFH@Z@std@@PAX@2@@?$_Tree@V?$_Tmap_traits@V?$tuple@HHHW4arch_t@@@std@@P6AXPAGHPBEHPAFH@ZU?$less@V?$tuple@HHHW4arch_t@@@std@@@2@V?$allocator@U?$pair@$$CBV?$tuple@HHHW4arch_t@@@std@@P6AXPAGHPBEHPAFH@Z@std@@@2@$0A@@std@@@std@@IAE?AU?$pair@V?$_Tree_iterator@V?$_Tree_val@U?$_Tree_simple_types@U?$pair@$$CBV?$tuple@HHHW4arch_t@@@std@@P6AXPAGHPBEHPAFH@Z@std@@@std@@@std@@@std@@_N@1@_NAAU?$pair@$$CBV?$tuple@HHHW4arch_t@@@std@@P6AXPAGHPBEHPAFH@Z@1@PAU?$_Tree_node@U?$pair@$$CBV?$tuple@HHHW4arch_t@@@std@@P6AXPAGHPBEHPAFH@Z@std@@PAX@1@@Z DD 019930522H
	DD	02H
	DD	FLAT:__unwindtable$??$_Insert_nohint@AAU?$pair@$$CBV?$tuple@HHHW4arch_t@@@std@@P6AXPAGHPBEHPAFH@Z@std@@PAU?$_Tree_node@U?$pair@$$CBV?$tuple@HHHW4arch_t@@@std@@P6AXPAGHPBEHPAFH@Z@std@@PAX@2@@?$_Tree@V?$_Tmap_traits@V?$tuple@HHHW4arch_t@@@std@@P6AXPAGHPBEHPAFH@ZU?$less@V?$tuple@HHHW4arch_t@@@std@@@2@V?$allocator@U?$pair@$$CBV?$tuple@HHHW4arch_t@@@std@@P6AXPAGHPBEHPAFH@Z@std@@@2@$0A@@std@@@std@@IAE?AU?$pair@V?$_Tree_iterator@V?$_Tree_val@U?$_Tree_simple_types@U?$pair@$$CBV?$tuple@HHHW4arch_t@@@std@@P6AXPAGHPBEHPAFH@Z@std@@@std@@@std@@@std@@_N@1@_NAAU?$pair@$$CBV?$tuple@HHHW4arch_t@@@std@@P6AXPAGHPBEHPAFH@Z@1@PAU?$_Tree_node@U?$pair@$$CBV?$tuple@HHHW4arch_t@@@std@@P6AXPAGHPBEHPAFH@Z@std@@PAX@1@@Z
	DD	01H
	DD	FLAT:__tryblocktable$??$_Insert_nohint@AAU?$pair@$$CBV?$tuple@HHHW4arch_t@@@std@@P6AXPAGHPBEHPAFH@Z@std@@PAU?$_Tree_node@U?$pair@$$CBV?$tuple@HHHW4arch_t@@@std@@P6AXPAGHPBEHPAFH@Z@std@@PAX@2@@?$_Tree@V?$_Tmap_traits@V?$tuple@HHHW4arch_t@@@std@@P6AXPAGHPBEHPAFH@ZU?$less@V?$tuple@HHHW4arch_t@@@std@@@2@V?$allocator@U?$pair@$$CBV?$tuple@HHHW4arch_t@@@std@@P6AXPAGHPBEHPAFH@Z@std@@@2@$0A@@std@@@std@@IAE?AU?$pair@V?$_Tree_iterator@V?$_Tree_val@U?$_Tree_simple_types@U?$pair@$$CBV?$tuple@HHHW4arch_t@@@std@@P6AXPAGHPBEHPAFH@Z@std@@@std@@@std@@@std@@_N@1@_NAAU?$pair@$$CBV?$tuple@HHHW4arch_t@@@std@@P6AXPAGHPBEHPAFH@Z@1@PAU?$_Tree_node@U?$pair@$$CBV?$tuple@HHHW4arch_t@@@std@@P6AXPAGHPBEHPAFH@Z@std@@PAX@1@@Z
	DD	2 DUP(00H)
	DD	00H
	DD	01H
__unwindtable$??$_Insert_nohint@AAU?$pair@$$CBV?$tuple@HHHW4arch_t@@@std@@P6AXPAGHPBEHPAFH@Z@std@@PAU?$_Tree_node@U?$pair@$$CBV?$tuple@HHHW4arch_t@@@std@@P6AXPAGHPBEHPAFH@Z@std@@PAX@2@@?$_Tree@V?$_Tmap_traits@V?$tuple@HHHW4arch_t@@@std@@P6AXPAGHPBEHPAFH@ZU?$less@V?$tuple@HHHW4arch_t@@@std@@@2@V?$allocator@U?$pair@$$CBV?$tuple@HHHW4arch_t@@@std@@P6AXPAGHPBEHPAFH@Z@std@@@2@$0A@@std@@@std@@IAE?AU?$pair@V?$_Tree_iterator@V?$_Tree_val@U?$_Tree_simple_types@U?$pair@$$CBV?$tuple@HHHW4arch_t@@@std@@P6AXPAGHPBEHPAFH@Z@std@@@std@@@std@@@std@@_N@1@_NAAU?$pair@$$CBV?$tuple@HHHW4arch_t@@@std@@P6AXPAGHPBEHPAFH@Z@1@PAU?$_Tree_node@U?$pair@$$CBV?$tuple@HHHW4arch_t@@@std@@P6AXPAGHPBEHPAFH@Z@std@@PAX@1@@Z DD 0ffffffffH
	DD	00H
	DD	0ffffffffH
	DD	00H
__tryblocktable$??$_Insert_nohint@AAU?$pair@$$CBV?$tuple@HHHW4arch_t@@@std@@P6AXPAGHPBEHPAFH@Z@std@@PAU?$_Tree_node@U?$pair@$$CBV?$tuple@HHHW4arch_t@@@std@@P6AXPAGHPBEHPAFH@Z@std@@PAX@2@@?$_Tree@V?$_Tmap_traits@V?$tuple@HHHW4arch_t@@@std@@P6AXPAGHPBEHPAFH@ZU?$less@V?$tuple@HHHW4arch_t@@@std@@@2@V?$allocator@U?$pair@$$CBV?$tuple@HHHW4arch_t@@@std@@P6AXPAGHPBEHPAFH@Z@std@@@2@$0A@@std@@@std@@IAE?AU?$pair@V?$_Tree_iterator@V?$_Tree_val@U?$_Tree_simple_types@U?$pair@$$CBV?$tuple@HHHW4arch_t@@@std@@P6AXPAGHPBEHPAFH@Z@std@@@std@@@std@@@std@@_N@1@_NAAU?$pair@$$CBV?$tuple@HHHW4arch_t@@@std@@P6AXPAGHPBEHPAFH@Z@1@PAU?$_Tree_node@U?$pair@$$CBV?$tuple@HHHW4arch_t@@@std@@P6AXPAGHPBEHPAFH@Z@std@@PAX@1@@Z DD 00H
	DD	00H
	DD	01H
	DD	01H
	DD	FLAT:__catchsym$??$_Insert_nohint@AAU?$pair@$$CBV?$tuple@HHHW4arch_t@@@std@@P6AXPAGHPBEHPAFH@Z@std@@PAU?$_Tree_node@U?$pair@$$CBV?$tuple@HHHW4arch_t@@@std@@P6AXPAGHPBEHPAFH@Z@std@@PAX@2@@?$_Tree@V?$_Tmap_traits@V?$tuple@HHHW4arch_t@@@std@@P6AXPAGHPBEHPAFH@ZU?$less@V?$tuple@HHHW4arch_t@@@std@@@2@V?$allocator@U?$pair@$$CBV?$tuple@HHHW4arch_t@@@std@@P6AXPAGHPBEHPAFH@Z@std@@@2@$0A@@std@@@std@@IAE?AU?$pair@V?$_Tree_iterator@V?$_Tree_val@U?$_Tree_simple_types@U?$pair@$$CBV?$tuple@HHHW4arch_t@@@std@@P6AXPAGHPBEHPAFH@Z@std@@@std@@@std@@@std@@_N@1@_NAAU?$pair@$$CBV?$tuple@HHHW4arch_t@@@std@@P6AXPAGHPBEHPAFH@Z@1@PAU?$_Tree_node@U?$pair@$$CBV?$tuple@HHHW4arch_t@@@std@@P6AXPAGHPBEHPAFH@Z@std@@PAX@1@@Z$71
__catchsym$??$_Insert_nohint@AAU?$pair@$$CBV?$tuple@HHHW4arch_t@@@std@@P6AXPAGHPBEHPAFH@Z@std@@PAU?$_Tree_node@U?$pair@$$CBV?$tuple@HHHW4arch_t@@@std@@P6AXPAGHPBEHPAFH@Z@std@@PAX@2@@?$_Tree@V?$_Tmap_traits@V?$tuple@HHHW4arch_t@@@std@@P6AXPAGHPBEHPAFH@ZU?$less@V?$tuple@HHHW4arch_t@@@std@@@2@V?$allocator@U?$pair@$$CBV?$tuple@HHHW4arch_t@@@std@@P6AXPAGHPBEHPAFH@Z@std@@@2@$0A@@std@@@std@@IAE?AU?$pair@V?$_Tree_iterator@V?$_Tree_val@U?$_Tree_simple_types@U?$pair@$$CBV?$tuple@HHHW4arch_t@@@std@@P6AXPAGHPBEHPAFH@Z@std@@@std@@@std@@@std@@_N@1@_NAAU?$pair@$$CBV?$tuple@HHHW4arch_t@@@std@@P6AXPAGHPBEHPAFH@Z@1@PAU?$_Tree_node@U?$pair@$$CBV?$tuple@HHHW4arch_t@@@std@@P6AXPAGHPBEHPAFH@Z@std@@PAX@1@@Z$71 DD 040H
	DD	00H
	DD	00H
	DD	FLAT:__catch$??$_Insert_nohint@AAU?$pair@$$CBV?$tuple@HHHW4arch_t@@@std@@P6AXPAGHPBEHPAFH@Z@std@@PAU?$_Tree_node@U?$pair@$$CBV?$tuple@HHHW4arch_t@@@std@@P6AXPAGHPBEHPAFH@Z@std@@PAX@2@@?$_Tree@V?$_Tmap_traits@V?$tuple@HHHW4arch_t@@@std@@P6AXPAGHPBEHPAFH@ZU?$less@V?$tuple@HHHW4arch_t@@@std@@@2@V?$allocator@U?$pair@$$CBV?$tuple@HHHW4arch_t@@@std@@P6AXPAGHPBEHPAFH@Z@std@@@2@$0A@@std@@@std@@IAE?AU?$pair@V?$_Tree_iterator@V?$_Tree_val@U?$_Tree_simple_types@U?$pair@$$CBV?$tuple@HHHW4arch_t@@@std@@P6AXPAGHPBEHPAFH@Z@std@@@std@@@std@@@std@@_N@1@_NAAU?$pair@$$CBV?$tuple@HHHW4arch_t@@@std@@P6AXPAGHPBEHPAFH@Z@1@PAU?$_Tree_node@U?$pair@$$CBV?$tuple@HHHW4arch_t@@@std@@P6AXPAGHPBEHPAFH@Z@std@@PAX@1@@Z$0
; Function compile flags: /Ogtpy
; File c:\github\mvtools\sources\overlap.cpp
; File c:\program files (x86)\windows kits\10\include\10.0.10240.0\ucrt\math.h
; File c:\github\mvtools\sources\overlap.cpp
; File c:\program files (x86)\windows kits\10\include\10.0.10240.0\ucrt\math.h
; File c:\github\mvtools\sources\overlap.cpp
; File c:\program files (x86)\windows kits\10\include\10.0.10240.0\ucrt\math.h
; File c:\github\mvtools\sources\overlap.cpp
; File c:\program files (x86)\windows kits\10\include\10.0.10240.0\ucrt\math.h
; File c:\github\mvtools\sources\overlap.cpp
;	COMDAT ??0OverlapWindows@@QAE@HHHH@Z
_TEXT	SEGMENT
_winOverUVBR$1$ = -72					; size = 4
_winOverUVTL$1$ = -68					; size = 4
_winOverUVTR$1$ = -64					; size = 4
_winOverUVML$1$ = -60					; size = 4
_winOverUVMM$1$ = -56					; size = 4
_winOverUVMR$1$ = -52					; size = 4
_winOverUVBL$1$ = -48					; size = 4
_winOverUVBM$1$ = -44					; size = 4
_winOverUVTM$1$ = -40					; size = 4
tv1564 = -36						; size = 4
tv1563 = -32						; size = 4
tv1562 = -28						; size = 4
tv1561 = -24						; size = 4
tv1560 = -20						; size = 4
tv1559 = -16						; size = 4
tv1558 = -12						; size = 4
tv1557 = -8						; size = 4
tv1556 = -4						; size = 4
__nx$ = 8						; size = 4
__ny$ = 12						; size = 4
__ox$ = 16						; size = 4
__oy$ = 20						; size = 4
??0OverlapWindows@@QAE@HHHH@Z PROC			; OverlapWindows::OverlapWindows, COMDAT
; _this$ = ecx

; 39   : {

	push	ebp
	mov	ebp, esp
	and	esp, -8					; fffffff8H

; 40   : 	nx = _nx;
; 41   : 	ny = _ny;

	mov	edx, DWORD PTR __ny$[ebp]
	sub	esp, 76					; 0000004cH

; 42   : 	ox = _ox;

	mov	eax, DWORD PTR __ox$[ebp]
	push	ebx
	push	esi
	mov	esi, DWORD PTR __nx$[ebp]

; 43   : 	oy = _oy;
; 44   : 	size = nx*ny;
; 45   : 
; 46   : 	   //  windows
; 47   : 	   fWin1UVx = new float[nx];

	mov	ebx, 4
	push	edi
	mov	edi, ecx
	mov	ecx, DWORD PTR __oy$[ebp]
	mov	DWORD PTR [edi+12], ecx
	mov	ecx, esi
	imul	ecx, edx
	mov	DWORD PTR [edi+8], eax
	mov	eax, esi
	mov	DWORD PTR [edi+4], edx
	mov	DWORD PTR [edi], esi
	mov	DWORD PTR [edi+16], ecx
	xor	ecx, ecx
	mul	ebx
	seto	cl
	neg	ecx
	or	ecx, eax
	push	ecx
	call	??_U@YAPAXI@Z				; operator new[]
	mov	DWORD PTR [edi+24], eax

; 48   : 	   fWin1UVxfirst = new float[nx];

	xor	ecx, ecx
	mov	eax, DWORD PTR [edi]
	add	esp, 4
	mul	ebx
	seto	cl
	neg	ecx
	or	ecx, eax
	push	ecx
	call	??_U@YAPAXI@Z				; operator new[]
	mov	DWORD PTR [edi+28], eax

; 49   : 	   fWin1UVxlast = new float[nx];

	xor	ecx, ecx
	mov	eax, DWORD PTR [edi]
	add	esp, 4
	mul	ebx
	seto	cl
	neg	ecx
	or	ecx, eax
	push	ecx
	call	??_U@YAPAXI@Z				; operator new[]

; 50   : 	   for (int i=0; i<ox; i++)

	movss	xmm1, DWORD PTR __real@3f000000
	xor	esi, esi
	movsd	xmm2, QWORD PTR __real@400921fb54442d18
	add	esp, 4
	mov	DWORD PTR [edi+32], eax
	cmp	DWORD PTR [edi+8], esi
	jle	SHORT $LN3@OverlapWin
$LL4@OverlapWin:

; 52   : 			fWin1UVx[i] = float (cos(PI*(i-ox+0.5f)/(ox*2)));

	mov	ecx, DWORD PTR [edi+8]
	mov	eax, esi
	sub	eax, ecx
	movd	xmm0, eax
	lea	eax, DWORD PTR [ecx+ecx]
	cvtdq2ps xmm0, xmm0
	addss	xmm0, xmm1
	movd	xmm1, eax
	cvtdq2pd xmm1, xmm1
	cvtps2pd xmm0, xmm0
	mulsd	xmm0, xmm2
	divsd	xmm0, xmm1
; File c:\program files (x86)\windows kits\10\include\10.0.10240.0\ucrt\math.h

; 813  :     return cos((double)_X);

	call	__libm_sse2_cos_precise
; File c:\github\mvtools\sources\overlap.cpp

; 52   : 			fWin1UVx[i] = float (cos(PI*(i-ox+0.5f)/(ox*2)));

	mov	eax, DWORD PTR [edi+24]
	cvtsd2ss xmm0, xmm0
	movss	xmm1, DWORD PTR __real@3f000000
	movss	DWORD PTR [eax+esi*4], xmm0
	mov	eax, DWORD PTR [edi+24]
	movsd	xmm2, QWORD PTR __real@400921fb54442d18

; 53   : 			fWin1UVx[i] = fWin1UVx[i]*fWin1UVx[i];// left window (rised cosine)

	movss	xmm0, DWORD PTR [eax+esi*4]
	mulss	xmm0, xmm0
	movss	DWORD PTR [eax+esi*4], xmm0

; 54   : 			fWin1UVxfirst[i] = 1; // very first window

	mov	eax, DWORD PTR [edi+28]
	mov	DWORD PTR [eax+esi*4], 1065353216	; 3f800000H

; 55   : 			fWin1UVxlast[i] = fWin1UVx[i]; // very last

	mov	eax, DWORD PTR [edi+24]
	mov	ecx, DWORD PTR [edi+32]
	mov	eax, DWORD PTR [eax+esi*4]
	mov	DWORD PTR [ecx+esi*4], eax
	inc	esi
	cmp	esi, DWORD PTR [edi+8]
	jl	SHORT $LL4@OverlapWin
$LN3@OverlapWin:

; 56   : 	   }
; 57   : 	   for (int i=ox; i<nx-ox; i++)

	mov	ecx, DWORD PTR [edi+8]
	mov	eax, DWORD PTR [edi]
	sub	eax, ecx
	cmp	ecx, eax
	jge	SHORT $LN6@OverlapWin
	npad	11
$LL7@OverlapWin:

; 58   : 	   {
; 59   : 			fWin1UVx[i] = 1;

	mov	eax, DWORD PTR [edi+24]
	mov	DWORD PTR [eax+ecx*4], 1065353216	; 3f800000H

; 60   : 			fWin1UVxfirst[i] = 1; // very first window

	mov	eax, DWORD PTR [edi+28]
	mov	DWORD PTR [eax+ecx*4], 1065353216	; 3f800000H

; 61   : 			fWin1UVxlast[i] = 1; // very last

	mov	eax, DWORD PTR [edi+32]
	mov	DWORD PTR [eax+ecx*4], 1065353216	; 3f800000H
	inc	ecx
	mov	eax, DWORD PTR [edi]
	sub	eax, DWORD PTR [edi+8]
	cmp	ecx, eax
	jl	SHORT $LL7@OverlapWin
$LN6@OverlapWin:

; 62   : 	   }
; 63   : 	   for (int i=nx-ox; i<nx; i++)

	mov	esi, DWORD PTR [edi]
	sub	esi, DWORD PTR [edi+8]
	cmp	esi, DWORD PTR [edi]
	jge	SHORT $LN9@OverlapWin
$LL10@OverlapWin:

; 65   : 			fWin1UVx[i] = float (cos(PI*(i-nx+ox+0.5f)/(ox*2)));

	mov	ecx, DWORD PTR [edi+8]
	mov	eax, ecx
	sub	eax, DWORD PTR [edi]
	add	eax, esi
	movd	xmm0, eax
	lea	eax, DWORD PTR [ecx+ecx]
	cvtdq2ps xmm0, xmm0
	addss	xmm0, xmm1
	movd	xmm1, eax
	cvtdq2pd xmm1, xmm1
	cvtps2pd xmm0, xmm0
	mulsd	xmm0, xmm2
	divsd	xmm0, xmm1
; File c:\program files (x86)\windows kits\10\include\10.0.10240.0\ucrt\math.h

; 813  :     return cos((double)_X);

	call	__libm_sse2_cos_precise
; File c:\github\mvtools\sources\overlap.cpp

; 65   : 			fWin1UVx[i] = float (cos(PI*(i-nx+ox+0.5f)/(ox*2)));

	mov	eax, DWORD PTR [edi+24]
	cvtsd2ss xmm0, xmm0
	movss	xmm1, DWORD PTR __real@3f000000
	movss	DWORD PTR [eax+esi*4], xmm0
	mov	eax, DWORD PTR [edi+24]
	movsd	xmm2, QWORD PTR __real@400921fb54442d18

; 66   : 			fWin1UVx[i] = fWin1UVx[i]*fWin1UVx[i];// right window (falled cosine)

	movss	xmm0, DWORD PTR [eax+esi*4]
	mulss	xmm0, xmm0
	movss	DWORD PTR [eax+esi*4], xmm0

; 67   : 			fWin1UVxfirst[i] = fWin1UVx[i]; // very first window

	mov	eax, DWORD PTR [edi+24]
	mov	ecx, DWORD PTR [edi+28]
	mov	eax, DWORD PTR [eax+esi*4]
	mov	DWORD PTR [ecx+esi*4], eax

; 68   : 			fWin1UVxlast[i] = 1; // very last

	mov	eax, DWORD PTR [edi+32]
	mov	DWORD PTR [eax+esi*4], 1065353216	; 3f800000H
	inc	esi
	cmp	esi, DWORD PTR [edi]
	jl	SHORT $LL10@OverlapWin
$LN9@OverlapWin:

; 69   : 	   }
; 70   : 
; 71   : 	   fWin1UVy = new float[ny];

	mov	eax, DWORD PTR [edi+4]
	xor	ecx, ecx
	mul	ebx
	seto	cl
	neg	ecx
	or	ecx, eax
	push	ecx
	call	??_U@YAPAXI@Z				; operator new[]
	mov	DWORD PTR [edi+36], eax

; 72   : 	   fWin1UVyfirst = new float[ny];

	xor	ecx, ecx
	mov	eax, DWORD PTR [edi+4]
	add	esp, 4
	mul	ebx
	seto	cl
	neg	ecx
	or	ecx, eax
	push	ecx
	call	??_U@YAPAXI@Z				; operator new[]
	mov	DWORD PTR [edi+40], eax

; 73   : 	   fWin1UVylast = new float[ny];

	xor	ecx, ecx
	mov	eax, DWORD PTR [edi+4]
	add	esp, 4
	mul	ebx
	seto	cl
	neg	ecx
	or	ecx, eax
	push	ecx
	call	??_U@YAPAXI@Z				; operator new[]

; 74   : 	   for (int i=0; i<oy; i++)

	xor	esi, esi
	mov	DWORD PTR [edi+44], eax
	add	esp, 4
	cmp	DWORD PTR [edi+12], esi
	jle	SHORT $LN12@OverlapWin
	npad	3
$LL13@OverlapWin:

; 76   : 			fWin1UVy[i] = float (cos(PI*(i-oy+0.5f)/(oy*2)));

	mov	ecx, DWORD PTR [edi+12]
	mov	eax, esi
	sub	eax, ecx
	movd	xmm0, eax
	lea	eax, DWORD PTR [ecx+ecx]
	cvtdq2ps xmm0, xmm0
	movd	xmm1, eax
	addss	xmm0, DWORD PTR __real@3f000000
	cvtdq2pd xmm1, xmm1
	cvtps2pd xmm0, xmm0
	mulsd	xmm0, QWORD PTR __real@400921fb54442d18
	divsd	xmm0, xmm1
; File c:\program files (x86)\windows kits\10\include\10.0.10240.0\ucrt\math.h

; 813  :     return cos((double)_X);

	call	__libm_sse2_cos_precise
; File c:\github\mvtools\sources\overlap.cpp

; 76   : 			fWin1UVy[i] = float (cos(PI*(i-oy+0.5f)/(oy*2)));

	mov	eax, DWORD PTR [edi+36]
	cvtsd2ss xmm0, xmm0
	movss	DWORD PTR [eax+esi*4], xmm0
	mov	eax, DWORD PTR [edi+36]

; 77   : 			fWin1UVy[i] = fWin1UVy[i]*fWin1UVy[i];// left window (rised cosine)

	movss	xmm0, DWORD PTR [eax+esi*4]
	mulss	xmm0, xmm0
	movss	DWORD PTR [eax+esi*4], xmm0

; 78   : 			fWin1UVyfirst[i] = 1; // very first window

	mov	eax, DWORD PTR [edi+40]
	mov	DWORD PTR [eax+esi*4], 1065353216	; 3f800000H

; 79   : 			fWin1UVylast[i] = fWin1UVy[i]; // very last

	mov	eax, DWORD PTR [edi+36]
	mov	ecx, DWORD PTR [edi+44]
	mov	eax, DWORD PTR [eax+esi*4]
	mov	DWORD PTR [ecx+esi*4], eax
	inc	esi
	cmp	esi, DWORD PTR [edi+12]
	jl	SHORT $LL13@OverlapWin
$LN12@OverlapWin:

; 80   : 	   }
; 81   : 	   for (int i=oy; i<ny-oy; i++)

	mov	ecx, DWORD PTR [edi+12]
	mov	eax, DWORD PTR [edi+4]
	sub	eax, ecx
	cmp	ecx, eax
	jge	SHORT $LN15@OverlapWin
	npad	6
$LL16@OverlapWin:

; 82   : 	   {
; 83   : 			fWin1UVy[i] = 1;

	mov	eax, DWORD PTR [edi+36]
	mov	DWORD PTR [eax+ecx*4], 1065353216	; 3f800000H

; 84   : 			fWin1UVyfirst[i] = 1; // very first window

	mov	eax, DWORD PTR [edi+40]
	mov	DWORD PTR [eax+ecx*4], 1065353216	; 3f800000H

; 85   : 			fWin1UVylast[i] = 1; // very last

	mov	eax, DWORD PTR [edi+44]
	mov	DWORD PTR [eax+ecx*4], 1065353216	; 3f800000H
	inc	ecx
	mov	eax, DWORD PTR [edi+4]
	sub	eax, DWORD PTR [edi+12]
	cmp	ecx, eax
	jl	SHORT $LL16@OverlapWin
$LN15@OverlapWin:

; 86   : 	   }
; 87   : 	   for (int i=ny-oy; i<ny; i++)

	mov	esi, DWORD PTR [edi+4]
	sub	esi, DWORD PTR [edi+12]
	cmp	esi, DWORD PTR [edi+4]
	jge	SHORT $LN18@OverlapWin
$LL19@OverlapWin:

; 89   : 			fWin1UVy[i] = float (cos(PI*(i-ny+oy+0.5f)/(oy*2)));

	mov	ecx, DWORD PTR [edi+12]
	mov	eax, ecx
	sub	eax, DWORD PTR [edi+4]
	add	eax, esi
	movd	xmm0, eax
	lea	eax, DWORD PTR [ecx+ecx]
	cvtdq2ps xmm0, xmm0
	movd	xmm1, eax
	addss	xmm0, DWORD PTR __real@3f000000
	cvtdq2pd xmm1, xmm1
	cvtps2pd xmm0, xmm0
	mulsd	xmm0, QWORD PTR __real@400921fb54442d18
	divsd	xmm0, xmm1
; File c:\program files (x86)\windows kits\10\include\10.0.10240.0\ucrt\math.h

; 813  :     return cos((double)_X);

	call	__libm_sse2_cos_precise
; File c:\github\mvtools\sources\overlap.cpp

; 89   : 			fWin1UVy[i] = float (cos(PI*(i-ny+oy+0.5f)/(oy*2)));

	mov	eax, DWORD PTR [edi+36]
	cvtsd2ss xmm0, xmm0
	movss	DWORD PTR [eax+esi*4], xmm0
	mov	eax, DWORD PTR [edi+36]

; 90   : 			fWin1UVy[i] = fWin1UVy[i]*fWin1UVy[i];// right window (falled cosine)

	movss	xmm0, DWORD PTR [eax+esi*4]
	mulss	xmm0, xmm0
	movss	DWORD PTR [eax+esi*4], xmm0

; 91   : 			fWin1UVyfirst[i] = fWin1UVy[i]; // very first window

	mov	eax, DWORD PTR [edi+36]
	mov	ecx, DWORD PTR [edi+40]
	mov	eax, DWORD PTR [eax+esi*4]
	mov	DWORD PTR [ecx+esi*4], eax

; 92   : 			fWin1UVylast[i] = 1; // very last

	mov	eax, DWORD PTR [edi+44]
	mov	DWORD PTR [eax+esi*4], 1065353216	; 3f800000H
	inc	esi
	cmp	esi, DWORD PTR [edi+4]
	jl	SHORT $LL19@OverlapWin
$LN18@OverlapWin:

; 93   : 	   }
; 94   : 
; 95   : 
; 96   : 		Overlap9Windows = new short[size*9];

	mov	eax, DWORD PTR [edi+16]
	xor	ecx, ecx
	mov	edx, 2
	lea	eax, DWORD PTR [eax+eax*8]
	mul	edx
	seto	cl
	neg	ecx
	or	ecx, eax
	push	ecx
	call	??_U@YAPAXI@Z				; operator new[]

; 97   : 
; 98   : 	   short *winOverUVTL = Overlap9Windows;
; 99   : 	   short *winOverUVTM = Overlap9Windows + size;

	mov	ecx, DWORD PTR [edi+16]
	mov	ebx, eax
	mov	DWORD PTR _winOverUVBR$1$[esp+92], ecx

; 100  : 	   short *winOverUVTR = Overlap9Windows + size*2;
; 101  : 	   short *winOverUVML = Overlap9Windows + size*3;
; 102  : 	   short *winOverUVMM = Overlap9Windows + size*4;
; 103  : 	   short *winOverUVMR = Overlap9Windows + size*5;
; 104  : 	   short *winOverUVBL = Overlap9Windows + size*6;
; 105  : 	   short *winOverUVBM = Overlap9Windows + size*7;
; 106  : 	   short *winOverUVBR = Overlap9Windows + size*8;
; 107  : 
; 108  : 	   for (int j=0; j<ny; j++)

	xor	esi, esi
	add	esp, 4
	mov	DWORD PTR _winOverUVTL$1$[esp+88], ebx
	mov	DWORD PTR [edi+20], ebx
	lea	eax, DWORD PTR [ebx+ecx*4]
	mov	DWORD PTR _winOverUVTR$1$[esp+88], eax
	lea	edx, DWORD PTR [ebx+ecx*2]
	lea	ecx, DWORD PTR [ecx+ecx*2]
	mov	DWORD PTR _winOverUVTM$1$[esp+88], edx
	lea	eax, DWORD PTR [ebx+ecx*2]
	mov	ecx, DWORD PTR _winOverUVBR$1$[esp+88]
	mov	DWORD PTR _winOverUVML$1$[esp+88], eax
	lea	eax, DWORD PTR [ebx+ecx*8]
	mov	DWORD PTR _winOverUVMM$1$[esp+88], eax
	lea	eax, DWORD PTR [ecx+ecx*4]
	lea	eax, DWORD PTR [ebx+eax*2]
	mov	DWORD PTR _winOverUVMR$1$[esp+88], eax
	lea	eax, DWORD PTR [ecx+ecx*2]
	lea	eax, DWORD PTR [ebx+eax*4]
	mov	DWORD PTR _winOverUVBL$1$[esp+88], eax
	lea	eax, DWORD PTR [ecx*8]
	sub	eax, ecx
	shl	ecx, 4
	add	ecx, ebx
	mov	DWORD PTR _winOverUVBR$1$[esp+88], ecx
	lea	eax, DWORD PTR [ebx+eax*2]
	mov	DWORD PTR _winOverUVBM$1$[esp+88], eax
	cmp	DWORD PTR [edi+4], esi
	jle	$LN79@OverlapWin
	movss	xmm2, DWORD PTR __real@45000000
	npad	9
$LL22@OverlapWin:

; 109  : 	   {
; 110  : 		   for (int i=0; i<nx; i++)

	xor	ebx, ebx
	cmp	DWORD PTR [edi], ebx
	jle	$LN24@OverlapWin
	mov	eax, DWORD PTR _winOverUVTL$1$[esp+88]
	sub	eax, edx
	movss	xmm1, DWORD PTR __real@3f000000
	mov	DWORD PTR tv1563[esp+88], eax
	mov	eax, DWORD PTR _winOverUVTR$1$[esp+88]
	sub	eax, edx
	mov	DWORD PTR tv1564[esp+88], edx
	mov	DWORD PTR tv1562[esp+88], eax
	mov	eax, DWORD PTR _winOverUVML$1$[esp+88]
	sub	eax, edx
	mov	DWORD PTR tv1561[esp+88], eax
	mov	eax, DWORD PTR _winOverUVMM$1$[esp+88]
	sub	eax, edx
	mov	DWORD PTR tv1560[esp+88], eax
	mov	eax, DWORD PTR _winOverUVMR$1$[esp+88]
	sub	eax, edx
	mov	DWORD PTR tv1559[esp+88], eax
	mov	eax, DWORD PTR _winOverUVBL$1$[esp+88]
	sub	eax, edx
	mov	DWORD PTR tv1558[esp+88], eax
	mov	eax, DWORD PTR _winOverUVBM$1$[esp+88]
	sub	eax, edx
	mov	DWORD PTR tv1557[esp+88], eax
	mov	eax, ecx
	sub	eax, edx
	mov	DWORD PTR tv1556[esp+88], eax
$LL25@OverlapWin:

; 111  : 		   {
; 112  : 			   winOverUVTL[i] = (int)(fWin1UVyfirst[j]*fWin1UVxfirst[i]*2048 + 0.5f);

	mov	eax, DWORD PTR [edi+40]
	mov	ecx, DWORD PTR [edi+28]
	movss	xmm0, DWORD PTR [eax+esi*4]
	mulss	xmm0, DWORD PTR [ecx+ebx*4]
	mov	ecx, DWORD PTR tv1563[esp+88]
	mulss	xmm0, xmm2
	addss	xmm0, xmm1
	cvttss2si eax, xmm0
	mov	WORD PTR [ecx+edx], ax

; 113  : 			   winOverUVTM[i] = (int)(fWin1UVyfirst[j]*fWin1UVx[i]*2048 + 0.5f);

	mov	eax, DWORD PTR [edi+40]
	mov	ecx, DWORD PTR [edi+24]
	movss	xmm0, DWORD PTR [eax+esi*4]
	mulss	xmm0, DWORD PTR [ecx+ebx*4]
	mulss	xmm0, xmm2
	addss	xmm0, xmm1
	cvttss2si eax, xmm0
	mov	WORD PTR [edx], ax

; 114  : 			   winOverUVTR[i] = (int)(fWin1UVyfirst[j]*fWin1UVxlast[i]*2048 + 0.5f);

	mov	eax, DWORD PTR [edi+40]
	mov	ecx, DWORD PTR [edi+32]
	movss	xmm0, DWORD PTR [eax+esi*4]
	mulss	xmm0, DWORD PTR [ecx+ebx*4]
	mov	ecx, DWORD PTR tv1562[esp+88]
	mulss	xmm0, xmm2
	addss	xmm0, xmm1
	cvttss2si eax, xmm0
	mov	WORD PTR [ecx+edx], ax

; 115  : 			   winOverUVML[i] = (int)(fWin1UVy[j]*fWin1UVxfirst[i]*2048 + 0.5f);

	mov	eax, DWORD PTR [edi+28]
	mov	ecx, DWORD PTR [edi+36]
	movss	xmm0, DWORD PTR [eax+ebx*4]
	mulss	xmm0, DWORD PTR [ecx+esi*4]
	mov	ecx, DWORD PTR tv1561[esp+88]
	mulss	xmm0, xmm2
	addss	xmm0, xmm1
	cvttss2si eax, xmm0
	mov	WORD PTR [ecx+edx], ax

; 116  : 			   winOverUVMM[i] = (int)(fWin1UVy[j]*fWin1UVx[i]*2048 + 0.5f);

	mov	eax, DWORD PTR [edi+36]
	mov	ecx, DWORD PTR [edi+24]
	movss	xmm0, DWORD PTR [eax+esi*4]
	mulss	xmm0, DWORD PTR [ecx+ebx*4]
	mov	ecx, DWORD PTR tv1560[esp+88]
	mulss	xmm0, xmm2
	addss	xmm0, xmm1
	cvttss2si eax, xmm0
	mov	WORD PTR [ecx+edx], ax

; 117  : 			   winOverUVMR[i] = (int)(fWin1UVy[j]*fWin1UVxlast[i]*2048 + 0.5f);

	mov	eax, DWORD PTR [edi+36]
	mov	ecx, DWORD PTR [edi+32]
	movss	xmm0, DWORD PTR [eax+esi*4]
	mulss	xmm0, DWORD PTR [ecx+ebx*4]
	mov	ecx, DWORD PTR tv1559[esp+88]
	mulss	xmm0, xmm2
	addss	xmm0, xmm1
	cvttss2si eax, xmm0
	mov	WORD PTR [ecx+edx], ax

; 118  : 			   winOverUVBL[i] = (int)(fWin1UVylast[j]*fWin1UVxfirst[i]*2048 + 0.5f);

	mov	eax, DWORD PTR [edi+28]
	mov	ecx, DWORD PTR [edi+44]
	movss	xmm0, DWORD PTR [eax+ebx*4]
	mulss	xmm0, DWORD PTR [ecx+esi*4]
	mov	ecx, DWORD PTR tv1558[esp+88]
	mulss	xmm0, xmm2
	addss	xmm0, xmm1
	cvttss2si eax, xmm0
	mov	WORD PTR [ecx+edx], ax

; 119  : 			   winOverUVBM[i] = (int)(fWin1UVylast[j]*fWin1UVx[i]*2048 + 0.5f);

	mov	eax, DWORD PTR [edi+44]
	mov	ecx, DWORD PTR [edi+24]
	movss	xmm0, DWORD PTR [eax+esi*4]
	mulss	xmm0, DWORD PTR [ecx+ebx*4]
	mov	ecx, DWORD PTR tv1557[esp+88]
	mulss	xmm0, xmm2
	addss	xmm0, xmm1
	cvttss2si eax, xmm0
	mov	WORD PTR [ecx+edx], ax

; 120  : 			   winOverUVBR[i] = (int)(fWin1UVylast[j]*fWin1UVxlast[i]*2048 + 0.5f);

	mov	eax, DWORD PTR [edi+44]
	mov	ecx, DWORD PTR [edi+32]
	movss	xmm0, DWORD PTR [eax+esi*4]
	mulss	xmm0, DWORD PTR [ecx+ebx*4]
	inc	ebx
	mov	ecx, DWORD PTR tv1556[esp+88]
	mulss	xmm0, xmm2
	addss	xmm0, xmm1
	cvttss2si eax, xmm0
	mov	WORD PTR [ecx+edx], ax

; 109  : 	   {
; 110  : 		   for (int i=0; i<nx; i++)

	add	edx, 2
	cmp	ebx, DWORD PTR [edi]
	jl	$LL25@OverlapWin
	mov	edx, DWORD PTR _winOverUVTM$1$[esp+88]
	mov	ecx, DWORD PTR _winOverUVBR$1$[esp+88]
$LN24@OverlapWin:

; 121  : 		   }
; 122  : 		   winOverUVTL += nx;

	mov	eax, DWORD PTR [edi]
	inc	esi
	add	eax, eax
	add	DWORD PTR _winOverUVTL$1$[esp+88], eax

; 123  : 		   winOverUVTM += nx;

	add	edx, eax

; 124  : 		   winOverUVTR += nx;

	add	DWORD PTR _winOverUVTR$1$[esp+88], eax

; 125  : 		   winOverUVML += nx;
; 126  : 		   winOverUVMM += nx;
; 127  : 		   winOverUVMR += nx;
; 128  : 		   winOverUVBL += nx;
; 129  : 		   winOverUVBM += nx;
; 130  : 		   winOverUVBR += nx;

	add	ecx, eax
	add	DWORD PTR _winOverUVML$1$[esp+88], eax
	add	DWORD PTR _winOverUVMM$1$[esp+88], eax
	add	DWORD PTR _winOverUVMR$1$[esp+88], eax
	add	DWORD PTR _winOverUVBL$1$[esp+88], eax
	add	DWORD PTR _winOverUVBM$1$[esp+88], eax
	mov	DWORD PTR _winOverUVTM$1$[esp+88], edx
	mov	DWORD PTR _winOverUVBR$1$[esp+88], ecx
	cmp	esi, DWORD PTR [edi+4]
	jl	$LL22@OverlapWin
$LN79@OverlapWin:

; 131  : 	   }
; 132  : }

	mov	eax, edi
	pop	edi
	pop	esi
	pop	ebx
	mov	esp, ebp
	pop	ebp
	ret	16					; 00000010H
??0OverlapWindows@@QAE@HHHH@Z ENDP			; OverlapWindows::OverlapWindows
_TEXT	ENDS
; Function compile flags: /Ogtpy
; File c:\github\mvtools\sources\overlap.cpp
;	COMDAT ??1OverlapWindows@@QAE@XZ
_TEXT	SEGMENT
??1OverlapWindows@@QAE@XZ PROC				; OverlapWindows::~OverlapWindows, COMDAT
; _this$ = ecx

; 135  : {

	push	esi
	mov	esi, ecx

; 136  : 	delete [] Overlap9Windows;

	push	DWORD PTR [esi+20]
	call	??_V@YAXPAX@Z				; operator delete[]

; 137  : 	delete [] fWin1UVx;

	push	DWORD PTR [esi+24]
	call	??_V@YAXPAX@Z				; operator delete[]

; 138  : 	delete [] fWin1UVxfirst;

	push	DWORD PTR [esi+28]
	call	??_V@YAXPAX@Z				; operator delete[]

; 139  : 	delete [] fWin1UVxlast;

	push	DWORD PTR [esi+32]
	call	??_V@YAXPAX@Z				; operator delete[]

; 140  : 	delete [] fWin1UVy;

	push	DWORD PTR [esi+36]
	call	??_V@YAXPAX@Z				; operator delete[]

; 141  : 	delete [] fWin1UVyfirst;

	push	DWORD PTR [esi+40]
	call	??_V@YAXPAX@Z				; operator delete[]

; 142  : 	delete [] fWin1UVylast;

	push	DWORD PTR [esi+44]
	call	??_V@YAXPAX@Z				; operator delete[]
	add	esp, 28					; 0000001cH
	pop	esi

; 143  : }

	ret	0
??1OverlapWindows@@QAE@XZ ENDP				; OverlapWindows::~OverlapWindows
_TEXT	ENDS
; Function compile flags: /Ogtpy
; File c:\github\mvtools\sources\overlap.cpp
; File c:\program files (x86)\microsoft visual studio 14.0\vc\include\xtree
; File c:\program files (x86)\microsoft visual studio 14.0\vc\include\map
; File c:\github\mvtools\sources\overlap.cpp
; File c:\program files (x86)\microsoft visual studio 14.0\vc\include\map
; File c:\github\mvtools\sources\overlap.cpp
; File c:\program files (x86)\microsoft visual studio 14.0\vc\include\map
; File c:\github\mvtools\sources\overlap.cpp
; File c:\program files (x86)\microsoft visual studio 14.0\vc\include\map
; File c:\github\mvtools\sources\overlap.cpp
; File c:\program files (x86)\microsoft visual studio 14.0\vc\include\map
; File c:\github\mvtools\sources\overlap.cpp
; File c:\program files (x86)\microsoft visual studio 14.0\vc\include\map
; File c:\github\mvtools\sources\overlap.cpp
; File c:\program files (x86)\microsoft visual studio 14.0\vc\include\map
; File c:\github\mvtools\sources\overlap.cpp
; File c:\program files (x86)\microsoft visual studio 14.0\vc\include\map
; File c:\github\mvtools\sources\overlap.cpp
; File c:\program files (x86)\microsoft visual studio 14.0\vc\include\map
; File c:\github\mvtools\sources\overlap.cpp
; File c:\program files (x86)\microsoft visual studio 14.0\vc\include\map
; File c:\github\mvtools\sources\overlap.cpp
; File c:\program files (x86)\microsoft visual studio 14.0\vc\include\map
; File c:\github\mvtools\sources\overlap.cpp
; File c:\program files (x86)\microsoft visual studio 14.0\vc\include\map
; File c:\github\mvtools\sources\overlap.cpp
; File c:\program files (x86)\microsoft visual studio 14.0\vc\include\map
; File c:\github\mvtools\sources\overlap.cpp
; File c:\program files (x86)\microsoft visual studio 14.0\vc\include\map
; File c:\github\mvtools\sources\overlap.cpp
; File c:\program files (x86)\microsoft visual studio 14.0\vc\include\map
; File c:\github\mvtools\sources\overlap.cpp
; File c:\program files (x86)\microsoft visual studio 14.0\vc\include\map
; File c:\github\mvtools\sources\overlap.cpp
; File c:\program files (x86)\microsoft visual studio 14.0\vc\include\map
; File c:\github\mvtools\sources\overlap.cpp
; File c:\program files (x86)\microsoft visual studio 14.0\vc\include\map
; File c:\github\mvtools\sources\overlap.cpp
; File c:\program files (x86)\microsoft visual studio 14.0\vc\include\map
; File c:\github\mvtools\sources\overlap.cpp
; File c:\program files (x86)\microsoft visual studio 14.0\vc\include\map
; File c:\github\mvtools\sources\overlap.cpp
; File c:\program files (x86)\microsoft visual studio 14.0\vc\include\map
; File c:\github\mvtools\sources\overlap.cpp
; File c:\program files (x86)\microsoft visual studio 14.0\vc\include\map
; File c:\github\mvtools\sources\overlap.cpp
; File c:\program files (x86)\microsoft visual studio 14.0\vc\include\map
; File c:\github\mvtools\sources\overlap.cpp
; File c:\program files (x86)\microsoft visual studio 14.0\vc\include\map
; File c:\github\mvtools\sources\overlap.cpp
; File c:\program files (x86)\microsoft visual studio 14.0\vc\include\map
; File c:\github\mvtools\sources\overlap.cpp
; File c:\program files (x86)\microsoft visual studio 14.0\vc\include\map
; File c:\github\mvtools\sources\overlap.cpp
; File c:\program files (x86)\microsoft visual studio 14.0\vc\include\map
; File c:\github\mvtools\sources\overlap.cpp
; File c:\program files (x86)\microsoft visual studio 14.0\vc\include\map
; File c:\github\mvtools\sources\overlap.cpp
; File c:\program files (x86)\microsoft visual studio 14.0\vc\include\map
; File c:\github\mvtools\sources\overlap.cpp
; File c:\program files (x86)\microsoft visual studio 14.0\vc\include\map
; File c:\github\mvtools\sources\overlap.cpp
; File c:\program files (x86)\microsoft visual studio 14.0\vc\include\map
; File c:\github\mvtools\sources\overlap.cpp
; File c:\program files (x86)\microsoft visual studio 14.0\vc\include\map
; File c:\github\mvtools\sources\overlap.cpp
; File c:\program files (x86)\microsoft visual studio 14.0\vc\include\map
; File c:\github\mvtools\sources\overlap.cpp
; File c:\program files (x86)\microsoft visual studio 14.0\vc\include\map
; File c:\github\mvtools\sources\overlap.cpp
; File c:\program files (x86)\microsoft visual studio 14.0\vc\include\map
; File c:\github\mvtools\sources\overlap.cpp
; File c:\program files (x86)\microsoft visual studio 14.0\vc\include\map
; File c:\github\mvtools\sources\overlap.cpp
; File c:\program files (x86)\microsoft visual studio 14.0\vc\include\map
; File c:\github\mvtools\sources\overlap.cpp
; File c:\program files (x86)\microsoft visual studio 14.0\vc\include\map
; File c:\github\mvtools\sources\overlap.cpp
; File c:\program files (x86)\microsoft visual studio 14.0\vc\include\map
; File c:\github\mvtools\sources\overlap.cpp
; File c:\program files (x86)\microsoft visual studio 14.0\vc\include\map
; File c:\github\mvtools\sources\overlap.cpp
; File c:\program files (x86)\microsoft visual studio 14.0\vc\include\map
; File c:\github\mvtools\sources\overlap.cpp
; File c:\program files (x86)\microsoft visual studio 14.0\vc\include\map
; File c:\github\mvtools\sources\overlap.cpp
; File c:\program files (x86)\microsoft visual studio 14.0\vc\include\map
; File c:\github\mvtools\sources\overlap.cpp
; File c:\program files (x86)\microsoft visual studio 14.0\vc\include\map
; File c:\github\mvtools\sources\overlap.cpp
; File c:\program files (x86)\microsoft visual studio 14.0\vc\include\map
; File c:\github\mvtools\sources\overlap.cpp
; File c:\program files (x86)\microsoft visual studio 14.0\vc\include\map
; File c:\github\mvtools\sources\overlap.cpp
; File c:\program files (x86)\microsoft visual studio 14.0\vc\include\map
; File c:\github\mvtools\sources\overlap.cpp
; File c:\program files (x86)\microsoft visual studio 14.0\vc\include\map
; File c:\github\mvtools\sources\overlap.cpp
; File c:\program files (x86)\microsoft visual studio 14.0\vc\include\map
; File c:\github\mvtools\sources\overlap.cpp
; File c:\program files (x86)\microsoft visual studio 14.0\vc\include\map
; File c:\github\mvtools\sources\overlap.cpp
; File c:\program files (x86)\microsoft visual studio 14.0\vc\include\map
; File c:\github\mvtools\sources\overlap.cpp
; File c:\program files (x86)\microsoft visual studio 14.0\vc\include\map
; File c:\github\mvtools\sources\overlap.cpp
; File c:\program files (x86)\microsoft visual studio 14.0\vc\include\map
; File c:\github\mvtools\sources\overlap.cpp
; File c:\program files (x86)\microsoft visual studio 14.0\vc\include\map
; File c:\github\mvtools\sources\overlap.cpp
; File c:\program files (x86)\microsoft visual studio 14.0\vc\include\map
; File c:\github\mvtools\sources\overlap.cpp
; File c:\program files (x86)\microsoft visual studio 14.0\vc\include\map
; File c:\github\mvtools\sources\overlap.cpp
; File c:\program files (x86)\microsoft visual studio 14.0\vc\include\map
; File c:\github\mvtools\sources\overlap.cpp
; File c:\program files (x86)\microsoft visual studio 14.0\vc\include\map
; File c:\github\mvtools\sources\overlap.cpp
; File c:\program files (x86)\microsoft visual studio 14.0\vc\include\map
; File c:\github\mvtools\sources\overlap.cpp
; File c:\program files (x86)\microsoft visual studio 14.0\vc\include\map
; File c:\github\mvtools\sources\overlap.cpp
; File c:\program files (x86)\microsoft visual studio 14.0\vc\include\map
; File c:\github\mvtools\sources\overlap.cpp
; File c:\program files (x86)\microsoft visual studio 14.0\vc\include\map
; File c:\github\mvtools\sources\overlap.cpp
; File c:\program files (x86)\microsoft visual studio 14.0\vc\include\map
; File c:\github\mvtools\sources\overlap.cpp
; File c:\program files (x86)\microsoft visual studio 14.0\vc\include\map
; File c:\github\mvtools\sources\overlap.cpp
; File c:\program files (x86)\microsoft visual studio 14.0\vc\include\map
; File c:\github\mvtools\sources\overlap.cpp
; File c:\program files (x86)\microsoft visual studio 14.0\vc\include\map
; File c:\github\mvtools\sources\overlap.cpp
; File c:\program files (x86)\microsoft visual studio 14.0\vc\include\map
; File c:\github\mvtools\sources\overlap.cpp
; File c:\program files (x86)\microsoft visual studio 14.0\vc\include\map
; File c:\github\mvtools\sources\overlap.cpp
; File c:\program files (x86)\microsoft visual studio 14.0\vc\include\map
; File c:\github\mvtools\sources\overlap.cpp
; File c:\program files (x86)\microsoft visual studio 14.0\vc\include\map
; File c:\github\mvtools\sources\overlap.cpp
; File c:\program files (x86)\microsoft visual studio 14.0\vc\include\map
; File c:\github\mvtools\sources\overlap.cpp
; File c:\program files (x86)\microsoft visual studio 14.0\vc\include\map
; File c:\github\mvtools\sources\overlap.cpp
; File c:\program files (x86)\microsoft visual studio 14.0\vc\include\map
; File c:\github\mvtools\sources\overlap.cpp
; File c:\program files (x86)\microsoft visual studio 14.0\vc\include\map
; File c:\github\mvtools\sources\overlap.cpp
; File c:\program files (x86)\microsoft visual studio 14.0\vc\include\map
; File c:\github\mvtools\sources\overlap.cpp
; File c:\program files (x86)\microsoft visual studio 14.0\vc\include\map
; File c:\github\mvtools\sources\overlap.cpp
; File c:\program files (x86)\microsoft visual studio 14.0\vc\include\map
; File c:\github\mvtools\sources\overlap.cpp
; File c:\program files (x86)\microsoft visual studio 14.0\vc\include\map
; File c:\github\mvtools\sources\overlap.cpp
; File c:\program files (x86)\microsoft visual studio 14.0\vc\include\map
; File c:\github\mvtools\sources\overlap.cpp
; File c:\program files (x86)\microsoft visual studio 14.0\vc\include\map
; File c:\github\mvtools\sources\overlap.cpp
; File c:\program files (x86)\microsoft visual studio 14.0\vc\include\map
; File c:\github\mvtools\sources\overlap.cpp
; File c:\program files (x86)\microsoft visual studio 14.0\vc\include\map
; File c:\github\mvtools\sources\overlap.cpp
; File c:\program files (x86)\microsoft visual studio 14.0\vc\include\map
; File c:\github\mvtools\sources\overlap.cpp
; File c:\program files (x86)\microsoft visual studio 14.0\vc\include\map
; File c:\github\mvtools\sources\overlap.cpp
; File c:\program files (x86)\microsoft visual studio 14.0\vc\include\map
; File c:\github\mvtools\sources\overlap.cpp
; File c:\program files (x86)\microsoft visual studio 14.0\vc\include\map
; File c:\github\mvtools\sources\overlap.cpp
; File c:\program files (x86)\microsoft visual studio 14.0\vc\include\map
; File c:\github\mvtools\sources\overlap.cpp
; File c:\program files (x86)\microsoft visual studio 14.0\vc\include\map
; File c:\github\mvtools\sources\overlap.cpp
; File c:\program files (x86)\microsoft visual studio 14.0\vc\include\map
; File c:\github\mvtools\sources\overlap.cpp
; File c:\program files (x86)\microsoft visual studio 14.0\vc\include\map
; File c:\github\mvtools\sources\overlap.cpp
; File c:\program files (x86)\microsoft visual studio 14.0\vc\include\xtree
; File c:\github\mvtools\sources\overlap.cpp
;	COMDAT ?get_overlaps_function@@YAP6AXPAGHPBEHPAFH@ZHHHW4arch_t@@@Z
_TEXT	SEGMENT
_archlist$ = -84					; size = 20
$T2 = -64						; size = 16
$T3 = -64						; size = 16
$T4 = -64						; size = 16
$T5 = -64						; size = 16
$T6 = -64						; size = 16
$T7 = -64						; size = 16
$T8 = -64						; size = 16
$T9 = -64						; size = 16
$T10 = -64						; size = 16
$T11 = -64						; size = 16
$T12 = -64						; size = 16
$T13 = -64						; size = 16
$T14 = -64						; size = 16
$T15 = -64						; size = 16
$T16 = -64						; size = 16
$T17 = -64						; size = 16
$T18 = -64						; size = 16
$T19 = -64						; size = 16
$T20 = -64						; size = 16
$T21 = -64						; size = 16
$T22 = -64						; size = 16
$T23 = -64						; size = 16
$T24 = -64						; size = 16
$T25 = -64						; size = 16
$T26 = -64						; size = 16
$T27 = -64						; size = 16
$T28 = -64						; size = 16
$T29 = -64						; size = 16
$T30 = -64						; size = 16
$T31 = -64						; size = 16
$T32 = -64						; size = 16
$T33 = -64						; size = 16
$T34 = -64						; size = 16
$T35 = -64						; size = 16
$T36 = -64						; size = 16
$T37 = -64						; size = 16
$T38 = -64						; size = 16
$T39 = -64						; size = 16
$T40 = -64						; size = 16
$T41 = -64						; size = 16
$T42 = -64						; size = 16
$T43 = -64						; size = 16
$T44 = -64						; size = 16
$T45 = -64						; size = 16
$T46 = -64						; size = 16
$T47 = -64						; size = 16
$T48 = -64						; size = 16
$T49 = -64						; size = 16
$T50 = -64						; size = 16
$T51 = -64						; size = 16
$T52 = -64						; size = 16
$T53 = -64						; size = 16
$T54 = -64						; size = 16
$T55 = -64						; size = 16
$T56 = -64						; size = 16
$T57 = -64						; size = 16
$T58 = -64						; size = 16
$T59 = -64						; size = 16
$T60 = -64						; size = 16
$T61 = -64						; size = 16
$T62 = -64						; size = 16
$T63 = -64						; size = 16
$T64 = -64						; size = 16
$T65 = -64						; size = 16
$T66 = -64						; size = 16
$T67 = -64						; size = 16
$T68 = -64						; size = 16
$T69 = -64						; size = 16
$T70 = -64						; size = 16
$T71 = -64						; size = 16
$T72 = -64						; size = 16
_func_overlaps$ = -48					; size = 8
_BlockX$ = -40						; size = 4
_BlockY$ = -36						; size = 4
$T73 = -32						; size = 8
$T74 = -32						; size = 8
$T75 = -32						; size = 8
$T76 = -32						; size = 8
$T77 = -32						; size = 8
$T78 = -32						; size = 8
$T79 = -32						; size = 8
$T80 = -32						; size = 8
$T81 = -32						; size = 8
$T82 = -32						; size = 8
$T83 = -32						; size = 8
$T84 = -32						; size = 8
$T85 = -32						; size = 8
$T86 = -32						; size = 8
$T87 = -32						; size = 8
$T88 = -32						; size = 8
$T89 = -32						; size = 8
$T90 = -32						; size = 8
$T91 = -32						; size = 8
$T92 = -32						; size = 8
$T93 = -32						; size = 8
$T94 = -32						; size = 8
$T95 = -32						; size = 8
$T96 = -32						; size = 8
$T97 = -32						; size = 8
$T98 = -32						; size = 8
$T99 = -32						; size = 8
$T100 = -32						; size = 8
$T101 = -32						; size = 8
$T102 = -32						; size = 8
$T103 = -32						; size = 8
$T104 = -32						; size = 8
$T105 = -32						; size = 8
$T106 = -32						; size = 8
$T107 = -32						; size = 8
$T108 = -32						; size = 8
$T109 = -32						; size = 8
$T110 = -32						; size = 8
$T111 = -32						; size = 8
$T112 = -32						; size = 8
$T113 = -32						; size = 8
$T114 = -32						; size = 8
$T115 = -32						; size = 8
$T116 = -32						; size = 8
$T117 = -32						; size = 8
$T118 = -32						; size = 8
$T119 = -32						; size = 8
$T120 = -32						; size = 8
$T121 = -28						; size = 4
$T122 = -28						; size = 4
$T123 = -28						; size = 4
$T124 = -28						; size = 4
$T125 = -28						; size = 4
$T126 = -28						; size = 4
$T127 = -28						; size = 4
$T128 = -28						; size = 4
$T129 = -28						; size = 4
$T130 = -28						; size = 4
$T131 = -28						; size = 4
$T132 = -28						; size = 4
$T133 = -28						; size = 4
$T134 = -28						; size = 4
$T135 = -28						; size = 4
$T136 = -28						; size = 4
$T137 = -28						; size = 4
$T138 = -28						; size = 4
$T139 = -28						; size = 4
$T140 = -28						; size = 4
$T141 = -28						; size = 4
$T142 = -24						; size = 4
$T143 = -24						; size = 4
$T144 = -24						; size = 4
$T145 = -24						; size = 4
$T146 = -24						; size = 4
$T147 = -24						; size = 4
$T148 = -24						; size = 4
$T149 = -24						; size = 4
$T150 = -24						; size = 4
$T151 = -24						; size = 4
$T152 = -24						; size = 4
$T153 = -24						; size = 4
$T154 = -24						; size = 4
$T155 = -24						; size = 4
$T156 = -24						; size = 4
$T157 = -24						; size = 4
$T158 = -24						; size = 4
$T159 = -24						; size = 4
$T160 = -24						; size = 4
$T161 = -24						; size = 4
$T162 = -24						; size = 4
$T163 = -20						; size = 4
$T164 = -20						; size = 4
$T165 = -20						; size = 4
$T166 = -20						; size = 4
$T167 = -20						; size = 4
$T168 = -20						; size = 4
$T169 = -20						; size = 4
$T170 = -20						; size = 4
$T171 = -20						; size = 4
$T172 = -20						; size = 4
$T173 = -20						; size = 4
$T174 = -20						; size = 4
$T175 = -20						; size = 4
$T176 = -20						; size = 4
$T177 = -20						; size = 4
$T178 = -20						; size = 4
$T179 = -20						; size = 4
$T180 = -20						; size = 4
$T181 = -20						; size = 4
$T182 = -20						; size = 4
$T183 = -20						; size = 4
_current_arch_try$184 = -16				; size = 4
$T185 = -16						; size = 4
$T186 = -16						; size = 4
$T187 = -16						; size = 4
$T188 = -16						; size = 4
$T189 = -16						; size = 4
$T190 = -16						; size = 4
$T191 = -16						; size = 4
$T192 = -16						; size = 4
$T193 = -16						; size = 4
$T194 = -16						; size = 4
$T195 = -16						; size = 4
$T196 = -16						; size = 4
$T197 = -16						; size = 4
$T198 = -16						; size = 4
$T199 = -16						; size = 4
$T200 = -16						; size = 4
$T201 = -16						; size = 4
$T202 = -16						; size = 4
$T203 = -16						; size = 4
$T204 = -16						; size = 4
$T205 = -16						; size = 4
__$EHRec$ = -12						; size = 12
_pixelsize$ = 8						; size = 4
_arch$ = 12						; size = 4
?get_overlaps_function@@YAP6AXPAGHPBEHPAFH@ZHHHW4arch_t@@@Z PROC ; get_overlaps_function, COMDAT
; _BlockX$ = ecx
; _BlockY$ = edx

; 535  : {

	push	ebp
	mov	ebp, esp
	push	-1
	push	__ehhandler$?get_overlaps_function@@YAP6AXPAGHPBEHPAFH@ZHHHW4arch_t@@@Z
	mov	eax, DWORD PTR fs:0
	push	eax
	mov	DWORD PTR fs:0, esp
	sub	esp, 72					; 00000048H
	push	ebx
	push	esi
	push	edi
	mov	DWORD PTR _BlockY$[ebp], edx
	mov	DWORD PTR _BlockX$[ebp], ecx
; File c:\program files (x86)\microsoft visual studio 14.0\vc\include\xtree

; 567  : 		: _Myhead(),

	mov	DWORD PTR _func_overlaps$[ebp], 0

; 568  : 		_Mysize(0)

	mov	DWORD PTR _func_overlaps$[ebp+4], 0

; 721  : 		_Myhead() = _Buyheadnode();

	call	?_Buyheadnode@?$_Tree_comp_alloc@V?$_Tmap_traits@V?$tuple@HHHW4arch_t@@@std@@P6AXPAGHPBEHPAFH@ZU?$less@V?$tuple@HHHW4arch_t@@@std@@@2@V?$allocator@U?$pair@$$CBV?$tuple@HHHW4arch_t@@@std@@P6AXPAGHPBEHPAFH@Z@std@@@2@$0A@@std@@@std@@QAEPAU?$_Tree_node@U?$pair@$$CBV?$tuple@HHHW4arch_t@@@std@@P6AXPAGHPBEHPAFH@Z@std@@PAX@2@XZ ; std::_Tree_comp_alloc<std::_Tmap_traits<std::tuple<int,int,int,enum arch_t>,void (__cdecl*)(unsigned short *,int,unsigned char const *,int,short *,int),std::less<std::tuple<int,int,int,enum arch_t> >,std::allocator<std::pair<std::tuple<int,int,int,enum arch_t> const ,void (__cdecl*)(unsigned short *,int,unsigned char const *,int,short *,int)> >,0> >::_Buyheadnode
	mov	DWORD PTR _func_overlaps$[ebp], eax
; File c:\program files (x86)\microsoft visual studio 14.0\vc\include\map

; 244  : 		return (_Try_emplace(_STD move(_Keyval),

	lea	eax, DWORD PTR $T72[ebp]
; File c:\github\mvtools\sources\overlap.cpp

; 539  :     std::map<std::tuple<int, int, int, arch_t>, OverlapsFunction*> func_overlaps;

	mov	DWORD PTR __$EHRec$[ebp+8], 0
	movaps	xmm0, XMMWORD PTR __xmm@00000020000000200000000100000000
; File c:\program files (x86)\microsoft visual studio 14.0\vc\include\map

; 244  : 		return (_Try_emplace(_STD move(_Keyval),

	lea	ecx, DWORD PTR _func_overlaps$[ebp]
	push	eax
	lea	eax, DWORD PTR $T120[ebp]
	push	eax
	movups	XMMWORD PTR $T72[ebp], xmm0
	call	??$_Try_emplace@V?$tuple@HHHW4arch_t@@@std@@$$V@?$map@V?$tuple@HHHW4arch_t@@@std@@P6AXPAGHPBEHPAFH@ZU?$less@V?$tuple@HHHW4arch_t@@@std@@@2@V?$allocator@U?$pair@$$CBV?$tuple@HHHW4arch_t@@@std@@P6AXPAGHPBEHPAFH@Z@std@@@2@@std@@QAE?AU?$pair@V?$_Tree_iterator@V?$_Tree_val@U?$_Tree_simple_types@U?$pair@$$CBV?$tuple@HHHW4arch_t@@@std@@P6AXPAGHPBEHPAFH@Z@std@@@std@@@std@@@std@@_N@1@$$QAV?$tuple@HHHW4arch_t@@@1@@Z ; std::map<std::tuple<int,int,int,enum arch_t>,void (__cdecl*)(unsigned short *,int,unsigned char const *,int,short *,int),std::less<std::tuple<int,int,int,enum arch_t> >,std::allocator<std::pair<std::tuple<int,int,int,enum arch_t> const ,void (__cdecl*)(unsigned short *,int,unsigned char const *,int,short *,int)> > >::_Try_emplace<std::tuple<int,int,int,enum arch_t> >
; File c:\github\mvtools\sources\overlap.cpp

; 541  :     func_overlaps[make_tuple(32, 32, 1, NO_SIMD)] = Overlaps_C<uint8_t, 32, 32>;

	mov	eax, DWORD PTR $T120[ebp]
; File c:\program files (x86)\microsoft visual studio 14.0\vc\include\map

; 244  : 		return (_Try_emplace(_STD move(_Keyval),

	lea	ecx, DWORD PTR _func_overlaps$[ebp]
	movaps	xmm0, XMMWORD PTR __xmm@00000020000000100000000100000000
; File c:\github\mvtools\sources\overlap.cpp

; 541  :     func_overlaps[make_tuple(32, 32, 1, NO_SIMD)] = Overlaps_C<uint8_t, 32, 32>;

	mov	DWORD PTR [eax+32], OFFSET ??$Overlaps_C@E$0CA@$0CA@@@YAXPAGHPBEHPAFH@Z ; Overlaps_C<unsigned char,32,32>
; File c:\program files (x86)\microsoft visual studio 14.0\vc\include\map

; 244  : 		return (_Try_emplace(_STD move(_Keyval),

	lea	eax, DWORD PTR $T71[ebp]
	push	eax
	lea	eax, DWORD PTR $T119[ebp]
	push	eax
	movups	XMMWORD PTR $T71[ebp], xmm0
