; Listing generated by Microsoft (R) Optimizing Compiler Version 19.00.24215.1 

	TITLE	c:\github\mvtools\sources\planeofblocks.cpp
	.686P
	.XMM
	include listing.inc
	.model	flat

INCLUDELIB OLDNAMES

PUBLIC	??_C@_0EA@OOMJLBPB@MVTools?3?5error?5while?5trying?5to?5a@ ; `string'
PUBLIC	??_C@_0CK@INGOFGFH@return_obj?$CI?$CJ?3?5cannot?5allocate?5a?5@ ; `string'
PUBLIC	??_C@_0CN@NLNDHOHM@bad?5?5blk?$DN?$CFd?5x?$DN?$CFd?5y?$DN?$CFd?5sad?$DN?$CFd?5mea@ ; `string'
PUBLIC	??_C@_0CF@IAFINEIK@best?5blk?$DN?$CFd?5x?$DN?$CFd?5y?$DN?$CFd?5sad?$DN?$CFd?5ite@ ; `string'
PUBLIC	??_R2WorkingAreaFactory@PlaneOfBlocks@@8	; PlaneOfBlocks::WorkingAreaFactory::`RTTI Base Class Array'
PUBLIC	??_R4?$AtomicPtrIntPair@V?$LockFreeCell@PAVWorkingArea@PlaneOfBlocks@@@conc@@@conc@@6B@ ; conc::AtomicPtrIntPair<conc::LockFreeCell<PlaneOfBlocks::WorkingArea *> >::`RTTI Complete Object Locator'
PUBLIC	??_R3WorkingAreaFactory@PlaneOfBlocks@@8	; PlaneOfBlocks::WorkingAreaFactory::`RTTI Class Hierarchy Descriptor'
PUBLIC	??_R2?$AioSub@H@conc@@8				; conc::AioSub<int>::`RTTI Base Class Array'
PUBLIC	??_R2?$ObjPool@VWorkingArea@PlaneOfBlocks@@@conc@@8 ; conc::ObjPool<PlaneOfBlocks::WorkingArea>::`RTTI Base Class Array'
PUBLIC	??_R0?AV?$AioSub@H@conc@@@8			; conc::AioSub<int> `RTTI Type Descriptor'
PUBLIC	??_R4WorkingAreaFactory@PlaneOfBlocks@@6B@	; PlaneOfBlocks::WorkingAreaFactory::`RTTI Complete Object Locator'
PUBLIC	??_R3?$AioAdd@_J@conc@@8			; conc::AioAdd<__int64>::`RTTI Class Hierarchy Descriptor'
PUBLIC	??_R4?$CellPool@PAVWorkingArea@PlaneOfBlocks@@@conc@@6B@ ; conc::CellPool<PlaneOfBlocks::WorkingArea *>::`RTTI Complete Object Locator'
PUBLIC	??_7?$AioAdd@_J@conc@@6B@			; conc::AioAdd<__int64>::`vftable'
PUBLIC	??_R1A@?0A@EA@WorkingAreaFactory@PlaneOfBlocks@@8 ; PlaneOfBlocks::WorkingAreaFactory::`RTTI Base Class Descriptor at (0,-1,0,64)'
PUBLIC	??_7WorkingArea@PlaneOfBlocks@@6B@		; PlaneOfBlocks::WorkingArea::`vftable'
PUBLIC	??_R1A@?0A@EA@?$AioSub@H@conc@@8		; conc::AioSub<int>::`RTTI Base Class Descriptor at (0,-1,0,64)'
PUBLIC	??_R3?$LockFreeStack@PAVWorkingArea@PlaneOfBlocks@@@conc@@8 ; conc::LockFreeStack<PlaneOfBlocks::WorkingArea *>::`RTTI Class Hierarchy Descriptor'
PUBLIC	??_7?$AioSub@H@conc@@6B@			; conc::AioSub<int>::`vftable'
PUBLIC	??_7?$AioSub@I@conc@@6B@			; conc::AioSub<unsigned int>::`vftable'
PUBLIC	??_R1A@?0A@EA@?$AioAdd@_J@conc@@8		; conc::AioAdd<__int64>::`RTTI Base Class Descriptor at (0,-1,0,64)'
PUBLIC	??_R0?AV?$AtomicPtrIntPair@V?$LockFreeCell@PAVWorkingArea@PlaneOfBlocks@@@conc@@@conc@@@8 ; conc::AtomicPtrIntPair<conc::LockFreeCell<PlaneOfBlocks::WorkingArea *> > `RTTI Type Descriptor'
PUBLIC	??_R4WorkingArea@PlaneOfBlocks@@6B@		; PlaneOfBlocks::WorkingArea::`RTTI Complete Object Locator'
PUBLIC	??_R0?AV?$LockFreeStack@PAVWorkingArea@PlaneOfBlocks@@@conc@@@8 ; conc::LockFreeStack<PlaneOfBlocks::WorkingArea *> `RTTI Type Descriptor'
PUBLIC	??_7?$LockFreeStack@PAVWorkingArea@PlaneOfBlocks@@@conc@@6B@ ; conc::LockFreeStack<PlaneOfBlocks::WorkingArea *>::`vftable'
PUBLIC	??_R1A@?0A@EA@?$ObjPool@VWorkingArea@PlaneOfBlocks@@@conc@@8 ; conc::ObjPool<PlaneOfBlocks::WorkingArea>::`RTTI Base Class Descriptor at (0,-1,0,64)'
PUBLIC	??_R0?AVWorkingArea@PlaneOfBlocks@@@8		; PlaneOfBlocks::WorkingArea `RTTI Type Descriptor'
PUBLIC	??_R2?$AioSub@I@conc@@8				; conc::AioSub<unsigned int>::`RTTI Base Class Array'
PUBLIC	??_R3WorkingArea@PlaneOfBlocks@@8		; PlaneOfBlocks::WorkingArea::`RTTI Class Hierarchy Descriptor'
PUBLIC	??_R1A@?0A@EA@WorkingArea@PlaneOfBlocks@@8	; PlaneOfBlocks::WorkingArea::`RTTI Base Class Descriptor at (0,-1,0,64)'
PUBLIC	??_7WorkingAreaFactory@PlaneOfBlocks@@6B@	; PlaneOfBlocks::WorkingAreaFactory::`vftable'
PUBLIC	??_R2?$ObjFactoryInterface@VWorkingArea@PlaneOfBlocks@@@conc@@8 ; conc::ObjFactoryInterface<PlaneOfBlocks::WorkingArea>::`RTTI Base Class Array'
PUBLIC	??_7?$ObjPool@VWorkingArea@PlaneOfBlocks@@@conc@@6B@ ; conc::ObjPool<PlaneOfBlocks::WorkingArea>::`vftable'
PUBLIC	??_R4?$AioSub@H@conc@@6B@			; conc::AioSub<int>::`RTTI Complete Object Locator'
PUBLIC	??_R0?AV?$CellPool@PAVWorkingArea@PlaneOfBlocks@@@conc@@@8 ; conc::CellPool<PlaneOfBlocks::WorkingArea *> `RTTI Type Descriptor'
PUBLIC	??_R0?AV?$AioAdd@_J@conc@@@8			; conc::AioAdd<__int64> `RTTI Type Descriptor'
PUBLIC	??_R2WorkingArea@PlaneOfBlocks@@8		; PlaneOfBlocks::WorkingArea::`RTTI Base Class Array'
PUBLIC	??_R3?$CellPool@PAVWorkingArea@PlaneOfBlocks@@@conc@@8 ; conc::CellPool<PlaneOfBlocks::WorkingArea *>::`RTTI Class Hierarchy Descriptor'
PUBLIC	??_R4?$AioSub@I@conc@@6B@			; conc::AioSub<unsigned int>::`RTTI Complete Object Locator'
PUBLIC	??_R2?$LockFreeStack@PAVWorkingArea@PlaneOfBlocks@@@conc@@8 ; conc::LockFreeStack<PlaneOfBlocks::WorkingArea *>::`RTTI Base Class Array'
PUBLIC	??_R1A@?0A@EA@?$CellPool@PAVWorkingArea@PlaneOfBlocks@@@conc@@8 ; conc::CellPool<PlaneOfBlocks::WorkingArea *>::`RTTI Base Class Descriptor at (0,-1,0,64)'
PUBLIC	??_R3?$AtomicPtrIntPair@V?$LockFreeCell@PAVWorkingArea@PlaneOfBlocks@@@conc@@@conc@@8 ; conc::AtomicPtrIntPair<conc::LockFreeCell<PlaneOfBlocks::WorkingArea *> >::`RTTI Class Hierarchy Descriptor'
PUBLIC	??_R4?$LockFreeStack@PAVWorkingArea@PlaneOfBlocks@@@conc@@6B@ ; conc::LockFreeStack<PlaneOfBlocks::WorkingArea *>::`RTTI Complete Object Locator'
PUBLIC	??_R3?$AioSub@I@conc@@8				; conc::AioSub<unsigned int>::`RTTI Class Hierarchy Descriptor'
PUBLIC	??_R3?$ObjPool@VWorkingArea@PlaneOfBlocks@@@conc@@8 ; conc::ObjPool<PlaneOfBlocks::WorkingArea>::`RTTI Class Hierarchy Descriptor'
PUBLIC	??_R4?$ObjPool@VWorkingArea@PlaneOfBlocks@@@conc@@6B@ ; conc::ObjPool<PlaneOfBlocks::WorkingArea>::`RTTI Complete Object Locator'
PUBLIC	??_R1A@?0A@EA@?$LockFreeStack@PAVWorkingArea@PlaneOfBlocks@@@conc@@8 ; conc::LockFreeStack<PlaneOfBlocks::WorkingArea *>::`RTTI Base Class Descriptor at (0,-1,0,64)'
PUBLIC	??_R2?$AtomicPtrIntPair@V?$LockFreeCell@PAVWorkingArea@PlaneOfBlocks@@@conc@@@conc@@8 ; conc::AtomicPtrIntPair<conc::LockFreeCell<PlaneOfBlocks::WorkingArea *> >::`RTTI Base Class Array'
PUBLIC	??_R2?$AioAdd@_J@conc@@8			; conc::AioAdd<__int64>::`RTTI Base Class Array'
PUBLIC	??_R3?$ObjFactoryInterface@VWorkingArea@PlaneOfBlocks@@@conc@@8 ; conc::ObjFactoryInterface<PlaneOfBlocks::WorkingArea>::`RTTI Class Hierarchy Descriptor'
PUBLIC	??_R2?$CellPool@PAVWorkingArea@PlaneOfBlocks@@@conc@@8 ; conc::CellPool<PlaneOfBlocks::WorkingArea *>::`RTTI Base Class Array'
PUBLIC	??_R0?AV?$AioSub@I@conc@@@8			; conc::AioSub<unsigned int> `RTTI Type Descriptor'
PUBLIC	??_7?$ObjFactoryInterface@VWorkingArea@PlaneOfBlocks@@@conc@@6B@ ; conc::ObjFactoryInterface<PlaneOfBlocks::WorkingArea>::`vftable'
PUBLIC	??_R0?AVWorkingAreaFactory@PlaneOfBlocks@@@8	; PlaneOfBlocks::WorkingAreaFactory `RTTI Type Descriptor'
PUBLIC	??_R4?$ObjFactoryInterface@VWorkingArea@PlaneOfBlocks@@@conc@@6B@ ; conc::ObjFactoryInterface<PlaneOfBlocks::WorkingArea>::`RTTI Complete Object Locator'
PUBLIC	??_R1A@?0A@EA@?$ObjFactoryInterface@VWorkingArea@PlaneOfBlocks@@@conc@@8 ; conc::ObjFactoryInterface<PlaneOfBlocks::WorkingArea>::`RTTI Base Class Descriptor at (0,-1,0,64)'
PUBLIC	??_R1A@?0A@EA@?$AtomicPtrIntPair@V?$LockFreeCell@PAVWorkingArea@PlaneOfBlocks@@@conc@@@conc@@8 ; conc::AtomicPtrIntPair<conc::LockFreeCell<PlaneOfBlocks::WorkingArea *> >::`RTTI Base Class Descriptor at (0,-1,0,64)'
PUBLIC	??_R0?AV?$ObjFactoryInterface@VWorkingArea@PlaneOfBlocks@@@conc@@@8 ; conc::ObjFactoryInterface<PlaneOfBlocks::WorkingArea> `RTTI Type Descriptor'
PUBLIC	??_R1A@?0A@EA@?$AioSub@I@conc@@8		; conc::AioSub<unsigned int>::`RTTI Base Class Descriptor at (0,-1,0,64)'
PUBLIC	??_7?$CellPool@PAVWorkingArea@PlaneOfBlocks@@@conc@@6B@ ; conc::CellPool<PlaneOfBlocks::WorkingArea *>::`vftable'
PUBLIC	??_R3?$AioSub@H@conc@@8				; conc::AioSub<int>::`RTTI Class Hierarchy Descriptor'
PUBLIC	??_R0?AV?$ObjPool@VWorkingArea@PlaneOfBlocks@@@conc@@@8 ; conc::ObjPool<PlaneOfBlocks::WorkingArea> `RTTI Type Descriptor'
PUBLIC	??_7?$AtomicPtrIntPair@V?$LockFreeCell@PAVWorkingArea@PlaneOfBlocks@@@conc@@@conc@@6B@ ; conc::AtomicPtrIntPair<conc::LockFreeCell<PlaneOfBlocks::WorkingArea *> >::`vftable'
PUBLIC	??_R4?$AioAdd@_J@conc@@6B@			; conc::AioAdd<__int64>::`RTTI Complete Object Locator'
EXTRN	_SadDummy:PROC
;	COMDAT ??_R4?$AioAdd@_J@conc@@6B@
rdata$r	SEGMENT
??_R4?$AioAdd@_J@conc@@6B@ DD 00H			; conc::AioAdd<__int64>::`RTTI Complete Object Locator'
	DD	00H
	DD	00H
	DD	FLAT:??_R0?AV?$AioAdd@_J@conc@@@8
	DD	FLAT:??_R3?$AioAdd@_J@conc@@8
rdata$r	ENDS
;	COMDAT ??_7?$AtomicPtrIntPair@V?$LockFreeCell@PAVWorkingArea@PlaneOfBlocks@@@conc@@@conc@@6B@
CONST	SEGMENT
??_7?$AtomicPtrIntPair@V?$LockFreeCell@PAVWorkingArea@PlaneOfBlocks@@@conc@@@conc@@6B@ DD FLAT:??_R4?$AtomicPtrIntPair@V?$LockFreeCell@PAVWorkingArea@PlaneOfBlocks@@@conc@@@conc@@6B@ ; conc::AtomicPtrIntPair<conc::LockFreeCell<PlaneOfBlocks::WorkingArea *> >::`vftable'
	DD	FLAT:??_E?$AtomicPtrIntPair@V?$LockFreeCell@PAVWorkingArea@PlaneOfBlocks@@@conc@@@conc@@UAEPAXI@Z
CONST	ENDS
;	COMDAT ??_R0?AV?$ObjPool@VWorkingArea@PlaneOfBlocks@@@conc@@@8
data$r	SEGMENT
??_R0?AV?$ObjPool@VWorkingArea@PlaneOfBlocks@@@conc@@@8 DD FLAT:??_7type_info@@6B@ ; conc::ObjPool<PlaneOfBlocks::WorkingArea> `RTTI Type Descriptor'
	DD	00H
	DB	'.?AV?$ObjPool@VWorkingArea@PlaneOfBlocks@@@conc@@', 00H
data$r	ENDS
;	COMDAT ??_R3?$AioSub@H@conc@@8
rdata$r	SEGMENT
??_R3?$AioSub@H@conc@@8 DD 00H				; conc::AioSub<int>::`RTTI Class Hierarchy Descriptor'
	DD	00H
	DD	01H
	DD	FLAT:??_R2?$AioSub@H@conc@@8
rdata$r	ENDS
;	COMDAT ??_7?$CellPool@PAVWorkingArea@PlaneOfBlocks@@@conc@@6B@
CONST	SEGMENT
??_7?$CellPool@PAVWorkingArea@PlaneOfBlocks@@@conc@@6B@ DD FLAT:??_R4?$CellPool@PAVWorkingArea@PlaneOfBlocks@@@conc@@6B@ ; conc::CellPool<PlaneOfBlocks::WorkingArea *>::`vftable'
	DD	FLAT:??_E?$CellPool@PAVWorkingArea@PlaneOfBlocks@@@conc@@UAEPAXI@Z
CONST	ENDS
;	COMDAT ??_R1A@?0A@EA@?$AioSub@I@conc@@8
rdata$r	SEGMENT
??_R1A@?0A@EA@?$AioSub@I@conc@@8 DD FLAT:??_R0?AV?$AioSub@I@conc@@@8 ; conc::AioSub<unsigned int>::`RTTI Base Class Descriptor at (0,-1,0,64)'
	DD	00H
	DD	00H
	DD	0ffffffffH
	DD	00H
	DD	040H
	DD	FLAT:??_R3?$AioSub@I@conc@@8
rdata$r	ENDS
;	COMDAT ??_R0?AV?$ObjFactoryInterface@VWorkingArea@PlaneOfBlocks@@@conc@@@8
data$r	SEGMENT
??_R0?AV?$ObjFactoryInterface@VWorkingArea@PlaneOfBlocks@@@conc@@@8 DD FLAT:??_7type_info@@6B@ ; conc::ObjFactoryInterface<PlaneOfBlocks::WorkingArea> `RTTI Type Descriptor'
	DD	00H
	DB	'.?AV?$ObjFactoryInterface@VWorkingArea@PlaneOfBlocks@@@c'
	DB	'onc@@', 00H
data$r	ENDS
;	COMDAT ??_R1A@?0A@EA@?$AtomicPtrIntPair@V?$LockFreeCell@PAVWorkingArea@PlaneOfBlocks@@@conc@@@conc@@8
rdata$r	SEGMENT
??_R1A@?0A@EA@?$AtomicPtrIntPair@V?$LockFreeCell@PAVWorkingArea@PlaneOfBlocks@@@conc@@@conc@@8 DD FLAT:??_R0?AV?$AtomicPtrIntPair@V?$LockFreeCell@PAVWorkingArea@PlaneOfBlocks@@@conc@@@conc@@@8 ; conc::AtomicPtrIntPair<conc::LockFreeCell<PlaneOfBlocks::WorkingArea *> >::`RTTI Base Class Descriptor at (0,-1,0,64)'
	DD	00H
	DD	00H
	DD	0ffffffffH
	DD	00H
	DD	040H
	DD	FLAT:??_R3?$AtomicPtrIntPair@V?$LockFreeCell@PAVWorkingArea@PlaneOfBlocks@@@conc@@@conc@@8
rdata$r	ENDS
;	COMDAT ??_R1A@?0A@EA@?$ObjFactoryInterface@VWorkingArea@PlaneOfBlocks@@@conc@@8
rdata$r	SEGMENT
??_R1A@?0A@EA@?$ObjFactoryInterface@VWorkingArea@PlaneOfBlocks@@@conc@@8 DD FLAT:??_R0?AV?$ObjFactoryInterface@VWorkingArea@PlaneOfBlocks@@@conc@@@8 ; conc::ObjFactoryInterface<PlaneOfBlocks::WorkingArea>::`RTTI Base Class Descriptor at (0,-1,0,64)'
	DD	00H
	DD	00H
	DD	0ffffffffH
	DD	00H
	DD	040H
	DD	FLAT:??_R3?$ObjFactoryInterface@VWorkingArea@PlaneOfBlocks@@@conc@@8
rdata$r	ENDS
;	COMDAT ??_R4?$ObjFactoryInterface@VWorkingArea@PlaneOfBlocks@@@conc@@6B@
rdata$r	SEGMENT
??_R4?$ObjFactoryInterface@VWorkingArea@PlaneOfBlocks@@@conc@@6B@ DD 00H ; conc::ObjFactoryInterface<PlaneOfBlocks::WorkingArea>::`RTTI Complete Object Locator'
	DD	00H
	DD	00H
	DD	FLAT:??_R0?AV?$ObjFactoryInterface@VWorkingArea@PlaneOfBlocks@@@conc@@@8
	DD	FLAT:??_R3?$ObjFactoryInterface@VWorkingArea@PlaneOfBlocks@@@conc@@8
rdata$r	ENDS
;	COMDAT ??_R0?AVWorkingAreaFactory@PlaneOfBlocks@@@8
data$r	SEGMENT
??_R0?AVWorkingAreaFactory@PlaneOfBlocks@@@8 DD FLAT:??_7type_info@@6B@ ; PlaneOfBlocks::WorkingAreaFactory `RTTI Type Descriptor'
	DD	00H
	DB	'.?AVWorkingAreaFactory@PlaneOfBlocks@@', 00H
data$r	ENDS
;	COMDAT ??_7?$ObjFactoryInterface@VWorkingArea@PlaneOfBlocks@@@conc@@6B@
CONST	SEGMENT
??_7?$ObjFactoryInterface@VWorkingArea@PlaneOfBlocks@@@conc@@6B@ DD FLAT:??_R4?$ObjFactoryInterface@VWorkingArea@PlaneOfBlocks@@@conc@@6B@ ; conc::ObjFactoryInterface<PlaneOfBlocks::WorkingArea>::`vftable'
	DD	FLAT:??_E?$ObjFactoryInterface@VWorkingArea@PlaneOfBlocks@@@conc@@UAEPAXI@Z
	DD	FLAT:__purecall
CONST	ENDS
;	COMDAT ??_R0?AV?$AioSub@I@conc@@@8
data$r	SEGMENT
??_R0?AV?$AioSub@I@conc@@@8 DD FLAT:??_7type_info@@6B@	; conc::AioSub<unsigned int> `RTTI Type Descriptor'
	DD	00H
	DB	'.?AV?$AioSub@I@conc@@', 00H
data$r	ENDS
;	COMDAT ??_R2?$CellPool@PAVWorkingArea@PlaneOfBlocks@@@conc@@8
rdata$r	SEGMENT
??_R2?$CellPool@PAVWorkingArea@PlaneOfBlocks@@@conc@@8 DD FLAT:??_R1A@?0A@EA@?$CellPool@PAVWorkingArea@PlaneOfBlocks@@@conc@@8 ; conc::CellPool<PlaneOfBlocks::WorkingArea *>::`RTTI Base Class Array'
rdata$r	ENDS
;	COMDAT ??_R3?$ObjFactoryInterface@VWorkingArea@PlaneOfBlocks@@@conc@@8
rdata$r	SEGMENT
??_R3?$ObjFactoryInterface@VWorkingArea@PlaneOfBlocks@@@conc@@8 DD 00H ; conc::ObjFactoryInterface<PlaneOfBlocks::WorkingArea>::`RTTI Class Hierarchy Descriptor'
	DD	00H
	DD	01H
	DD	FLAT:??_R2?$ObjFactoryInterface@VWorkingArea@PlaneOfBlocks@@@conc@@8
rdata$r	ENDS
;	COMDAT ??_R2?$AioAdd@_J@conc@@8
rdata$r	SEGMENT
??_R2?$AioAdd@_J@conc@@8 DD FLAT:??_R1A@?0A@EA@?$AioAdd@_J@conc@@8 ; conc::AioAdd<__int64>::`RTTI Base Class Array'
rdata$r	ENDS
;	COMDAT ??_R2?$AtomicPtrIntPair@V?$LockFreeCell@PAVWorkingArea@PlaneOfBlocks@@@conc@@@conc@@8
rdata$r	SEGMENT
??_R2?$AtomicPtrIntPair@V?$LockFreeCell@PAVWorkingArea@PlaneOfBlocks@@@conc@@@conc@@8 DD FLAT:??_R1A@?0A@EA@?$AtomicPtrIntPair@V?$LockFreeCell@PAVWorkingArea@PlaneOfBlocks@@@conc@@@conc@@8 ; conc::AtomicPtrIntPair<conc::LockFreeCell<PlaneOfBlocks::WorkingArea *> >::`RTTI Base Class Array'
rdata$r	ENDS
;	COMDAT ??_R1A@?0A@EA@?$LockFreeStack@PAVWorkingArea@PlaneOfBlocks@@@conc@@8
rdata$r	SEGMENT
??_R1A@?0A@EA@?$LockFreeStack@PAVWorkingArea@PlaneOfBlocks@@@conc@@8 DD FLAT:??_R0?AV?$LockFreeStack@PAVWorkingArea@PlaneOfBlocks@@@conc@@@8 ; conc::LockFreeStack<PlaneOfBlocks::WorkingArea *>::`RTTI Base Class Descriptor at (0,-1,0,64)'
	DD	00H
	DD	00H
	DD	0ffffffffH
	DD	00H
	DD	040H
	DD	FLAT:??_R3?$LockFreeStack@PAVWorkingArea@PlaneOfBlocks@@@conc@@8
rdata$r	ENDS
;	COMDAT ??_R4?$ObjPool@VWorkingArea@PlaneOfBlocks@@@conc@@6B@
rdata$r	SEGMENT
??_R4?$ObjPool@VWorkingArea@PlaneOfBlocks@@@conc@@6B@ DD 00H ; conc::ObjPool<PlaneOfBlocks::WorkingArea>::`RTTI Complete Object Locator'
	DD	00H
	DD	00H
	DD	FLAT:??_R0?AV?$ObjPool@VWorkingArea@PlaneOfBlocks@@@conc@@@8
	DD	FLAT:??_R3?$ObjPool@VWorkingArea@PlaneOfBlocks@@@conc@@8
rdata$r	ENDS
;	COMDAT ??_R3?$ObjPool@VWorkingArea@PlaneOfBlocks@@@conc@@8
rdata$r	SEGMENT
??_R3?$ObjPool@VWorkingArea@PlaneOfBlocks@@@conc@@8 DD 00H ; conc::ObjPool<PlaneOfBlocks::WorkingArea>::`RTTI Class Hierarchy Descriptor'
	DD	00H
	DD	01H
	DD	FLAT:??_R2?$ObjPool@VWorkingArea@PlaneOfBlocks@@@conc@@8
rdata$r	ENDS
;	COMDAT ??_R3?$AioSub@I@conc@@8
rdata$r	SEGMENT
??_R3?$AioSub@I@conc@@8 DD 00H				; conc::AioSub<unsigned int>::`RTTI Class Hierarchy Descriptor'
	DD	00H
	DD	01H
	DD	FLAT:??_R2?$AioSub@I@conc@@8
rdata$r	ENDS
;	COMDAT ??_R4?$LockFreeStack@PAVWorkingArea@PlaneOfBlocks@@@conc@@6B@
rdata$r	SEGMENT
??_R4?$LockFreeStack@PAVWorkingArea@PlaneOfBlocks@@@conc@@6B@ DD 00H ; conc::LockFreeStack<PlaneOfBlocks::WorkingArea *>::`RTTI Complete Object Locator'
	DD	00H
	DD	00H
	DD	FLAT:??_R0?AV?$LockFreeStack@PAVWorkingArea@PlaneOfBlocks@@@conc@@@8
	DD	FLAT:??_R3?$LockFreeStack@PAVWorkingArea@PlaneOfBlocks@@@conc@@8
rdata$r	ENDS
;	COMDAT ??_R3?$AtomicPtrIntPair@V?$LockFreeCell@PAVWorkingArea@PlaneOfBlocks@@@conc@@@conc@@8
rdata$r	SEGMENT
??_R3?$AtomicPtrIntPair@V?$LockFreeCell@PAVWorkingArea@PlaneOfBlocks@@@conc@@@conc@@8 DD 00H ; conc::AtomicPtrIntPair<conc::LockFreeCell<PlaneOfBlocks::WorkingArea *> >::`RTTI Class Hierarchy Descriptor'
	DD	00H
	DD	01H
	DD	FLAT:??_R2?$AtomicPtrIntPair@V?$LockFreeCell@PAVWorkingArea@PlaneOfBlocks@@@conc@@@conc@@8
rdata$r	ENDS
;	COMDAT ??_R1A@?0A@EA@?$CellPool@PAVWorkingArea@PlaneOfBlocks@@@conc@@8
rdata$r	SEGMENT
??_R1A@?0A@EA@?$CellPool@PAVWorkingArea@PlaneOfBlocks@@@conc@@8 DD FLAT:??_R0?AV?$CellPool@PAVWorkingArea@PlaneOfBlocks@@@conc@@@8 ; conc::CellPool<PlaneOfBlocks::WorkingArea *>::`RTTI Base Class Descriptor at (0,-1,0,64)'
	DD	00H
	DD	00H
	DD	0ffffffffH
	DD	00H
	DD	040H
	DD	FLAT:??_R3?$CellPool@PAVWorkingArea@PlaneOfBlocks@@@conc@@8
rdata$r	ENDS
;	COMDAT ??_R2?$LockFreeStack@PAVWorkingArea@PlaneOfBlocks@@@conc@@8
rdata$r	SEGMENT
??_R2?$LockFreeStack@PAVWorkingArea@PlaneOfBlocks@@@conc@@8 DD FLAT:??_R1A@?0A@EA@?$LockFreeStack@PAVWorkingArea@PlaneOfBlocks@@@conc@@8 ; conc::LockFreeStack<PlaneOfBlocks::WorkingArea *>::`RTTI Base Class Array'
rdata$r	ENDS
;	COMDAT ??_R4?$AioSub@I@conc@@6B@
rdata$r	SEGMENT
??_R4?$AioSub@I@conc@@6B@ DD 00H			; conc::AioSub<unsigned int>::`RTTI Complete Object Locator'
	DD	00H
	DD	00H
	DD	FLAT:??_R0?AV?$AioSub@I@conc@@@8
	DD	FLAT:??_R3?$AioSub@I@conc@@8
rdata$r	ENDS
;	COMDAT ??_R3?$CellPool@PAVWorkingArea@PlaneOfBlocks@@@conc@@8
rdata$r	SEGMENT
??_R3?$CellPool@PAVWorkingArea@PlaneOfBlocks@@@conc@@8 DD 00H ; conc::CellPool<PlaneOfBlocks::WorkingArea *>::`RTTI Class Hierarchy Descriptor'
	DD	00H
	DD	01H
	DD	FLAT:??_R2?$CellPool@PAVWorkingArea@PlaneOfBlocks@@@conc@@8
rdata$r	ENDS
;	COMDAT ??_R2WorkingArea@PlaneOfBlocks@@8
rdata$r	SEGMENT
??_R2WorkingArea@PlaneOfBlocks@@8 DD FLAT:??_R1A@?0A@EA@WorkingArea@PlaneOfBlocks@@8 ; PlaneOfBlocks::WorkingArea::`RTTI Base Class Array'
rdata$r	ENDS
;	COMDAT ??_R0?AV?$AioAdd@_J@conc@@@8
data$r	SEGMENT
??_R0?AV?$AioAdd@_J@conc@@@8 DD FLAT:??_7type_info@@6B@	; conc::AioAdd<__int64> `RTTI Type Descriptor'
	DD	00H
	DB	'.?AV?$AioAdd@_J@conc@@', 00H
data$r	ENDS
;	COMDAT ?hex4@?3??UMHSearch@PlaneOfBlocks@@AAEXAAVWorkingArea@2@HHH@Z@4QAY01$$CBHA
CONST	SEGMENT
?hex4@?3??UMHSearch@PlaneOfBlocks@@AAEXAAVWorkingArea@2@HHH@Z@4QAY01$$CBHA DD 0fffffffcH ; `PlaneOfBlocks::UMHSearch'::`4'::hex4
	DD	02H
	DD	0fffffffcH
	DD	01H
	DD	0fffffffcH
	DD	00H
	DD	0fffffffcH
	DD	0ffffffffH
	DD	0fffffffcH
	DD	0fffffffeH
	DD	04H
	DD	0fffffffeH
	DD	04H
	DD	0ffffffffH
	DD	04H
	DD	00H
	DD	04H
	DD	01H
	DD	04H
	DD	02H
	DD	02H
	DD	03H
	DD	00H
	DD	04H
	DD	0fffffffeH
	DD	03H
	DD	0fffffffeH
	DD	0fffffffdH
	DD	00H
	DD	0fffffffcH
	DD	02H
	DD	0fffffffdH
CONST	ENDS
;	COMDAT ??_R0?AV?$CellPool@PAVWorkingArea@PlaneOfBlocks@@@conc@@@8
data$r	SEGMENT
??_R0?AV?$CellPool@PAVWorkingArea@PlaneOfBlocks@@@conc@@@8 DD FLAT:??_7type_info@@6B@ ; conc::CellPool<PlaneOfBlocks::WorkingArea *> `RTTI Type Descriptor'
	DD	00H
	DB	'.?AV?$CellPool@PAVWorkingArea@PlaneOfBlocks@@@conc@@', 00H
data$r	ENDS
;	COMDAT ??_R4?$AioSub@H@conc@@6B@
rdata$r	SEGMENT
??_R4?$AioSub@H@conc@@6B@ DD 00H			; conc::AioSub<int>::`RTTI Complete Object Locator'
	DD	00H
	DD	00H
	DD	FLAT:??_R0?AV?$AioSub@H@conc@@@8
	DD	FLAT:??_R3?$AioSub@H@conc@@8
rdata$r	ENDS
;	COMDAT ??_7?$ObjPool@VWorkingArea@PlaneOfBlocks@@@conc@@6B@
CONST	SEGMENT
??_7?$ObjPool@VWorkingArea@PlaneOfBlocks@@@conc@@6B@ DD FLAT:??_R4?$ObjPool@VWorkingArea@PlaneOfBlocks@@@conc@@6B@ ; conc::ObjPool<PlaneOfBlocks::WorkingArea>::`vftable'
	DD	FLAT:??_E?$ObjPool@VWorkingArea@PlaneOfBlocks@@@conc@@UAEPAXI@Z
CONST	ENDS
;	COMDAT ??_R2?$ObjFactoryInterface@VWorkingArea@PlaneOfBlocks@@@conc@@8
rdata$r	SEGMENT
??_R2?$ObjFactoryInterface@VWorkingArea@PlaneOfBlocks@@@conc@@8 DD FLAT:??_R1A@?0A@EA@?$ObjFactoryInterface@VWorkingArea@PlaneOfBlocks@@@conc@@8 ; conc::ObjFactoryInterface<PlaneOfBlocks::WorkingArea>::`RTTI Base Class Array'
rdata$r	ENDS
;	COMDAT ??_7WorkingAreaFactory@PlaneOfBlocks@@6B@
CONST	SEGMENT
??_7WorkingAreaFactory@PlaneOfBlocks@@6B@ DD FLAT:??_R4WorkingAreaFactory@PlaneOfBlocks@@6B@ ; PlaneOfBlocks::WorkingAreaFactory::`vftable'
	DD	FLAT:??_EWorkingAreaFactory@PlaneOfBlocks@@UAEPAXI@Z
	DD	FLAT:?do_create@WorkingAreaFactory@PlaneOfBlocks@@MAEPAVWorkingArea@2@XZ
CONST	ENDS
;	COMDAT ??_R1A@?0A@EA@WorkingArea@PlaneOfBlocks@@8
rdata$r	SEGMENT
??_R1A@?0A@EA@WorkingArea@PlaneOfBlocks@@8 DD FLAT:??_R0?AVWorkingArea@PlaneOfBlocks@@@8 ; PlaneOfBlocks::WorkingArea::`RTTI Base Class Descriptor at (0,-1,0,64)'
	DD	00H
	DD	00H
	DD	0ffffffffH
	DD	00H
	DD	040H
	DD	FLAT:??_R3WorkingArea@PlaneOfBlocks@@8
rdata$r	ENDS
;	COMDAT ??_R3WorkingArea@PlaneOfBlocks@@8
rdata$r	SEGMENT
??_R3WorkingArea@PlaneOfBlocks@@8 DD 00H		; PlaneOfBlocks::WorkingArea::`RTTI Class Hierarchy Descriptor'
	DD	00H
	DD	01H
	DD	FLAT:??_R2WorkingArea@PlaneOfBlocks@@8
rdata$r	ENDS
;	COMDAT ??_R2?$AioSub@I@conc@@8
rdata$r	SEGMENT
??_R2?$AioSub@I@conc@@8 DD FLAT:??_R1A@?0A@EA@?$AioSub@I@conc@@8 ; conc::AioSub<unsigned int>::`RTTI Base Class Array'
rdata$r	ENDS
;	COMDAT ??_R0?AVWorkingArea@PlaneOfBlocks@@@8
data$r	SEGMENT
??_R0?AVWorkingArea@PlaneOfBlocks@@@8 DD FLAT:??_7type_info@@6B@ ; PlaneOfBlocks::WorkingArea `RTTI Type Descriptor'
	DD	00H
	DB	'.?AVWorkingArea@PlaneOfBlocks@@', 00H
data$r	ENDS
;	COMDAT ??_R1A@?0A@EA@?$ObjPool@VWorkingArea@PlaneOfBlocks@@@conc@@8
rdata$r	SEGMENT
??_R1A@?0A@EA@?$ObjPool@VWorkingArea@PlaneOfBlocks@@@conc@@8 DD FLAT:??_R0?AV?$ObjPool@VWorkingArea@PlaneOfBlocks@@@conc@@@8 ; conc::ObjPool<PlaneOfBlocks::WorkingArea>::`RTTI Base Class Descriptor at (0,-1,0,64)'
	DD	00H
	DD	00H
	DD	0ffffffffH
	DD	00H
	DD	040H
	DD	FLAT:??_R3?$ObjPool@VWorkingArea@PlaneOfBlocks@@@conc@@8
rdata$r	ENDS
;	COMDAT ??_7?$LockFreeStack@PAVWorkingArea@PlaneOfBlocks@@@conc@@6B@
CONST	SEGMENT
??_7?$LockFreeStack@PAVWorkingArea@PlaneOfBlocks@@@conc@@6B@ DD FLAT:??_R4?$LockFreeStack@PAVWorkingArea@PlaneOfBlocks@@@conc@@6B@ ; conc::LockFreeStack<PlaneOfBlocks::WorkingArea *>::`vftable'
	DD	FLAT:??_E?$LockFreeStack@PAVWorkingArea@PlaneOfBlocks@@@conc@@UAEPAXI@Z
CONST	ENDS
;	COMDAT ??_R0?AV?$LockFreeStack@PAVWorkingArea@PlaneOfBlocks@@@conc@@@8
data$r	SEGMENT
??_R0?AV?$LockFreeStack@PAVWorkingArea@PlaneOfBlocks@@@conc@@@8 DD FLAT:??_7type_info@@6B@ ; conc::LockFreeStack<PlaneOfBlocks::WorkingArea *> `RTTI Type Descriptor'
	DD	00H
	DB	'.?AV?$LockFreeStack@PAVWorkingArea@PlaneOfBlocks@@@conc@'
	DB	'@', 00H
data$r	ENDS
;	COMDAT ??_R4WorkingArea@PlaneOfBlocks@@6B@
rdata$r	SEGMENT
??_R4WorkingArea@PlaneOfBlocks@@6B@ DD 00H		; PlaneOfBlocks::WorkingArea::`RTTI Complete Object Locator'
	DD	00H
	DD	00H
	DD	FLAT:??_R0?AVWorkingArea@PlaneOfBlocks@@@8
	DD	FLAT:??_R3WorkingArea@PlaneOfBlocks@@8
rdata$r	ENDS
;	COMDAT ??_R0?AV?$AtomicPtrIntPair@V?$LockFreeCell@PAVWorkingArea@PlaneOfBlocks@@@conc@@@conc@@@8
data$r	SEGMENT
??_R0?AV?$AtomicPtrIntPair@V?$LockFreeCell@PAVWorkingArea@PlaneOfBlocks@@@conc@@@conc@@@8 DD FLAT:??_7type_info@@6B@ ; conc::AtomicPtrIntPair<conc::LockFreeCell<PlaneOfBlocks::WorkingArea *> > `RTTI Type Descriptor'
	DD	00H
	DB	'.?AV?$AtomicPtrIntPair@V?$LockFreeCell@PAVWorkingArea@Pl'
	DB	'aneOfBlocks@@@conc@@@conc@@', 00H
data$r	ENDS
;	COMDAT ??_R1A@?0A@EA@?$AioAdd@_J@conc@@8
rdata$r	SEGMENT
??_R1A@?0A@EA@?$AioAdd@_J@conc@@8 DD FLAT:??_R0?AV?$AioAdd@_J@conc@@@8 ; conc::AioAdd<__int64>::`RTTI Base Class Descriptor at (0,-1,0,64)'
	DD	00H
	DD	00H
	DD	0ffffffffH
	DD	00H
	DD	040H
	DD	FLAT:??_R3?$AioAdd@_J@conc@@8
rdata$r	ENDS
;	COMDAT ??_7?$AioSub@I@conc@@6B@
CONST	SEGMENT
??_7?$AioSub@I@conc@@6B@ DD FLAT:??_R4?$AioSub@I@conc@@6B@ ; conc::AioSub<unsigned int>::`vftable'
	DD	FLAT:??_E?$AioSub@I@conc@@UAEPAXI@Z
CONST	ENDS
;	COMDAT ??_7?$AioSub@H@conc@@6B@
CONST	SEGMENT
??_7?$AioSub@H@conc@@6B@ DD FLAT:??_R4?$AioSub@H@conc@@6B@ ; conc::AioSub<int>::`vftable'
	DD	FLAT:??_E?$AioSub@H@conc@@UAEPAXI@Z
CONST	ENDS
;	COMDAT ??_R3?$LockFreeStack@PAVWorkingArea@PlaneOfBlocks@@@conc@@8
rdata$r	SEGMENT
??_R3?$LockFreeStack@PAVWorkingArea@PlaneOfBlocks@@@conc@@8 DD 00H ; conc::LockFreeStack<PlaneOfBlocks::WorkingArea *>::`RTTI Class Hierarchy Descriptor'
	DD	00H
	DD	01H
	DD	FLAT:??_R2?$LockFreeStack@PAVWorkingArea@PlaneOfBlocks@@@conc@@8
rdata$r	ENDS
;	COMDAT ??_R1A@?0A@EA@?$AioSub@H@conc@@8
rdata$r	SEGMENT
??_R1A@?0A@EA@?$AioSub@H@conc@@8 DD FLAT:??_R0?AV?$AioSub@H@conc@@@8 ; conc::AioSub<int>::`RTTI Base Class Descriptor at (0,-1,0,64)'
	DD	00H
	DD	00H
	DD	0ffffffffH
	DD	00H
	DD	040H
	DD	FLAT:??_R3?$AioSub@H@conc@@8
rdata$r	ENDS
;	COMDAT ??_7WorkingArea@PlaneOfBlocks@@6B@
CONST	SEGMENT
??_7WorkingArea@PlaneOfBlocks@@6B@ DD FLAT:??_R4WorkingArea@PlaneOfBlocks@@6B@ ; PlaneOfBlocks::WorkingArea::`vftable'
	DD	FLAT:??_EWorkingArea@PlaneOfBlocks@@UAEPAXI@Z
CONST	ENDS
;	COMDAT ??_R1A@?0A@EA@WorkingAreaFactory@PlaneOfBlocks@@8
rdata$r	SEGMENT
??_R1A@?0A@EA@WorkingAreaFactory@PlaneOfBlocks@@8 DD FLAT:??_R0?AVWorkingAreaFactory@PlaneOfBlocks@@@8 ; PlaneOfBlocks::WorkingAreaFactory::`RTTI Base Class Descriptor at (0,-1,0,64)'
	DD	01H
	DD	00H
	DD	0ffffffffH
	DD	00H
	DD	040H
	DD	FLAT:??_R3WorkingAreaFactory@PlaneOfBlocks@@8
rdata$r	ENDS
;	COMDAT ??_7?$AioAdd@_J@conc@@6B@
CONST	SEGMENT
??_7?$AioAdd@_J@conc@@6B@ DD FLAT:??_R4?$AioAdd@_J@conc@@6B@ ; conc::AioAdd<__int64>::`vftable'
	DD	FLAT:??_E?$AioAdd@_J@conc@@UAEPAXI@Z
CONST	ENDS
;	COMDAT ??_R4?$CellPool@PAVWorkingArea@PlaneOfBlocks@@@conc@@6B@
rdata$r	SEGMENT
??_R4?$CellPool@PAVWorkingArea@PlaneOfBlocks@@@conc@@6B@ DD 00H ; conc::CellPool<PlaneOfBlocks::WorkingArea *>::`RTTI Complete Object Locator'
	DD	00H
	DD	00H
	DD	FLAT:??_R0?AV?$CellPool@PAVWorkingArea@PlaneOfBlocks@@@conc@@@8
	DD	FLAT:??_R3?$CellPool@PAVWorkingArea@PlaneOfBlocks@@@conc@@8
rdata$r	ENDS
;	COMDAT ??_R3?$AioAdd@_J@conc@@8
rdata$r	SEGMENT
??_R3?$AioAdd@_J@conc@@8 DD 00H				; conc::AioAdd<__int64>::`RTTI Class Hierarchy Descriptor'
	DD	00H
	DD	01H
	DD	FLAT:??_R2?$AioAdd@_J@conc@@8
rdata$r	ENDS
;	COMDAT ??_R4WorkingAreaFactory@PlaneOfBlocks@@6B@
rdata$r	SEGMENT
??_R4WorkingAreaFactory@PlaneOfBlocks@@6B@ DD 00H	; PlaneOfBlocks::WorkingAreaFactory::`RTTI Complete Object Locator'
	DD	00H
	DD	00H
	DD	FLAT:??_R0?AVWorkingAreaFactory@PlaneOfBlocks@@@8
	DD	FLAT:??_R3WorkingAreaFactory@PlaneOfBlocks@@8
rdata$r	ENDS
;	COMDAT ??_R0?AV?$AioSub@H@conc@@@8
data$r	SEGMENT
??_R0?AV?$AioSub@H@conc@@@8 DD FLAT:??_7type_info@@6B@	; conc::AioSub<int> `RTTI Type Descriptor'
	DD	00H
	DB	'.?AV?$AioSub@H@conc@@', 00H
data$r	ENDS
;	COMDAT ??_R2?$ObjPool@VWorkingArea@PlaneOfBlocks@@@conc@@8
rdata$r	SEGMENT
??_R2?$ObjPool@VWorkingArea@PlaneOfBlocks@@@conc@@8 DD FLAT:??_R1A@?0A@EA@?$ObjPool@VWorkingArea@PlaneOfBlocks@@@conc@@8 ; conc::ObjPool<PlaneOfBlocks::WorkingArea>::`RTTI Base Class Array'
rdata$r	ENDS
;	COMDAT ??_R2?$AioSub@H@conc@@8
rdata$r	SEGMENT
??_R2?$AioSub@H@conc@@8 DD FLAT:??_R1A@?0A@EA@?$AioSub@H@conc@@8 ; conc::AioSub<int>::`RTTI Base Class Array'
rdata$r	ENDS
;	COMDAT ??_R3WorkingAreaFactory@PlaneOfBlocks@@8
rdata$r	SEGMENT
??_R3WorkingAreaFactory@PlaneOfBlocks@@8 DD 00H		; PlaneOfBlocks::WorkingAreaFactory::`RTTI Class Hierarchy Descriptor'
	DD	00H
	DD	02H
	DD	FLAT:??_R2WorkingAreaFactory@PlaneOfBlocks@@8
rdata$r	ENDS
;	COMDAT ??_R4?$AtomicPtrIntPair@V?$LockFreeCell@PAVWorkingArea@PlaneOfBlocks@@@conc@@@conc@@6B@
rdata$r	SEGMENT
??_R4?$AtomicPtrIntPair@V?$LockFreeCell@PAVWorkingArea@PlaneOfBlocks@@@conc@@@conc@@6B@ DD 00H ; conc::AtomicPtrIntPair<conc::LockFreeCell<PlaneOfBlocks::WorkingArea *> >::`RTTI Complete Object Locator'
	DD	00H
	DD	00H
	DD	FLAT:??_R0?AV?$AtomicPtrIntPair@V?$LockFreeCell@PAVWorkingArea@PlaneOfBlocks@@@conc@@@conc@@@8
	DD	FLAT:??_R3?$AtomicPtrIntPair@V?$LockFreeCell@PAVWorkingArea@PlaneOfBlocks@@@conc@@@conc@@8
rdata$r	ENDS
;	COMDAT ??_R2WorkingAreaFactory@PlaneOfBlocks@@8
rdata$r	SEGMENT
??_R2WorkingAreaFactory@PlaneOfBlocks@@8 DD FLAT:??_R1A@?0A@EA@WorkingAreaFactory@PlaneOfBlocks@@8 ; PlaneOfBlocks::WorkingAreaFactory::`RTTI Base Class Array'
	DD	FLAT:??_R1A@?0A@EA@?$ObjFactoryInterface@VWorkingArea@PlaneOfBlocks@@@conc@@8
rdata$r	ENDS
;	COMDAT ??_C@_0CF@IAFINEIK@best?5blk?$DN?$CFd?5x?$DN?$CFd?5y?$DN?$CFd?5sad?$DN?$CFd?5ite@
CONST	SEGMENT
??_C@_0CF@IAFINEIK@best?5blk?$DN?$CFd?5x?$DN?$CFd?5y?$DN?$CFd?5sad?$DN?$CFd?5ite@ DB 'b'
	DB	'est blk=%d x=%d y=%d sad=%d iter=%d', 00H	; `string'
CONST	ENDS
;	COMDAT ??_C@_0CN@NLNDHOHM@bad?5?5blk?$DN?$CFd?5x?$DN?$CFd?5y?$DN?$CFd?5sad?$DN?$CFd?5mea@
CONST	SEGMENT
??_C@_0CN@NLNDHOHM@bad?5?5blk?$DN?$CFd?5x?$DN?$CFd?5y?$DN?$CFd?5sad?$DN?$CFd?5mea@ DB 'b'
	DB	'ad  blk=%d x=%d y=%d sad=%d mean=%d iter=%d', 00H ; `string'
CONST	ENDS
;	COMDAT ??_C@_0CK@INGOFGFH@return_obj?$CI?$CJ?3?5cannot?5allocate?5a?5@
CONST	SEGMENT
??_C@_0CK@INGOFGFH@return_obj?$CI?$CJ?3?5cannot?5allocate?5a?5@ DB 'retur'
	DB	'n_obj(): cannot allocate a new cell.', 00H	; `string'
CONST	ENDS
;	COMDAT ??_C@_0EA@OOMJLBPB@MVTools?3?5error?5while?5trying?5to?5a@
CONST	SEGMENT
??_C@_0EA@OOMJLBPB@MVTools?3?5error?5while?5trying?5to?5a@ DB 'MVTools: e'
	DB	'rror while trying to allocate DCT objects using FFTW.', 00H ; `string'
?zeroMV@@3UVECTOR@@B DD 00H				; zeroMV
	DD	00H
	DD	0ffffffffH
	ORG $+4
?hex2@@3QAY01$$CBHA DD 0ffffffffH			; hex2
	DD	0fffffffeH
	DD	0fffffffeH
	DD	00H
	DD	0ffffffffH
	DD	02H
	DD	01H
	DD	02H
	DD	02H
	DD	00H
	DD	01H
	DD	0fffffffeH
	DD	0ffffffffH
	DD	0fffffffeH
	DD	0fffffffeH
	DD	00H
?mod6m1@@3QBHB DD 05H					; mod6m1
	DD	00H
	DD	01H
	DD	02H
	DD	03H
	DD	04H
	DD	05H
	DD	00H
PUBLIC	?construct@?$AllocAlign@E$0BA@@@QAEXPAEABE@Z	; AllocAlign<unsigned char,16>::construct
PUBLIC	??$_Construct1@EE@?$allocator_traits@V?$AllocAlign@E$0BA@@@@std@@SAXU?$integral_constant@_N$0A@@1@AAV?$AllocAlign@E$0BA@@@PAE$$QAE@Z ; std::allocator_traits<AllocAlign<unsigned char,16> >::_Construct1<unsigned char,unsigned char>
PUBLIC	??R?$AioSub@I@conc@@QBEII@Z			; conc::AioSub<unsigned int>::operator()
PUBLIC	??$construct@EE@?$allocator_traits@V?$AllocAlign@E$0BA@@@@std@@SAXAAV?$AllocAlign@E$0BA@@@PAE$$QAE@Z ; std::allocator_traits<AllocAlign<unsigned char,16> >::construct<unsigned char,unsigned char>
PUBLIC	??$forward@E@std@@YA$$QAEAAE@Z			; std::forward<unsigned char>
PUBLIC	??$exec_both@IV?$AioSub@I@conc@@@AtomicIntOp@conc@@SAXAAV?$AtomicInt@I@1@AAV?$AioSub@I@1@AAI2@Z ; conc::AtomicIntOp::exec_both<unsigned int,conc::AioSub<unsigned int> >
PUBLIC	?destroy@?$AllocAlign@E$0BA@@@QAEXPAE@Z		; AllocAlign<unsigned char,16>::destroy
PUBLIC	??$_Destroy1@E@?$allocator_traits@V?$AllocAlign@E$0BA@@@@std@@SAXAAV?$AllocAlign@E$0BA@@@PAEU?$integral_constant@_N$0A@@1@@Z ; std::allocator_traits<AllocAlign<unsigned char,16> >::_Destroy1<unsigned char>
PUBLIC	??$construct@EE@?$_Wrap_alloc@V?$AllocAlign@E$0BA@@@@std@@QAEXPAE$$QAE@Z ; std::_Wrap_alloc<AllocAlign<unsigned char,16> >::construct<unsigned char,unsigned char>
PUBLIC	??$_Copy_memmove@PAPAVDCTClass@@PAPAV1@@std@@YAPAPAVDCTClass@@PAPAV1@00@Z ; std::_Copy_memmove<DCTClass * *,DCTClass * *>
PUBLIC	??$construct@UVECTOR@@$$V@?$allocator@UVECTOR@@@std@@QAEXPAUVECTOR@@@Z ; std::allocator<VECTOR>::construct<VECTOR>
PUBLIC	??$exec@IV?$AioSub@I@conc@@@AtomicIntOp@conc@@SAXAAV?$AtomicInt@I@1@AAV?$AioSub@I@1@@Z ; conc::AtomicIntOp::exec<unsigned int,conc::AioSub<unsigned int> >
PUBLIC	??0?$AioSub@I@conc@@QAE@I@Z			; conc::AioSub<unsigned int>::AioSub<unsigned int>
PUBLIC	??$move@AAE@std@@YA$$QAEAAE@Z			; std::move<unsigned char &>
PUBLIC	??_G?$AioSub@I@conc@@UAEPAXI@Z			; conc::AioSub<unsigned int>::`scalar deleting destructor'
PUBLIC	??1?$AioSub@I@conc@@UAE@XZ			; conc::AioSub<unsigned int>::~AioSub<unsigned int>
PUBLIC	??$destroy@E@?$allocator_traits@V?$AllocAlign@E$0BA@@@@std@@SAXAAV?$AllocAlign@E$0BA@@@PAE@Z ; std::allocator_traits<AllocAlign<unsigned char,16> >::destroy<unsigned char>
PUBLIC	??$?0U?$integral_constant@_N$0A@@std@@@_Any_tag@std@@QAE@$$QAU?$integral_constant@_N$0A@@1@@Z ; std::_Any_tag::_Any_tag<std::integral_constant<bool,0> >
PUBLIC	??$_Uninitialized_move_al_unchecked1@PAEPAEV?$AllocAlign@E$0BA@@@@std@@YAPAEPAE00AAU?$_Wrap_alloc@V?$AllocAlign@E$0BA@@@@0@U_General_ptr_iterator_tag@0@U_Any_tag@0@@Z ; std::_Uninitialized_move_al_unchecked1<unsigned char *,unsigned char *,AllocAlign<unsigned char,16> >
PUBLIC	??$_Ptr_move_cat@EE@std@@YA?AU_Really_trivial_ptr_iterator_tag@0@ABQAE0@Z ; std::_Ptr_move_cat<unsigned char,unsigned char>
PUBLIC	??$_Uninitialized_move_al_unchecked1@PAVDCTClass@@PAV1@V?$allocator@PAVDCTClass@@@std@@@std@@YAPAPAVDCTClass@@PAPAV1@00AAU?$_Wrap_alloc@V?$allocator@PAVDCTClass@@@std@@@0@U_Really_trivial_ptr_iterator_tag@0@U?$integral_constant@_N$00@0@@Z ; std::_Uninitialized_move_al_unchecked1<DCTClass *,DCTClass *,std::allocator<DCTClass *> >
PUBLIC	??$_Ptr_move_cat@PAVDCTClass@@PAV1@@std@@YA?AU_Really_trivial_ptr_iterator_tag@0@ABQAPAVDCTClass@@0@Z ; std::_Ptr_move_cat<DCTClass *,DCTClass *>
PUBLIC	??$construct@UVECTOR@@$$V@?$allocator_traits@V?$allocator@UVECTOR@@@std@@@std@@SAXAAV?$allocator@UVECTOR@@@1@PAUVECTOR@@@Z ; std::allocator_traits<std::allocator<VECTOR> >::construct<VECTOR>
PUBLIC	??R?$AioAdd@_J@conc@@QBE_J_J@Z			; conc::AioAdd<__int64>::operator()
PUBLIC	?cas_combi@?$AtomicPtrIntPair@V?$LockFreeCell@PAVWorkingArea@PlaneOfBlocks@@@conc@@@conc@@CAXAATCombi@12@0ABT312@1@Z ; conc::AtomicPtrIntPair<conc::LockFreeCell<PlaneOfBlocks::WorkingArea *> >::cas_combi
PUBLIC	?read_ptr@?$AtomicPtr@V?$LockFreeCell@PAVWorkingArea@PlaneOfBlocks@@@conc@@@conc@@ABEPAV?$LockFreeCell@PAVWorkingArea@PlaneOfBlocks@@@2@XZ ; conc::AtomicPtr<conc::LockFreeCell<PlaneOfBlocks::WorkingArea *> >::read_ptr
PUBLIC	?cas@?$AtomicPtr@V?$LockFreeCell@PAVWorkingArea@PlaneOfBlocks@@@conc@@@conc@@QAEPAV?$LockFreeCell@PAVWorkingArea@PlaneOfBlocks@@@2@PAV32@0@Z ; conc::AtomicPtr<conc::LockFreeCell<PlaneOfBlocks::WorkingArea *> >::cas
PUBLIC	?cas@?$AtomicInt@_J@conc@@QAE_J_J0@Z		; conc::AtomicInt<__int64>::cas
PUBLIC	??Z?$AtomicInt@I@conc@@QAEAAV01@ABI@Z		; conc::AtomicInt<unsigned int>::operator-=
PUBLIC	??0?$LockFreeCell@PAVWorkingArea@PlaneOfBlocks@@@conc@@QAE@XZ ; conc::LockFreeCell<PlaneOfBlocks::WorkingArea *>::LockFreeCell<PlaneOfBlocks::WorkingArea *>
PUBLIC	??$destroy@E@?$_Wrap_alloc@V?$AllocAlign@E$0BA@@@@std@@QAEXPAE@Z ; std::_Wrap_alloc<AllocAlign<unsigned char,16> >::destroy<unsigned char>
PUBLIC	??$_Uninitialized_move_al_unchecked@PAEPAEV?$AllocAlign@E$0BA@@@@std@@YAPAEPAE00AAU?$_Wrap_alloc@V?$AllocAlign@E$0BA@@@@0@@Z ; std::_Uninitialized_move_al_unchecked<unsigned char *,unsigned char *,AllocAlign<unsigned char,16> >
PUBLIC	??$_Rechecked@PAPAVDCTClass@@PAPAV1@@std@@YAAAPAPAVDCTClass@@AAPAPAV1@PAPAV1@@Z ; std::_Rechecked<DCTClass * *,DCTClass * *>
PUBLIC	??$_Uninitialized_move_al_unchecked@PAPAVDCTClass@@PAPAV1@V?$allocator@PAVDCTClass@@@std@@@std@@YAPAPAVDCTClass@@PAPAV1@00AAU?$_Wrap_alloc@V?$allocator@PAVDCTClass@@@std@@@0@@Z ; std::_Uninitialized_move_al_unchecked<DCTClass * *,DCTClass * *,std::allocator<DCTClass *> >
PUBLIC	??$_Unchecked@PAPAVDCTClass@@@std@@YAPAPAVDCTClass@@PAPAV1@@Z ; std::_Unchecked<DCTClass * *>
PUBLIC	??$construct@UVECTOR@@$$V@?$_Wrap_alloc@V?$allocator@UVECTOR@@@std@@@std@@QAEXPAUVECTOR@@@Z ; std::_Wrap_alloc<std::allocator<VECTOR> >::construct<VECTOR>
PUBLIC	??$construct@PAVDCTClass@@ABQAV1@@?$allocator@PAVDCTClass@@@std@@QAEXPAPAVDCTClass@@ABQAV2@@Z ; std::allocator<DCTClass *>::construct<DCTClass *,DCTClass * const &>
PUBLIC	??$construct@PAVDCTClass@@AAPAV1@@?$allocator@PAVDCTClass@@@std@@QAEXPAPAVDCTClass@@AAPAV2@@Z ; std::allocator<DCTClass *>::construct<DCTClass *,DCTClass * &>
PUBLIC	??$destroy@PAVDCTClass@@@?$allocator@PAVDCTClass@@@std@@QAEXPAPAVDCTClass@@@Z ; std::allocator<DCTClass *>::destroy<DCTClass *>
PUBLIC	??$exec_both@_JV?$AioAdd@_J@conc@@@AtomicIntOp@conc@@SAXAAV?$AtomicInt@_J@1@AAV?$AioAdd@_J@1@AA_J2@Z ; conc::AtomicIntOp::exec_both<__int64,conc::AioAdd<__int64> >
PUBLIC	??$_Unfancy@UVECTOR@@@std@@YAPAUVECTOR@@PAU1@@Z	; std::_Unfancy<VECTOR>
PUBLIC	??$_Unfancy@E@std@@YAPAEPAE@Z			; std::_Unfancy<unsigned char>
PUBLIC	??R?$AioSub@H@conc@@QBEHH@Z			; conc::AioSub<int>::operator()
PUBLIC	?compute_total_size_for_zones@?$CellPool@PAVDCTClass@@@conc@@CAIH@Z ; conc::CellPool<DCTClass *>::compute_total_size_for_zones
PUBLIC	?cas2@?$AtomicPtrIntPair@V?$LockFreeCell@PAVWorkingArea@PlaneOfBlocks@@@conc@@@conc@@QAE_NPAV?$LockFreeCell@PAVWorkingArea@PlaneOfBlocks@@@2@H0H@Z ; conc::AtomicPtrIntPair<conc::LockFreeCell<PlaneOfBlocks::WorkingArea *> >::cas2
PUBLIC	?get_val@?$AtomicPtrIntPair@V?$LockFreeCell@PAVWorkingArea@PlaneOfBlocks@@@conc@@@conc@@QBEHXZ ; conc::AtomicPtrIntPair<conc::LockFreeCell<PlaneOfBlocks::WorkingArea *> >::get_val
PUBLIC	?get_ptr@?$AtomicPtrIntPair@V?$LockFreeCell@PAVWorkingArea@PlaneOfBlocks@@@conc@@@conc@@QBEPAV?$LockFreeCell@PAVWorkingArea@PlaneOfBlocks@@@2@XZ ; conc::AtomicPtrIntPair<conc::LockFreeCell<PlaneOfBlocks::WorkingArea *> >::get_ptr
PUBLIC	?set@?$AtomicPtrIntPair@V?$LockFreeCell@PAVWorkingArea@PlaneOfBlocks@@@conc@@@conc@@QAEXPAV?$LockFreeCell@PAVWorkingArea@PlaneOfBlocks@@@2@H@Z ; conc::AtomicPtrIntPair<conc::LockFreeCell<PlaneOfBlocks::WorkingArea *> >::set
PUBLIC	??0?$AtomicPtrIntPair@V?$LockFreeCell@PAVWorkingArea@PlaneOfBlocks@@@conc@@@conc@@QAE@XZ ; conc::AtomicPtrIntPair<conc::LockFreeCell<PlaneOfBlocks::WorkingArea *> >::AtomicPtrIntPair<conc::LockFreeCell<PlaneOfBlocks::WorkingArea *> >
PUBLIC	??A?$Array@V?$AtomicPtr@V?$LockFreeCell@PAVWorkingArea@PlaneOfBlocks@@@conc@@@conc@@$0EA@@conc@@QAEAAV?$AtomicPtr@V?$LockFreeCell@PAVWorkingArea@PlaneOfBlocks@@@conc@@@1@J@Z ; conc::Array<conc::AtomicPtr<conc::LockFreeCell<PlaneOfBlocks::WorkingArea *> >,64>::operator[]
PUBLIC	??B?$AtomicPtr@V?$LockFreeCell@PAVWorkingArea@PlaneOfBlocks@@@conc@@@conc@@QBEPAV?$LockFreeCell@PAVWorkingArea@PlaneOfBlocks@@@1@XZ ; conc::AtomicPtr<conc::LockFreeCell<PlaneOfBlocks::WorkingArea *> >::operator conc::LockFreeCell<PlaneOfBlocks::WorkingArea *> *
PUBLIC	??4?$AtomicPtr@V?$LockFreeCell@PAVWorkingArea@PlaneOfBlocks@@@conc@@@conc@@QAEAAV01@PAV?$LockFreeCell@PAVWorkingArea@PlaneOfBlocks@@@1@@Z ; conc::AtomicPtr<conc::LockFreeCell<PlaneOfBlocks::WorkingArea *> >::operator=
PUBLIC	??0?$AtomicPtr@V?$LockFreeCell@PAVWorkingArea@PlaneOfBlocks@@@conc@@@conc@@QAE@XZ ; conc::AtomicPtr<conc::LockFreeCell<PlaneOfBlocks::WorkingArea *> >::AtomicPtr<conc::LockFreeCell<PlaneOfBlocks::WorkingArea *> >
PUBLIC	?compute_total_size_for_zones@?$CellPool@PAVWorkingArea@PlaneOfBlocks@@@conc@@CAIH@Z ; conc::CellPool<PlaneOfBlocks::WorkingArea *>::compute_total_size_for_zones
PUBLIC	?compute_grown_size@?$CellPool@PAVWorkingArea@PlaneOfBlocks@@@conc@@CAII@Z ; conc::CellPool<PlaneOfBlocks::WorkingArea *>::compute_grown_size
PUBLIC	?allocate_zone@?$CellPool@PAVWorkingArea@PlaneOfBlocks@@@conc@@AAEXHIAAV?$AtomicPtr@V?$LockFreeCell@PAVWorkingArea@PlaneOfBlocks@@@conc@@@2@@Z ; conc::CellPool<PlaneOfBlocks::WorkingArea *>::allocate_zone
PUBLIC	?delete_obj_stack@?$ObjPool@VWorkingArea@PlaneOfBlocks@@@conc@@AAEHAAV?$LockFreeStack@PAVWorkingArea@PlaneOfBlocks@@@2@_N@Z ; conc::ObjPool<PlaneOfBlocks::WorkingArea>::delete_obj_stack
PUBLIC	??F?$AtomicInt@I@conc@@QAEAAV01@XZ		; conc::AtomicInt<unsigned int>::operator--
PUBLIC	??0?$Array@V?$AtomicPtr@V?$LockFreeCell@PAVWorkingArea@PlaneOfBlocks@@@conc@@@conc@@$0EA@@conc@@QAE@XZ ; conc::Array<conc::AtomicPtr<conc::LockFreeCell<PlaneOfBlocks::WorkingArea *> >,64>::Array<conc::AtomicPtr<conc::LockFreeCell<PlaneOfBlocks::WorkingArea *> >,64>
PUBLIC	??$_Destroy_range1@V?$allocator@UVECTOR@@@std@@PAUVECTOR@@@std@@YAXPAUVECTOR@@0AAU?$_Wrap_alloc@V?$allocator@UVECTOR@@@std@@@0@U?$integral_constant@_N$00@0@@Z ; std::_Destroy_range1<std::allocator<VECTOR>,VECTOR *>
PUBLIC	??$_Destroy_range1@V?$AllocAlign@E$0BA@@@PAE@std@@YAXPAE0AAU?$_Wrap_alloc@V?$AllocAlign@E$0BA@@@@0@U?$integral_constant@_N$0A@@0@@Z ; std::_Destroy_range1<AllocAlign<unsigned char,16>,unsigned char *>
PUBLIC	??$_Uninitialized_move@PAEPAEV?$AllocAlign@E$0BA@@@@std@@YAPAEPAE00AAU?$_Wrap_alloc@V?$AllocAlign@E$0BA@@@@0@@Z ; std::_Uninitialized_move<unsigned char *,unsigned char *,AllocAlign<unsigned char,16> >
PUBLIC	??$_Destroy_range1@V?$allocator@PAVDCTClass@@@std@@PAPAVDCTClass@@@std@@YAXPAPAVDCTClass@@0AAU?$_Wrap_alloc@V?$allocator@PAVDCTClass@@@std@@@0@U?$integral_constant@_N$00@0@@Z ; std::_Destroy_range1<std::allocator<DCTClass *>,DCTClass * *>
PUBLIC	??$_Uninitialized_move@PAPAVDCTClass@@PAPAV1@V?$allocator@PAVDCTClass@@@std@@@std@@YAPAPAVDCTClass@@PAPAV1@00AAU?$_Wrap_alloc@V?$allocator@PAVDCTClass@@@std@@@0@@Z ; std::_Uninitialized_move<DCTClass * *,DCTClass * *,std::allocator<DCTClass *> >
PUBLIC	??$_Uninitialized_default_fill_n1@PAUVECTOR@@IV?$allocator@UVECTOR@@@std@@@std@@YAXPAUVECTOR@@IAAU?$_Wrap_alloc@V?$allocator@UVECTOR@@@std@@@0@U?$integral_constant@_N$0A@@0@@Z ; std::_Uninitialized_default_fill_n1<VECTOR *,unsigned int,std::allocator<VECTOR> >
PUBLIC	??$_Uninitialized_default_fill_n1@PAEIV?$AllocAlign@E$0BA@@@@std@@YAXPAEIAAU?$_Wrap_alloc@V?$AllocAlign@E$0BA@@@@0@U?$integral_constant@_N$00@0@@Z ; std::_Uninitialized_default_fill_n1<unsigned char *,unsigned int,AllocAlign<unsigned char,16> >
PUBLIC	??$construct@PAVDCTClass@@ABQAV1@@?$allocator_traits@V?$allocator@PAVDCTClass@@@std@@@std@@SAXAAV?$allocator@PAVDCTClass@@@1@PAPAVDCTClass@@ABQAV3@@Z ; std::allocator_traits<std::allocator<DCTClass *> >::construct<DCTClass *,DCTClass * const &>
PUBLIC	??$forward@ABQAVDCTClass@@@std@@YAABQAVDCTClass@@ABQAV1@@Z ; std::forward<DCTClass * const &>
PUBLIC	??$construct@PAVDCTClass@@AAPAV1@@?$allocator_traits@V?$allocator@PAVDCTClass@@@std@@@std@@SAXAAV?$allocator@PAVDCTClass@@@1@PAPAVDCTClass@@AAPAV3@@Z ; std::allocator_traits<std::allocator<DCTClass *> >::construct<DCTClass *,DCTClass * &>
PUBLIC	??$forward@AAPAVDCTClass@@@std@@YAAAPAVDCTClass@@AAPAV1@@Z ; std::forward<DCTClass * &>
PUBLIC	??$destroy@PAVDCTClass@@@?$allocator_traits@V?$allocator@PAVDCTClass@@@std@@@std@@SAXAAV?$allocator@PAVDCTClass@@@1@PAPAVDCTClass@@@Z ; std::allocator_traits<std::allocator<DCTClass *> >::destroy<DCTClass *>
PUBLIC	??$FetchPredictors@G@PlaneOfBlocks@@AAEXAAVWorkingArea@0@@Z ; PlaneOfBlocks::FetchPredictors<unsigned short>
PUBLIC	??$FetchPredictors@E@PlaneOfBlocks@@AAEXAAVWorkingArea@0@@Z ; PlaneOfBlocks::FetchPredictors<unsigned char>
PUBLIC	??$exec_both@HV?$AioSub@H@conc@@@AtomicIntOp@conc@@SAXAAV?$AtomicInt@H@1@AAV?$AioSub@H@1@AAH2@Z ; conc::AtomicIntOp::exec_both<int,conc::AioSub<int> >
PUBLIC	??$exec@_JV?$AioAdd@_J@conc@@@AtomicIntOp@conc@@SAXAAV?$AtomicInt@_J@1@AAV?$AioAdd@_J@1@@Z ; conc::AtomicIntOp::exec<__int64,conc::AioAdd<__int64> >
PUBLIC	??0?$AioAdd@_J@conc@@QAE@_J@Z			; conc::AioAdd<__int64>::AioAdd<__int64>
PUBLIC	?take_cell@?$CellPool@PAVDCTClass@@@conc@@QAEPAV?$LockFreeCell@PAVDCTClass@@@2@_N@Z ; conc::CellPool<DCTClass *>::take_cell
PUBLIC	??A?$Array@VTaskData@?$MTSlicer@VPlaneOfBlocks@@V1@$0EA@@@$0EA@@conc@@QAEAAVTaskData@?$MTSlicer@VPlaneOfBlocks@@V1@$0EA@@@J@Z ; conc::Array<MTSlicer<PlaneOfBlocks,PlaneOfBlocks,64>::TaskData,64>::operator[]
PUBLIC	?pop@?$LockFreeStack@PAVWorkingArea@PlaneOfBlocks@@@conc@@QAEPAV?$LockFreeCell@PAVWorkingArea@PlaneOfBlocks@@@2@XZ ; conc::LockFreeStack<PlaneOfBlocks::WorkingArea *>::pop
PUBLIC	?push@?$LockFreeStack@PAVWorkingArea@PlaneOfBlocks@@@conc@@QAEXAAV?$LockFreeCell@PAVWorkingArea@PlaneOfBlocks@@@2@@Z ; conc::LockFreeStack<PlaneOfBlocks::WorkingArea *>::push
PUBLIC	??0?$LockFreeStack@PAVWorkingArea@PlaneOfBlocks@@@conc@@QAE@XZ ; conc::LockFreeStack<PlaneOfBlocks::WorkingArea *>::LockFreeStack<PlaneOfBlocks::WorkingArea *>
PUBLIC	?return_cell@?$CellPool@PAVWorkingArea@PlaneOfBlocks@@@conc@@QAEXAAV?$LockFreeCell@PAVWorkingArea@PlaneOfBlocks@@@2@@Z ; conc::CellPool<PlaneOfBlocks::WorkingArea *>::return_cell
PUBLIC	?take_cell@?$CellPool@PAVWorkingArea@PlaneOfBlocks@@@conc@@QAEPAV?$LockFreeCell@PAVWorkingArea@PlaneOfBlocks@@@2@_N@Z ; conc::CellPool<PlaneOfBlocks::WorkingArea *>::take_cell
PUBLIC	?expand_to@?$CellPool@PAVWorkingArea@PlaneOfBlocks@@@conc@@QAEXI@Z ; conc::CellPool<PlaneOfBlocks::WorkingArea *>::expand_to
PUBLIC	?clear_all@?$CellPool@PAVWorkingArea@PlaneOfBlocks@@@conc@@QAEXXZ ; conc::CellPool<PlaneOfBlocks::WorkingArea *>::clear_all
PUBLIC	??0?$CellPool@PAVWorkingArea@PlaneOfBlocks@@@conc@@QAE@XZ ; conc::CellPool<PlaneOfBlocks::WorkingArea *>::CellPool<PlaneOfBlocks::WorkingArea *>
PUBLIC	?cleanup@?$ObjPool@VWorkingArea@PlaneOfBlocks@@@conc@@QAEXXZ ; conc::ObjPool<PlaneOfBlocks::WorkingArea>::cleanup
PUBLIC	?create@?$ObjFactoryInterface@VWorkingArea@PlaneOfBlocks@@@conc@@QAEPAVWorkingArea@PlaneOfBlocks@@XZ ; conc::ObjFactoryInterface<PlaneOfBlocks::WorkingArea>::create
PUBLIC	?max_size@?$AllocAlign@E$0BA@@@QBEIXZ		; AllocAlign<unsigned char,16>::max_size
PUBLIC	?redirect_task@?$MTSlicer@VPlaneOfBlocks@@V1@$0EA@@@CAXPAVTaskDispatcher@avstp@@PAX@Z ; MTSlicer<PlaneOfBlocks,PlaneOfBlocks,64>::redirect_task
PUBLIC	?create@?$ObjFactoryInterface@VDCTClass@@@conc@@QAEPAVDCTClass@@XZ ; conc::ObjFactoryInterface<DCTClass>::create
PUBLIC	??0?$allocator@UVECTOR@@@std@@QAE@XZ		; std::allocator<VECTOR>::allocator<VECTOR>
PUBLIC	??0?$AllocAlign@E$0BA@@@QAE@XZ			; AllocAlign<unsigned char,16>::AllocAlign<unsigned char,16>
PUBLIC	??0?$allocator@PAVDCTClass@@@std@@QAE@XZ	; std::allocator<DCTClass *>::allocator<DCTClass *>
PUBLIC	??_G?$AioAdd@_J@conc@@UAEPAXI@Z			; conc::AioAdd<__int64>::`scalar deleting destructor'
PUBLIC	??A?$vector@UVECTOR@@V?$allocator@UVECTOR@@@std@@@std@@QBEABUVECTOR@@I@Z ; std::vector<VECTOR,std::allocator<VECTOR> >::operator[]
PUBLIC	??0?$_Wrap_alloc@V?$allocator@UVECTOR@@@std@@@std@@QAE@XZ ; std::_Wrap_alloc<std::allocator<VECTOR> >::_Wrap_alloc<std::allocator<VECTOR> >
PUBLIC	??0?$_Vector_val@U?$_Simple_types@UVECTOR@@@std@@@std@@QAE@XZ ; std::_Vector_val<std::_Simple_types<VECTOR> >::_Vector_val<std::_Simple_types<VECTOR> >
PUBLIC	??0?$_Wrap_alloc@V?$AllocAlign@E$0BA@@@@std@@QAE@XZ ; std::_Wrap_alloc<AllocAlign<unsigned char,16> >::_Wrap_alloc<AllocAlign<unsigned char,16> >
PUBLIC	??0?$_Vector_val@U?$_Simple_types@E@std@@@std@@QAE@XZ ; std::_Vector_val<std::_Simple_types<unsigned char> >::_Vector_val<std::_Simple_types<unsigned char> >
PUBLIC	??0?$_Wrap_alloc@V?$allocator@PAVDCTClass@@@std@@@std@@QAE@XZ ; std::_Wrap_alloc<std::allocator<DCTClass *> >::_Wrap_alloc<std::allocator<DCTClass *> >
PUBLIC	??0?$_Vector_val@U?$_Simple_types@PAVDCTClass@@@std@@@std@@QAE@XZ ; std::_Vector_val<std::_Simple_types<DCTClass *> >::_Vector_val<std::_Simple_types<DCTClass *> >
PUBLIC	?access@?$MTSlicer_Access@VPlaneOfBlocks@@V1@@@SAPAVPlaneOfBlocks@@PAV2@@Z ; MTSlicer_Access<PlaneOfBlocks,PlaneOfBlocks>::access
PUBLIC	??1?$AioAdd@_J@conc@@UAE@XZ			; conc::AioAdd<__int64>::~AioAdd<__int64>
PUBLIC	??_G?$CellPool@PAVWorkingArea@PlaneOfBlocks@@@conc@@UAEPAXI@Z ; conc::CellPool<PlaneOfBlocks::WorkingArea *>::`scalar deleting destructor'
PUBLIC	??_G?$ObjPool@VWorkingArea@PlaneOfBlocks@@@conc@@UAEPAXI@Z ; conc::ObjPool<PlaneOfBlocks::WorkingArea>::`scalar deleting destructor'
PUBLIC	??$_Fn@V?$AllocAlign@E$0BA@@@@_Alloc_max_size@std@@SAIHABV?$AllocAlign@E$0BA@@@@Z ; std::_Alloc_max_size::_Fn<AllocAlign<unsigned char,16> >
PUBLIC	??$_Destroy_range@V?$allocator@UVECTOR@@@std@@PAUVECTOR@@@std@@YAXPAUVECTOR@@0AAU?$_Wrap_alloc@V?$allocator@UVECTOR@@@std@@@0@@Z ; std::_Destroy_range<std::allocator<VECTOR>,VECTOR *>
PUBLIC	??$_Destroy_range@V?$AllocAlign@E$0BA@@@PAE@std@@YAXPAE0AAU?$_Wrap_alloc@V?$AllocAlign@E$0BA@@@@0@@Z ; std::_Destroy_range<AllocAlign<unsigned char,16>,unsigned char *>
PUBLIC	??$_Umove@PAE@?$vector@EV?$AllocAlign@E$0BA@@@@std@@IAEPAEPAE00@Z ; std::vector<unsigned char,AllocAlign<unsigned char,16> >::_Umove<unsigned char *>
PUBLIC	??$_Destroy_range@V?$allocator@PAVDCTClass@@@std@@PAPAVDCTClass@@@std@@YAXPAPAVDCTClass@@0AAU?$_Wrap_alloc@V?$allocator@PAVDCTClass@@@std@@@0@@Z ; std::_Destroy_range<std::allocator<DCTClass *>,DCTClass * *>
PUBLIC	??$?0$$V@?$_Compressed_pair@U?$_Wrap_alloc@V?$allocator@UVECTOR@@@std@@@std@@V?$_Vector_val@U?$_Simple_types@UVECTOR@@@std@@@2@$00@std@@QAE@U_Zero_then_variadic_args_t@1@@Z ; std::_Compressed_pair<std::_Wrap_alloc<std::allocator<VECTOR> >,std::_Vector_val<std::_Simple_types<VECTOR> >,1>::_Compressed_pair<std::_Wrap_alloc<std::allocator<VECTOR> >,std::_Vector_val<std::_Simple_types<VECTOR> >,1><>
PUBLIC	??$?0$$V@?$_Compressed_pair@U?$_Wrap_alloc@V?$AllocAlign@E$0BA@@@@std@@V?$_Vector_val@U?$_Simple_types@E@std@@@2@$00@std@@QAE@U_Zero_then_variadic_args_t@1@@Z ; std::_Compressed_pair<std::_Wrap_alloc<AllocAlign<unsigned char,16> >,std::_Vector_val<std::_Simple_types<unsigned char> >,1>::_Compressed_pair<std::_Wrap_alloc<AllocAlign<unsigned char,16> >,std::_Vector_val<std::_Simple_types<unsigned char> >,1><>
PUBLIC	??$_Umove@PAPAVDCTClass@@@?$vector@PAVDCTClass@@V?$allocator@PAVDCTClass@@@std@@@std@@IAEPAPAVDCTClass@@PAPAV2@00@Z ; std::vector<DCTClass *,std::allocator<DCTClass *> >::_Umove<DCTClass * *>
PUBLIC	??$?0$$V@?$_Compressed_pair@U?$_Wrap_alloc@V?$allocator@PAVDCTClass@@@std@@@std@@V?$_Vector_val@U?$_Simple_types@PAVDCTClass@@@std@@@2@$00@std@@QAE@U_Zero_then_variadic_args_t@1@@Z ; std::_Compressed_pair<std::_Wrap_alloc<std::allocator<DCTClass *> >,std::_Vector_val<std::_Simple_types<DCTClass *> >,1>::_Compressed_pair<std::_Wrap_alloc<std::allocator<DCTClass *> >,std::_Vector_val<std::_Simple_types<DCTClass *> >,1><>
PUBLIC	??$_Uninitialized_default_fill_n@PAUVECTOR@@IV?$allocator@UVECTOR@@@std@@@std@@YAXPAUVECTOR@@IAAU?$_Wrap_alloc@V?$allocator@UVECTOR@@@std@@@0@@Z ; std::_Uninitialized_default_fill_n<VECTOR *,unsigned int,std::allocator<VECTOR> >
PUBLIC	??$_Uninitialized_default_fill_n@PAEIV?$AllocAlign@E$0BA@@@@std@@YAXPAEIAAU?$_Wrap_alloc@V?$AllocAlign@E$0BA@@@@0@@Z ; std::_Uninitialized_default_fill_n<unsigned char *,unsigned int,AllocAlign<unsigned char,16> >
PUBLIC	??$construct@PAVDCTClass@@ABQAV1@@?$_Wrap_alloc@V?$allocator@PAVDCTClass@@@std@@@std@@QAEXPAPAVDCTClass@@ABQAV2@@Z ; std::_Wrap_alloc<std::allocator<DCTClass *> >::construct<DCTClass *,DCTClass * const &>
PUBLIC	??$construct@PAVDCTClass@@AAPAV1@@?$_Wrap_alloc@V?$allocator@PAVDCTClass@@@std@@@std@@QAEXPAPAVDCTClass@@AAPAV2@@Z ; std::_Wrap_alloc<std::allocator<DCTClass *> >::construct<DCTClass *,DCTClass * &>
PUBLIC	??$addressof@QAVDCTClass@@@std@@YAPBQAVDCTClass@@ABQAV1@@Z ; std::addressof<DCTClass * const>
PUBLIC	??$destroy@PAVDCTClass@@@?$_Wrap_alloc@V?$allocator@PAVDCTClass@@@std@@@std@@QAEXPAPAVDCTClass@@@Z ; std::_Wrap_alloc<std::allocator<DCTClass *> >::destroy<DCTClass *>
PUBLIC	??$_Unfancy@PAVDCTClass@@@std@@YAPAPAVDCTClass@@PAPAV1@@Z ; std::_Unfancy<DCTClass *>
PUBLIC	??$PseudoEPZSearch@G@PlaneOfBlocks@@AAEXAAVWorkingArea@0@@Z ; PlaneOfBlocks::PseudoEPZSearch<unsigned short>
PUBLIC	??$PseudoEPZSearch@E@PlaneOfBlocks@@AAEXAAVWorkingArea@0@@Z ; PlaneOfBlocks::PseudoEPZSearch<unsigned char>
PUBLIC	??$exec_new@HV?$AioSub@H@conc@@@AtomicIntOp@conc@@SAHAAV?$AtomicInt@H@1@AAV?$AioSub@H@1@@Z ; conc::AtomicIntOp::exec_new<int,conc::AioSub<int> >
PUBLIC	??0?$AioSub@H@conc@@QAE@H@Z			; conc::AioSub<int>::AioSub<int>
PUBLIC	??$recalculate_mv_slice@G@PlaneOfBlocks@@AAEXAAVTaskData@?$MTSlicer@VPlaneOfBlocks@@V1@$0EA@@@@Z ; PlaneOfBlocks::recalculate_mv_slice<unsigned short>
PUBLIC	??$recalculate_mv_slice@E@PlaneOfBlocks@@AAEXAAVTaskData@?$MTSlicer@VPlaneOfBlocks@@V1@$0EA@@@@Z ; PlaneOfBlocks::recalculate_mv_slice<unsigned char>
PUBLIC	??1?$CellPool@PAVWorkingArea@PlaneOfBlocks@@@conc@@UAE@XZ ; conc::CellPool<PlaneOfBlocks::WorkingArea *>::~CellPool<PlaneOfBlocks::WorkingArea *>
PUBLIC	?return_obj@?$ObjPool@VWorkingArea@PlaneOfBlocks@@@conc@@QAEXAAVWorkingArea@PlaneOfBlocks@@@Z ; conc::ObjPool<PlaneOfBlocks::WorkingArea>::return_obj
PUBLIC	?take_obj@?$ObjPool@VWorkingArea@PlaneOfBlocks@@@conc@@QAEPAVWorkingArea@PlaneOfBlocks@@XZ ; conc::ObjPool<PlaneOfBlocks::WorkingArea>::take_obj
PUBLIC	?set_factory@?$ObjPool@VWorkingArea@PlaneOfBlocks@@@conc@@QAEXAAV?$ObjFactoryInterface@VWorkingArea@PlaneOfBlocks@@@2@@Z ; conc::ObjPool<PlaneOfBlocks::WorkingArea>::set_factory
PUBLIC	??1?$ObjPool@VWorkingArea@PlaneOfBlocks@@@conc@@UAE@XZ ; conc::ObjPool<PlaneOfBlocks::WorkingArea>::~ObjPool<PlaneOfBlocks::WorkingArea>
PUBLIC	??0?$ObjPool@VWorkingArea@PlaneOfBlocks@@@conc@@QAE@XZ ; conc::ObjPool<PlaneOfBlocks::WorkingArea>::ObjPool<PlaneOfBlocks::WorkingArea>
PUBLIC	?deallocate@?$AllocAlign@E$0BA@@@QAEXPAEI@Z	; AllocAlign<unsigned char,16>::deallocate
PUBLIC	?allocate@?$AllocAlign@E$0BA@@@QAEPAEIPBX@Z	; AllocAlign<unsigned char,16>::allocate
PUBLIC	??Y?$AtomicInt@_J@conc@@QAEAAV01@AB_J@Z		; conc::AtomicInt<__int64>::operator+=
PUBLIC	??B?$AtomicInt@_J@conc@@QBE_JXZ			; conc::AtomicInt<__int64>::operator __int64
PUBLIC	??4?$AtomicInt@_J@conc@@QAEAAV01@_J@Z		; conc::AtomicInt<__int64>::operator=
PUBLIC	??0?$AtomicInt@_J@conc@@QAE@XZ			; conc::AtomicInt<__int64>::AtomicInt<__int64>
PUBLIC	??A?$Array@V?$vector@HV?$allocator@H@std@@@std@@$01@conc@@QAEAAV?$vector@HV?$allocator@H@std@@@std@@J@Z ; conc::Array<std::vector<int,std::allocator<int> >,2>::operator[]
PUBLIC	?return_obj@?$ObjPool@VDCTClass@@@conc@@QAEXAAVDCTClass@@@Z ; conc::ObjPool<DCTClass>::return_obj
PUBLIC	?take_obj@?$ObjPool@VDCTClass@@@conc@@QAEPAVDCTClass@@XZ ; conc::ObjPool<DCTClass>::take_obj
PUBLIC	?use_factory@?$ObjPool@VDCTClass@@@conc@@QBEAAV?$ObjFactoryInterface@VDCTClass@@@2@XZ ; conc::ObjPool<DCTClass>::use_factory
PUBLIC	?start@?$MTSlicer@VPlaneOfBlocks@@V1@$0EA@@@QAEXHAAVPlaneOfBlocks@@P82@AEXAAVTaskData@1@@ZH@Z ; MTSlicer<PlaneOfBlocks,PlaneOfBlocks,64>::start
PUBLIC	?max_size@?$allocator@UVECTOR@@@std@@QBEIXZ	; std::allocator<VECTOR>::max_size
PUBLIC	?max_size@?$allocator_traits@V?$allocator@UVECTOR@@@std@@@std@@SAIABV?$allocator@UVECTOR@@@2@@Z ; std::allocator_traits<std::allocator<VECTOR> >::max_size
PUBLIC	?_Get_first@?$_Compressed_pair@U?$_Wrap_alloc@V?$allocator@UVECTOR@@@std@@@std@@V?$_Vector_val@U?$_Simple_types@UVECTOR@@@std@@@2@$00@std@@QBEABU?$_Wrap_alloc@V?$allocator@UVECTOR@@@std@@@2@XZ ; std::_Compressed_pair<std::_Wrap_alloc<std::allocator<VECTOR> >,std::_Vector_val<std::_Simple_types<VECTOR> >,1>::_Get_first
PUBLIC	?max_size@?$allocator_traits@V?$AllocAlign@E$0BA@@@@std@@SAIABV?$AllocAlign@E$0BA@@@@Z ; std::allocator_traits<AllocAlign<unsigned char,16> >::max_size
PUBLIC	?_Get_first@?$_Compressed_pair@U?$_Wrap_alloc@V?$AllocAlign@E$0BA@@@@std@@V?$_Vector_val@U?$_Simple_types@E@std@@@2@$00@std@@QBEABU?$_Wrap_alloc@V?$AllocAlign@E$0BA@@@@2@XZ ; std::_Compressed_pair<std::_Wrap_alloc<AllocAlign<unsigned char,16> >,std::_Vector_val<std::_Simple_types<unsigned char> >,1>::_Get_first
PUBLIC	?_Get_second@?$_Compressed_pair@U?$_Wrap_alloc@V?$AllocAlign@E$0BA@@@@std@@V?$_Vector_val@U?$_Simple_types@E@std@@@2@$00@std@@QBEABV?$_Vector_val@U?$_Simple_types@E@std@@@2@XZ ; std::_Compressed_pair<std::_Wrap_alloc<AllocAlign<unsigned char,16> >,std::_Vector_val<std::_Simple_types<unsigned char> >,1>::_Get_second
PUBLIC	?max_size@?$allocator@PAVDCTClass@@@std@@QBEIXZ	; std::allocator<DCTClass *>::max_size
PUBLIC	??Y?$_Vector_const_iterator@V?$_Vector_val@U?$_Simple_types@PAVDCTClass@@@std@@@std@@@std@@QAEAAV01@H@Z ; std::_Vector_const_iterator<std::_Vector_val<std::_Simple_types<DCTClass *> > >::operator+=
PUBLIC	?deallocate@?$allocator@UVECTOR@@@std@@QAEXPAUVECTOR@@I@Z ; std::allocator<VECTOR>::deallocate
PUBLIC	?allocate@?$allocator@UVECTOR@@@std@@QAEPAUVECTOR@@I@Z ; std::allocator<VECTOR>::allocate
PUBLIC	?_Getal@?$_Vector_alloc@U?$_Vec_base_types@UVECTOR@@V?$allocator@UVECTOR@@@std@@@std@@@std@@QBEABU?$_Wrap_alloc@V?$allocator@UVECTOR@@@std@@@2@XZ ; std::_Vector_alloc<std::_Vec_base_types<VECTOR,std::allocator<VECTOR> > >::_Getal
PUBLIC	?max_size@?$_Wrap_alloc@V?$allocator@UVECTOR@@@std@@@std@@QBEIU_Nil@2@@Z ; std::_Wrap_alloc<std::allocator<VECTOR> >::max_size
PUBLIC	?_Get_second@?$_Compressed_pair@U?$_Wrap_alloc@V?$allocator@UVECTOR@@@std@@@std@@V?$_Vector_val@U?$_Simple_types@UVECTOR@@@std@@@2@$00@std@@QAEAAV?$_Vector_val@U?$_Simple_types@UVECTOR@@@std@@@2@XZ ; std::_Compressed_pair<std::_Wrap_alloc<std::allocator<VECTOR> >,std::_Vector_val<std::_Simple_types<VECTOR> >,1>::_Get_second
PUBLIC	?_Get_second@?$_Compressed_pair@U?$_Wrap_alloc@V?$allocator@UVECTOR@@@std@@@std@@V?$_Vector_val@U?$_Simple_types@UVECTOR@@@std@@@2@$00@std@@QBEABV?$_Vector_val@U?$_Simple_types@UVECTOR@@@std@@@2@XZ ; std::_Compressed_pair<std::_Wrap_alloc<std::allocator<VECTOR> >,std::_Vector_val<std::_Simple_types<VECTOR> >,1>::_Get_second
PUBLIC	?capacity@?$vector@EV?$AllocAlign@E$0BA@@@@std@@QBEIXZ ; std::vector<unsigned char,AllocAlign<unsigned char,16> >::capacity
PUBLIC	?_Getal@?$_Vector_alloc@U?$_Vec_base_types@EV?$AllocAlign@E$0BA@@@@std@@@std@@QBEABU?$_Wrap_alloc@V?$AllocAlign@E$0BA@@@@2@XZ ; std::_Vector_alloc<std::_Vec_base_types<unsigned char,AllocAlign<unsigned char,16> > >::_Getal
PUBLIC	?_Get_data@?$_Vector_alloc@U?$_Vec_base_types@EV?$AllocAlign@E$0BA@@@@std@@@std@@QBEABV?$_Vector_val@U?$_Simple_types@E@std@@@2@XZ ; std::_Vector_alloc<std::_Vec_base_types<unsigned char,AllocAlign<unsigned char,16> > >::_Get_data
PUBLIC	?_Myend@?$_Vector_alloc@U?$_Vec_base_types@EV?$AllocAlign@E$0BA@@@@std@@@std@@QBEABQAEXZ ; std::_Vector_alloc<std::_Vec_base_types<unsigned char,AllocAlign<unsigned char,16> > >::_Myend
PUBLIC	?max_size@?$_Wrap_alloc@V?$AllocAlign@E$0BA@@@@std@@QBEIU_Nil@2@@Z ; std::_Wrap_alloc<AllocAlign<unsigned char,16> >::max_size
PUBLIC	?_Get_second@?$_Compressed_pair@U?$_Wrap_alloc@V?$AllocAlign@E$0BA@@@@std@@V?$_Vector_val@U?$_Simple_types@E@std@@@2@$00@std@@QAEAAV?$_Vector_val@U?$_Simple_types@E@std@@@2@XZ ; std::_Compressed_pair<std::_Wrap_alloc<AllocAlign<unsigned char,16> >,std::_Vector_val<std::_Simple_types<unsigned char> >,1>::_Get_second
PUBLIC	?deallocate@?$allocator@PAVDCTClass@@@std@@QAEXPAPAVDCTClass@@I@Z ; std::allocator<DCTClass *>::deallocate
PUBLIC	?allocate@?$allocator@PAVDCTClass@@@std@@QAEPAPAVDCTClass@@I@Z ; std::allocator<DCTClass *>::allocate
PUBLIC	?max_size@?$allocator_traits@V?$allocator@PAVDCTClass@@@std@@@std@@SAIABV?$allocator@PAVDCTClass@@@2@@Z ; std::allocator_traits<std::allocator<DCTClass *> >::max_size
PUBLIC	??Y?$_Vector_iterator@V?$_Vector_val@U?$_Simple_types@PAVDCTClass@@@std@@@std@@@std@@QAEAAV01@H@Z ; std::_Vector_iterator<std::_Vector_val<std::_Simple_types<DCTClass *> > >::operator+=
PUBLIC	??0?$_Vector_const_iterator@V?$_Vector_val@U?$_Simple_types@PAVDCTClass@@@std@@@std@@@std@@QAE@PAPAVDCTClass@@PBU_Container_base0@1@@Z ; std::_Vector_const_iterator<std::_Vector_val<std::_Simple_types<DCTClass *> > >::_Vector_const_iterator<std::_Vector_val<std::_Simple_types<DCTClass *> > >
PUBLIC	?_Get_first@?$_Compressed_pair@U?$_Wrap_alloc@V?$allocator@PAVDCTClass@@@std@@@std@@V?$_Vector_val@U?$_Simple_types@PAVDCTClass@@@std@@@2@$00@std@@QBEABU?$_Wrap_alloc@V?$allocator@PAVDCTClass@@@std@@@2@XZ ; std::_Compressed_pair<std::_Wrap_alloc<std::allocator<DCTClass *> >,std::_Vector_val<std::_Simple_types<DCTClass *> >,1>::_Get_first
PUBLIC	?_Get_second@?$_Compressed_pair@U?$_Wrap_alloc@V?$allocator@PAVDCTClass@@@std@@@std@@V?$_Vector_val@U?$_Simple_types@PAVDCTClass@@@std@@@2@$00@std@@QAEAAV?$_Vector_val@U?$_Simple_types@PAVDCTClass@@@std@@@2@XZ ; std::_Compressed_pair<std::_Wrap_alloc<std::allocator<DCTClass *> >,std::_Vector_val<std::_Simple_types<DCTClass *> >,1>::_Get_second
PUBLIC	?_Get_second@?$_Compressed_pair@U?$_Wrap_alloc@V?$allocator@PAVDCTClass@@@std@@@std@@V?$_Vector_val@U?$_Simple_types@PAVDCTClass@@@std@@@2@$00@std@@QBEABV?$_Vector_val@U?$_Simple_types@PAVDCTClass@@@std@@@2@XZ ; std::_Compressed_pair<std::_Wrap_alloc<std::allocator<DCTClass *> >,std::_Vector_val<std::_Simple_types<DCTClass *> >,1>::_Get_second
PUBLIC	?max_size@?$vector@UVECTOR@@V?$allocator@UVECTOR@@@std@@@std@@QBEIXZ ; std::vector<VECTOR,std::allocator<VECTOR> >::max_size
PUBLIC	?_Destroy@?$vector@UVECTOR@@V?$allocator@UVECTOR@@@std@@@std@@IAEXPAUVECTOR@@0@Z ; std::vector<VECTOR,std::allocator<VECTOR> >::_Destroy
PUBLIC	?_Xlen@?$vector@UVECTOR@@V?$allocator@UVECTOR@@@std@@@std@@IBEXXZ ; std::vector<VECTOR,std::allocator<VECTOR> >::_Xlen
PUBLIC	?_Orphan_all@?$_Vector_alloc@U?$_Vec_base_types@UVECTOR@@V?$allocator@UVECTOR@@@std@@@std@@@std@@QAEXXZ ; std::_Vector_alloc<std::_Vec_base_types<VECTOR,std::allocator<VECTOR> > >::_Orphan_all
PUBLIC	?_Get_data@?$_Vector_alloc@U?$_Vec_base_types@UVECTOR@@V?$allocator@UVECTOR@@@std@@@std@@@std@@QAEAAV?$_Vector_val@U?$_Simple_types@UVECTOR@@@std@@@2@XZ ; std::_Vector_alloc<std::_Vec_base_types<VECTOR,std::allocator<VECTOR> > >::_Get_data
PUBLIC	?_Get_data@?$_Vector_alloc@U?$_Vec_base_types@UVECTOR@@V?$allocator@UVECTOR@@@std@@@std@@@std@@QBEABV?$_Vector_val@U?$_Simple_types@UVECTOR@@@std@@@2@XZ ; std::_Vector_alloc<std::_Vec_base_types<VECTOR,std::allocator<VECTOR> > >::_Get_data
PUBLIC	?_Myend@?$_Vector_alloc@U?$_Vec_base_types@UVECTOR@@V?$allocator@UVECTOR@@@std@@@std@@@std@@QAEAAPAUVECTOR@@XZ ; std::_Vector_alloc<std::_Vec_base_types<VECTOR,std::allocator<VECTOR> > >::_Myend
PUBLIC	?allocate@?$_Wrap_alloc@V?$allocator@UVECTOR@@@std@@@std@@QAEPAUVECTOR@@I@Z ; std::_Wrap_alloc<std::allocator<VECTOR> >::allocate
PUBLIC	?deallocate@?$_Wrap_alloc@V?$allocator@UVECTOR@@@std@@@std@@QAEXPAUVECTOR@@I@Z ; std::_Wrap_alloc<std::allocator<VECTOR> >::deallocate
PUBLIC	?_Get_first@?$_Compressed_pair@U?$_Wrap_alloc@V?$allocator@UVECTOR@@@std@@@std@@V?$_Vector_val@U?$_Simple_types@UVECTOR@@@std@@@2@$00@std@@QAEAAU?$_Wrap_alloc@V?$allocator@UVECTOR@@@std@@@2@XZ ; std::_Compressed_pair<std::_Wrap_alloc<std::allocator<VECTOR> >,std::_Vector_val<std::_Simple_types<VECTOR> >,1>::_Get_first
PUBLIC	?_Unused_capacity@?$vector@EV?$AllocAlign@E$0BA@@@@std@@QBEIXZ ; std::vector<unsigned char,AllocAlign<unsigned char,16> >::_Unused_capacity
PUBLIC	?max_size@?$vector@EV?$AllocAlign@E$0BA@@@@std@@QBEIXZ ; std::vector<unsigned char,AllocAlign<unsigned char,16> >::max_size
PUBLIC	?_Destroy@?$vector@EV?$AllocAlign@E$0BA@@@@std@@IAEXPAE0@Z ; std::vector<unsigned char,AllocAlign<unsigned char,16> >::_Destroy
PUBLIC	?_Grow_to@?$vector@EV?$AllocAlign@E$0BA@@@@std@@IBEII@Z ; std::vector<unsigned char,AllocAlign<unsigned char,16> >::_Grow_to
PUBLIC	?_Reallocate@?$vector@EV?$AllocAlign@E$0BA@@@@std@@IAEXI@Z ; std::vector<unsigned char,AllocAlign<unsigned char,16> >::_Reallocate
PUBLIC	?_Xlen@?$vector@EV?$AllocAlign@E$0BA@@@@std@@IBEXXZ ; std::vector<unsigned char,AllocAlign<unsigned char,16> >::_Xlen
PUBLIC	?_Orphan_all@?$_Vector_alloc@U?$_Vec_base_types@EV?$AllocAlign@E$0BA@@@@std@@@std@@QAEXXZ ; std::_Vector_alloc<std::_Vec_base_types<unsigned char,AllocAlign<unsigned char,16> > >::_Orphan_all
PUBLIC	?_Get_data@?$_Vector_alloc@U?$_Vec_base_types@EV?$AllocAlign@E$0BA@@@@std@@@std@@QAEAAV?$_Vector_val@U?$_Simple_types@E@std@@@2@XZ ; std::_Vector_alloc<std::_Vec_base_types<unsigned char,AllocAlign<unsigned char,16> > >::_Get_data
PUBLIC	?_Myfirst@?$_Vector_alloc@U?$_Vec_base_types@EV?$AllocAlign@E$0BA@@@@std@@@std@@QBEABQAEXZ ; std::_Vector_alloc<std::_Vec_base_types<unsigned char,AllocAlign<unsigned char,16> > >::_Myfirst
PUBLIC	?_Mylast@?$_Vector_alloc@U?$_Vec_base_types@EV?$AllocAlign@E$0BA@@@@std@@@std@@QBEABQAEXZ ; std::_Vector_alloc<std::_Vec_base_types<unsigned char,AllocAlign<unsigned char,16> > >::_Mylast
PUBLIC	?_Myend@?$_Vector_alloc@U?$_Vec_base_types@EV?$AllocAlign@E$0BA@@@@std@@@std@@QAEAAPAEXZ ; std::_Vector_alloc<std::_Vec_base_types<unsigned char,AllocAlign<unsigned char,16> > >::_Myend
PUBLIC	?allocate@?$_Wrap_alloc@V?$AllocAlign@E$0BA@@@@std@@QAEPAEI@Z ; std::_Wrap_alloc<AllocAlign<unsigned char,16> >::allocate
PUBLIC	?deallocate@?$_Wrap_alloc@V?$AllocAlign@E$0BA@@@@std@@QAEXPAEI@Z ; std::_Wrap_alloc<AllocAlign<unsigned char,16> >::deallocate
PUBLIC	?_Get_first@?$_Compressed_pair@U?$_Wrap_alloc@V?$AllocAlign@E$0BA@@@@std@@V?$_Vector_val@U?$_Simple_types@E@std@@@2@$00@std@@QAEAAU?$_Wrap_alloc@V?$AllocAlign@E$0BA@@@@2@XZ ; std::_Compressed_pair<std::_Wrap_alloc<AllocAlign<unsigned char,16> >,std::_Vector_val<std::_Simple_types<unsigned char> >,1>::_Get_first
PUBLIC	?_Unused_capacity@?$vector@PAVDCTClass@@V?$allocator@PAVDCTClass@@@std@@@std@@QBEIXZ ; std::vector<DCTClass *,std::allocator<DCTClass *> >::_Unused_capacity
PUBLIC	?size@?$vector@PAVDCTClass@@V?$allocator@PAVDCTClass@@@std@@@std@@QBEIXZ ; std::vector<DCTClass *,std::allocator<DCTClass *> >::size
PUBLIC	?_Destroy@?$vector@PAVDCTClass@@V?$allocator@PAVDCTClass@@@std@@@std@@IAEXPAPAVDCTClass@@0@Z ; std::vector<DCTClass *,std::allocator<DCTClass *> >::_Destroy
PUBLIC	?_Grow_to@?$vector@PAVDCTClass@@V?$allocator@PAVDCTClass@@@std@@@std@@IBEII@Z ; std::vector<DCTClass *,std::allocator<DCTClass *> >::_Grow_to
PUBLIC	?_Orphan_all@?$_Vector_alloc@U?$_Vec_base_types@PAVDCTClass@@V?$allocator@PAVDCTClass@@@std@@@std@@@std@@QAEXXZ ; std::_Vector_alloc<std::_Vec_base_types<DCTClass *,std::allocator<DCTClass *> > >::_Orphan_all
PUBLIC	?_Getal@?$_Vector_alloc@U?$_Vec_base_types@PAVDCTClass@@V?$allocator@PAVDCTClass@@@std@@@std@@@std@@QBEABU?$_Wrap_alloc@V?$allocator@PAVDCTClass@@@std@@@2@XZ ; std::_Vector_alloc<std::_Vec_base_types<DCTClass *,std::allocator<DCTClass *> > >::_Getal
PUBLIC	?_Get_data@?$_Vector_alloc@U?$_Vec_base_types@PAVDCTClass@@V?$allocator@PAVDCTClass@@@std@@@std@@@std@@QAEAAV?$_Vector_val@U?$_Simple_types@PAVDCTClass@@@std@@@2@XZ ; std::_Vector_alloc<std::_Vec_base_types<DCTClass *,std::allocator<DCTClass *> > >::_Get_data
PUBLIC	?_Get_data@?$_Vector_alloc@U?$_Vec_base_types@PAVDCTClass@@V?$allocator@PAVDCTClass@@@std@@@std@@@std@@QBEABV?$_Vector_val@U?$_Simple_types@PAVDCTClass@@@std@@@2@XZ ; std::_Vector_alloc<std::_Vec_base_types<DCTClass *,std::allocator<DCTClass *> > >::_Get_data
PUBLIC	?_Myend@?$_Vector_alloc@U?$_Vec_base_types@PAVDCTClass@@V?$allocator@PAVDCTClass@@@std@@@std@@@std@@QBEABQAPAVDCTClass@@XZ ; std::_Vector_alloc<std::_Vec_base_types<DCTClass *,std::allocator<DCTClass *> > >::_Myend
PUBLIC	?allocate@?$_Wrap_alloc@V?$allocator@PAVDCTClass@@@std@@@std@@QAEPAPAVDCTClass@@I@Z ; std::_Wrap_alloc<std::allocator<DCTClass *> >::allocate
PUBLIC	?deallocate@?$_Wrap_alloc@V?$allocator@PAVDCTClass@@@std@@@std@@QAEXPAPAVDCTClass@@I@Z ; std::_Wrap_alloc<std::allocator<DCTClass *> >::deallocate
PUBLIC	?max_size@?$_Wrap_alloc@V?$allocator@PAVDCTClass@@@std@@@std@@QBEIU_Nil@2@@Z ; std::_Wrap_alloc<std::allocator<DCTClass *> >::max_size
PUBLIC	??0?$_Vector_iterator@V?$_Vector_val@U?$_Simple_types@PAVDCTClass@@@std@@@std@@@std@@QAE@PAPAVDCTClass@@PBU_Container_base0@1@@Z ; std::_Vector_iterator<std::_Vector_val<std::_Simple_types<DCTClass *> > >::_Vector_iterator<std::_Vector_val<std::_Simple_types<DCTClass *> > >
PUBLIC	??Z?$_Vector_iterator@V?$_Vector_val@U?$_Simple_types@PAVDCTClass@@@std@@@std@@@std@@QAEAAV01@H@Z ; std::_Vector_iterator<std::_Vector_val<std::_Simple_types<DCTClass *> > >::operator-=
PUBLIC	??D?$_Vector_const_iterator@V?$_Vector_val@U?$_Simple_types@PAVDCTClass@@@std@@@std@@@std@@QBEABQAVDCTClass@@XZ ; std::_Vector_const_iterator<std::_Vector_val<std::_Simple_types<DCTClass *> > >::operator*
PUBLIC	?_Get_first@?$_Compressed_pair@U?$_Wrap_alloc@V?$allocator@PAVDCTClass@@@std@@@std@@V?$_Vector_val@U?$_Simple_types@PAVDCTClass@@@std@@@2@$00@std@@QAEAAU?$_Wrap_alloc@V?$allocator@PAVDCTClass@@@std@@@2@XZ ; std::_Compressed_pair<std::_Wrap_alloc<std::allocator<DCTClass *> >,std::_Vector_val<std::_Simple_types<DCTClass *> >,1>::_Get_first
PUBLIC	?_Buy@?$vector@UVECTOR@@V?$allocator@UVECTOR@@@std@@@std@@IAE_NI@Z ; std::vector<VECTOR,std::allocator<VECTOR> >::_Buy
PUBLIC	?_Tidy@?$vector@UVECTOR@@V?$allocator@UVECTOR@@@std@@@std@@IAEXXZ ; std::vector<VECTOR,std::allocator<VECTOR> >::_Tidy
PUBLIC	??0?$_Vector_alloc@U?$_Vec_base_types@UVECTOR@@V?$allocator@UVECTOR@@@std@@@std@@@std@@QAE@XZ ; std::_Vector_alloc<std::_Vec_base_types<VECTOR,std::allocator<VECTOR> > >::_Vector_alloc<std::_Vec_base_types<VECTOR,std::allocator<VECTOR> > >
PUBLIC	?_Getal@?$_Vector_alloc@U?$_Vec_base_types@UVECTOR@@V?$allocator@UVECTOR@@@std@@@std@@@std@@QAEAAU?$_Wrap_alloc@V?$allocator@UVECTOR@@@std@@@2@XZ ; std::_Vector_alloc<std::_Vec_base_types<VECTOR,std::allocator<VECTOR> > >::_Getal
PUBLIC	?_Myfirst@?$_Vector_alloc@U?$_Vec_base_types@UVECTOR@@V?$allocator@UVECTOR@@@std@@@std@@@std@@QAEAAPAUVECTOR@@XZ ; std::_Vector_alloc<std::_Vec_base_types<VECTOR,std::allocator<VECTOR> > >::_Myfirst
PUBLIC	?_Myfirst@?$_Vector_alloc@U?$_Vec_base_types@UVECTOR@@V?$allocator@UVECTOR@@@std@@@std@@@std@@QBEABQAUVECTOR@@XZ ; std::_Vector_alloc<std::_Vec_base_types<VECTOR,std::allocator<VECTOR> > >::_Myfirst
PUBLIC	?_Mylast@?$_Vector_alloc@U?$_Vec_base_types@UVECTOR@@V?$allocator@UVECTOR@@@std@@@std@@@std@@QAEAAPAUVECTOR@@XZ ; std::_Vector_alloc<std::_Vec_base_types<VECTOR,std::allocator<VECTOR> > >::_Mylast
PUBLIC	?_Mylast@?$_Vector_alloc@U?$_Vec_base_types@UVECTOR@@V?$allocator@UVECTOR@@@std@@@std@@@std@@QBEABQAUVECTOR@@XZ ; std::_Vector_alloc<std::_Vec_base_types<VECTOR,std::allocator<VECTOR> > >::_Mylast
PUBLIC	??1?$AllocAlign@E$0BA@@@QAE@XZ			; AllocAlign<unsigned char,16>::~AllocAlign<unsigned char,16>
PUBLIC	?size@?$vector@EV?$AllocAlign@E$0BA@@@@std@@QBEIXZ ; std::vector<unsigned char,AllocAlign<unsigned char,16> >::size
PUBLIC	?_Pop_back_n@?$vector@EV?$AllocAlign@E$0BA@@@@std@@QAEXI@Z ; std::vector<unsigned char,AllocAlign<unsigned char,16> >::_Pop_back_n
PUBLIC	?_Buy@?$vector@EV?$AllocAlign@E$0BA@@@@std@@IAE_NI@Z ; std::vector<unsigned char,AllocAlign<unsigned char,16> >::_Buy
PUBLIC	?_Reserve@?$vector@EV?$AllocAlign@E$0BA@@@@std@@IAEXI@Z ; std::vector<unsigned char,AllocAlign<unsigned char,16> >::_Reserve
PUBLIC	?_Tidy@?$vector@EV?$AllocAlign@E$0BA@@@@std@@IAEXXZ ; std::vector<unsigned char,AllocAlign<unsigned char,16> >::_Tidy
PUBLIC	??0?$_Vector_alloc@U?$_Vec_base_types@EV?$AllocAlign@E$0BA@@@@std@@@std@@QAE@XZ ; std::_Vector_alloc<std::_Vec_base_types<unsigned char,AllocAlign<unsigned char,16> > >::_Vector_alloc<std::_Vec_base_types<unsigned char,AllocAlign<unsigned char,16> > >
PUBLIC	?_Getal@?$_Vector_alloc@U?$_Vec_base_types@EV?$AllocAlign@E$0BA@@@@std@@@std@@QAEAAU?$_Wrap_alloc@V?$AllocAlign@E$0BA@@@@2@XZ ; std::_Vector_alloc<std::_Vec_base_types<unsigned char,AllocAlign<unsigned char,16> > >::_Getal
PUBLIC	?_Myfirst@?$_Vector_alloc@U?$_Vec_base_types@EV?$AllocAlign@E$0BA@@@@std@@@std@@QAEAAPAEXZ ; std::_Vector_alloc<std::_Vec_base_types<unsigned char,AllocAlign<unsigned char,16> > >::_Myfirst
PUBLIC	?_Mylast@?$_Vector_alloc@U?$_Vec_base_types@EV?$AllocAlign@E$0BA@@@@std@@@std@@QAEAAPAEXZ ; std::_Vector_alloc<std::_Vec_base_types<unsigned char,AllocAlign<unsigned char,16> > >::_Mylast
PUBLIC	?capacity@?$vector@PAVDCTClass@@V?$allocator@PAVDCTClass@@@std@@@std@@QBEIXZ ; std::vector<DCTClass *,std::allocator<DCTClass *> >::capacity
PUBLIC	?end@?$vector@PAVDCTClass@@V?$allocator@PAVDCTClass@@@std@@@std@@QAE?AV?$_Vector_iterator@V?$_Vector_val@U?$_Simple_types@PAVDCTClass@@@std@@@std@@@2@XZ ; std::vector<DCTClass *,std::allocator<DCTClass *> >::end
PUBLIC	?max_size@?$vector@PAVDCTClass@@V?$allocator@PAVDCTClass@@@std@@@std@@QBEIXZ ; std::vector<DCTClass *,std::allocator<DCTClass *> >::max_size
PUBLIC	?_Inside@?$vector@PAVDCTClass@@V?$allocator@PAVDCTClass@@@std@@@std@@IBE_NPBQAVDCTClass@@@Z ; std::vector<DCTClass *,std::allocator<DCTClass *> >::_Inside
PUBLIC	?_Reallocate@?$vector@PAVDCTClass@@V?$allocator@PAVDCTClass@@@std@@@std@@IAEXI@Z ; std::vector<DCTClass *,std::allocator<DCTClass *> >::_Reallocate
PUBLIC	?_Reserve@?$vector@PAVDCTClass@@V?$allocator@PAVDCTClass@@@std@@@std@@IAEXI@Z ; std::vector<DCTClass *,std::allocator<DCTClass *> >::_Reserve
PUBLIC	?_Tidy@?$vector@PAVDCTClass@@V?$allocator@PAVDCTClass@@@std@@@std@@IAEXXZ ; std::vector<DCTClass *,std::allocator<DCTClass *> >::_Tidy
PUBLIC	?_Xlen@?$vector@PAVDCTClass@@V?$allocator@PAVDCTClass@@@std@@@std@@IBEXXZ ; std::vector<DCTClass *,std::allocator<DCTClass *> >::_Xlen
PUBLIC	?_Orphan_range@?$vector@PAVDCTClass@@V?$allocator@PAVDCTClass@@@std@@@std@@IBEXPAPAVDCTClass@@0@Z ; std::vector<DCTClass *,std::allocator<DCTClass *> >::_Orphan_range
PUBLIC	??0?$_Vector_alloc@U?$_Vec_base_types@PAVDCTClass@@V?$allocator@PAVDCTClass@@@std@@@std@@@std@@QAE@XZ ; std::_Vector_alloc<std::_Vec_base_types<DCTClass *,std::allocator<DCTClass *> > >::_Vector_alloc<std::_Vec_base_types<DCTClass *,std::allocator<DCTClass *> > >
PUBLIC	?_Getal@?$_Vector_alloc@U?$_Vec_base_types@PAVDCTClass@@V?$allocator@PAVDCTClass@@@std@@@std@@@std@@QAEAAU?$_Wrap_alloc@V?$allocator@PAVDCTClass@@@std@@@2@XZ ; std::_Vector_alloc<std::_Vec_base_types<DCTClass *,std::allocator<DCTClass *> > >::_Getal
PUBLIC	?_Myfirst@?$_Vector_alloc@U?$_Vec_base_types@PAVDCTClass@@V?$allocator@PAVDCTClass@@@std@@@std@@@std@@QAEAAPAPAVDCTClass@@XZ ; std::_Vector_alloc<std::_Vec_base_types<DCTClass *,std::allocator<DCTClass *> > >::_Myfirst
PUBLIC	?_Myfirst@?$_Vector_alloc@U?$_Vec_base_types@PAVDCTClass@@V?$allocator@PAVDCTClass@@@std@@@std@@@std@@QBEABQAPAVDCTClass@@XZ ; std::_Vector_alloc<std::_Vec_base_types<DCTClass *,std::allocator<DCTClass *> > >::_Myfirst
PUBLIC	?_Mylast@?$_Vector_alloc@U?$_Vec_base_types@PAVDCTClass@@V?$allocator@PAVDCTClass@@@std@@@std@@@std@@QAEAAPAPAVDCTClass@@XZ ; std::_Vector_alloc<std::_Vec_base_types<DCTClass *,std::allocator<DCTClass *> > >::_Mylast
PUBLIC	?_Mylast@?$_Vector_alloc@U?$_Vec_base_types@PAVDCTClass@@V?$allocator@PAVDCTClass@@@std@@@std@@@std@@QBEABQAPAVDCTClass@@XZ ; std::_Vector_alloc<std::_Vec_base_types<DCTClass *,std::allocator<DCTClass *> > >::_Mylast
PUBLIC	?_Myend@?$_Vector_alloc@U?$_Vec_base_types@PAVDCTClass@@V?$allocator@PAVDCTClass@@@std@@@std@@@std@@QAEAAPAPAVDCTClass@@XZ ; std::_Vector_alloc<std::_Vec_base_types<DCTClass *,std::allocator<DCTClass *> > >::_Myend
PUBLIC	??D?$_Vector_iterator@V?$_Vector_val@U?$_Simple_types@PAVDCTClass@@@std@@@std@@@std@@QBEAAPAVDCTClass@@XZ ; std::_Vector_iterator<std::_Vector_val<std::_Simple_types<DCTClass *> > >::operator*
PUBLIC	??G?$_Vector_iterator@V?$_Vector_val@U?$_Simple_types@PAVDCTClass@@@std@@@std@@@std@@QBE?AV01@H@Z ; std::_Vector_iterator<std::_Vector_val<std::_Simple_types<DCTClass *> > >::operator-
PUBLIC	??1?$_Wrap_alloc@V?$AllocAlign@E$0BA@@@@std@@QAE@XZ ; std::_Wrap_alloc<AllocAlign<unsigned char,16> >::~_Wrap_alloc<AllocAlign<unsigned char,16> >
PUBLIC	??1?$_Compressed_pair@U?$_Wrap_alloc@V?$AllocAlign@E$0BA@@@@std@@V?$_Vector_val@U?$_Simple_types@E@std@@@2@$00@std@@QAE@XZ ; std::_Compressed_pair<std::_Wrap_alloc<AllocAlign<unsigned char,16> >,std::_Vector_val<std::_Simple_types<unsigned char> >,1>::~_Compressed_pair<std::_Wrap_alloc<AllocAlign<unsigned char,16> >,std::_Vector_val<std::_Simple_types<unsigned char> >,1>
PUBLIC	??1?$_Vector_alloc@U?$_Vec_base_types@EV?$AllocAlign@E$0BA@@@@std@@@std@@QAE@XZ ; std::_Vector_alloc<std::_Vec_base_types<unsigned char,AllocAlign<unsigned char,16> > >::~_Vector_alloc<std::_Vec_base_types<unsigned char,AllocAlign<unsigned char,16> > >
PUBLIC	??_G?$LockFreeStack@PAVWorkingArea@PlaneOfBlocks@@@conc@@UAEPAXI@Z ; conc::LockFreeStack<PlaneOfBlocks::WorkingArea *>::`scalar deleting destructor'
PUBLIC	??_G?$AtomicPtrIntPair@V?$LockFreeCell@PAVWorkingArea@PlaneOfBlocks@@@conc@@@conc@@UAEPAXI@Z ; conc::AtomicPtrIntPair<conc::LockFreeCell<PlaneOfBlocks::WorkingArea *> >::`scalar deleting destructor'
PUBLIC	??_G?$AioSub@H@conc@@UAEPAXI@Z			; conc::AioSub<int>::`scalar deleting destructor'
PUBLIC	??0?$vector@UVECTOR@@V?$allocator@UVECTOR@@@std@@@std@@QAE@I@Z ; std::vector<VECTOR,std::allocator<VECTOR> >::vector<VECTOR,std::allocator<VECTOR> >
PUBLIC	??1?$vector@UVECTOR@@V?$allocator@UVECTOR@@@std@@@std@@QAE@XZ ; std::vector<VECTOR,std::allocator<VECTOR> >::~vector<VECTOR,std::allocator<VECTOR> >
PUBLIC	?size@?$vector@UVECTOR@@V?$allocator@UVECTOR@@@std@@@std@@QBEIXZ ; std::vector<VECTOR,std::allocator<VECTOR> >::size
PUBLIC	??A?$vector@UVECTOR@@V?$allocator@UVECTOR@@@std@@@std@@QAEAAUVECTOR@@I@Z ; std::vector<VECTOR,std::allocator<VECTOR> >::operator[]
PUBLIC	??0?$vector@EV?$AllocAlign@E$0BA@@@@std@@QAE@XZ	; std::vector<unsigned char,AllocAlign<unsigned char,16> >::vector<unsigned char,AllocAlign<unsigned char,16> >
PUBLIC	??0?$vector@EV?$AllocAlign@E$0BA@@@@std@@QAE@I@Z ; std::vector<unsigned char,AllocAlign<unsigned char,16> >::vector<unsigned char,AllocAlign<unsigned char,16> >
PUBLIC	??1?$vector@EV?$AllocAlign@E$0BA@@@@std@@QAE@XZ	; std::vector<unsigned char,AllocAlign<unsigned char,16> >::~vector<unsigned char,AllocAlign<unsigned char,16> >
PUBLIC	?resize@?$vector@EV?$AllocAlign@E$0BA@@@@std@@QAEXI@Z ; std::vector<unsigned char,AllocAlign<unsigned char,16> >::resize
PUBLIC	??A?$vector@EV?$AllocAlign@E$0BA@@@@std@@QAEAAEI@Z ; std::vector<unsigned char,AllocAlign<unsigned char,16> >::operator[]
PUBLIC	??1?$ObjFactoryInterface@VWorkingArea@PlaneOfBlocks@@@conc@@UAE@XZ ; conc::ObjFactoryInterface<PlaneOfBlocks::WorkingArea>::~ObjFactoryInterface<PlaneOfBlocks::WorkingArea>
PUBLIC	??1?$LockFreeStack@PAVWorkingArea@PlaneOfBlocks@@@conc@@UAE@XZ ; conc::LockFreeStack<PlaneOfBlocks::WorkingArea *>::~LockFreeStack<PlaneOfBlocks::WorkingArea *>
PUBLIC	??1?$AtomicPtrIntPair@V?$LockFreeCell@PAVWorkingArea@PlaneOfBlocks@@@conc@@@conc@@UAE@XZ ; conc::AtomicPtrIntPair<conc::LockFreeCell<PlaneOfBlocks::WorkingArea *> >::~AtomicPtrIntPair<conc::LockFreeCell<PlaneOfBlocks::WorkingArea *> >
PUBLIC	??0?$vector@PAVDCTClass@@V?$allocator@PAVDCTClass@@@std@@@std@@QAE@XZ ; std::vector<DCTClass *,std::allocator<DCTClass *> >::vector<DCTClass *,std::allocator<DCTClass *> >
PUBLIC	??1?$vector@PAVDCTClass@@V?$allocator@PAVDCTClass@@@std@@@std@@QAE@XZ ; std::vector<DCTClass *,std::allocator<DCTClass *> >::~vector<DCTClass *,std::allocator<DCTClass *> >
PUBLIC	?reserve@?$vector@PAVDCTClass@@V?$allocator@PAVDCTClass@@@std@@@std@@QAEXI@Z ; std::vector<DCTClass *,std::allocator<DCTClass *> >::reserve
PUBLIC	?empty@?$vector@PAVDCTClass@@V?$allocator@PAVDCTClass@@@std@@@std@@QBE_NXZ ; std::vector<DCTClass *,std::allocator<DCTClass *> >::empty
PUBLIC	?back@?$vector@PAVDCTClass@@V?$allocator@PAVDCTClass@@@std@@@std@@QAEAAPAVDCTClass@@XZ ; std::vector<DCTClass *,std::allocator<DCTClass *> >::back
PUBLIC	?push_back@?$vector@PAVDCTClass@@V?$allocator@PAVDCTClass@@@std@@@std@@QAEXABQAVDCTClass@@@Z ; std::vector<DCTClass *,std::allocator<DCTClass *> >::push_back
PUBLIC	?pop_back@?$vector@PAVDCTClass@@V?$allocator@PAVDCTClass@@@std@@@std@@QAEXXZ ; std::vector<DCTClass *,std::allocator<DCTClass *> >::pop_back
PUBLIC	??1?$AioSub@H@conc@@UAE@XZ			; conc::AioSub<int>::~AioSub<int>
PUBLIC	?do_create@WorkingAreaFactory@PlaneOfBlocks@@MAEPAVWorkingArea@2@XZ ; PlaneOfBlocks::WorkingAreaFactory::do_create
PUBLIC	??_G?$ObjFactoryInterface@VWorkingArea@PlaneOfBlocks@@@conc@@UAEPAXI@Z ; conc::ObjFactoryInterface<PlaneOfBlocks::WorkingArea>::`scalar deleting destructor'
PUBLIC	??0?$ObjFactoryInterface@VWorkingArea@PlaneOfBlocks@@@conc@@QAE@XZ ; conc::ObjFactoryInterface<PlaneOfBlocks::WorkingArea>::ObjFactoryInterface<PlaneOfBlocks::WorkingArea>
PUBLIC	??_GWorkingAreaFactory@PlaneOfBlocks@@UAEPAXI@Z	; PlaneOfBlocks::WorkingAreaFactory::`scalar deleting destructor'
PUBLIC	??0WorkingAreaFactory@PlaneOfBlocks@@QAE@HHHHHHHHH@Z ; PlaneOfBlocks::WorkingAreaFactory::WorkingAreaFactory
PUBLIC	?MotionDistorsion@WorkingArea@PlaneOfBlocks@@QBEHHH@Z ; PlaneOfBlocks::WorkingArea::MotionDistorsion
PUBLIC	?IsVectorOK@WorkingArea@PlaneOfBlocks@@QBE_NHH@Z ; PlaneOfBlocks::WorkingArea::IsVectorOK
PUBLIC	??1WorkingArea@PlaneOfBlocks@@UAE@XZ		; PlaneOfBlocks::WorkingArea::~WorkingArea
PUBLIC	??_GWorkingArea@PlaneOfBlocks@@UAEPAXI@Z	; PlaneOfBlocks::WorkingArea::`scalar deleting destructor'
PUBLIC	??0WorkingArea@PlaneOfBlocks@@QAE@HHHHHHHHH@Z	; PlaneOfBlocks::WorkingArea::WorkingArea
PUBLIC	?search_mv_slice@PlaneOfBlocks@@AAEXAAVTaskData@?$MTSlicer@VPlaneOfBlocks@@V1@$0EA@@@@Z ; PlaneOfBlocks::search_mv_slice
PUBLIC	?SquareDifferenceNorm@PlaneOfBlocks@@CAIABUVECTOR@@HH@Z ; PlaneOfBlocks::SquareDifferenceNorm
PUBLIC	?Median@PlaneOfBlocks@@CAHHHH@Z			; PlaneOfBlocks::Median
PUBLIC	?ClipMV@PlaneOfBlocks@@AAE?AUVECTOR@@AAVWorkingArea@1@U2@@Z ; PlaneOfBlocks::ClipMV
PUBLIC	?ClipMVy@PlaneOfBlocks@@AAEHAAVWorkingArea@1@H@Z ; PlaneOfBlocks::ClipMVy
PUBLIC	?ClipMVx@PlaneOfBlocks@@AAEHAAVWorkingArea@1@H@Z ; PlaneOfBlocks::ClipMVx
PUBLIC	?CheckMVdir@PlaneOfBlocks@@AAEXAAVWorkingArea@1@HHPAHH@Z ; PlaneOfBlocks::CheckMVdir
PUBLIC	?CheckMV2@PlaneOfBlocks@@AAEXAAVWorkingArea@1@HHPAHH@Z ; PlaneOfBlocks::CheckMV2
PUBLIC	?CheckMV@PlaneOfBlocks@@AAEXAAVWorkingArea@1@HH@Z ; PlaneOfBlocks::CheckMV
PUBLIC	?CheckMV0@PlaneOfBlocks@@AAEXAAVWorkingArea@1@HH@Z ; PlaneOfBlocks::CheckMV0
PUBLIC	?LumaSAD@PlaneOfBlocks@@AAEHAAVWorkingArea@1@PBE@Z ; PlaneOfBlocks::LumaSAD
PUBLIC	?LumaSADx@PlaneOfBlocks@@AAEHAAVWorkingArea@1@PBE@Z ; PlaneOfBlocks::LumaSADx
PUBLIC	?GetRefBlockV@PlaneOfBlocks@@AAEPBEAAVWorkingArea@1@HH@Z ; PlaneOfBlocks::GetRefBlockV
PUBLIC	?GetRefBlockU@PlaneOfBlocks@@AAEPBEAAVWorkingArea@1@HH@Z ; PlaneOfBlocks::GetRefBlockU
PUBLIC	?GetRefBlock@PlaneOfBlocks@@AAEPBEAAVWorkingArea@1@HH@Z ; PlaneOfBlocks::GetRefBlock
PUBLIC	?estimate_global_mv_doubled_slice@PlaneOfBlocks@@AAEXAAVTaskData@?$MTSlicer@VPlaneOfBlocks@@V1@$0EA@@@@Z ; PlaneOfBlocks::estimate_global_mv_doubled_slice
PUBLIC	?UMHSearch@PlaneOfBlocks@@AAEXAAVWorkingArea@1@HHH@Z ; PlaneOfBlocks::UMHSearch
PUBLIC	?CrossSearch@PlaneOfBlocks@@AAEXAAVWorkingArea@1@HHHHH@Z ; PlaneOfBlocks::CrossSearch
PUBLIC	?Hex2Search@PlaneOfBlocks@@AAEXAAVWorkingArea@1@H@Z ; PlaneOfBlocks::Hex2Search
PUBLIC	?ExpandingSearch@PlaneOfBlocks@@AAEXAAVWorkingArea@1@HHHH@Z ; PlaneOfBlocks::ExpandingSearch
PUBLIC	?OneTimeSearch@PlaneOfBlocks@@AAEXAAVWorkingArea@1@H@Z ; PlaneOfBlocks::OneTimeSearch
PUBLIC	?NStepSearch@PlaneOfBlocks@@AAEXAAVWorkingArea@1@H@Z ; PlaneOfBlocks::NStepSearch
PUBLIC	?DiamondSearch@PlaneOfBlocks@@AAEXAAVWorkingArea@1@H@Z ; PlaneOfBlocks::DiamondSearch
PUBLIC	?Refine@PlaneOfBlocks@@AAEXAAVWorkingArea@1@@Z	; PlaneOfBlocks::Refine
PUBLIC	?WriteHeaderToArray@PlaneOfBlocks@@QAEXPAH@Z	; PlaneOfBlocks::WriteHeaderToArray
PUBLIC	??1WorkingAreaFactory@PlaneOfBlocks@@UAE@XZ	; PlaneOfBlocks::WorkingAreaFactory::~WorkingAreaFactory
PUBLIC	??1?$Array@V?$vector@HV?$allocator@H@std@@@std@@$01@conc@@QAE@XZ ; conc::Array<std::vector<int,std::allocator<int> >,2>::~Array<std::vector<int,std::allocator<int> >,2>
PUBLIC	??0?$Array@V?$vector@HV?$allocator@H@std@@@std@@$01@conc@@QAE@XZ ; conc::Array<std::vector<int,std::allocator<int> >,2>::Array<std::vector<int,std::allocator<int> >,2>
PUBLIC	?GetVPadding@MVPlane@@QBEHXZ			; MVPlane::GetVPadding
PUBLIC	?GetHPadding@MVPlane@@QBEHXZ			; MVPlane::GetHPadding
PUBLIC	?GetAbsolutePelPointer@MVPlane@@QBEPBEHH@Z	; MVPlane::GetAbsolutePelPointer
PUBLIC	?cas@?$AtomicMem@$02@conc@@SA_JAC_J_J1@Z	; conc::AtomicMem<3>::cas
PUBLIC	?swap@?$AtomicMem@$02@conc@@SA_JAC_J_J@Z	; conc::AtomicMem<3>::swap
PUBLIC	?GetMode@MVFrame@@QAEHXZ			; MVFrame::GetMode
PUBLIC	?GetReducedHeight@FakePlaneOfBlocks@@QBEHXZ	; FakePlaneOfBlocks::GetReducedHeight
PUBLIC	?GetReducedWidth@FakePlaneOfBlocks@@QBEHXZ	; FakePlaneOfBlocks::GetReducedWidth
PUBLIC	?RecalculateMVs@PlaneOfBlocks@@QAEXAAVMVClip@@PAVMVFrame@@1W4SearchType@@HHHHHPAHPAFHHHH_N@Z ; PlaneOfBlocks::RecalculateMVs
PUBLIC	?EstimateGlobalMVDoubled@PlaneOfBlocks@@QAEXPAUVECTOR@@AAV?$MTSlicer@VPlaneOfBlocks@@V1@$0EA@@@@Z ; PlaneOfBlocks::EstimateGlobalMVDoubled
PUBLIC	?GetArraySize@PlaneOfBlocks@@QAEHH@Z		; PlaneOfBlocks::GetArraySize
PUBLIC	?WriteDefaultToArray@PlaneOfBlocks@@QAEHPAHH@Z	; PlaneOfBlocks::WriteDefaultToArray
PUBLIC	??$InterpolatePrediction@G@PlaneOfBlocks@@QAEXABV0@@Z ; PlaneOfBlocks::InterpolatePrediction<unsigned short>
PUBLIC	??$InterpolatePrediction@E@PlaneOfBlocks@@QAEXABV0@@Z ; PlaneOfBlocks::InterpolatePrediction<unsigned char>
PUBLIC	?SearchMVs@PlaneOfBlocks@@QAEXPAVMVFrame@@0W4SearchType@@HHHHHHPAHPBUVECTOR@@PAFH2HHHHH_N25@Z ; PlaneOfBlocks::SearchMVs
PUBLIC	??1PlaneOfBlocks@@QAE@XZ			; PlaneOfBlocks::~PlaneOfBlocks
PUBLIC	??0PlaneOfBlocks@@QAE@HHHHHHHHHHHHHPAV?$ObjPool@VDCTClass@@@conc@@_N@Z ; PlaneOfBlocks::PlaneOfBlocks
EXTRN	??_E?$LockFreeStack@PAVWorkingArea@PlaneOfBlocks@@@conc@@UAEPAXI@Z:PROC ; conc::LockFreeStack<PlaneOfBlocks::WorkingArea *>::`vector deleting destructor'
EXTRN	??_E?$AioSub@H@conc@@UAEPAXI@Z:PROC		; conc::AioSub<int>::`vector deleting destructor'
EXTRN	??_E?$ObjPool@VWorkingArea@PlaneOfBlocks@@@conc@@UAEPAXI@Z:PROC ; conc::ObjPool<PlaneOfBlocks::WorkingArea>::`vector deleting destructor'
EXTRN	??_E?$AtomicPtrIntPair@V?$LockFreeCell@PAVWorkingArea@PlaneOfBlocks@@@conc@@@conc@@UAEPAXI@Z:PROC ; conc::AtomicPtrIntPair<conc::LockFreeCell<PlaneOfBlocks::WorkingArea *> >::`vector deleting destructor'
EXTRN	??_E?$AioSub@I@conc@@UAEPAXI@Z:PROC		; conc::AioSub<unsigned int>::`vector deleting destructor'
EXTRN	??_E?$ObjFactoryInterface@VWorkingArea@PlaneOfBlocks@@@conc@@UAEPAXI@Z:PROC ; conc::ObjFactoryInterface<PlaneOfBlocks::WorkingArea>::`vector deleting destructor'
EXTRN	??_E?$CellPool@PAVWorkingArea@PlaneOfBlocks@@@conc@@UAEPAXI@Z:PROC ; conc::CellPool<PlaneOfBlocks::WorkingArea *>::`vector deleting destructor'
EXTRN	??_E?$AioAdd@_J@conc@@UAEPAXI@Z:PROC		; conc::AioAdd<__int64>::`vector deleting destructor'
EXTRN	??_EWorkingAreaFactory@PlaneOfBlocks@@UAEPAXI@Z:PROC ; PlaneOfBlocks::WorkingAreaFactory::`vector deleting destructor'
EXTRN	??_EWorkingArea@PlaneOfBlocks@@UAEPAXI@Z:PROC	; PlaneOfBlocks::WorkingArea::`vector deleting destructor'
;	COMDAT xdata$x
xdata$x	SEGMENT
__ehfuncinfo$??0PlaneOfBlocks@@QAE@HHHHHHHHHHHHHPAV?$ObjPool@VDCTClass@@@conc@@_N@Z DD 019930522H
	DD	06H
	DD	FLAT:__unwindtable$??0PlaneOfBlocks@@QAE@HHHHHHHHHHHHHPAV?$ObjPool@VDCTClass@@@conc@@_N@Z
	DD	2 DUP(00H)
	DD	2 DUP(00H)
	DD	00H
	DD	01H
__unwindtable$??0PlaneOfBlocks@@QAE@HHHHHHHHHHHHHPAV?$ObjPool@VDCTClass@@@conc@@_N@Z DD 0ffffffffH
	DD	FLAT:__unwindfunclet$??0PlaneOfBlocks@@QAE@HHHHHHHHHHHHHPAV?$ObjPool@VDCTClass@@@conc@@_N@Z$0
	DD	00H
	DD	FLAT:__unwindfunclet$??0PlaneOfBlocks@@QAE@HHHHHHHHHHHHHPAV?$ObjPool@VDCTClass@@@conc@@_N@Z$6
	DD	00H
	DD	FLAT:__unwindfunclet$??0PlaneOfBlocks@@QAE@HHHHHHHHHHHHHPAV?$ObjPool@VDCTClass@@@conc@@_N@Z$1
	DD	02H
	DD	FLAT:__unwindfunclet$??0PlaneOfBlocks@@QAE@HHHHHHHHHHHHHPAV?$ObjPool@VDCTClass@@@conc@@_N@Z$2
	DD	03H
	DD	FLAT:__unwindfunclet$??0PlaneOfBlocks@@QAE@HHHHHHHHHHHHHPAV?$ObjPool@VDCTClass@@@conc@@_N@Z$3
	DD	04H
	DD	FLAT:__unwindfunclet$??0PlaneOfBlocks@@QAE@HHHHHHHHHHHHHPAV?$ObjPool@VDCTClass@@@conc@@_N@Z$4
xdata$x	ENDS
;	COMDAT xdata$x
xdata$x	SEGMENT
__ehfuncinfo$??1PlaneOfBlocks@@QAE@XZ DD 019930522H
	DD	01H
	DD	FLAT:__unwindtable$??1PlaneOfBlocks@@QAE@XZ
	DD	2 DUP(00H)
	DD	2 DUP(00H)
	DD	00H
	DD	05H
__unwindtable$??1PlaneOfBlocks@@QAE@XZ DD 0ffffffffH
	DD	FLAT:__unwindfunclet$??1PlaneOfBlocks@@QAE@XZ$2
xdata$x	ENDS
;	COMDAT xdata$x
xdata$x	SEGMENT
__ehfuncinfo$?SearchMVs@PlaneOfBlocks@@QAEXPAVMVFrame@@0W4SearchType@@HHHHHHPAHPBUVECTOR@@PAFH2HHHHH_N25@Z DD 019930522H
	DD	02H
	DD	FLAT:__unwindtable$?SearchMVs@PlaneOfBlocks@@QAEXPAVMVFrame@@0W4SearchType@@HHHHHHPAHPBUVECTOR@@PAFH2HHHHH_N25@Z
	DD	2 DUP(00H)
	DD	2 DUP(00H)
	DD	00H
	DD	01H
__unwindtable$?SearchMVs@PlaneOfBlocks@@QAEXPAVMVFrame@@0W4SearchType@@HHHHHHPAHPBUVECTOR@@PAFH2HHHHH_N25@Z DD 0ffffffffH
	DD	FLAT:__unwindfunclet$?SearchMVs@PlaneOfBlocks@@QAEXPAVMVFrame@@0W4SearchType@@HHHHHHPAHPBUVECTOR@@PAFH2HHHHH_N25@Z$0
	DD	0ffffffffH
	DD	FLAT:__unwindfunclet$?SearchMVs@PlaneOfBlocks@@QAEXPAVMVFrame@@0W4SearchType@@HHHHHHPAHPBUVECTOR@@PAFH2HHHHH_N25@Z$2
xdata$x	ENDS
;	COMDAT xdata$x
xdata$x	SEGMENT
__ehfuncinfo$?RecalculateMVs@PlaneOfBlocks@@QAEXAAVMVClip@@PAVMVFrame@@1W4SearchType@@HHHHHPAHPAFHHHH_N@Z DD 019930522H
	DD	02H
	DD	FLAT:__unwindtable$?RecalculateMVs@PlaneOfBlocks@@QAEXAAVMVClip@@PAVMVFrame@@1W4SearchType@@HHHHHPAHPAFHHHH_N@Z
	DD	2 DUP(00H)
	DD	2 DUP(00H)
	DD	00H
	DD	01H
__unwindtable$?RecalculateMVs@PlaneOfBlocks@@QAEXAAVMVClip@@PAVMVFrame@@1W4SearchType@@HHHHHPAHPAFHHHH_N@Z DD 0ffffffffH
	DD	FLAT:__unwindfunclet$?RecalculateMVs@PlaneOfBlocks@@QAEXAAVMVClip@@PAVMVFrame@@1W4SearchType@@HHHHHPAHPAFHHHH_N@Z$0
	DD	0ffffffffH
	DD	FLAT:__unwindfunclet$?RecalculateMVs@PlaneOfBlocks@@QAEXAAVMVClip@@PAVMVFrame@@1W4SearchType@@HHHHHPAHPAFHHHH_N@Z$1
xdata$x	ENDS
;	COMDAT xdata$x
xdata$x	SEGMENT
__ehfuncinfo$??0?$Array@V?$vector@HV?$allocator@H@std@@@std@@$01@conc@@QAE@XZ DD 019930522H
	DD	00H
	DD	00H
	DD	2 DUP(00H)
	DD	2 DUP(00H)
	DD	00H
	DD	05H
xdata$x	ENDS
;	COMDAT xdata$x
xdata$x	SEGMENT
__ehfuncinfo$??1?$Array@V?$vector@HV?$allocator@H@std@@@std@@$01@conc@@QAE@XZ DD 019930522H
	DD	00H
	DD	00H
	DD	2 DUP(00H)
	DD	2 DUP(00H)
	DD	00H
	DD	05H
xdata$x	ENDS
;	COMDAT xdata$x
xdata$x	SEGMENT
__ehfuncinfo$??0WorkingArea@PlaneOfBlocks@@QAE@HHHHHHHHH@Z DD 019930522H
	DD	03H
	DD	FLAT:__unwindtable$??0WorkingArea@PlaneOfBlocks@@QAE@HHHHHHHHH@Z
	DD	2 DUP(00H)
	DD	2 DUP(00H)
	DD	00H
	DD	01H
__unwindtable$??0WorkingArea@PlaneOfBlocks@@QAE@HHHHHHHHH@Z DD 0ffffffffH
	DD	FLAT:__unwindfunclet$??0WorkingArea@PlaneOfBlocks@@QAE@HHHHHHHHH@Z$0
	DD	00H
	DD	FLAT:__unwindfunclet$??0WorkingArea@PlaneOfBlocks@@QAE@HHHHHHHHH@Z$1
	DD	01H
	DD	FLAT:__unwindfunclet$??0WorkingArea@PlaneOfBlocks@@QAE@HHHHHHHHH@Z$2
xdata$x	ENDS
;	COMDAT xdata$x
xdata$x	SEGMENT
__ehfuncinfo$?do_create@WorkingAreaFactory@PlaneOfBlocks@@MAEPAVWorkingArea@2@XZ DD 019930522H
	DD	01H
	DD	FLAT:__unwindtable$?do_create@WorkingAreaFactory@PlaneOfBlocks@@MAEPAVWorkingArea@2@XZ
	DD	2 DUP(00H)
	DD	2 DUP(00H)
	DD	00H
	DD	01H
__unwindtable$?do_create@WorkingAreaFactory@PlaneOfBlocks@@MAEPAVWorkingArea@2@XZ DD 0ffffffffH
	DD	FLAT:__unwindfunclet$?do_create@WorkingAreaFactory@PlaneOfBlocks@@MAEPAVWorkingArea@2@XZ$0
xdata$x	ENDS
;	COMDAT xdata$x
xdata$x	SEGMENT
__ehfuncinfo$?take_obj@?$ObjPool@VDCTClass@@@conc@@QAEPAVDCTClass@@XZ DD 019930522H
	DD	02H
	DD	FLAT:__unwindtable$?take_obj@?$ObjPool@VDCTClass@@@conc@@QAEPAVDCTClass@@XZ
	DD	01H
	DD	FLAT:__tryblocktable$?take_obj@?$ObjPool@VDCTClass@@@conc@@QAEPAVDCTClass@@XZ
	DD	2 DUP(00H)
	DD	00H
	DD	01H
__unwindtable$?take_obj@?$ObjPool@VDCTClass@@@conc@@QAEPAVDCTClass@@XZ DD 0ffffffffH
	DD	00H
	DD	0ffffffffH
	DD	00H
__tryblocktable$?take_obj@?$ObjPool@VDCTClass@@@conc@@QAEPAVDCTClass@@XZ DD 00H
	DD	00H
	DD	01H
	DD	01H
	DD	FLAT:__catchsym$?take_obj@?$ObjPool@VDCTClass@@@conc@@QAEPAVDCTClass@@XZ$3
__catchsym$?take_obj@?$ObjPool@VDCTClass@@@conc@@QAEPAVDCTClass@@XZ$3 DD 040H
	DD	00H
	DD	00H
	DD	FLAT:__catch$?take_obj@?$ObjPool@VDCTClass@@@conc@@QAEPAVDCTClass@@XZ$0
xdata$x	ENDS
;	COMDAT xdata$x
xdata$x	SEGMENT
__ehfuncinfo$?return_obj@?$ObjPool@VDCTClass@@@conc@@QAEXAAVDCTClass@@@Z DD 019930522H
	DD	02H
	DD	FLAT:__unwindtable$?return_obj@?$ObjPool@VDCTClass@@@conc@@QAEXAAVDCTClass@@@Z
	DD	01H
	DD	FLAT:__tryblocktable$?return_obj@?$ObjPool@VDCTClass@@@conc@@QAEXAAVDCTClass@@@Z
	DD	2 DUP(00H)
	DD	00H
	DD	01H
__unwindtable$?return_obj@?$ObjPool@VDCTClass@@@conc@@QAEXAAVDCTClass@@@Z DD 0ffffffffH
	DD	00H
	DD	0ffffffffH
	DD	00H
__tryblocktable$?return_obj@?$ObjPool@VDCTClass@@@conc@@QAEXAAVDCTClass@@@Z DD 00H
	DD	00H
	DD	01H
	DD	01H
	DD	FLAT:__catchsym$?return_obj@?$ObjPool@VDCTClass@@@conc@@QAEXAAVDCTClass@@@Z$2
__catchsym$?return_obj@?$ObjPool@VDCTClass@@@conc@@QAEXAAVDCTClass@@@Z$2 DD 040H
	DD	00H
	DD	00H
	DD	FLAT:__catch$?return_obj@?$ObjPool@VDCTClass@@@conc@@QAEXAAVDCTClass@@@Z$0
xdata$x	ENDS
;	COMDAT xdata$x
xdata$x	SEGMENT
__ehfuncinfo$??0?$ObjPool@VWorkingArea@PlaneOfBlocks@@@conc@@QAE@XZ DD 019930522H
	DD	03H
	DD	FLAT:__unwindtable$??0?$ObjPool@VWorkingArea@PlaneOfBlocks@@@conc@@QAE@XZ
	DD	2 DUP(00H)
	DD	2 DUP(00H)
	DD	00H
	DD	01H
__unwindtable$??0?$ObjPool@VWorkingArea@PlaneOfBlocks@@@conc@@QAE@XZ DD 0ffffffffH
	DD	FLAT:__unwindfunclet$??0?$ObjPool@VWorkingArea@PlaneOfBlocks@@@conc@@QAE@XZ$0
	DD	00H
	DD	FLAT:__unwindfunclet$??0?$ObjPool@VWorkingArea@PlaneOfBlocks@@@conc@@QAE@XZ$1
	DD	01H
	DD	FLAT:__unwindfunclet$??0?$ObjPool@VWorkingArea@PlaneOfBlocks@@@conc@@QAE@XZ$2
xdata$x	ENDS
;	COMDAT xdata$x
xdata$x	SEGMENT
__ehfuncinfo$?take_obj@?$ObjPool@VWorkingArea@PlaneOfBlocks@@@conc@@QAEPAVWorkingArea@PlaneOfBlocks@@XZ DD 019930522H
	DD	02H
	DD	FLAT:__unwindtable$?take_obj@?$ObjPool@VWorkingArea@PlaneOfBlocks@@@conc@@QAEPAVWorkingArea@PlaneOfBlocks@@XZ
	DD	01H
	DD	FLAT:__tryblocktable$?take_obj@?$ObjPool@VWorkingArea@PlaneOfBlocks@@@conc@@QAEPAVWorkingArea@PlaneOfBlocks@@XZ
	DD	2 DUP(00H)
	DD	00H
	DD	01H
__unwindtable$?take_obj@?$ObjPool@VWorkingArea@PlaneOfBlocks@@@conc@@QAEPAVWorkingArea@PlaneOfBlocks@@XZ DD 0ffffffffH
	DD	00H
	DD	0ffffffffH
	DD	00H
__tryblocktable$?take_obj@?$ObjPool@VWorkingArea@PlaneOfBlocks@@@conc@@QAEPAVWorkingArea@PlaneOfBlocks@@XZ DD 00H
	DD	00H
	DD	01H
	DD	01H
	DD	FLAT:__catchsym$?take_obj@?$ObjPool@VWorkingArea@PlaneOfBlocks@@@conc@@QAEPAVWorkingArea@PlaneOfBlocks@@XZ$3
__catchsym$?take_obj@?$ObjPool@VWorkingArea@PlaneOfBlocks@@@conc@@QAEPAVWorkingArea@PlaneOfBlocks@@XZ$3 DD 040H
	DD	00H
	DD	00H
	DD	FLAT:__catch$?take_obj@?$ObjPool@VWorkingArea@PlaneOfBlocks@@@conc@@QAEPAVWorkingArea@PlaneOfBlocks@@XZ$0
xdata$x	ENDS
;	COMDAT xdata$x
xdata$x	SEGMENT
__ehfuncinfo$?return_obj@?$ObjPool@VWorkingArea@PlaneOfBlocks@@@conc@@QAEXAAVWorkingArea@PlaneOfBlocks@@@Z DD 019930522H
	DD	02H
	DD	FLAT:__unwindtable$?return_obj@?$ObjPool@VWorkingArea@PlaneOfBlocks@@@conc@@QAEXAAVWorkingArea@PlaneOfBlocks@@@Z
	DD	01H
	DD	FLAT:__tryblocktable$?return_obj@?$ObjPool@VWorkingArea@PlaneOfBlocks@@@conc@@QAEXAAVWorkingArea@PlaneOfBlocks@@@Z
	DD	2 DUP(00H)
	DD	00H
	DD	01H
__unwindtable$?return_obj@?$ObjPool@VWorkingArea@PlaneOfBlocks@@@conc@@QAEXAAVWorkingArea@PlaneOfBlocks@@@Z DD 0ffffffffH
	DD	00H
	DD	0ffffffffH
	DD	00H
__tryblocktable$?return_obj@?$ObjPool@VWorkingArea@PlaneOfBlocks@@@conc@@QAEXAAVWorkingArea@PlaneOfBlocks@@@Z DD 00H
	DD	00H
	DD	01H
	DD	01H
	DD	FLAT:__catchsym$?return_obj@?$ObjPool@VWorkingArea@PlaneOfBlocks@@@conc@@QAEXAAVWorkingArea@PlaneOfBlocks@@@Z$2
__catchsym$?return_obj@?$ObjPool@VWorkingArea@PlaneOfBlocks@@@conc@@QAEXAAVWorkingArea@PlaneOfBlocks@@@Z$2 DD 040H
	DD	00H
	DD	00H
	DD	FLAT:__catch$?return_obj@?$ObjPool@VWorkingArea@PlaneOfBlocks@@@conc@@QAEXAAVWorkingArea@PlaneOfBlocks@@@Z$0
xdata$x	ENDS
;	COMDAT xdata$x
xdata$x	SEGMENT
__ehfuncinfo$?create@?$ObjFactoryInterface@VWorkingArea@PlaneOfBlocks@@@conc@@QAEPAVWorkingArea@PlaneOfBlocks@@XZ DD 019930522H
	DD	01H
	DD	FLAT:__unwindtable$?create@?$ObjFactoryInterface@VWorkingArea@PlaneOfBlocks@@@conc@@QAEPAVWorkingArea@PlaneOfBlocks@@XZ
	DD	2 DUP(00H)
	DD	2 DUP(00H)
	DD	00H
	DD	01H
__unwindtable$?create@?$ObjFactoryInterface@VWorkingArea@PlaneOfBlocks@@@conc@@QAEPAVWorkingArea@PlaneOfBlocks@@XZ DD 0ffffffffH
	DD	FLAT:__unwindfunclet$?create@?$ObjFactoryInterface@VWorkingArea@PlaneOfBlocks@@@conc@@QAEPAVWorkingArea@PlaneOfBlocks@@XZ$0
xdata$x	ENDS
;	COMDAT xdata$x
xdata$x	SEGMENT
__ehfuncinfo$?allocate_zone@?$CellPool@PAVWorkingArea@PlaneOfBlocks@@@conc@@AAEXHIAAV?$AtomicPtr@V?$LockFreeCell@PAVWorkingArea@PlaneOfBlocks@@@conc@@@2@@Z DD 019930522H
	DD	01H
	DD	FLAT:__unwindtable$?allocate_zone@?$CellPool@PAVWorkingArea@PlaneOfBlocks@@@conc@@AAEXHIAAV?$AtomicPtr@V?$LockFreeCell@PAVWorkingArea@PlaneOfBlocks@@@conc@@@2@@Z
	DD	2 DUP(00H)
	DD	2 DUP(00H)
	DD	00H
	DD	01H
__unwindtable$?allocate_zone@?$CellPool@PAVWorkingArea@PlaneOfBlocks@@@conc@@AAEXHIAAV?$AtomicPtr@V?$LockFreeCell@PAVWorkingArea@PlaneOfBlocks@@@conc@@@2@@Z DD 0ffffffffH
	DD	FLAT:__unwindfunclet$?allocate_zone@?$CellPool@PAVWorkingArea@PlaneOfBlocks@@@conc@@AAEXHIAAV?$AtomicPtr@V?$LockFreeCell@PAVWorkingArea@PlaneOfBlocks@@@conc@@@2@@Z$0
; Function compile flags: /Ogtpy
; File c:\github\mvtools\sources\planeofblocks.cpp
; File c:\github\mvtools\sources\commonfunctions.h
; File c:\github\mvtools\sources\planeofblocks.cpp
; File c:\github\mvtools\sources\commonfunctions.h
; File c:\github\mvtools\sources\planeofblocks.cpp
; File c:\github\mvtools\sources\commonfunctions.h
; File c:\github\mvtools\sources\planeofblocks.cpp
; File c:\github\mvtools\sources\commonfunctions.h
; File c:\github\mvtools\sources\planeofblocks.cpp
; File c:\github\mvtools\sources\commonfunctions.h
; File c:\github\mvtools\sources\planeofblocks.cpp
; File c:\github\mvtools\sources\commonfunctions.h
; File c:\github\mvtools\sources\planeofblocks.cpp
; File c:\github\mvtools\sources\commonfunctions.h
; File c:\github\mvtools\sources\planeofblocks.cpp
; File c:\github\mvtools\sources\commonfunctions.h
; File c:\github\mvtools\sources\planeofblocks.cpp
; File c:\program files (x86)\microsoft visual studio 14.0\vc\include\algorithm
; File c:\github\mvtools\sources\planeofblocks.cpp
; File c:\program files (x86)\microsoft visual studio 14.0\vc\include\algorithm
; File c:\github\mvtools\sources\planeofblocks.cpp
; File c:\github\mvtools\sources\conc\atomicint.hpp
; File c:\github\mvtools\sources\planeofblocks.cpp
; File c:\github\mvtools\sources\conc\objpool.hpp
; File c:\github\mvtools\sources\planeofblocks.cpp
; File c:\github\mvtools\sources\conc\atomicint.hpp
; File c:\github\mvtools\sources\planeofblocks.cpp
; File c:\github\mvtools\sources\conc\objpool.hpp
; File c:\github\mvtools\sources\planeofblocks.cpp
; File c:\github\mvtools\sources\conc\array.hpp
; File c:\github\mvtools\sources\planeofblocks.cpp
; File c:\program files (x86)\microsoft visual studio 14.0\vc\include\vector
; File c:\github\mvtools\sources\planeofblocks.cpp
; File c:\program files (x86)\microsoft visual studio 14.0\vc\include\vector
; File c:\github\mvtools\sources\planeofblocks.cpp
; File c:\github\mvtools\sources\dctfactory.cpp
; File c:\github\mvtools\sources\planeofblocks.cpp
; File c:\github\mvtools\sources\avstpwrapper.cpp
; File c:\github\mvtools\sources\planeofblocks.cpp
; File c:\program files (x86)\microsoft visual studio 14.0\vc\include\vector
; File c:\github\mvtools\sources\planeofblocks.cpp
; File c:\program files (x86)\microsoft visual studio 14.0\vc\include\vector
; File c:\github\mvtools\sources\planeofblocks.cpp
; File c:\program files (x86)\microsoft visual studio 14.0\vc\include\vector
; File c:\github\mvtools\sources\planeofblocks.cpp
; File c:\program files (x86)\microsoft visual studio 14.0\vc\include\vector
; File c:\github\mvtools\sources\planeofblocks.cpp
; File c:\program files (x86)\microsoft visual studio 14.0\vc\include\vector
; File c:\github\mvtools\sources\planeofblocks.cpp
; File c:\program files (x86)\microsoft visual studio 14.0\vc\include\vcruntime_exception.h
; File c:\program files (x86)\microsoft visual studio 14.0\vc\include\stdexcept
; File c:\github\mvtools\sources\planeofblocks.cpp
; File c:\program files (x86)\microsoft visual studio 14.0\vc\include\vector
; File c:\program files (x86)\microsoft visual studio 14.0\vc\include\xmemory0
; File c:\program files (x86)\microsoft visual studio 14.0\vc\include\vector
; File c:\program files (x86)\microsoft visual studio 14.0\vc\include\xmemory0
; File c:\program files (x86)\microsoft visual studio 14.0\vc\include\vector
; File c:\program files (x86)\microsoft visual studio 14.0\vc\include\xmemory0
; File c:\github\mvtools\sources\planeofblocks.cpp
;	COMDAT ??0PlaneOfBlocks@@QAE@HHHHHHHHHHHHHPAV?$ObjPool@VDCTClass@@@conc@@_N@Z
_TEXT	SEGMENT
$T2 = -48						; size = 12
_dct_stack$3 = -36					; size = 12
__InitData$4 = -24					; size = 8
_this$ = -16						; size = 4
__$EHRec$ = -12						; size = 12
tv1419 = 8						; size = 4
__nBlkX$ = 8						; size = 4
tv1421 = 12						; size = 4
__nBlkY$ = 12						; size = 4
tv1365 = 16						; size = 4
_nbr_threads$1$ = 16					; size = 4
__nBlkSizeX$ = 16					; size = 4
_nLogyRatioUV$1$ = 20					; size = 4
tv1361 = 20						; size = 4
__nBlkSizeY$ = 20					; size = 4
__nPel$ = 24						; size = 4
_yRatioUV$1$ = 28					; size = 4
__nLevel$ = 28						; size = 4
_xRatioUV$1$ = 32					; size = 4
tv1363 = 32						; size = 4
_dct_cnt$1$ = 32					; size = 4
__nFlags$ = 32						; size = 4
_pixelsize$1$ = 36					; size = 4
__nOverlapX$ = 36					; size = 4
_bits_per_pixel$1$ = 40					; size = 4
__nOverlapY$ = 40					; size = 4
_dct_ptr$5 = 44						; size = 4
__xRatioUV$ = 44					; size = 4
__yRatioUV$ = 48					; size = 4
__pixelsize$ = 52					; size = 4
__bits_per_pixel$ = 56					; size = 4
_dct_pool_ptr$ = 60					; size = 4
tv1367 = 64						; size = 4
$T6 = 64						; size = 4
_mt_flag$ = 64						; size = 1
_err_flag$1$ = 67					; size = 1
??0PlaneOfBlocks@@QAE@HHHHHHHHHHHHHPAV?$ObjPool@VDCTClass@@@conc@@_N@Z PROC ; PlaneOfBlocks::PlaneOfBlocks, COMDAT
; _this$ = ecx

; 85   : {

	push	ebp
	mov	ebp, esp
	push	-1
	push	__ehhandler$??0PlaneOfBlocks@@QAE@HHHHHHHHHHHHHPAV?$ObjPool@VDCTClass@@@conc@@_N@Z
	mov	eax, DWORD PTR fs:0
	push	eax
	mov	DWORD PTR fs:0, esp
	sub	esp, 36					; 00000024H

; 45   :   , nBlkY(_nBlkY)

	mov	eax, DWORD PTR __nBlkY$[ebp]

; 46   :   , nBlkSizeX(_nBlkSizeX)
; 47   :   , nBlkSizeY(_nBlkSizeY)
; 48   :   , nBlkCount(_nBlkX * _nBlkY)
; 49   :   , nPel(_nPel)

	mov	edx, DWORD PTR __nPel$[ebp]
	push	esi
	mov	esi, ecx
	mov	DWORD PTR _this$[ebp], esi
	mov	ecx, DWORD PTR __nBlkSizeX$[ebp]
	push	edi
	mov	edi, DWORD PTR __nBlkX$[ebp]
	mov	DWORD PTR [esi], edi
	imul	edi, eax
	mov	DWORD PTR [esi+8], ecx
	mov	ecx, DWORD PTR __nBlkSizeY$[ebp]
	mov	DWORD PTR [esi+12], ecx
; File c:\github\mvtools\sources\commonfunctions.h

; 25   : 	int result = 0;

	xor	ecx, ecx
; File c:\github\mvtools\sources\planeofblocks.cpp

; 45   :   , nBlkY(_nBlkY)

	mov	DWORD PTR [esi+4], eax

; 50   :   , nLogPel(ilog2(_nPel))	// nLogPel=0 for nPel=1, 1 for nPel=2, 2 for nPel=4, i.e. (x*nPel) = (x<<nLogPel)

	mov	eax, edx
	mov	DWORD PTR [esi+16], edi
	mov	DWORD PTR [esi+20], edx
; File c:\github\mvtools\sources\commonfunctions.h

; 26   : 	while ( i > 1 ) { i /= 2; result++; }

	cmp	edx, 1
	jle	SHORT $LN34@PlaneOfBlo
	npad	2
$LL33@PlaneOfBlo:
	cdq
	inc	ecx
	sub	eax, edx
	sar	eax, 1
	cmp	eax, 1
	jg	SHORT $LL33@PlaneOfBlo
$LN34@PlaneOfBlo:

; 7    : 	return ~(a >> (sizeof(int)*8 - 1)) & a;

	mov	edx, DWORD PTR __nLevel$[ebp]

; 33   : 	return 1 << satz(i);

	mov	eax, 1
; File c:\github\mvtools\sources\planeofblocks.cpp

; 50   :   , nLogPel(ilog2(_nPel))	// nLogPel=0 for nPel=1, 1 for nPel=2, 2 for nPel=4, i.e. (x*nPel) = (x<<nLogPel)

	mov	DWORD PTR [esi+24], ecx
; File c:\github\mvtools\sources\commonfunctions.h

; 7    : 	return ~(a >> (sizeof(int)*8 - 1)) & a;

	mov	ecx, edx
	sar	ecx, 31					; 0000001fH
	not	ecx
; File c:\github\mvtools\sources\planeofblocks.cpp

; 51   :   , nLogScale(_nLevel)

	mov	DWORD PTR [esi+32], edx
; File c:\github\mvtools\sources\commonfunctions.h

; 7    : 	return ~(a >> (sizeof(int)*8 - 1)) & a;

	and	ecx, edx

; 33   : 	return 1 << satz(i);

	shl	eax, cl
; File c:\github\mvtools\sources\planeofblocks.cpp

; 56   :   , xRatioUV(_xRatioUV) // PF

	lea	ecx, DWORD PTR [esi+48]
	mov	DWORD PTR [esi+28], eax
	mov	eax, DWORD PTR __nFlags$[ebp]
	mov	DWORD PTR [esi+36], eax
	mov	eax, DWORD PTR __nOverlapX$[ebp]
	mov	DWORD PTR [esi+40], eax
	mov	eax, DWORD PTR __nOverlapY$[ebp]
	mov	DWORD PTR [esi+44], eax
	mov	eax, DWORD PTR __xRatioUV$[ebp]
	mov	DWORD PTR tv1421[ebp], ecx
	mov	DWORD PTR [ecx], eax
; File c:\github\mvtools\sources\commonfunctions.h

; 25   : 	int result = 0;

	xor	ecx, ecx

; 26   : 	while ( i > 1 ) { i /= 2; result++; }

	cmp	eax, 1
	jle	SHORT $LN42@PlaneOfBlo
	npad	5
$LL41@PlaneOfBlo:
	cdq
	inc	ecx
	sub	eax, edx
	sar	eax, 1
	cmp	eax, 1
	jg	SHORT $LL41@PlaneOfBlo
$LN42@PlaneOfBlo:
; File c:\github\mvtools\sources\planeofblocks.cpp

; 58   :   , yRatioUV(_yRatioUV)

	mov	eax, DWORD PTR __yRatioUV$[ebp]
	mov	DWORD PTR [esi+52], ecx
	lea	ecx, DWORD PTR [esi+56]
	mov	DWORD PTR tv1419[ebp], ecx
	mov	DWORD PTR [ecx], eax
; File c:\github\mvtools\sources\commonfunctions.h

; 25   : 	int result = 0;

	xor	ecx, ecx

; 26   : 	while ( i > 1 ) { i /= 2; result++; }

	cmp	eax, 1
	jle	SHORT $LN46@PlaneOfBlo
$LL45@PlaneOfBlo:
	cdq
	inc	ecx
	sub	eax, edx
	sar	eax, 1
	cmp	eax, 1
	jg	SHORT $LL45@PlaneOfBlo
$LN46@PlaneOfBlo:
; File c:\github\mvtools\sources\planeofblocks.cpp

; 60   :   , pixelsize(_pixelsize) // PF

	mov	eax, DWORD PTR __pixelsize$[ebp]
	mov	DWORD PTR [esi+60], ecx
; File c:\github\mvtools\sources\commonfunctions.h

; 25   : 	int result = 0;

	xor	ecx, ecx
; File c:\github\mvtools\sources\planeofblocks.cpp

; 60   :   , pixelsize(_pixelsize) // PF

	mov	DWORD PTR [esi+64], eax
; File c:\github\mvtools\sources\commonfunctions.h

; 26   : 	while ( i > 1 ) { i /= 2; result++; }

	cmp	eax, 1
	jle	SHORT $LN50@PlaneOfBlo
	npad	5
$LL49@PlaneOfBlo:
	cdq
	inc	ecx
	sub	eax, edx
	sar	eax, 1
	cmp	eax, 1
	jg	SHORT $LL49@PlaneOfBlo
$LN50@PlaneOfBlo:
; File c:\github\mvtools\sources\planeofblocks.cpp

; 62   :   , bits_per_pixel(_bits_per_pixel) // PF

	mov	eax, DWORD PTR __bits_per_pixel$[ebp]
	mov	DWORD PTR [esi+72], eax

; 63   :   , _mt_flag(mt_flag)

	mov	al, BYTE PTR _mt_flag$[ebp]
	mov	DWORD PTR [esi+68], ecx

; 64   :   , SAD(0)
; 65   :   , LUMA(0)
; 66   :   , VAR(0)
; 67   :   , BLITLUMA(0)
; 68   :   , BLITCHROMA(0)
; 69   :   , SADCHROMA(0)
; 70   :   , SATD(0)
; 71   :   , vectors(nBlkCount)

	lea	ecx, DWORD PTR [esi+108]
	push	edi
	mov	BYTE PTR [esi+76], al
	mov	DWORD PTR [esi+80], 0
	mov	DWORD PTR [esi+84], 0
	mov	DWORD PTR [esi+88], 0
	mov	DWORD PTR [esi+92], 0
	mov	DWORD PTR [esi+96], 0
	mov	DWORD PTR [esi+100], 0
	mov	DWORD PTR [esi+104], 0
	call	??0?$vector@UVECTOR@@V?$allocator@UVECTOR@@@std@@@std@@QAE@I@Z ; std::vector<VECTOR,std::allocator<VECTOR> >::vector<VECTOR,std::allocator<VECTOR> >

; 72   :   , smallestPlane((_nFlags & MOTION_SMALLEST_PLANE) != 0)

	mov	ecx, DWORD PTR __nFlags$[ebp]
	xorps	xmm0, xmm0
	mov	DWORD PTR __$EHRec$[ebp+8], 0
	mov	eax, ecx
; File c:\program files (x86)\microsoft visual studio 14.0\vc\include\algorithm

; 3612 : 	return (_DEBUG_LT(_Left, _Right) ? _Right : _Left);

	mov	edi, DWORD PTR __nBlkSizeX$[ebp]
; File c:\github\mvtools\sources\planeofblocks.cpp

; 72   :   , smallestPlane((_nFlags & MOTION_SMALLEST_PLANE) != 0)

	shr	eax, 7
	and	al, 1

; 76   :   , dctpitch(std::max(_nBlkSizeX, 16))

	mov	DWORD PTR $T6[ebp], 16			; 00000010H
	mov	BYTE PTR [esi+120], al
	mov	eax, ecx
	shr	eax, 5
	and	al, 1
	shr	ecx, 11					; 0000000bH
	mov	BYTE PTR [esi+121], al
	and	cl, 1
	mov	BYTE PTR [esi+122], cl
; File c:\program files (x86)\microsoft visual studio 14.0\vc\include\algorithm

; 3612 : 	return (_DEBUG_LT(_Left, _Right) ? _Right : _Left);

	lea	eax, DWORD PTR $T6[ebp]
	cmp	edi, 16					; 00000010H
	lea	ecx, DWORD PTR __nBlkSizeX$[ebp]
	cmovge	eax, ecx
; File c:\github\mvtools\sources\planeofblocks.cpp

; 76   :   , dctpitch(std::max(_nBlkSizeX, 16))

	mov	eax, DWORD PTR [eax]
	mov	DWORD PTR [esi+124], eax

; 77   :   , _dct_pool_ptr(dct_pool_ptr)

	mov	eax, DWORD PTR _dct_pool_ptr$[ebp]
	mov	DWORD PTR [esi+128], eax

; 79   :   , freqArray()

	lea	eax, DWORD PTR [esi+132]
	movups	XMMWORD PTR [eax], xmm0
	movq	QWORD PTR [eax+16], xmm0
	push	OFFSET ??1?$vector@HV?$allocator@H@std@@@std@@QAE@XZ ; std::vector<int,std::allocator<int> >::~vector<int,std::allocator<int> >
	push	OFFSET ??0?$vector@HV?$allocator@H@std@@@std@@QAE@XZ ; std::vector<int,std::allocator<int> >::vector<int,std::allocator<int> >
	push	2
	push	12					; 0000000cH
	push	eax
	mov	BYTE PTR __$EHRec$[ebp+8], 1
	call	??_L@YGXPAXIIP6EX0@Z1@Z

; 78   :   , verybigSAD(_nBlkSizeX * _nBlkSizeY * (pixelsize == 4 ? 1 : (1 << bits_per_pixel))) // * 256, pixelsize==2 -> 65536. Float:1

	cmp	DWORD PTR [esi+64], 4
	mov	eax, 1
	je	SHORT $LN24@PlaneOfBlo
	mov	ecx, DWORD PTR [esi+72]
	shl	eax, cl
$LN24@PlaneOfBlo:
	imul	eax, edi

; 80   :   , dctmode(0)

	mov	DWORD PTR [esi+216], 0
	imul	eax, DWORD PTR __nBlkSizeY$[ebp]
	mov	DWORD PTR [esi+156], eax
; File c:\github\mvtools\sources\conc\atomicint.hpp

; 54   : :	_val ()

	mov	DWORD PTR [esi+256], 0
	mov	DWORD PTR [esi+264], 0
	mov	DWORD PTR [esi+268], 0
	mov	DWORD PTR [esi+272], 0
	mov	DWORD PTR [esi+276], 0
; File c:\github\mvtools\sources\planeofblocks.cpp

; 81   :   , _workarea_fact(nBlkSizeX, nBlkSizeY, dctpitch, nLogxRatioUV, xRatioUV, nLogyRatioUV, yRatioUV, pixelsize, bits_per_pixel)

	mov	eax, DWORD PTR [esi+72]
	mov	DWORD PTR _bits_per_pixel$1$[ebp], eax
	mov	eax, DWORD PTR [esi+64]
	mov	DWORD PTR _pixelsize$1$[ebp], eax
	mov	eax, DWORD PTR tv1419[ebp]
	mov	eax, DWORD PTR [eax]
	mov	DWORD PTR _yRatioUV$1$[ebp], eax
	mov	eax, DWORD PTR [esi+60]
	mov	esi, DWORD PTR [esi+52]
	mov	DWORD PTR _nLogyRatioUV$1$[ebp], eax
	mov	eax, DWORD PTR tv1421[ebp]
	mov	edi, DWORD PTR [eax]
	mov	eax, DWORD PTR _this$[ebp]
	mov	DWORD PTR _xRatioUV$1$[ebp], edi

; 2515 : {

	mov	edi, DWORD PTR _this$[ebp]

; 81   :   , _workarea_fact(nBlkSizeX, nBlkSizeY, dctpitch, nLogxRatioUV, xRatioUV, nLogyRatioUV, yRatioUV, pixelsize, bits_per_pixel)

	mov	ecx, DWORD PTR [eax+12]
	mov	edx, DWORD PTR [eax+124]
	mov	eax, DWORD PTR [eax+8]

; 2506 :   : _blk_size_x(nBlkSizeX)

	mov	DWORD PTR [edi+336], eax

; 2507 :   , _blk_size_y(nBlkSizeY)

	mov	eax, edi
	mov	DWORD PTR [edi+332], OFFSET ??_7WorkingAreaFactory@PlaneOfBlocks@@6B@

; 2508 :   , _dctpitch(dctpitch)
; 2509 :   , _x_ratio_uv_log(nLogxRatioUV)
; 2510 :   , _x_ratio_uv(xRatioUV)

	mov	edi, DWORD PTR _xRatioUV$1$[ebp]
	mov	DWORD PTR [eax+344], edx
	mov	DWORD PTR [eax+340], ecx
	lea	ecx, DWORD PTR [eax+332]

; 2511 :   , _y_ratio_uv_log(nLogyRatioUV)

	mov	eax, DWORD PTR _nLogyRatioUV$1$[ebp]
	mov	DWORD PTR [ecx+24], eax

; 2512 :   , _y_ratio_uv(yRatioUV)

	mov	eax, DWORD PTR _yRatioUV$1$[ebp]
	mov	DWORD PTR [ecx+28], eax

; 2513 :   , _pixelsize(pixelsize)

	mov	eax, DWORD PTR _pixelsize$1$[ebp]
	mov	DWORD PTR [ecx+32], eax

; 2514 :   , _bits_per_pixel(bits_per_pixel)

	mov	eax, DWORD PTR _bits_per_pixel$1$[ebp]
	mov	DWORD PTR [ecx+16], esi
	mov	DWORD PTR [ecx+20], edi
	mov	DWORD PTR [ecx+36], eax

; 81   :   , _workarea_fact(nBlkSizeX, nBlkSizeY, dctpitch, nLogxRatioUV, xRatioUV, nLogyRatioUV, yRatioUV, pixelsize, bits_per_pixel)

	mov	BYTE PTR __$EHRec$[ebp+8], 3

; 82   :   , _workarea_pool()

	mov	esi, DWORD PTR _this$[ebp]
	lea	ecx, DWORD PTR [esi+376]
	call	??0?$ObjPool@VWorkingArea@PlaneOfBlocks@@@conc@@QAE@XZ ; conc::ObjPool<PlaneOfBlocks::WorkingArea>::ObjPool<PlaneOfBlocks::WorkingArea>

; 89   :   freqArray[0].resize(8192 * _nPel * 2);

	mov	edi, DWORD PTR __nPel$[ebp]
; File c:\github\mvtools\sources\conc\objpool.hpp

; 93   : 	_factory_ptr = &fact;

	lea	eax, DWORD PTR [esi+332]
; File c:\github\mvtools\sources\planeofblocks.cpp

; 82   :   , _workarea_pool()

	mov	BYTE PTR __$EHRec$[ebp+8], 4

; 89   :   freqArray[0].resize(8192 * _nPel * 2);

	lea	ecx, DWORD PTR [esi+132]
	mov	DWORD PTR [esi+760], 0
	shl	edi, 14					; 0000000eH
; File c:\github\mvtools\sources\conc\atomicint.hpp

; 63   : :	_val (val)

	mov	DWORD PTR [esi+764], 0
; File c:\github\mvtools\sources\planeofblocks.cpp

; 89   :   freqArray[0].resize(8192 * _nPel * 2);

	push	edi
; File c:\github\mvtools\sources\conc\objpool.hpp

; 93   : 	_factory_ptr = &fact;

	mov	DWORD PTR [esi+384], eax
; File c:\github\mvtools\sources\planeofblocks.cpp

; 89   :   freqArray[0].resize(8192 * _nPel * 2);

	call	?resize@?$vector@HV?$allocator@H@std@@@std@@QAEXI@Z ; std::vector<int,std::allocator<int> >::resize

; 90   :   freqArray[1].resize(8192 * _nPel * 2);

	push	edi
; File c:\github\mvtools\sources\conc\array.hpp

; 55   : 	return (_data [pos]);

	lea	ecx, DWORD PTR [esi+144]
; File c:\github\mvtools\sources\planeofblocks.cpp

; 90   :   freqArray[1].resize(8192 * _nPel * 2);

	call	?resize@?$vector@HV?$allocator@H@std@@@std@@QAEXI@Z ; std::vector<int,std::allocator<int> >::resize

; 91   : 
; 92   :   bool sse2 = (bool)(nFlags & CPU_SSE2); // no tricks for really old processors. If SSE2 is reported, use it

	mov	eax, DWORD PTR [esi+36]
	mov	ecx, eax
	shr	ecx, 17					; 00000011H
	and	ecx, -255				; ffffff01H
	mov	DWORD PTR tv1361[ebp], ecx

; 93   :   bool sse41 = (bool)(nFlags & CPUF_SSE4_1); 

	mov	ecx, eax
	shr	ecx, 10					; 0000000aH
	and	ecx, -255				; ffffff01H
	mov	DWORD PTR tv1363[ebp], ecx

; 94   :   bool avx = (bool)(nFlags & CPU_AVX);

	mov	ecx, eax
	shr	ecx, 25					; 00000019H
	and	ecx, -255				; ffffff01H

; 95   :   bool avx2 = (bool)(nFlags & CPU_AVX2);

	shr	eax, 26					; 0000001aH
	mov	DWORD PTR tv1365[ebp], ecx
	and	eax, -255				; ffffff01H
; File c:\program files (x86)\microsoft visual studio 14.0\vc\include\vector

; 1180 : 		return (this->_Mylast() - this->_Myfirst());

	mov	ecx, DWORD PTR [esi+112]
	sub	ecx, DWORD PTR [esi+108]
; File c:\github\mvtools\sources\planeofblocks.cpp

; 95   :   bool avx2 = (bool)(nFlags & CPU_AVX2);

	mov	DWORD PTR tv1367[ebp], eax
; File c:\program files (x86)\microsoft visual studio 14.0\vc\include\vector

; 1180 : 		return (this->_Mylast() - this->_Myfirst());

	mov	eax, 715827883				; 2aaaaaabH
	imul	ecx
	sar	edx, 1
	mov	eax, edx
	shr	eax, 31					; 0000001fH
	add	eax, edx
; File c:\github\mvtools\sources\planeofblocks.cpp

; 106  :   memset(&vectors[0], 0, vectors.size() * sizeof(vectors[0]));

	lea	eax, DWORD PTR [eax+eax*2]
	shl	eax, 2
	push	eax
	push	0
	push	DWORD PTR [esi+108]
	call	_memset

; 107  : 
; 108  :   // function's pointers 
; 109  :   // Sad_C: SadFunction.cpp
; 110  :   // Var_c: Variance.h   PF nowhere used!!!
; 111  :   // Luma_c: Variance.h 
; 112  :   // Copy_C: CopyCode
; 113  : 
; 114  : 
; 115  :   SATD = SadDummy; //for now disable SATD if default functions are used
; 116  : 
; 117  :                      // in overlaps.h
; 118  :                      // OverlapsLsbFunction
; 119  :                      // OverlapsFunction
; 120  :                      // in M(V)DegrainX: DenoiseXFunction
; 121  :   arch_t arch;
; 122  :   if (isse && avx2)

	mov	al, BYTE PTR [esi+121]
	add	esp, 12					; 0000000cH
	mov	DWORD PTR [esi+104], OFFSET _SadDummy
	test	al, al
	je	SHORT $LN13@PlaneOfBlo
	cmp	BYTE PTR tv1367[ebp], 0
	je	SHORT $LN7@PlaneOfBlo

; 123  :     arch = USE_AVX2;

	mov	edi, 6
	jmp	SHORT $LN14@PlaneOfBlo
$LN7@PlaneOfBlo:

; 124  :   else if (isse && avx)

	test	al, al
	je	SHORT $LN13@PlaneOfBlo
	cmp	BYTE PTR tv1365[ebp], 0
	je	SHORT $LN9@PlaneOfBlo

; 125  :     arch = USE_AVX;

	mov	edi, 5
	jmp	SHORT $LN14@PlaneOfBlo
$LN9@PlaneOfBlo:

; 126  :   else if (isse && sse41)

	test	al, al
	je	SHORT $LN13@PlaneOfBlo
	cmp	BYTE PTR tv1363[ebp], 0
	je	SHORT $LN11@PlaneOfBlo

; 127  :     arch = USE_SSE41;

	mov	edi, 3
	jmp	SHORT $LN14@PlaneOfBlo
$LN11@PlaneOfBlo:

; 128  :   else if (isse && sse2)

	test	al, al
	je	SHORT $LN13@PlaneOfBlo
	cmp	BYTE PTR tv1361[ebp], 0
	je	SHORT $LN13@PlaneOfBlo

; 129  :     arch = USE_SSE2;

	mov	edi, 2

; 130  :   else

	jmp	SHORT $LN14@PlaneOfBlo
$LN13@PlaneOfBlo:

; 131  :     arch = NO_SIMD;

	xor	edi, edi
$LN14@PlaneOfBlo:

; 132  : 
; 133  :   SAD = get_sad_function(nBlkSizeX, nBlkSizeY, pixelsize, arch);

	mov	edx, DWORD PTR [esi+12]
	mov	ecx, DWORD PTR [esi+8]
	push	edi
	push	DWORD PTR [esi+64]
	call	?get_sad_function@@YAP6AIPBEH0H@ZHHHW4arch_t@@@Z ; get_sad_function

; 134  :   SADCHROMA = get_sad_function(nBlkSizeX / xRatioUV, nBlkSizeY / yRatioUV, pixelsize, arch);

	mov	ecx, DWORD PTR tv1419[ebp]
	mov	DWORD PTR [esi+80], eax
	mov	eax, DWORD PTR [esi+12]
	cdq
	idiv	DWORD PTR [ecx]
	push	edi
	push	DWORD PTR [esi+64]
	mov	ecx, eax
	mov	eax, DWORD PTR [esi+8]
	mov	esi, DWORD PTR tv1421[ebp]
	cdq
	idiv	DWORD PTR [esi]
	mov	edx, ecx
	mov	ecx, eax
	call	?get_sad_function@@YAP6AIPBEH0H@ZHHHW4arch_t@@@Z ; get_sad_function
	mov	esi, DWORD PTR _this$[ebp]

; 135  :   BLITLUMA = get_copy_function(nBlkSizeX, nBlkSizeY, pixelsize, arch);

	push	edi
	push	DWORD PTR [esi+64]
	mov	edx, DWORD PTR [esi+12]
	mov	ecx, DWORD PTR [esi+8]
	mov	DWORD PTR [esi+100], eax
	call	?get_copy_function@@YAP6AXPAEHPBEH@ZHHHW4arch_t@@@Z ; get_copy_function

; 136  :   BLITCHROMA = get_copy_function(nBlkSizeX / xRatioUV, nBlkSizeY / yRatioUV, pixelsize, arch);

	mov	ecx, DWORD PTR tv1419[ebp]
	mov	DWORD PTR [esi+92], eax
	mov	eax, DWORD PTR [esi+12]
	cdq
	idiv	DWORD PTR [ecx]
	push	edi
	push	DWORD PTR [esi+64]
	mov	ecx, eax
	mov	eax, DWORD PTR [esi+8]
	mov	esi, DWORD PTR tv1421[ebp]
	cdq
	idiv	DWORD PTR [esi]
	mov	edx, ecx
	mov	ecx, eax
	call	?get_copy_function@@YAP6AXPAEHPBEH@ZHHHW4arch_t@@@Z ; get_copy_function
	mov	esi, DWORD PTR _this$[ebp]

; 137  :   //VAR        = get_var_function(nBlkSizeX/xRatioUV, nBlkSizeY/yRatioUV, pixelsize, arch); // variance.h PF: no VAR
; 138  :   LUMA = get_luma_function(nBlkSizeX / xRatioUV, nBlkSizeY / yRatioUV, pixelsize, arch); // variance.h

	mov	ecx, DWORD PTR tv1419[ebp]
	push	edi
	mov	DWORD PTR [esi+96], eax
	mov	eax, DWORD PTR [esi+12]
	cdq
	idiv	DWORD PTR [ecx]
	push	DWORD PTR [esi+64]
	mov	ecx, eax
	mov	eax, DWORD PTR [esi+8]
	mov	esi, DWORD PTR tv1421[ebp]
	cdq
	idiv	DWORD PTR [esi]
	mov	edx, ecx
	mov	ecx, eax
	call	?get_luma_function@@YAP6AIPBEH@ZHHHW4arch_t@@@Z ; get_luma_function
	mov	esi, DWORD PTR _this$[ebp]

; 139  :   SATD = get_satd_function(nBlkSizeX, nBlkSizeY, pixelsize, arch); // P.F. 2.7.0.22d SATD made live

	push	edi
	push	DWORD PTR [esi+64]
	mov	edx, DWORD PTR [esi+12]
	mov	ecx, DWORD PTR [esi+8]
	mov	DWORD PTR [esi+84], eax
	call	?get_satd_function@@YAP6AIPBEH0H@ZHHHW4arch_t@@@Z ; get_satd_function
	add	esp, 48					; 00000030H
	mov	DWORD PTR [esi+104], eax

; 140  :   if (SATD == nullptr)

	test	eax, eax
	jne	SHORT $LN15@PlaneOfBlo

; 141  :     SATD = SadDummy;

	mov	DWORD PTR [esi+104], OFFSET _SadDummy
$LN15@PlaneOfBlo:

; 142  : 
; 143  :   if (!chroma)

	cmp	BYTE PTR [esi+122], 0
	jne	SHORT $LN16@PlaneOfBlo

; 144  :   {
; 145  :     SADCHROMA = SadDummy;

	mov	DWORD PTR [esi+100], OFFSET _SadDummy
$LN16@PlaneOfBlo:

; 146  :   }
; 147  : 
; 148  :   // for debug:
; 149  :   //         SAD = x264_pixel_sad_4x4_mmx2;
; 150  :   //         VAR = Var_C<8>;
; 151  :   //         LUMA = Luma_C<8>;
; 152  :   //         BLITLUMA = Copy_C<16,16>;
; 153  :   //		 BLITCHROMA = Copy_C<8,8>; // idem
; 154  :   //		 SADCHROMA = x264_pixel_sad_8x8_mmx2;
; 155  : 
; 156  : #ifdef ALLOW_DCT
; 157  :   if (_dct_pool_ptr != 0)

	mov	eax, DWORD PTR [esi+128]
	test	eax, eax
	je	$LN268@PlaneOfBlo

; 158  :   {
; 159  :     DCTFactory &	dct_fact =

	push	1
	push	OFFSET ??_R0?AVDCTFactory@@@8
	push	OFFSET ??_R0?AV?$ObjFactoryInterface@VDCTClass@@@conc@@@8
	push	0
	push	DWORD PTR [eax+8]
	call	___RTDynamicCast
	add	esp, 20					; 00000014H

; 160  :       dynamic_cast <DCTFactory &> (_dct_pool_ptr->use_factory());
; 161  :     dctmode = dct_fact.get_dctmode();

	mov	ecx, DWORD PTR [eax+12]
	mov	DWORD PTR [esi+216], ecx
; File c:\github\mvtools\sources\dctfactory.cpp

; 92   : 	return (_fftw_flag);

	mov	al, BYTE PTR [eax+25]
; File c:\github\mvtools\sources\planeofblocks.cpp

; 166  :     if (dct_fact.use_fftw())

	test	al, al
	je	$LN268@PlaneOfBlo

; 169  :         (_mt_flag)

	cmp	BYTE PTR [esi+76], 0
	je	SHORT $LN25@PlaneOfBlo
	call	?use_instance@AvstpWrapper@@SAAAV1@XZ	; AvstpWrapper::use_instance
; File c:\github\mvtools\sources\avstpwrapper.cpp

; 132  : 	return (_avstp_get_nbr_threads_ptr ());

	mov	eax, DWORD PTR [eax+16]
	call	eax
; File c:\github\mvtools\sources\planeofblocks.cpp

; 169  :         (_mt_flag)

	jmp	SHORT $LN391@PlaneOfBlo
$LN25@PlaneOfBlo:
	mov	eax, 1
$LN391@PlaneOfBlo:
; File c:\program files (x86)\microsoft visual studio 14.0\vc\include\vector

; 486  : 		_Mylast(),

	xor	edi, edi
; File c:\github\mvtools\sources\planeofblocks.cpp

; 169  :         (_mt_flag)

	mov	DWORD PTR _nbr_threads$1$[ebp], eax
; File c:\program files (x86)\microsoft visual studio 14.0\vc\include\vector

; 485  : 		: _Myfirst(),

	mov	DWORD PTR _dct_stack$3[ebp], 0

; 486  : 		_Mylast(),

	mov	DWORD PTR _dct_stack$3[ebp+4], edi

; 487  : 		_Myend()

	mov	DWORD PTR _dct_stack$3[ebp+8], edi
; File c:\github\mvtools\sources\planeofblocks.cpp

; 173  :       std::vector <DCTClass *>	dct_stack;

	mov	BYTE PTR __$EHRec$[ebp+8], 5
; File c:\program files (x86)\microsoft visual studio 14.0\vc\include\vector

; 1033 : 		if (capacity() < _Count)

	test	eax, eax
	je	SHORT $LN127@PlaneOfBlo

; 1034 : 			{	// something to do, check and reallocate
; 1035 : 			if (max_size() < _Count)

	cmp	eax, 1073741823				; 3fffffffH
	jbe	SHORT $LN128@PlaneOfBlo

; 1765 : 		_Xlength_error("vector<T> too long");

	push	OFFSET ??_C@_0BD@OLBABOEK@vector?$DMT?$DO?5too?5long?$AA@
	call	DWORD PTR __imp_?_Xlength_error@std@@YAXPBD@Z
$LN392@PlaneOfBlo:
$LN128@PlaneOfBlo:

; 1037 : 			_Reallocate(_Count);

	push	eax
	lea	ecx, DWORD PTR _dct_stack$3[ebp]
	call	?_Reallocate@?$vector@PAVDCTClass@@V?$allocator@PAVDCTClass@@@std@@@std@@IAEXI@Z ; std::vector<DCTClass *,std::allocator<DCTClass *> >::_Reallocate
	mov	edi, DWORD PTR _dct_stack$3[ebp+4]
	mov	eax, DWORD PTR _nbr_threads$1$[ebp]
$LN127@PlaneOfBlo:
; File c:\github\mvtools\sources\planeofblocks.cpp

; 175  :       bool				err_flag = false;

	xor	cl, cl

; 176  :       for (int dct_cnt = 0; dct_cnt < nbr_threads && !err_flag; ++dct_cnt)

	mov	DWORD PTR _dct_cnt$1$[ebp], 0
	mov	BYTE PTR _err_flag$1$[ebp], cl
	test	eax, eax
	jle	SHORT $LN366@PlaneOfBlo
	mov	edi, DWORD PTR _nbr_threads$1$[ebp]
$LL4@PlaneOfBlo:
	test	cl, cl
	jne	SHORT $LN385@PlaneOfBlo

; 177  :       {
; 178  :         DCTClass *			dct_ptr = _dct_pool_ptr->take_obj();

	mov	ecx, DWORD PTR [esi+128]
	call	?take_obj@?$ObjPool@VDCTClass@@@conc@@QAEPAVDCTClass@@XZ ; conc::ObjPool<DCTClass>::take_obj
	mov	DWORD PTR _dct_ptr$5[ebp], eax

; 179  :         if (dct_ptr == 0)

	test	eax, eax
	jne	SHORT $LN19@PlaneOfBlo

; 180  :         {
; 181  :           err_flag = true;

	mov	cl, 1
	mov	BYTE PTR _err_flag$1$[ebp], cl

; 182  :         }
; 183  :         else

	jmp	SHORT $LN2@PlaneOfBlo
$LN19@PlaneOfBlo:

; 184  :         {
; 185  :           dct_stack.push_back(dct_ptr);

	lea	eax, DWORD PTR _dct_ptr$5[ebp]
	push	eax
	lea	ecx, DWORD PTR _dct_stack$3[ebp]
	call	?push_back@?$vector@PAVDCTClass@@V?$allocator@PAVDCTClass@@@std@@@std@@QAEXABQAVDCTClass@@@Z ; std::vector<DCTClass *,std::allocator<DCTClass *> >::push_back
	mov	cl, BYTE PTR _err_flag$1$[ebp]
$LN2@PlaneOfBlo:

; 176  :       for (int dct_cnt = 0; dct_cnt < nbr_threads && !err_flag; ++dct_cnt)

	mov	eax, DWORD PTR _dct_cnt$1$[ebp]
	inc	eax
	mov	DWORD PTR _dct_cnt$1$[ebp], eax
	cmp	eax, edi
	jl	SHORT $LL4@PlaneOfBlo
$LN385@PlaneOfBlo:
	mov	edi, DWORD PTR _dct_stack$3[ebp+4]
$LN366@PlaneOfBlo:
; File c:\program files (x86)\microsoft visual studio 14.0\vc\include\vector

; 1190 : 		return (this->_Myfirst() == this->_Mylast());

	mov	eax, DWORD PTR _dct_stack$3[ebp]
	cmp	eax, edi
; File c:\github\mvtools\sources\planeofblocks.cpp

; 188  :       while (!dct_stack.empty())

	je	SHORT $LN6@PlaneOfBlo
	npad	9
$LL5@PlaneOfBlo:

; 189  :       {
; 190  :         DCTClass *			dct_ptr = dct_stack.back();
; 191  :         _dct_pool_ptr->return_obj(*dct_ptr);

	push	DWORD PTR [edi-4]
	mov	ecx, DWORD PTR [esi+128]
	call	?return_obj@?$ObjPool@VDCTClass@@@conc@@QAEXAAVDCTClass@@@Z ; conc::ObjPool<DCTClass>::return_obj
; File c:\program files (x86)\microsoft visual studio 14.0\vc\include\vector

; 1190 : 		return (this->_Myfirst() == this->_Mylast());

	mov	eax, DWORD PTR _dct_stack$3[ebp]

; 1315 : 		--this->_Mylast();

	sub	edi, 4
	mov	DWORD PTR _dct_stack$3[ebp+4], edi

; 1190 : 		return (this->_Myfirst() == this->_Mylast());

	cmp	eax, edi
; File c:\github\mvtools\sources\planeofblocks.cpp

; 188  :       while (!dct_stack.empty())

	jne	SHORT $LL5@PlaneOfBlo
$LN6@PlaneOfBlo:

; 192  :         dct_stack.pop_back();
; 193  :       }
; 194  :       if (err_flag)

	cmp	BYTE PTR _err_flag$1$[ebp], 0
	je	SHORT $LN21@PlaneOfBlo
; File c:\program files (x86)\microsoft visual studio 14.0\vc\include\vcruntime_exception.h

; 55   :         __std_exception_copy(&_InitData, &_Data);

	lea	eax, DWORD PTR $T2[ebp+4]
	mov	DWORD PTR $T2[ebp], OFFSET ??_7exception@std@@6B@
	push	eax
	lea	eax, DWORD PTR __InitData$4[ebp]
	mov	DWORD PTR __InitData$4[ebp], OFFSET ??_C@_0EA@OOMJLBPB@MVTools?3?5error?5while?5trying?5to?5a@
	xorps	xmm0, xmm0

; 54   :         __std_exception_data _InitData = { _Message, true };

	mov	BYTE PTR __InitData$4[ebp+4], 1

; 55   :         __std_exception_copy(&_InitData, &_Data);

	push	eax
	movq	QWORD PTR $T2[ebp+4], xmm0
	call	DWORD PTR __imp____std_exception_copy
	add	esp, 8
; File c:\program files (x86)\microsoft visual studio 14.0\vc\include\stdexcept

; 168  : 		{	// construct from message string

	mov	DWORD PTR $T2[ebp], OFFSET ??_7runtime_error@std@@6B@
; File c:\github\mvtools\sources\planeofblocks.cpp

; 196  :         throw std::runtime_error(

	lea	eax, DWORD PTR $T2[ebp]
	push	OFFSET __TI2?AVruntime_error@std@@
	push	eax
	call	__CxxThrowException@8
$LN393@PlaneOfBlo:
$LN21@PlaneOfBlo:
; File c:\program files (x86)\microsoft visual studio 14.0\vc\include\vector

; 1637 : 		if (this->_Myfirst() != pointer())

	test	eax, eax
	je	SHORT $LN268@PlaneOfBlo

; 1641 : 			this->_Getal().deallocate(this->_Myfirst(),

	mov	edx, DWORD PTR _dct_stack$3[ebp+8]
; File c:\program files (x86)\microsoft visual studio 14.0\vc\include\xmemory0

; 720  : 		_Deallocate(_Ptr, _Count, sizeof (_Ty));

	mov	ecx, eax
; File c:\program files (x86)\microsoft visual studio 14.0\vc\include\vector

; 1641 : 			this->_Getal().deallocate(this->_Myfirst(),

	sub	edx, eax
; File c:\program files (x86)\microsoft visual studio 14.0\vc\include\xmemory0

; 720  : 		_Deallocate(_Ptr, _Count, sizeof (_Ty));

	push	4
; File c:\program files (x86)\microsoft visual studio 14.0\vc\include\vector

; 1641 : 			this->_Getal().deallocate(this->_Myfirst(),

	sar	edx, 2
; File c:\program files (x86)\microsoft visual studio 14.0\vc\include\xmemory0

; 720  : 		_Deallocate(_Ptr, _Count, sizeof (_Ty));

	call	?_Deallocate@std@@YAXPAXII@Z		; std::_Deallocate
	add	esp, 4
$LN268@PlaneOfBlo:
; File c:\github\mvtools\sources\planeofblocks.cpp

; 203  : }

	mov	ecx, DWORD PTR __$EHRec$[ebp]
	mov	eax, esi
	pop	edi
	pop	esi
	mov	DWORD PTR fs:0, ecx
	mov	esp, ebp
	pop	ebp
	ret	60					; 0000003cH
$LN387@PlaneOfBlo:
_TEXT	ENDS
;	COMDAT text$x
text$x	SEGMENT
__unwindfunclet$??0PlaneOfBlocks@@QAE@HHHHHHHHHHHHHPAV?$ObjPool@VDCTClass@@@conc@@_N@Z$0:
	mov	ecx, DWORD PTR _this$[ebp]
	add	ecx, 108				; 0000006cH
	jmp	??1?$vector@UVECTOR@@V?$allocator@UVECTOR@@@std@@@std@@QAE@XZ ; std::vector<VECTOR,std::allocator<VECTOR> >::~vector<VECTOR,std::allocator<VECTOR> >
__unwindfunclet$??0PlaneOfBlocks@@QAE@HHHHHHHHHHHHHPAV?$ObjPool@VDCTClass@@@conc@@_N@Z$6:
	call	DWORD PTR __imp____std_terminate
	ret	0
__unwindfunclet$??0PlaneOfBlocks@@QAE@HHHHHHHHHHHHHPAV?$ObjPool@VDCTClass@@@conc@@_N@Z$1:
	mov	ecx, DWORD PTR _this$[ebp]
	add	ecx, 132				; 00000084H
	jmp	??1?$Array@V?$vector@HV?$allocator@H@std@@@std@@$01@conc@@QAE@XZ
__unwindfunclet$??0PlaneOfBlocks@@QAE@HHHHHHHHHHHHHPAV?$ObjPool@VDCTClass@@@conc@@_N@Z$2:
	mov	ecx, DWORD PTR _this$[ebp]
	add	ecx, 332				; 0000014cH
	jmp	??1WorkingAreaFactory@PlaneOfBlocks@@UAE@XZ
__unwindfunclet$??0PlaneOfBlocks@@QAE@HHHHHHHHHHHHHPAV?$ObjPool@VDCTClass@@@conc@@_N@Z$3:
	mov	ecx, DWORD PTR _this$[ebp]
	add	ecx, 376				; 00000178H
	jmp	??1?$ObjPool@VWorkingArea@PlaneOfBlocks@@@conc@@UAE@XZ ; conc::ObjPool<PlaneOfBlocks::WorkingArea>::~ObjPool<PlaneOfBlocks::WorkingArea>
__unwindfunclet$??0PlaneOfBlocks@@QAE@HHHHHHHHHHHHHPAV?$ObjPool@VDCTClass@@@conc@@_N@Z$4:
	lea	ecx, DWORD PTR _dct_stack$3[ebp]
	jmp	??1?$vector@PAVDCTClass@@V?$allocator@PAVDCTClass@@@std@@@std@@QAE@XZ ; std::vector<DCTClass *,std::allocator<DCTClass *> >::~vector<DCTClass *,std::allocator<DCTClass *> >
__ehhandler$??0PlaneOfBlocks@@QAE@HHHHHHHHHHHHHPAV?$ObjPool@VDCTClass@@@conc@@_N@Z:
	mov	eax, OFFSET __ehfuncinfo$??0PlaneOfBlocks@@QAE@HHHHHHHHHHHHHPAV?$ObjPool@VDCTClass@@@conc@@_N@Z
	jmp	___CxxFrameHandler3
text$x	ENDS
??0PlaneOfBlocks@@QAE@HHHHHHHHHHHHHPAV?$ObjPool@VDCTClass@@@conc@@_N@Z ENDP ; PlaneOfBlocks::PlaneOfBlocks
; Function compile flags: /Ogtpy
; File c:\github\mvtools\sources\planeofblocks.cpp
; File c:\github\mvtools\sources\conc\objfactoryinterface.h
; File c:\program files (x86)\microsoft visual studio 14.0\vc\include\vector
; File c:\program files (x86)\microsoft visual studio 14.0\vc\include\xmemory0
; File c:\program files (x86)\microsoft visual studio 14.0\vc\include\vector
; File c:\program files (x86)\microsoft visual studio 14.0\vc\include\xmemory0
; File c:\program files (x86)\microsoft visual studio 14.0\vc\include\vector
; File c:\program files (x86)\microsoft visual studio 14.0\vc\include\xmemory0
; File c:\program files (x86)\microsoft visual studio 14.0\vc\include\vector
; File c:\github\mvtools\sources\planeofblocks.cpp
;	COMDAT ??1PlaneOfBlocks@@QAE@XZ
_TEXT	SEGMENT
__$EHRec$ = -12						; size = 12
??1PlaneOfBlocks@@QAE@XZ PROC				; PlaneOfBlocks::~PlaneOfBlocks, COMDAT
; _this$ = ecx

; 208  : {

	push	ebp
	mov	ebp, esp
	mov	eax, DWORD PTR fs:0
	push	-1
	push	__ehhandler$??1PlaneOfBlocks@@QAE@XZ
	push	eax
	mov	DWORD PTR fs:0, esp
	push	esi
	mov	esi, ecx

; 210  : }

	lea	ecx, DWORD PTR [esi+376]
	call	??1?$ObjPool@VWorkingArea@PlaneOfBlocks@@@conc@@UAE@XZ ; conc::ObjPool<PlaneOfBlocks::WorkingArea>::~ObjPool<PlaneOfBlocks::WorkingArea>
; File c:\github\mvtools\sources\conc\objfactoryinterface.h

; 47   : 	virtual			~ObjFactoryInterface () {}

	mov	DWORD PTR [esi+332], OFFSET ??_7?$ObjFactoryInterface@VWorkingArea@PlaneOfBlocks@@@conc@@6B@
	push	OFFSET ??1?$vector@HV?$allocator@H@std@@@std@@QAE@XZ ; std::vector<int,std::allocator<int> >::~vector<int,std::allocator<int> >
	push	2
	push	12					; 0000000cH
	lea	eax, DWORD PTR [esi+132]
	mov	DWORD PTR __$EHRec$[ebp+8], 0
	push	eax
	call	??_M@YGXPAXIIP6EX0@Z@Z
; File c:\program files (x86)\microsoft visual studio 14.0\vc\include\vector

; 1637 : 		if (this->_Myfirst() != pointer())

	mov	ecx, DWORD PTR [esi+108]
	test	ecx, ecx
	je	SHORT $LN16@PlaneOfBlo

; 1641 : 			this->_Getal().deallocate(this->_Myfirst(),

	mov	edx, DWORD PTR [esi+116]
	mov	eax, 715827883				; 2aaaaaabH
	sub	edx, ecx
	imul	edx
; File c:\program files (x86)\microsoft visual studio 14.0\vc\include\xmemory0

; 720  : 		_Deallocate(_Ptr, _Count, sizeof (_Ty));

	push	12					; 0000000cH
; File c:\program files (x86)\microsoft visual studio 14.0\vc\include\vector

; 1641 : 			this->_Getal().deallocate(this->_Myfirst(),

	mov	eax, edx
	sar	eax, 1
	mov	edx, eax
	shr	edx, 31					; 0000001fH
	add	edx, eax
; File c:\program files (x86)\microsoft visual studio 14.0\vc\include\xmemory0

; 720  : 		_Deallocate(_Ptr, _Count, sizeof (_Ty));

	call	?_Deallocate@std@@YAXPAXII@Z		; std::_Deallocate
; File c:\program files (x86)\microsoft visual studio 14.0\vc\include\vector

; 1643 : 			this->_Myfirst() = pointer();

	mov	DWORD PTR [esi+108], 0
; File c:\program files (x86)\microsoft visual studio 14.0\vc\include\xmemory0

; 720  : 		_Deallocate(_Ptr, _Count, sizeof (_Ty));

	add	esp, 4
; File c:\program files (x86)\microsoft visual studio 14.0\vc\include\vector

; 1644 : 			this->_Mylast() = pointer();

	mov	DWORD PTR [esi+112], 0

; 1645 : 			this->_Myend() = pointer();

	mov	DWORD PTR [esi+116], 0
$LN16@PlaneOfBlo:
; File c:\github\mvtools\sources\planeofblocks.cpp

; 210  : }

	mov	ecx, DWORD PTR __$EHRec$[ebp]
	mov	DWORD PTR fs:0, ecx
	pop	esi
	mov	esp, ebp
	pop	ebp
	ret	0
_TEXT	ENDS
;	COMDAT text$x
text$x	SEGMENT
__unwindfunclet$??1PlaneOfBlocks@@QAE@XZ$2:
	call	DWORD PTR __imp____std_terminate
	ret	0
__ehhandler$??1PlaneOfBlocks@@QAE@XZ:
	mov	eax, OFFSET __ehfuncinfo$??1PlaneOfBlocks@@QAE@XZ
	jmp	___CxxFrameHandler3
text$x	ENDS
??1PlaneOfBlocks@@QAE@XZ ENDP				; PlaneOfBlocks::~PlaneOfBlocks
; Function compile flags: /Ogtpy
; File c:\github\mvtools\sources\planeofblocks.cpp
; File c:\program files (x86)\microsoft visual studio 14.0\vc\include\algorithm
; File c:\github\mvtools\sources\planeofblocks.cpp
; File c:\program files (x86)\microsoft visual studio 14.0\vc\include\algorithm
; File c:\github\mvtools\sources\planeofblocks.cpp
; File c:\github\mvtools\sources\mvframe.h
; File c:\github\mvtools\sources\mvplane.h
; File c:\github\mvtools\sources\planeofblocks.cpp
; File c:\github\mvtools\sources\mvframe.h
; File c:\github\mvtools\sources\mvplane.h
; File c:\github\mvtools\sources\planeofblocks.cpp
; File c:\github\mvtools\sources\mvframe.h
; File c:\github\mvtools\sources\mvplane.h
; File c:\github\mvtools\sources\planeofblocks.cpp
; File c:\github\mvtools\sources\mvframe.h
; File c:\github\mvtools\sources\mvplane.h
; File c:\github\mvtools\sources\planeofblocks.cpp
; File c:\github\mvtools\sources\mvframe.h
; File c:\github\mvtools\sources\mvplane.h
; File c:\github\mvtools\sources\planeofblocks.cpp
; File c:\github\mvtools\sources\mvframe.h
; File c:\github\mvtools\sources\mvplane.h
; File c:\github\mvtools\sources\planeofblocks.cpp
; File c:\github\mvtools\sources\conc\interlocked.hpp
; File c:\github\mvtools\sources\planeofblocks.cpp
; File c:\github\mvtools\sources\mtslicer.hpp
; File c:\github\mvtools\sources\planeofblocks.cpp
; File c:\github\mvtools\sources\mtslicer.hpp
; File c:\github\mvtools\sources\avstpwrapper.cpp
; File c:\github\mvtools\sources\mtslicer.hpp
; File c:\github\mvtools\sources\avstpwrapper.cpp
; File c:\github\mvtools\sources\planeofblocks.cpp
; File c:\github\mvtools\sources\mtslicer.hpp
; File c:\github\mvtools\sources\planeofblocks.cpp
; File c:\github\mvtools\sources\conc\atomicint.hpp
; File c:\github\mvtools\sources\planeofblocks.cpp
; File c:\github\mvtools\sources\mtslicer.hpp
; File c:\github\mvtools\sources\avstpwrapper.cpp
; File c:\github\mvtools\sources\mtslicer.hpp
; File c:\github\mvtools\sources\avstpwrapper.cpp
; File c:\github\mvtools\sources\mtslicer.hpp
; File c:\github\mvtools\sources\planeofblocks.cpp
;	COMDAT ?SearchMVs@PlaneOfBlocks@@QAEXPAVMVFrame@@0W4SearchType@@HHHHHHPAHPBUVECTOR@@PAFH2HHHHH_N25@Z
_TEXT	SEGMENT
_slicer$ = -1060					; size = 1044
$T2 = -16						; size = 4
__$EHRec$ = -12						; size = 12
__pSrcFrame$ = 8					; size = 4
__pRefFrame$ = 12					; size = 4
_st$ = 16						; size = 4
_stp$ = 20						; size = 4
_lambda$ = 24						; size = 4
_lsad$ = 28						; size = 4
_pnew$ = 32						; size = 4
_plevel$ = 36						; size = 4
_flags$ = 40						; size = 4
_out$ = 44						; size = 4
_globalMVec$ = 48					; size = 4
_outfilebuf$ = 52					; size = 4
$T3 = 56						; size = 4
_fieldShift$ = 56					; size = 4
_pmeanLumaChange$ = 60					; size = 4
_divideExtra$dead$ = 64					; size = 4
__pzero$ = 68						; size = 4
__pglobal$ = 72						; size = 4
__badSAD$ = 76						; size = 4
__badrange$ = 80					; size = 4
_meander$ = 84						; size = 1
_vecPrev$ = 88						; size = 4
__tryMany$ = 92						; size = 1
?SearchMVs@PlaneOfBlocks@@QAEXPAVMVFrame@@0W4SearchType@@HHHHHHPAHPBUVECTOR@@PAFH2HHHHH_N25@Z PROC ; PlaneOfBlocks::SearchMVs, COMDAT
; _this$ = ecx

; 221  : {

	push	ebp
	mov	ebp, esp
	push	-1
	push	__ehhandler$?SearchMVs@PlaneOfBlocks@@QAEXPAVMVFrame@@0W4SearchType@@HHHHHHPAHPBUVECTOR@@PAFH2HHHHH_N25@Z
	mov	eax, DWORD PTR fs:0
	push	eax
	mov	DWORD PTR fs:0, esp
	sub	esp, 1048				; 00000418H

; 231  :   dctweight16 = std::min((sad_t)16, (abs(*pmeanLumaChange) >> (bits_per_pixel-8)) / (nBlkSizeX*nBlkSizeY)); //equal dct and spatial weights for meanLumaChange=8 (empirical)

	mov	eax, DWORD PTR _pmeanLumaChange$[ebp]
	push	ebx
	push	esi
	mov	esi, DWORD PTR _fieldShift$[ebp]
	push	edi
	mov	edi, ecx
	mov	DWORD PTR $T2[ebp], 16			; 00000010H

; 529  :   array[0] = nBlkCount * N_PER_BLOCK + 1;

	mov	ebx, DWORD PTR _out$[ebp]

; 231  :   dctweight16 = std::min((sad_t)16, (abs(*pmeanLumaChange) >> (bits_per_pixel-8)) / (nBlkSizeX*nBlkSizeY)); //equal dct and spatial weights for meanLumaChange=8 (empirical)

	mov	ecx, DWORD PTR [edi+72]
	mov	DWORD PTR [edi+204], 0
	sub	ecx, 8
	mov	DWORD PTR [edi+208], esi
	mov	DWORD PTR [edi+212], 0
	mov	eax, DWORD PTR [eax]
	cdq
	xor	eax, edx
	sub	eax, edx
	sar	eax, cl
	mov	ecx, DWORD PTR [edi+12]
	imul	ecx, DWORD PTR [edi+8]
	cdq
	idiv	ecx
; File c:\program files (x86)\microsoft visual studio 14.0\vc\include\algorithm

; 3649 : 	return (_DEBUG_LT(_Right, _Left) ? _Right : _Left);

	lea	edx, DWORD PTR $T2[ebp]
	cmp	eax, 16					; 00000010H
; File c:\github\mvtools\sources\planeofblocks.cpp

; 231  :   dctweight16 = std::min((sad_t)16, (abs(*pmeanLumaChange) >> (bits_per_pixel-8)) / (nBlkSizeX*nBlkSizeY)); //equal dct and spatial weights for meanLumaChange=8 (empirical)

	mov	DWORD PTR $T3[ebp], eax
; File c:\program files (x86)\microsoft visual studio 14.0\vc\include\algorithm

; 3649 : 	return (_DEBUG_LT(_Right, _Left) ? _Right : _Left);

	lea	ecx, DWORD PTR $T3[ebp]
	cmovge	ecx, edx
; File c:\github\mvtools\sources\planeofblocks.cpp

; 236  :   _glob_mv_pred_def.x = globalMVec->x * nPel;	// v1.8.2

	mov	edx, DWORD PTR _globalMVec$[ebp]
	mov	eax, DWORD PTR [ecx]
	mov	DWORD PTR [edi+220], eax
	mov	eax, DWORD PTR __badSAD$[ebp]
	mov	DWORD PTR [edi+248], eax
	mov	eax, DWORD PTR __badrange$[ebp]
	mov	DWORD PTR [edi+252], eax
	mov	eax, DWORD PTR [edx]
	imul	eax, DWORD PTR [edi+20]

; 250  : 
; 251  :   pSrcFrame = _pSrcFrame;

	mov	ecx, DWORD PTR __pSrcFrame$[ebp]
	mov	DWORD PTR [edi+280], eax
	mov	eax, DWORD PTR [edx+4]
	imul	eax, DWORD PTR [edi+20]
	add	eax, esi
	mov	DWORD PTR [edi+284], eax
	mov	eax, DWORD PTR [edx+8]
	mov	DWORD PTR [edi+288], eax

; 529  :   array[0] = nBlkCount * N_PER_BLOCK + 1;

	mov	eax, DWORD PTR [edi+16]
	lea	eax, DWORD PTR [eax+eax*2]
	inc	eax
	mov	DWORD PTR [ebx], eax

; 237  :   _glob_mv_pred_def.y = globalMVec->y * nPel + fieldShift;
; 238  :   _glob_mv_pred_def.sad = globalMVec->sad;
; 239  : 
; 240  :   //	int nOutPitchY = nBlkX * (nBlkSizeX - nOverlapX) + nOverlapX;
; 241  :   //	int nOutPitchUV = (nBlkX * (nBlkSizeX - nOverlapX) + nOverlapX) / 2; // xRatioUV=2
; 242  :   //	char debugbuf[128];
; 243  :   //	wsprintf(debugbuf,"MVCOMP1: nOutPitchUV=%d, nOverlap=%d, nBlkX=%d, nBlkSize=%d",nOutPitchUV, nOverlap, nBlkX, nBlkSize);
; 244  :   //	OutputDebugString(debugbuf);
; 245  : 
; 246  :     // write the plane's header
; 247  :   WriteHeaderToArray(out);
; 248  : 
; 249  :   nFlags |= flags;

	mov	eax, DWORD PTR _flags$[ebp]
	or	DWORD PTR [edi+36], eax

; 252  :   pRefFrame = _pRefFrame;

	mov	eax, DWORD PTR __pRefFrame$[ebp]
	mov	DWORD PTR [edi+160], ecx
	mov	DWORD PTR [edi+164], eax
; File c:\github\mvtools\sources\mvframe.h

; 67   :          return pYPlane;

	mov	eax, DWORD PTR [ecx]
; File c:\github\mvtools\sources\mvplane.h

; 112  :    inline int GetPitch() const { return nPitch; }

	mov	eax, DWORD PTR [eax+12]
; File c:\github\mvtools\sources\planeofblocks.cpp

; 255  :   nSrcPitch_plane[0] = pSrcFrame->GetPlane(YPLANE)->GetPitch();

	mov	DWORD PTR [edi+192], eax

; 256  :   if (chroma)

	cmp	BYTE PTR [edi+122], 0
	je	SHORT $LN2@SearchMVs
; File c:\github\mvtools\sources\mvframe.h

; 70   :          return pUPlane;

	mov	eax, DWORD PTR [ecx+4]
; File c:\github\mvtools\sources\mvplane.h

; 112  :    inline int GetPitch() const { return nPitch; }

	mov	eax, DWORD PTR [eax+12]
; File c:\github\mvtools\sources\planeofblocks.cpp

; 258  :     nSrcPitch_plane[1] = pSrcFrame->GetPlane(UPLANE)->GetPitch();

	mov	DWORD PTR [edi+196], eax
; File c:\github\mvtools\sources\mvframe.h

; 73   :          return pVPlane;

	mov	eax, DWORD PTR [ecx+8]
; File c:\github\mvtools\sources\mvplane.h

; 112  :    inline int GetPitch() const { return nPitch; }

	mov	eax, DWORD PTR [eax+12]
; File c:\github\mvtools\sources\planeofblocks.cpp

; 259  :     nSrcPitch_plane[2] = pSrcFrame->GetPlane(VPLANE)->GetPitch();

	mov	DWORD PTR [edi+200], eax
$LN2@SearchMVs:

; 260  :   }
; 261  :   nSrcPitch[0] = pixelsize * nBlkSizeX;

	mov	eax, DWORD PTR [edi+64]
	imul	eax, DWORD PTR [edi+8]
	mov	DWORD PTR [edi+168], eax

; 262  :   nSrcPitch[1] = pixelsize * nBlkSizeX / xRatioUV; // PF xRatio instead of /2: after 2.7.0.22c;

	mov	eax, DWORD PTR [edi+64]
	imul	eax, DWORD PTR [edi+8]
	cdq
	idiv	DWORD PTR [edi+48]
	mov	DWORD PTR [edi+172], eax

; 263  :   nSrcPitch[2] = pixelsize * nBlkSizeX / xRatioUV;

	mov	eax, DWORD PTR [edi+64]
	imul	eax, DWORD PTR [edi+8]
	cdq
	idiv	DWORD PTR [edi+48]
	mov	DWORD PTR [edi+176], eax

; 272  :   nRefPitch[0] = pRefFrame->GetPlane(YPLANE)->GetPitch();

	mov	eax, DWORD PTR [edi+164]
; File c:\github\mvtools\sources\mvframe.h

; 67   :          return pYPlane;

	mov	eax, DWORD PTR [eax]
; File c:\github\mvtools\sources\mvplane.h

; 112  :    inline int GetPitch() const { return nPitch; }

	mov	eax, DWORD PTR [eax+12]
; File c:\github\mvtools\sources\planeofblocks.cpp

; 272  :   nRefPitch[0] = pRefFrame->GetPlane(YPLANE)->GetPitch();

	mov	DWORD PTR [edi+180], eax

; 273  :   if (chroma)

	cmp	BYTE PTR [edi+122], 0
	je	SHORT $LN3@SearchMVs

; 275  :     nRefPitch[1] = pRefFrame->GetPlane(UPLANE)->GetPitch();

	mov	eax, DWORD PTR [edi+164]
; File c:\github\mvtools\sources\mvframe.h

; 70   :          return pUPlane;

	mov	eax, DWORD PTR [eax+4]
; File c:\github\mvtools\sources\mvplane.h

; 112  :    inline int GetPitch() const { return nPitch; }

	mov	eax, DWORD PTR [eax+12]
; File c:\github\mvtools\sources\planeofblocks.cpp

; 275  :     nRefPitch[1] = pRefFrame->GetPlane(UPLANE)->GetPitch();

	mov	DWORD PTR [edi+184], eax

; 276  :     nRefPitch[2] = pRefFrame->GetPlane(VPLANE)->GetPitch();

	mov	eax, DWORD PTR [edi+164]
; File c:\github\mvtools\sources\mvframe.h

; 73   :          return pVPlane;

	mov	eax, DWORD PTR [eax+8]
; File c:\github\mvtools\sources\mvplane.h

; 112  :    inline int GetPitch() const { return nPitch; }

	mov	eax, DWORD PTR [eax+12]
; File c:\github\mvtools\sources\planeofblocks.cpp

; 276  :     nRefPitch[2] = pRefFrame->GetPlane(VPLANE)->GetPitch();

	mov	DWORD PTR [edi+188], eax
$LN3@SearchMVs:

; 277  :   }
; 278  : 
; 279  :   searchType = st;		// ( nLogScale == 0 ) ? st : EXHAUSTIVE;

	mov	eax, DWORD PTR _st$[ebp]

; 280  :   nSearchParam = stp;	// *nPel;	// v1.8.2 - redesigned in v1.8.5
; 281  : 
; 282  :   _lambda_level = lambda / (nPel * nPel);

	mov	ecx, DWORD PTR [edi+20]
	mov	DWORD PTR [edi+224], eax
	mov	eax, DWORD PTR _stp$[ebp]
	mov	DWORD PTR [edi+228], eax
	mov	eax, DWORD PTR _lambda$[ebp]
	imul	ecx, ecx
	cdq
	idiv	ecx
	mov	edx, eax

; 283  :   if (plevel == 1)

	mov	eax, DWORD PTR _plevel$[ebp]
	mov	DWORD PTR [edi+292], edx
	cmp	eax, 1
	jne	SHORT $LN4@SearchMVs

; 284  :   {
; 285  :     _lambda_level *= nScale;	// scale lambda - Fizick

	mov	ecx, DWORD PTR [edi+28]
	imul	ecx, edx
	mov	DWORD PTR [edi+292], ecx
	jmp	SHORT $LN6@SearchMVs
$LN4@SearchMVs:

; 286  :   }
; 287  :   else if (plevel == 2)

	cmp	eax, 2
	jne	SHORT $LN6@SearchMVs

; 288  :   {
; 289  :     _lambda_level *= nScale*nScale;

	mov	eax, DWORD PTR [edi+28]
	imul	eax, eax
	imul	eax, edx
	mov	DWORD PTR [edi+292], eax
$LN6@SearchMVs:

; 290  :   }
; 291  : 
; 292  :   temporal = (vecPrev != 0);

	mov	esi, DWORD PTR _vecPrev$[ebp]

; 293  :   if (vecPrev)
; 294  :   {
; 295  :     vecPrev += 1; // Just skips the header
; 296  :   }
; 297  : 
; 298  :   penaltyZero = _pzero;
; 299  :   pglobal = _pglobal;
; 300  :   badcount = 0;

	lea	ecx, DWORD PTR [edi+256]
	test	esi, esi
	setne	al
	mov	BYTE PTR [edi+260], al
	mov	eax, DWORD PTR __pzero$[ebp]
	mov	DWORD PTR [edi+240], eax
	mov	eax, DWORD PTR __pglobal$[ebp]
	mov	DWORD PTR [edi+244], eax
; File c:\github\mvtools\sources\conc\interlocked.hpp

; 49   : 	return (

	xor	eax, eax
	xchg	DWORD PTR [ecx], eax
; File c:\github\mvtools\sources\planeofblocks.cpp

; 301  :   tryMany = _tryMany;

	mov	al, BYTE PTR __tryMany$[ebp]

; 302  :   planeSAD = 0;

	lea	ecx, DWORD PTR [edi+264]
	sub	esp, 8
	mov	BYTE PTR [edi+261], al
	call	??4?$AtomicInt@_J@conc@@QAEAAV01@_J@Z	; conc::AtomicInt<__int64>::operator=

; 303  :   sumLumaChange = 0;

	sub	esp, 8
	lea	ecx, DWORD PTR [edi+272]
	call	??4?$AtomicInt@_J@conc@@QAEAAV01@_J@Z	; conc::AtomicInt<__int64>::operator=

; 304  : 
; 305  :   _out = out;
; 306  :   _outfilebuf = outfilebuf;

	mov	eax, DWORD PTR _outfilebuf$[ebp]
	test	esi, esi
	mov	DWORD PTR [edi+300], eax
	lea	eax, DWORD PTR [esi+4]
	cmove	eax, esi
	mov	DWORD PTR [edi+296], ebx

; 307  :   _vecPrev = vecPrev;
; 308  :   _meander_flag = meander;
; 309  :   _pnew = pnew;
; 310  :   _lsad = lsad;
; 311  : 
; 312  :   // -  -  -  -  -  -  -  -  -  -  -  -  -  -  -  -  -  -  -  -  -  -  -  -  -
; 313  : 
; 314  :   Slicer			slicer(_mt_flag);

	mov	bl, BYTE PTR [edi+76]
	mov	DWORD PTR [edi+304], eax
	mov	al, BYTE PTR _meander$[ebp]
	mov	BYTE PTR [edi+308], al
	mov	eax, DWORD PTR _pnew$[ebp]
	mov	DWORD PTR [edi+312], eax
	mov	eax, DWORD PTR _lsad$[ebp]
	mov	DWORD PTR [edi+316], eax
; File c:\github\mvtools\sources\mtslicer.hpp

; 70   : {

	mov	DWORD PTR _slicer$[ebp], OFFSET ??_7?$MTSlicer@VPlaneOfBlocks@@V1@$0EA@@@6B@

; 65   : :	_avstp (AvstpWrapper::use_instance ())

	call	?use_instance@AvstpWrapper@@SAAAV1@XZ	; AvstpWrapper::use_instance
	mov	DWORD PTR _slicer$[ebp+4], eax

; 66   : ,	_proc_ptr (0)
; 67   : ,	_dispatcher_ptr (0)
; 68   : ,	_task_data_arr ()

	lea	eax, DWORD PTR _slicer$[ebp+16]
	push	1024					; 00000400H
	push	0
	mov	DWORD PTR _slicer$[ebp+8], 0
	push	eax
	mov	DWORD PTR _slicer$[ebp+12], 0
	call	_memset
	add	esp, 12					; 0000000cH

; 69   : ,	_mt_flag (mt_flag)

	mov	BYTE PTR _slicer$[ebp+1040], bl
; File c:\github\mvtools\sources\planeofblocks.cpp

; 315  :   slicer.start(nBlkY, *this, &PlaneOfBlocks::search_mv_slice, 4);

	push	4
	push	OFFSET ?search_mv_slice@PlaneOfBlocks@@AAEXAAVTaskData@?$MTSlicer@VPlaneOfBlocks@@V1@$0EA@@@@Z ; PlaneOfBlocks::search_mv_slice
	push	edi
	mov	DWORD PTR __$EHRec$[ebp+8], 0
	lea	ecx, DWORD PTR _slicer$[ebp]
	push	DWORD PTR [edi+4]
	call	?start@?$MTSlicer@VPlaneOfBlocks@@V1@$0EA@@@QAEXHAAVPlaneOfBlocks@@P82@AEXAAVTaskData@1@@ZH@Z ; MTSlicer<PlaneOfBlocks,PlaneOfBlocks,64>::start
; File c:\github\mvtools\sources\mtslicer.hpp

; 217  : 	if (_mt_flag)

	cmp	BYTE PTR _slicer$[ebp+1040], 0
	je	SHORT $LN79@SearchMVs

; 218  : 	{
; 219  : 		assert (_dispatcher_ptr != 0);
; 220  : 
; 221  : 		_avstp.wait_completion (_dispatcher_ptr);

	mov	eax, DWORD PTR _slicer$[ebp+12]
; File c:\github\mvtools\sources\avstpwrapper.cpp

; 146  : 	return (_avstp_wait_completion_ptr (td_ptr));

	push	eax
	mov	eax, DWORD PTR _slicer$[ebp+4]
	mov	eax, DWORD PTR [eax+24]
	call	eax
; File c:\github\mvtools\sources\mtslicer.hpp

; 222  : 		_avstp.destroy_dispatcher (_dispatcher_ptr);

	mov	eax, DWORD PTR _slicer$[ebp+12]
; File c:\github\mvtools\sources\avstpwrapper.cpp

; 125  : 	_avstp_destroy_dispatcher_ptr (td_ptr);

	push	eax
	mov	eax, DWORD PTR _slicer$[ebp+4]
	mov	eax, DWORD PTR [eax+12]
	call	eax
	add	esp, 8
$LN79@SearchMVs:
; File c:\github\mvtools\sources\planeofblocks.cpp

; 320  :   if (smallestPlane)

	cmp	BYTE PTR [edi+120], 0
; File c:\github\mvtools\sources\mtslicer.hpp

; 225  : 	_proc_ptr = 0;

	mov	DWORD PTR _slicer$[ebp+8], 0

; 226  : 	_dispatcher_ptr = 0;

	mov	DWORD PTR _slicer$[ebp+12], 0
; File c:\github\mvtools\sources\planeofblocks.cpp

; 320  :   if (smallestPlane)

	je	SHORT $LN8@SearchMVs

; 322  :     *pmeanLumaChange = (sad_t)(sumLumaChange / nBlkCount); // for all finer planes

	mov	eax, DWORD PTR [edi+16]
; File c:\github\mvtools\sources\conc\atomicint.hpp

; 93   : 	return (T (_val));

	mov	esi, DWORD PTR [edi+272]
	mov	ecx, DWORD PTR [edi+276]
; File c:\github\mvtools\sources\planeofblocks.cpp

; 322  :     *pmeanLumaChange = (sad_t)(sumLumaChange / nBlkCount); // for all finer planes

	cdq
	push	edx
	push	eax
	push	ecx
	push	esi
	call	__alldiv
	mov	ecx, DWORD PTR _pmeanLumaChange$[ebp]
	mov	DWORD PTR [ecx], eax
$LN8@SearchMVs:
	pop	edi
; File c:\github\mvtools\sources\mtslicer.hpp

; 86   : {

	mov	DWORD PTR __$EHRec$[ebp+8], 1

; 87   : 	if (_dispatcher_ptr != 0)

	cmp	DWORD PTR _slicer$[ebp+12], 0
	pop	esi

; 86   : {

	mov	DWORD PTR _slicer$[ebp], OFFSET ??_7?$MTSlicer@VPlaneOfBlocks@@V1@$0EA@@@6B@
	pop	ebx

; 87   : 	if (_dispatcher_ptr != 0)

	je	SHORT $LN88@SearchMVs

; 217  : 	if (_mt_flag)

	cmp	BYTE PTR _slicer$[ebp+1040], 0
	je	SHORT $LN92@SearchMVs

; 218  : 	{
; 219  : 		assert (_dispatcher_ptr != 0);
; 220  : 
; 221  : 		_avstp.wait_completion (_dispatcher_ptr);

	mov	eax, DWORD PTR _slicer$[ebp+12]
; File c:\github\mvtools\sources\avstpwrapper.cpp

; 146  : 	return (_avstp_wait_completion_ptr (td_ptr));

	push	eax
	mov	eax, DWORD PTR _slicer$[ebp+4]
	mov	eax, DWORD PTR [eax+24]
	call	eax
; File c:\github\mvtools\sources\mtslicer.hpp

; 222  : 		_avstp.destroy_dispatcher (_dispatcher_ptr);

	mov	eax, DWORD PTR _slicer$[ebp+12]
; File c:\github\mvtools\sources\avstpwrapper.cpp

; 125  : 	_avstp_destroy_dispatcher_ptr (td_ptr);

	push	eax
	mov	eax, DWORD PTR _slicer$[ebp+4]
	mov	eax, DWORD PTR [eax+12]
	call	eax
	add	esp, 8
$LN92@SearchMVs:
; File c:\github\mvtools\sources\mtslicer.hpp

; 225  : 	_proc_ptr = 0;

	mov	DWORD PTR _slicer$[ebp+8], 0

; 226  : 	_dispatcher_ptr = 0;

	mov	DWORD PTR _slicer$[ebp+12], 0
$LN88@SearchMVs:
; File c:\github\mvtools\sources\planeofblocks.cpp

; 325  : }

	mov	ecx, DWORD PTR __$EHRec$[ebp]
	mov	DWORD PTR fs:0, ecx
	mov	esp, ebp
	pop	ebp
	ret	88					; 00000058H
_TEXT	ENDS
;	COMDAT text$x
text$x	SEGMENT
__unwindfunclet$?SearchMVs@PlaneOfBlocks@@QAEXPAVMVFrame@@0W4SearchType@@HHHHHHPAHPBUVECTOR@@PAFH2HHHHH_N25@Z$0:
	lea	ecx, DWORD PTR _slicer$[ebp]
	jmp	??1?$MTSlicer@VPlaneOfBlocks@@V1@$0EA@@@UAE@XZ ; MTSlicer<PlaneOfBlocks,PlaneOfBlocks,64>::~MTSlicer<PlaneOfBlocks,PlaneOfBlocks,64>
__unwindfunclet$?SearchMVs@PlaneOfBlocks@@QAEXPAVMVFrame@@0W4SearchType@@HHHHHHPAHPBUVECTOR@@PAFH2HHHHH_N25@Z$2:
	call	DWORD PTR __imp____std_terminate
	ret	0
__ehhandler$?SearchMVs@PlaneOfBlocks@@QAEXPAVMVFrame@@0W4SearchType@@HHHHHHPAHPBUVECTOR@@PAFH2HHHHH_N25@Z:
	mov	eax, OFFSET __ehfuncinfo$?SearchMVs@PlaneOfBlocks@@QAEXPAVMVFrame@@0W4SearchType@@HHHHHHPAHPBUVECTOR@@PAFH2HHHHH_N25@Z
	jmp	___CxxFrameHandler3
text$x	ENDS
?SearchMVs@PlaneOfBlocks@@QAEXPAVMVFrame@@0W4SearchType@@HHHHHHPAHPBUVECTOR@@PAFH2HHHHH_N25@Z ENDP ; PlaneOfBlocks::SearchMVs
; Function compile flags: /Ogtpy
; File c:\github\mvtools\sources\planeofblocks.cpp
; File c:\program files (x86)\microsoft visual studio 14.0\vc\include\vector
; File c:\github\mvtools\sources\planeofblocks.cpp
; File c:\program files (x86)\microsoft visual studio 14.0\vc\include\vector
; File c:\github\mvtools\sources\planeofblocks.cpp
; File c:\program files (x86)\microsoft visual studio 14.0\vc\include\vector
; File c:\github\mvtools\sources\planeofblocks.cpp
; File c:\program files (x86)\microsoft visual studio 14.0\vc\include\vector
; File c:\github\mvtools\sources\planeofblocks.cpp
; File c:\program files (x86)\microsoft visual studio 14.0\vc\include\vector
; File c:\github\mvtools\sources\planeofblocks.cpp
; File c:\program files (x86)\microsoft visual studio 14.0\vc\include\vector
; File c:\github\mvtools\sources\planeofblocks.cpp
; File c:\program files (x86)\microsoft visual studio 14.0\vc\include\vector
; File c:\github\mvtools\sources\planeofblocks.cpp
; File c:\program files (x86)\microsoft visual studio 14.0\vc\include\vector
; File c:\github\mvtools\sources\planeofblocks.cpp
; File c:\program files (x86)\microsoft visual studio 14.0\vc\include\vector
; File c:\github\mvtools\sources\planeofblocks.cpp
; File c:\program files (x86)\microsoft visual studio 14.0\vc\include\vector
; File c:\github\mvtools\sources\planeofblocks.cpp
; File c:\program files (x86)\microsoft visual studio 14.0\vc\include\vector
; File c:\github\mvtools\sources\planeofblocks.cpp
; File c:\program files (x86)\microsoft visual studio 14.0\vc\include\vector
; File c:\github\mvtools\sources\planeofblocks.cpp
; File c:\program files (x86)\microsoft visual studio 14.0\vc\include\vector
; File c:\github\mvtools\sources\planeofblocks.cpp
; File c:\program files (x86)\microsoft visual studio 14.0\vc\include\vector
; File c:\github\mvtools\sources\planeofblocks.cpp
; File c:\program files (x86)\microsoft visual studio 14.0\vc\include\vector
; File c:\github\mvtools\sources\planeofblocks.cpp
;	COMDAT ??$InterpolatePrediction@E@PlaneOfBlocks@@QAEXABV0@@Z
_TEXT	SEGMENT
_v2$1$ = -124						; size = 4
_v1$1$ = -120						; size = 4
_v3$1$ = -116						; size = 4
tv699 = -116						; size = 4
_v4$1$ = -112						; size = 4
_iper2$1$ = -112					; size = 4
tv647 = -108						; size = 4
_normov$1$ = -104					; size = 4
_offx$1$ = -100						; size = 4
_l$1$ = -96						; size = 4
_a21$1$ = -92						; size = 4
_offy$1$ = -92						; size = 4
_a22$1$ = -88						; size = 4
_ax2$1$ = -88						; size = 4
_i$1$ = -88						; size = 4
_normFactor$2$ = -84					; size = 4
tv717 = -80						; size = 4
_k$1$ = -76						; size = 4
_index$1$ = -72						; size = 4
_jper2$1$ = -68						; size = 4
_aevenx$1$ = -64					; size = 4
_aoddx$1$ = -60						; size = 4
_aeveny$1$ = -56					; size = 4
_aoddy$1$ = -52						; size = 4
_v3$1 = -48						; size = 12
_v4$2 = -36						; size = 12
_v2$3 = -24						; size = 12
_v1$4 = -12						; size = 12
_pob$ = 8						; size = 4
??$InterpolatePrediction@E@PlaneOfBlocks@@QAEXABV0@@Z PROC ; PlaneOfBlocks::InterpolatePrediction<unsigned char>, COMDAT
; _this$ = ecx

; 432  : {

	push	ebp
	mov	ebp, esp
	and	esp, -8					; fffffff8H
	sub	esp, 124				; 0000007cH

; 433  :   int normFactor = 3 - nLogPel + pob.nLogPel;

	mov	eax, DWORD PTR _pob$[ebp]
	xor	edx, edx
	push	ebx
	push	esi
	mov	esi, ecx
	mov	eax, DWORD PTR [eax+24]
	push	edi
	sub	eax, DWORD PTR [esi+24]
	add	eax, 3

; 434  :   int mulFactor = (normFactor < 0) ? -normFactor : 0;
; 435  :   normFactor = (normFactor < 0) ? 0 : normFactor;
; 436  :   int normov = (nBlkSizeX - nOverlapX)*(nBlkSizeY - nOverlapY);

	mov	edi, DWORD PTR [esi+12]
	mov	ecx, eax
	neg	ecx
	test	eax, eax
	cmovns	ecx, edx
	mov	edx, DWORD PTR [esi+40]
	mov	DWORD PTR tv717[esp+136], ecx
	xor	ecx, ecx
	test	eax, eax
	cmovs	eax, ecx
	mov	ecx, DWORD PTR [esi+8]
	mov	DWORD PTR _normFactor$2$[esp+136], eax
	mov	eax, ecx
	sub	eax, edx
	mov	DWORD PTR _normov$1$[esp+136], eax
	mov	eax, edi
	sub	eax, DWORD PTR [esi+44]

; 437  :   int aoddx = (nBlkSizeX * 3 - nOverlapX * 2);

	lea	ecx, DWORD PTR [ecx+ecx*2]
	mov	ebx, DWORD PTR _normov$1$[esp+136]
	imul	ebx, eax
	lea	eax, DWORD PTR [edx+edx]
	mov	DWORD PTR _normov$1$[esp+136], ebx
	mov	ebx, ecx
	sub	ebx, eax

; 438  :   int aevenx = (nBlkSizeX * 3 - nOverlapX * 4);

	lea	eax, DWORD PTR [edx*4]
	sub	ecx, eax
	mov	DWORD PTR _aoddx$1$[esp+136], ebx

; 439  :   int aoddy = (nBlkSizeY * 3 - nOverlapY * 2);

	mov	ebx, DWORD PTR [esi+44]
	mov	DWORD PTR _aevenx$1$[esp+136], ecx
	lea	ecx, DWORD PTR [edi+edi*2]
	mov	edx, ecx
	lea	eax, DWORD PTR [ebx+ebx]
	sub	edx, eax

; 440  :   int aeveny = (nBlkSizeY * 3 - nOverlapY * 4);

	lea	eax, DWORD PTR [ebx*4]
	sub	ecx, eax
	mov	DWORD PTR _aoddy$1$[esp+136], edx

; 441  :   // note: overlapping is still (v2.5.7) not processed properly
; 442  :   // PF todo make faster
; 443  :   for (int l = 0, index = 0; l < nBlkY; l++)

	xor	eax, eax
	mov	DWORD PTR _aeveny$1$[esp+136], ecx
	xor	ebx, ebx
	mov	DWORD PTR _index$1$[esp+136], eax
	mov	DWORD PTR _l$1$[esp+136], ebx
	cmp	DWORD PTR [esi+4], eax
	jle	$LN3@Interpolat
$LL4@Interpolat:

; 444  :   {
; 445  :     for (int k = 0; k < nBlkX; k++, index++)

	xor	ecx, ecx
	mov	DWORD PTR _k$1$[esp+136], ecx
	cmp	DWORD PTR [esi], ecx
	jle	$LN2@Interpolat
	lea	eax, DWORD PTR [eax+eax*2]
	shl	eax, 2
	mov	DWORD PTR tv647[esp+136], eax
	npad	5
$LL7@Interpolat:

; 446  :     {
; 447  :       VECTOR v1, v2, v3, v4;
; 448  :       int i = k;
; 449  :       int j = l;
; 450  :       if (i >= 2 * pob.nBlkX)

	mov	eax, DWORD PTR _pob$[ebp]
	mov	edx, ecx
	mov	DWORD PTR _i$1$[esp+136], ecx
	mov	edi, DWORD PTR [eax]
	lea	eax, DWORD PTR [edi+edi]
	cmp	ecx, eax
	jl	SHORT $LN8@Interpolat

; 451  :       {
; 452  :         i = 2 * pob.nBlkX - 1;

	lea	edx, DWORD PTR [eax-1]
	mov	DWORD PTR _i$1$[esp+136], edx
$LN8@Interpolat:

; 453  :       }
; 454  :       if (j >= 2 * pob.nBlkY)

	mov	eax, DWORD PTR _pob$[ebp]
	mov	ecx, DWORD PTR [eax+4]
	add	ecx, ecx
	mov	DWORD PTR tv699[esp+136], ecx
	cmp	DWORD PTR _l$1$[esp+136], ecx
	jl	SHORT $LN9@Interpolat

; 455  :       {
; 456  :         j = 2 * pob.nBlkY - 1;

	lea	ebx, DWORD PTR [ecx-1]
$LN9@Interpolat:

; 457  :       }
; 458  :       int offy = -1 + 2 * (j % 2);

	mov	eax, ebx
	and	eax, -2147483647			; 80000001H
	jns	SHORT $LN255@Interpolat
	dec	eax
	or	eax, -2					; fffffffeH
	inc	eax
$LN255@Interpolat:
	lea	eax, DWORD PTR [eax*2-1]
	mov	DWORD PTR _offy$1$[esp+136], eax

; 459  :       int offx = -1 + 2 * (i % 2);

	mov	eax, edx
	and	eax, -2147483647			; 80000001H
	jns	SHORT $LN256@Interpolat
	dec	eax
	or	eax, -2					; fffffffeH
	inc	eax
$LN256@Interpolat:
	lea	eax, DWORD PTR [eax*2-1]
	mov	DWORD PTR _offx$1$[esp+136], eax

; 460  :       int iper2 = i / 2;

	mov	eax, edx
	cdq
	sub	eax, edx
	sar	eax, 1
	mov	DWORD PTR _iper2$1$[esp+136], eax

; 461  :       int jper2 = j / 2;

	mov	eax, ebx
	cdq
	sub	eax, edx
	mov	edx, eax

; 462  : 
; 463  :       if ((i == 0) || (i >= 2 * pob.nBlkX - 1))

	mov	eax, DWORD PTR _i$1$[esp+136]
	sar	edx, 1
	mov	DWORD PTR _jper2$1$[esp+136], edx
	test	eax, eax
	je	$LN12@Interpolat
	lea	ecx, DWORD PTR [edi*2-1]
	cmp	eax, ecx
	jge	$LN254@Interpolat

; 473  :         }
; 474  :       }
; 475  :       else if ((j == 0) || (j >= 2 * pob.nBlkY - 1))

	test	ebx, ebx
	je	$LN18@Interpolat
	mov	eax, DWORD PTR tv699[esp+136]
	dec	eax
	cmp	ebx, eax
	jge	$LN18@Interpolat
; File c:\program files (x86)\microsoft visual studio 14.0\vc\include\vector

; 1226 : 		return (*(this->_Myfirst() + _Pos));

	mov	eax, DWORD PTR _pob$[ebp]
; File c:\github\mvtools\sources\planeofblocks.cpp

; 482  :         v1 = pob.vectors[iper2 + (jper2) * pob.nBlkX];

	mov	ecx, edi
	imul	ecx, edx
; File c:\program files (x86)\microsoft visual studio 14.0\vc\include\vector

; 1226 : 		return (*(this->_Myfirst() + _Pos));

	mov	edx, DWORD PTR [eax+108]
; File c:\github\mvtools\sources\planeofblocks.cpp

; 482  :         v1 = pob.vectors[iper2 + (jper2) * pob.nBlkX];

	add	ecx, DWORD PTR _iper2$1$[esp+136]
; File c:\program files (x86)\microsoft visual studio 14.0\vc\include\vector

; 1226 : 		return (*(this->_Myfirst() + _Pos));

	lea	eax, DWORD PTR [ecx+ecx*2]
; File c:\github\mvtools\sources\planeofblocks.cpp

; 482  :         v1 = pob.vectors[iper2 + (jper2) * pob.nBlkX];

	movq	xmm0, QWORD PTR [edx+eax*4]
	mov	eax, DWORD PTR [edx+eax*4+8]
	mov	DWORD PTR _v1$1$[esp+136], eax

; 483  :         v2 = pob.vectors[iper2 + offx + (jper2) * pob.nBlkX];

	mov	eax, DWORD PTR _offx$1$[esp+136]
	add	eax, ecx
	movq	QWORD PTR _v1$4[esp+136], xmm0

; 484  :         v3 = pob.vectors[iper2 + (jper2 + offy) * pob.nBlkX];

	mov	ecx, DWORD PTR _offy$1$[esp+136]
	add	ecx, DWORD PTR _jper2$1$[esp+136]
	imul	ecx, edi

; 485  :         v4 = pob.vectors[iper2 + offx + (jper2 + offy) * pob.nBlkX];

	mov	edi, DWORD PTR _v1$1$[esp+136]
; File c:\program files (x86)\microsoft visual studio 14.0\vc\include\vector

; 1226 : 		return (*(this->_Myfirst() + _Pos));

	lea	eax, DWORD PTR [eax+eax*2]
; File c:\github\mvtools\sources\planeofblocks.cpp

; 483  :         v2 = pob.vectors[iper2 + offx + (jper2) * pob.nBlkX];

	movq	xmm0, QWORD PTR [edx+eax*4]
	mov	eax, DWORD PTR [edx+eax*4+8]
	mov	DWORD PTR _v2$1$[esp+136], eax

; 484  :         v3 = pob.vectors[iper2 + (jper2 + offy) * pob.nBlkX];

	add	ecx, DWORD PTR _iper2$1$[esp+136]
	movq	QWORD PTR _v2$3[esp+136], xmm0
; File c:\program files (x86)\microsoft visual studio 14.0\vc\include\vector

; 1226 : 		return (*(this->_Myfirst() + _Pos));

	lea	eax, DWORD PTR [ecx+ecx*2]
; File c:\github\mvtools\sources\planeofblocks.cpp

; 484  :         v3 = pob.vectors[iper2 + (jper2 + offy) * pob.nBlkX];

	movq	xmm0, QWORD PTR [edx+eax*4]
	mov	ebx, DWORD PTR [edx+eax*4+8]

; 485  :         v4 = pob.vectors[iper2 + offx + (jper2 + offy) * pob.nBlkX];

	mov	eax, DWORD PTR _offx$1$[esp+136]
	add	eax, ecx
	movq	QWORD PTR _v3$1[esp+136], xmm0
	mov	DWORD PTR _v3$1$[esp+136], ebx
; File c:\program files (x86)\microsoft visual studio 14.0\vc\include\vector

; 1226 : 		return (*(this->_Myfirst() + _Pos));

	lea	eax, DWORD PTR [eax+eax*2]
; File c:\github\mvtools\sources\planeofblocks.cpp

; 485  :         v4 = pob.vectors[iper2 + offx + (jper2 + offy) * pob.nBlkX];

	movq	xmm0, QWORD PTR [edx+eax*4]
	mov	ecx, DWORD PTR [edx+eax*4+8]
	mov	edx, DWORD PTR _v2$1$[esp+136]
	movq	QWORD PTR _v4$2[esp+136], xmm0
	mov	DWORD PTR _v4$1$[esp+136], ecx
	jmp	$LN14@Interpolat
$LN18@Interpolat:
; File c:\program files (x86)\microsoft visual studio 14.0\vc\include\vector

; 1226 : 		return (*(this->_Myfirst() + _Pos));

	mov	eax, DWORD PTR _pob$[ebp]
; File c:\github\mvtools\sources\planeofblocks.cpp

; 477  :         v1 = v2 = pob.vectors[iper2 + (jper2) * pob.nBlkX];

	mov	ecx, DWORD PTR _iper2$1$[esp+136]
	imul	edi, edx
; File c:\program files (x86)\microsoft visual studio 14.0\vc\include\vector

; 1226 : 		return (*(this->_Myfirst() + _Pos));

	mov	edx, DWORD PTR [eax+108]
; File c:\github\mvtools\sources\planeofblocks.cpp

; 477  :         v1 = v2 = pob.vectors[iper2 + (jper2) * pob.nBlkX];

	add	ecx, edi
; File c:\program files (x86)\microsoft visual studio 14.0\vc\include\vector

; 1226 : 		return (*(this->_Myfirst() + _Pos));

	lea	eax, DWORD PTR [ecx+ecx*2]
; File c:\github\mvtools\sources\planeofblocks.cpp

; 477  :         v1 = v2 = pob.vectors[iper2 + (jper2) * pob.nBlkX];

	mov	ebx, DWORD PTR [edx+eax*4+8]
	mov	edi, ebx
	movq	xmm0, QWORD PTR [edx+eax*4]
; File c:\program files (x86)\microsoft visual studio 14.0\vc\include\vector

; 1226 : 		return (*(this->_Myfirst() + _Pos));

	mov	eax, DWORD PTR _offx$1$[esp+136]
	add	eax, ecx
; File c:\github\mvtools\sources\planeofblocks.cpp

; 477  :         v1 = v2 = pob.vectors[iper2 + (jper2) * pob.nBlkX];

	movq	QWORD PTR _v2$3[esp+136], xmm0
	movq	xmm0, xmm0
	mov	DWORD PTR _v2$1$[esp+136], ebx
	movq	QWORD PTR _v1$4[esp+136], xmm0
; File c:\program files (x86)\microsoft visual studio 14.0\vc\include\vector

; 1226 : 		return (*(this->_Myfirst() + _Pos));

	lea	eax, DWORD PTR [eax+eax*2]
; File c:\github\mvtools\sources\planeofblocks.cpp

; 478  :         v3 = v4 = pob.vectors[iper2 + offx + (jper2) * pob.nBlkX];

	movq	xmm0, QWORD PTR [edx+eax*4]
	mov	ecx, DWORD PTR [edx+eax*4+8]
	mov	ebx, ecx
	movq	QWORD PTR _v4$2[esp+136], xmm0

; 479  :       }
; 480  :       else

	mov	edx, edi
	movq	xmm0, xmm0
	mov	DWORD PTR _v4$1$[esp+136], ecx
	movq	QWORD PTR _v3$1[esp+136], xmm0
	mov	DWORD PTR _v3$1$[esp+136], ebx
	jmp	$LN257@Interpolat
$LN254@Interpolat:
	mov	ecx, DWORD PTR tv699[esp+136]
$LN12@Interpolat:

; 464  :       {
; 465  :         if ((j == 0) || (j >= 2 * pob.nBlkY - 1))

	test	ebx, ebx
	je	SHORT $LN15@Interpolat
	lea	eax, DWORD PTR [ecx-1]
	cmp	ebx, eax
	jge	SHORT $LN15@Interpolat
; File c:\program files (x86)\microsoft visual studio 14.0\vc\include\vector

; 1226 : 		return (*(this->_Myfirst() + _Pos));

	mov	eax, DWORD PTR _pob$[ebp]
	mov	ecx, DWORD PTR [eax+108]
	mov	eax, edi
	imul	eax, edx
	add	eax, DWORD PTR _iper2$1$[esp+136]
	lea	eax, DWORD PTR [eax+eax*2]
; File c:\github\mvtools\sources\planeofblocks.cpp

; 471  :           v1 = v2 = pob.vectors[iper2 + (jper2) * pob.nBlkX];

	movq	xmm0, QWORD PTR [ecx+eax*4]
	mov	ebx, DWORD PTR [ecx+eax*4+8]
	mov	eax, ebx
	mov	DWORD PTR _v1$1$[esp+136], eax

; 472  :           v3 = v4 = pob.vectors[iper2 + (jper2 + offy) * pob.nBlkX];

	mov	eax, DWORD PTR _offy$1$[esp+136]
	add	eax, edx
	movq	QWORD PTR _v2$3[esp+136], xmm0
; File c:\program files (x86)\microsoft visual studio 14.0\vc\include\vector

; 1226 : 		return (*(this->_Myfirst() + _Pos));

	imul	eax, edi
; File c:\github\mvtools\sources\planeofblocks.cpp

; 471  :           v1 = v2 = pob.vectors[iper2 + (jper2) * pob.nBlkX];

	movq	xmm0, xmm0

; 472  :           v3 = v4 = pob.vectors[iper2 + (jper2 + offy) * pob.nBlkX];

	mov	edi, DWORD PTR _v1$1$[esp+136]
	movq	QWORD PTR _v1$4[esp+136], xmm0
	mov	DWORD PTR _v2$1$[esp+136], ebx
; File c:\program files (x86)\microsoft visual studio 14.0\vc\include\vector

; 1226 : 		return (*(this->_Myfirst() + _Pos));

	add	eax, DWORD PTR _iper2$1$[esp+136]
	lea	eax, DWORD PTR [eax+eax*2]
; File c:\github\mvtools\sources\planeofblocks.cpp

; 472  :           v3 = v4 = pob.vectors[iper2 + (jper2 + offy) * pob.nBlkX];

	movq	xmm0, QWORD PTR [ecx+eax*4]
	mov	edx, DWORD PTR [ecx+eax*4+8]
	mov	ebx, edx
	movq	QWORD PTR _v4$2[esp+136], xmm0
	movq	xmm0, xmm0
	mov	DWORD PTR _v4$1$[esp+136], edx
	mov	edx, DWORD PTR _v2$1$[esp+136]
	movq	QWORD PTR _v3$1[esp+136], xmm0
	mov	DWORD PTR _v3$1$[esp+136], ebx
	jmp	SHORT $LN14@Interpolat
$LN15@Interpolat:
; File c:\program files (x86)\microsoft visual studio 14.0\vc\include\vector

; 1226 : 		return (*(this->_Myfirst() + _Pos));

	mov	eax, DWORD PTR _pob$[ebp]
	imul	edi, edx
	mov	eax, DWORD PTR [eax+108]
	add	edi, DWORD PTR _iper2$1$[esp+136]
	lea	ecx, DWORD PTR [edi+edi*2]
; File c:\github\mvtools\sources\planeofblocks.cpp

; 467  :           v1 = v2 = v3 = v4 = pob.vectors[iper2 + (jper2) * pob.nBlkX];

	movq	xmm0, QWORD PTR [eax+ecx*4]
	mov	edx, DWORD PTR [eax+ecx*4+8]
	mov	edi, edx
	movq	QWORD PTR _v4$2[esp+136], xmm0
	movq	xmm0, xmm0
	movq	QWORD PTR _v3$1[esp+136], xmm0
	movq	xmm0, QWORD PTR [eax+ecx*4]
	movq	QWORD PTR _v2$3[esp+136], xmm0
	movq	xmm0, xmm0
	mov	DWORD PTR _v4$1$[esp+136], edx
	mov	DWORD PTR _v3$1$[esp+136], edx
	mov	DWORD PTR _v2$1$[esp+136], edx
	movq	QWORD PTR _v1$4[esp+136], xmm0
$LN257@Interpolat:
	mov	DWORD PTR _v1$1$[esp+136], edi
$LN14@Interpolat:

; 486  :       }
; 487  :       typedef typename std::conditional < sizeof(pixel_t) == 1, sad_t, bigsad_t >::type cumulated_sad_t;
; 488  :       cumulated_sad_t tmp_sad; // 16 bit worst case: 16 * sad_max: 16 * 3x32x32x65536 = 4+5+5+16 > 2^31 over limit
; 489  :       // in case of BlockSize > 32, e.g. 128x128x65536 is even more: 7+7+16=30 bits
; 490  : 
; 491  :       if (nOverlapX == 0 && nOverlapY == 0)

	mov	ebx, DWORD PTR [esi+40]
	test	ebx, ebx
	jne	SHORT $LN19@Interpolat
	cmp	DWORD PTR [esi+44], ebx
	jne	SHORT $LN19@Interpolat

; 492  :       {
; 493  :         vectors[index].x = 9 * v1.x + 3 * v2.x + 3 * v3.x + v4.x;

	mov	ecx, DWORD PTR _v1$4[esp+136]
	mov	eax, DWORD PTR _v3$1[esp+136]
	mov	ebx, DWORD PTR tv647[esp+136]
	lea	edx, DWORD PTR [eax+ecx*2]
	mov	eax, DWORD PTR _v4$2[esp+136]
	add	edx, ecx
	add	edx, DWORD PTR _v2$3[esp+136]
	lea	ecx, DWORD PTR [eax+edx*2]
	mov	eax, DWORD PTR [esi+108]
	add	ecx, edx
	mov	DWORD PTR [ebx+eax], ecx

; 494  :         vectors[index].y = 9 * v1.y + 3 * v2.y + 3 * v3.y + v4.y;

	mov	ecx, DWORD PTR _v1$4[esp+140]
	mov	eax, DWORD PTR _v3$1[esp+140]
	lea	edx, DWORD PTR [eax+ecx*2]
	mov	eax, DWORD PTR _v4$2[esp+140]
	add	edx, ecx
	add	edx, DWORD PTR _v2$3[esp+140]
	lea	ecx, DWORD PTR [eax+edx*2]
	mov	eax, DWORD PTR [esi+108]
	add	ecx, edx
	mov	DWORD PTR [eax+ebx+4], ecx

; 495  :         tmp_sad = 9 * (cumulated_sad_t)v1.sad + 3 * (cumulated_sad_t)v2.sad + 3 * (cumulated_sad_t)v3.sad + (cumulated_sad_t)v4.sad + 8;

	mov	eax, DWORD PTR _v3$1$[esp+136]
	lea	ecx, DWORD PTR [eax+edi*2]
	add	ecx, edi
	mov	edi, DWORD PTR _v4$1$[esp+136]
	add	ecx, DWORD PTR _v2$1$[esp+136]
	add	edi, 8
	lea	edi, DWORD PTR [edi+ecx*2]
	add	edi, ecx
	jmp	$LN22@Interpolat
$LN19@Interpolat:

; 496  :         
; 497  :       }
; 498  :       else if (nOverlapX <= (nBlkSizeX >> 1) && nOverlapY <= (nBlkSizeY >> 1)) // corrected in v1.4.11

	mov	eax, DWORD PTR [esi+8]
	mov	DWORD PTR _ax2$1$[esp+136], eax
	sar	eax, 1
	cmp	ebx, eax
	jg	$LN21@Interpolat
	mov	ecx, DWORD PTR [esi+12]
	mov	eax, ecx
	sar	eax, 1
	cmp	DWORD PTR [esi+44], eax
	jg	$LN21@Interpolat

; 499  :       {
; 500  :         int	ax1 = (offx > 0) ? aoddx : aevenx;

	cmp	DWORD PTR _offx$1$[esp+136], 0

; 501  :         int ax2 = (nBlkSizeX - nOverlapX) * 4 - ax1;

	mov	edx, DWORD PTR _ax2$1$[esp+136]
	mov	eax, DWORD PTR _aevenx$1$[esp+136]
	cmovg	eax, DWORD PTR _aoddx$1$[esp+136]
	sub	edx, ebx
	shl	edx, 2
	sub	edx, eax

; 502  :         int ay1 = (offy > 0) ? aoddy : aeveny;

	cmp	DWORD PTR _offy$1$[esp+136], 0
	mov	DWORD PTR _ax2$1$[esp+136], edx
	mov	edx, DWORD PTR _aeveny$1$[esp+136]
	cmovg	edx, DWORD PTR _aoddy$1$[esp+136]

; 503  :         int ay2 = (nBlkSizeY - nOverlapY) * 4 - ay1;

	sub	ecx, DWORD PTR [esi+44]

; 504  :         int a11 = ax1*ay1, a12 = ax1*ay2, a21 = ax2*ay1, a22 = ax2*ay2;

	mov	ebx, edx
	shl	ecx, 2
	sub	ecx, edx
	imul	ebx, eax
	imul	edx, DWORD PTR _ax2$1$[esp+136]
	mov	edi, ecx
	imul	ecx, DWORD PTR _ax2$1$[esp+136]
	imul	edi, eax
	mov	DWORD PTR _a21$1$[esp+136], edx

; 505  :         vectors[index].x = (a11*v1.x + a21*v2.x + a12*v3.x + a22*v4.x) / normov;

	imul	edx, DWORD PTR _v2$3[esp+136]
	mov	eax, ecx
	imul	eax, DWORD PTR _v4$2[esp+136]
	mov	DWORD PTR _a22$1$[esp+136], ecx
	mov	ecx, edi
	imul	ecx, DWORD PTR _v3$1[esp+136]
	add	eax, ecx
	mov	ecx, ebx
	imul	ecx, DWORD PTR _v1$4[esp+136]
	add	eax, edx
	add	eax, ecx
	mov	ecx, DWORD PTR [esi+108]
	cdq
	idiv	DWORD PTR _normov$1$[esp+136]
	mov	edx, DWORD PTR tv647[esp+136]
	mov	DWORD PTR [edx+ecx], eax

; 506  :         vectors[index].y = (a11*v1.y + a21*v2.y + a12*v3.y + a22*v4.y) / normov;

	mov	ecx, edi
	imul	ecx, DWORD PTR _v3$1[esp+140]
	mov	eax, DWORD PTR _a22$1$[esp+136]
	imul	eax, DWORD PTR _v4$2[esp+140]

; 507  :         tmp_sad = ((cumulated_sad_t)a11*v1.sad + (cumulated_sad_t)a21*v2.sad + (cumulated_sad_t)a12*v3.sad + (cumulated_sad_t)a22*v4.sad) / normov;

	imul	edi, DWORD PTR _v3$1$[esp+136]
	add	eax, ecx
	mov	ecx, DWORD PTR _a21$1$[esp+136]
	imul	ecx, DWORD PTR _v2$3[esp+140]
	add	eax, ecx
	mov	ecx, ebx
	imul	ecx, DWORD PTR _v1$4[esp+140]
	add	eax, ecx
	mov	ecx, DWORD PTR [esi+108]
	cdq
	idiv	DWORD PTR _normov$1$[esp+136]
	mov	edx, DWORD PTR tv647[esp+136]
	mov	DWORD PTR [ecx+edx+4], eax
	mov	ecx, DWORD PTR _a22$1$[esp+136]
	imul	ecx, DWORD PTR _v4$1$[esp+136]
	mov	eax, DWORD PTR _a21$1$[esp+136]
	imul	eax, DWORD PTR _v2$1$[esp+136]
	add	ecx, edi
	add	ecx, eax
	mov	eax, DWORD PTR _v1$1$[esp+136]
	imul	eax, ebx

; 508  :       }
; 509  :       else // large overlap. Weights are not quite correct but let it be

	mov	ebx, DWORD PTR tv647[esp+136]
	add	eax, ecx
	cdq
	idiv	DWORD PTR _normov$1$[esp+136]
	mov	edi, eax
	jmp	SHORT $LN22@Interpolat
$LN21@Interpolat:

; 510  :       {
; 511  :         vectors[index].x = (v1.x + v2.x + v3.x + v4.x) << 2;

	mov	ecx, DWORD PTR _v3$1[esp+136]
	add	ecx, DWORD PTR _v4$2[esp+136]
	add	ecx, DWORD PTR _v2$3[esp+136]
	add	ecx, DWORD PTR _v1$4[esp+136]
	mov	eax, DWORD PTR [esi+108]
	mov	ebx, DWORD PTR tv647[esp+136]
	shl	ecx, 2
	mov	DWORD PTR [ebx+eax], ecx

; 512  :         vectors[index].y = (v1.y + v2.y + v3.y + v4.y) << 2;

	mov	ecx, DWORD PTR _v3$1[esp+140]
	add	ecx, DWORD PTR _v4$2[esp+140]
	add	ecx, DWORD PTR _v2$3[esp+140]
	mov	eax, DWORD PTR [esi+108]
	add	ecx, DWORD PTR _v1$4[esp+140]
	shl	ecx, 2
	mov	DWORD PTR [eax+ebx+4], ecx

; 513  :         tmp_sad = ((cumulated_sad_t)v1.sad + v2.sad + v3.sad + v4.sad + 2) << 2;

	mov	eax, DWORD PTR _v3$1$[esp+136]
	add	eax, DWORD PTR _v4$1$[esp+136]
	add	eax, edx
	add	eax, edi
	lea	edi, DWORD PTR [eax*4+8]
$LN22@Interpolat:

; 514  :       }
; 515  :       vectors[index].x = (vectors[index].x >> normFactor) << mulFactor;

	mov	edx, DWORD PTR [esi+108]
	mov	ecx, DWORD PTR _normFactor$2$[esp+136]

; 516  :       vectors[index].y = (vectors[index].y >> normFactor) << mulFactor;
; 517  :       vectors[index].sad = (sad_t)(tmp_sad >> 4);

	sar	edi, 4
	mov	eax, DWORD PTR [edx+ebx]
	sar	eax, cl
	mov	ecx, DWORD PTR tv717[esp+136]
	shl	eax, cl
	mov	ecx, DWORD PTR _normFactor$2$[esp+136]
	mov	DWORD PTR [edx+ebx], eax
	mov	edx, DWORD PTR [esi+108]
	mov	eax, DWORD PTR [edx+ebx+4]
	sar	eax, cl
	mov	ecx, DWORD PTR tv717[esp+136]
	shl	eax, cl
	mov	ecx, DWORD PTR _k$1$[esp+136]
	mov	DWORD PTR [edx+ebx+4], eax
	inc	ecx
	mov	eax, DWORD PTR [esi+108]
	mov	DWORD PTR _k$1$[esp+136], ecx
	mov	DWORD PTR [eax+ebx+8], edi
	add	ebx, 12					; 0000000cH
	mov	eax, DWORD PTR _index$1$[esp+136]
	inc	eax
	mov	DWORD PTR tv647[esp+136], ebx
	mov	ebx, DWORD PTR _l$1$[esp+136]
	mov	DWORD PTR _index$1$[esp+136], eax
	cmp	ecx, DWORD PTR [esi]
	jl	$LL7@Interpolat
$LN2@Interpolat:

; 441  :   // note: overlapping is still (v2.5.7) not processed properly
; 442  :   // PF todo make faster
; 443  :   for (int l = 0, index = 0; l < nBlkY; l++)

	inc	ebx
	mov	DWORD PTR _l$1$[esp+136], ebx
	cmp	ebx, DWORD PTR [esi+4]
	jl	$LL4@Interpolat
$LN3@Interpolat:

; 518  :     }	// for k < nBlkX
; 519  :   }	// for l < nBlkY
; 520  : }

	pop	edi
	pop	esi
	pop	ebx
	mov	esp, ebp
	pop	ebp
	ret	4
??$InterpolatePrediction@E@PlaneOfBlocks@@QAEXABV0@@Z ENDP ; PlaneOfBlocks::InterpolatePrediction<unsigned char>
_TEXT	ENDS
; Function compile flags: /Ogtpy
; File c:\github\mvtools\sources\planeofblocks.cpp
; File c:\program files (x86)\microsoft visual studio 14.0\vc\include\vector
; File c:\github\mvtools\sources\planeofblocks.cpp
; File c:\program files (x86)\microsoft visual studio 14.0\vc\include\vector
; File c:\github\mvtools\sources\planeofblocks.cpp
; File c:\program files (x86)\microsoft visual studio 14.0\vc\include\vector
; File c:\github\mvtools\sources\planeofblocks.cpp
; File c:\program files (x86)\microsoft visual studio 14.0\vc\include\vector
; File c:\github\mvtools\sources\planeofblocks.cpp
; File c:\program files (x86)\microsoft visual studio 14.0\vc\include\vector
; File c:\github\mvtools\sources\planeofblocks.cpp
; File c:\program files (x86)\microsoft visual studio 14.0\vc\include\vector
; File c:\github\mvtools\sources\planeofblocks.cpp
; File c:\program files (x86)\microsoft visual studio 14.0\vc\include\vector
; File c:\github\mvtools\sources\planeofblocks.cpp
; File c:\program files (x86)\microsoft visual studio 14.0\vc\include\vector
; File c:\github\mvtools\sources\planeofblocks.cpp
; File c:\program files (x86)\microsoft visual studio 14.0\vc\include\vector
; File c:\github\mvtools\sources\planeofblocks.cpp
; File c:\program files (x86)\microsoft visual studio 14.0\vc\include\vector
; File c:\github\mvtools\sources\planeofblocks.cpp
; File c:\program files (x86)\microsoft visual studio 14.0\vc\include\vector
; File c:\github\mvtools\sources\planeofblocks.cpp
; File c:\program files (x86)\microsoft visual studio 14.0\vc\include\vector
; File c:\github\mvtools\sources\planeofblocks.cpp
; File c:\program files (x86)\microsoft visual studio 14.0\vc\include\vector
; File c:\github\mvtools\sources\planeofblocks.cpp
; File c:\program files (x86)\microsoft visual studio 14.0\vc\include\vector
; File c:\github\mvtools\sources\planeofblocks.cpp
; File c:\program files (x86)\microsoft visual studio 14.0\vc\include\vector
; File c:\github\mvtools\sources\planeofblocks.cpp
;	COMDAT ??$InterpolatePrediction@G@PlaneOfBlocks@@QAEXABV0@@Z
_TEXT	SEGMENT
tv244 = -124						; size = 4
_v3$1$ = -120						; size = 4
_jper2$1$ = -120					; size = 4
_v2$1$ = -116						; size = 4
tv437 = -116						; size = 4
_v1$1$ = -112						; size = 4
_i$1$ = -112						; size = 4
_v4$1$ = -108						; size = 4
_iper2$1$ = -108					; size = 4
_normov$1$ = -104					; size = 4
_this$1$ = -100						; size = 4
_ax2$1$ = -96						; size = 4
_offx$1$ = -96						; size = 4
_l$1$ = -92						; size = 4
_a22$1$ = -88						; size = 4
_offy$1$ = -88						; size = 4
_k$1$ = -84						; size = 4
_normFactor$2$ = -80					; size = 4
tv454 = -76						; size = 4
_index$1$ = -72						; size = 4
_aevenx$1$ = -68					; size = 4
_aoddx$1$ = -64						; size = 4
_aeveny$1$ = -60					; size = 4
_aoddy$1$ = -56						; size = 4
_a21$1$ = -52						; size = 4
tv407 = -52						; size = 4
_v3$1 = -48						; size = 12
_v4$2 = -36						; size = 12
_v2$3 = -24						; size = 12
_v1$4 = -12						; size = 12
_pob$ = 8						; size = 4
??$InterpolatePrediction@G@PlaneOfBlocks@@QAEXABV0@@Z PROC ; PlaneOfBlocks::InterpolatePrediction<unsigned short>, COMDAT
; _this$ = ecx

; 432  : {

	push	ebp
	mov	ebp, esp
	and	esp, -8					; fffffff8H
	sub	esp, 124				; 0000007cH

; 433  :   int normFactor = 3 - nLogPel + pob.nLogPel;

	mov	eax, DWORD PTR _pob$[ebp]
	xor	edx, edx
	push	ebx
	mov	ebx, ecx
	push	esi
	mov	eax, DWORD PTR [eax+24]
	mov	DWORD PTR _this$1$[esp+132], ebx
	sub	eax, DWORD PTR [ebx+24]

; 434  :   int mulFactor = (normFactor < 0) ? -normFactor : 0;
; 435  :   normFactor = (normFactor < 0) ? 0 : normFactor;
; 436  :   int normov = (nBlkSizeX - nOverlapX)*(nBlkSizeY - nOverlapY);

	mov	esi, DWORD PTR [ebx+12]
	add	eax, 3
	mov	ecx, eax
	neg	ecx
	test	eax, eax
	push	edi
	mov	edi, DWORD PTR [ebx+44]
	cmovns	ecx, edx
	mov	edx, DWORD PTR [ebx+40]
	mov	DWORD PTR tv454[esp+136], ecx
	xor	ecx, ecx
	test	eax, eax
	cmovs	eax, ecx
	mov	ecx, DWORD PTR [ebx+8]
	mov	DWORD PTR _normFactor$2$[esp+136], eax
	mov	eax, ecx
	sub	eax, edx
	mov	DWORD PTR _normov$1$[esp+136], eax
	mov	eax, esi
	mov	ebx, DWORD PTR _normov$1$[esp+136]

; 437  :   int aoddx = (nBlkSizeX * 3 - nOverlapX * 2);

	lea	ecx, DWORD PTR [ecx+ecx*2]
	sub	eax, edi
	imul	ebx, eax
	lea	eax, DWORD PTR [edx+edx]
	mov	DWORD PTR _normov$1$[esp+136], ebx
	mov	ebx, ecx
	sub	ebx, eax

; 438  :   int aevenx = (nBlkSizeX * 3 - nOverlapX * 4);

	lea	eax, DWORD PTR [edx*4]
	sub	ecx, eax
	mov	DWORD PTR _aoddx$1$[esp+136], ebx

; 439  :   int aoddy = (nBlkSizeY * 3 - nOverlapY * 2);
; 440  :   int aeveny = (nBlkSizeY * 3 - nOverlapY * 4);
; 441  :   // note: overlapping is still (v2.5.7) not processed properly
; 442  :   // PF todo make faster
; 443  :   for (int l = 0, index = 0; l < nBlkY; l++)

	mov	ebx, DWORD PTR _this$1$[esp+136]
	lea	eax, DWORD PTR [edi+edi]
	mov	DWORD PTR _aevenx$1$[esp+136], ecx
	lea	ecx, DWORD PTR [esi+esi*2]
	mov	edx, ecx
	sub	edx, eax
	lea	eax, DWORD PTR [edi*4]
	sub	ecx, eax
	mov	DWORD PTR _aoddy$1$[esp+136], edx
	xor	eax, eax
	mov	DWORD PTR _aeveny$1$[esp+136], ecx
	xor	ecx, ecx
	mov	DWORD PTR _index$1$[esp+136], eax
	mov	DWORD PTR _l$1$[esp+136], ecx
	cmp	DWORD PTR [ebx+4], eax
	jle	$LN3@Interpolat
	npad	6
$LL4@Interpolat:

; 444  :   {
; 445  :     for (int k = 0; k < nBlkX; k++, index++)

	xor	edx, edx
	mov	DWORD PTR _k$1$[esp+136], edx
	cmp	DWORD PTR [ebx], edx
	jle	$LN2@Interpolat
	lea	eax, DWORD PTR [eax+eax*2]
	shl	eax, 2
	mov	DWORD PTR tv244[esp+136], eax
	npad	8
$LL7@Interpolat:

; 446  :     {
; 447  :       VECTOR v1, v2, v3, v4;
; 448  :       int i = k;
; 449  :       int j = l;

	mov	edi, ecx
	mov	DWORD PTR _i$1$[esp+136], edx

; 450  :       if (i >= 2 * pob.nBlkX)

	mov	ecx, DWORD PTR _pob$[ebp]
	mov	esi, DWORD PTR [ecx]
	lea	eax, DWORD PTR [esi+esi]
	cmp	DWORD PTR _k$1$[esp+136], eax
	jl	SHORT $LN8@Interpolat

; 451  :       {
; 452  :         i = 2 * pob.nBlkX - 1;

	lea	edx, DWORD PTR [eax-1]
	mov	DWORD PTR _i$1$[esp+136], edx
$LN8@Interpolat:

; 453  :       }
; 454  :       if (j >= 2 * pob.nBlkY)

	mov	ecx, DWORD PTR [ecx+4]
	add	ecx, ecx
	mov	DWORD PTR tv437[esp+136], ecx
	cmp	DWORD PTR _l$1$[esp+136], ecx
	jl	SHORT $LN9@Interpolat

; 455  :       {
; 456  :         j = 2 * pob.nBlkY - 1;

	lea	edi, DWORD PTR [ecx-1]
$LN9@Interpolat:

; 457  :       }
; 458  :       int offy = -1 + 2 * (j % 2);

	mov	eax, edi
	and	eax, -2147483647			; 80000001H
	jns	SHORT $LN255@Interpolat
	dec	eax
	or	eax, -2					; fffffffeH
	inc	eax
$LN255@Interpolat:
	lea	eax, DWORD PTR [eax*2-1]
	mov	DWORD PTR _offy$1$[esp+136], eax

; 459  :       int offx = -1 + 2 * (i % 2);

	mov	eax, edx
	and	eax, -2147483647			; 80000001H
	jns	SHORT $LN256@Interpolat
	dec	eax
	or	eax, -2					; fffffffeH
	inc	eax
$LN256@Interpolat:
	lea	eax, DWORD PTR [eax*2-1]
	mov	DWORD PTR _offx$1$[esp+136], eax

; 460  :       int iper2 = i / 2;

	mov	eax, edx
	cdq
	sub	eax, edx
	sar	eax, 1
	mov	DWORD PTR _iper2$1$[esp+136], eax

; 461  :       int jper2 = j / 2;

	mov	eax, edi
	cdq
	sub	eax, edx
	mov	edx, eax

; 462  : 
; 463  :       if ((i == 0) || (i >= 2 * pob.nBlkX - 1))

	mov	eax, DWORD PTR _i$1$[esp+136]
	sar	edx, 1
	mov	DWORD PTR _jper2$1$[esp+136], edx
	test	eax, eax
	je	$LN12@Interpolat
	lea	ecx, DWORD PTR [esi*2-1]
	cmp	eax, ecx
	jge	$LN254@Interpolat

; 473  :         }
; 474  :       }
; 475  :       else if ((j == 0) || (j >= 2 * pob.nBlkY - 1))

	test	edi, edi
	je	$LN18@Interpolat
	mov	eax, DWORD PTR tv437[esp+136]
	dec	eax
	cmp	edi, eax
	jge	$LN18@Interpolat
; File c:\program files (x86)\microsoft visual studio 14.0\vc\include\vector

; 1226 : 		return (*(this->_Myfirst() + _Pos));

	mov	eax, DWORD PTR _pob$[ebp]
; File c:\github\mvtools\sources\planeofblocks.cpp

; 482  :         v1 = pob.vectors[iper2 + (jper2) * pob.nBlkX];

	mov	ecx, esi
	imul	ecx, edx
; File c:\program files (x86)\microsoft visual studio 14.0\vc\include\vector

; 1226 : 		return (*(this->_Myfirst() + _Pos));

	mov	edx, DWORD PTR [eax+108]
; File c:\github\mvtools\sources\planeofblocks.cpp

; 482  :         v1 = pob.vectors[iper2 + (jper2) * pob.nBlkX];

	add	ecx, DWORD PTR _iper2$1$[esp+136]
; File c:\program files (x86)\microsoft visual studio 14.0\vc\include\vector

; 1226 : 		return (*(this->_Myfirst() + _Pos));

	lea	eax, DWORD PTR [ecx+ecx*2]
; File c:\github\mvtools\sources\planeofblocks.cpp

; 482  :         v1 = pob.vectors[iper2 + (jper2) * pob.nBlkX];

	movq	xmm0, QWORD PTR [edx+eax*4]
	mov	eax, DWORD PTR [edx+eax*4+8]
	mov	DWORD PTR _v1$1$[esp+136], eax

; 483  :         v2 = pob.vectors[iper2 + offx + (jper2) * pob.nBlkX];

	mov	eax, DWORD PTR _offx$1$[esp+136]
	add	eax, ecx
	movq	QWORD PTR _v1$4[esp+136], xmm0

; 484  :         v3 = pob.vectors[iper2 + (jper2 + offy) * pob.nBlkX];

	mov	ecx, DWORD PTR _offy$1$[esp+136]
	add	ecx, DWORD PTR _jper2$1$[esp+136]
	imul	ecx, esi
; File c:\program files (x86)\microsoft visual studio 14.0\vc\include\vector

; 1226 : 		return (*(this->_Myfirst() + _Pos));

	lea	eax, DWORD PTR [eax+eax*2]
; File c:\github\mvtools\sources\planeofblocks.cpp

; 483  :         v2 = pob.vectors[iper2 + offx + (jper2) * pob.nBlkX];

	movq	xmm0, QWORD PTR [edx+eax*4]
	mov	eax, DWORD PTR [edx+eax*4+8]
	mov	DWORD PTR _v2$1$[esp+136], eax

; 484  :         v3 = pob.vectors[iper2 + (jper2 + offy) * pob.nBlkX];

	add	ecx, DWORD PTR _iper2$1$[esp+136]
	movq	QWORD PTR _v2$3[esp+136], xmm0
; File c:\program files (x86)\microsoft visual studio 14.0\vc\include\vector

; 1226 : 		return (*(this->_Myfirst() + _Pos));

	lea	eax, DWORD PTR [ecx+ecx*2]
; File c:\github\mvtools\sources\planeofblocks.cpp

; 484  :         v3 = pob.vectors[iper2 + (jper2 + offy) * pob.nBlkX];

	movq	xmm0, QWORD PTR [edx+eax*4]
	mov	esi, DWORD PTR [edx+eax*4+8]

; 485  :         v4 = pob.vectors[iper2 + offx + (jper2 + offy) * pob.nBlkX];

	mov	eax, DWORD PTR _offx$1$[esp+136]
	add	eax, ecx
	movq	QWORD PTR _v3$1[esp+136], xmm0
	mov	DWORD PTR _v3$1$[esp+136], esi
; File c:\program files (x86)\microsoft visual studio 14.0\vc\include\vector

; 1226 : 		return (*(this->_Myfirst() + _Pos));

	lea	eax, DWORD PTR [eax+eax*2]
; File c:\github\mvtools\sources\planeofblocks.cpp

; 485  :         v4 = pob.vectors[iper2 + offx + (jper2 + offy) * pob.nBlkX];

	movq	xmm0, QWORD PTR [edx+eax*4]
	mov	edi, DWORD PTR [edx+eax*4+8]
	movq	QWORD PTR _v4$2[esp+136], xmm0
	jmp	$LN257@Interpolat
$LN18@Interpolat:
; File c:\program files (x86)\microsoft visual studio 14.0\vc\include\vector

; 1226 : 		return (*(this->_Myfirst() + _Pos));

	mov	eax, DWORD PTR _pob$[ebp]
; File c:\github\mvtools\sources\planeofblocks.cpp

; 477  :         v1 = v2 = pob.vectors[iper2 + (jper2) * pob.nBlkX];

	mov	ecx, DWORD PTR _iper2$1$[esp+136]
	imul	esi, edx
; File c:\program files (x86)\microsoft visual studio 14.0\vc\include\vector

; 1226 : 		return (*(this->_Myfirst() + _Pos));

	mov	edx, DWORD PTR [eax+108]
; File c:\github\mvtools\sources\planeofblocks.cpp

; 477  :         v1 = v2 = pob.vectors[iper2 + (jper2) * pob.nBlkX];

	add	ecx, esi
; File c:\program files (x86)\microsoft visual studio 14.0\vc\include\vector

; 1226 : 		return (*(this->_Myfirst() + _Pos));

	lea	eax, DWORD PTR [ecx+ecx*2]
; File c:\github\mvtools\sources\planeofblocks.cpp

; 477  :         v1 = v2 = pob.vectors[iper2 + (jper2) * pob.nBlkX];

	mov	edi, DWORD PTR [edx+eax*4+8]
	mov	esi, edi
	movq	xmm0, QWORD PTR [edx+eax*4]
; File c:\program files (x86)\microsoft visual studio 14.0\vc\include\vector

; 1226 : 		return (*(this->_Myfirst() + _Pos));

	mov	eax, DWORD PTR _offx$1$[esp+136]
	add	eax, ecx
; File c:\github\mvtools\sources\planeofblocks.cpp

; 477  :         v1 = v2 = pob.vectors[iper2 + (jper2) * pob.nBlkX];

	movq	QWORD PTR _v2$3[esp+136], xmm0
	movq	xmm0, xmm0
	mov	DWORD PTR _v2$1$[esp+136], edi
	movq	QWORD PTR _v1$4[esp+136], xmm0
	mov	DWORD PTR _v1$1$[esp+136], esi
; File c:\program files (x86)\microsoft visual studio 14.0\vc\include\vector

; 1226 : 		return (*(this->_Myfirst() + _Pos));

	lea	eax, DWORD PTR [eax+eax*2]
; File c:\github\mvtools\sources\planeofblocks.cpp

; 478  :         v3 = v4 = pob.vectors[iper2 + offx + (jper2) * pob.nBlkX];

	movq	xmm0, QWORD PTR [edx+eax*4]
	mov	edi, DWORD PTR [edx+eax*4+8]
	mov	esi, edi
	movq	QWORD PTR _v4$2[esp+136], xmm0
	movq	xmm0, xmm0
	movq	QWORD PTR _v3$1[esp+136], xmm0
	mov	DWORD PTR _v3$1$[esp+136], esi

; 479  :       }
; 480  :       else

	jmp	$LN257@Interpolat
$LN254@Interpolat:
	mov	ecx, DWORD PTR tv437[esp+136]
$LN12@Interpolat:

; 464  :       {
; 465  :         if ((j == 0) || (j >= 2 * pob.nBlkY - 1))

	test	edi, edi
	je	SHORT $LN15@Interpolat
	lea	eax, DWORD PTR [ecx-1]
	cmp	edi, eax
	jge	SHORT $LN15@Interpolat
; File c:\program files (x86)\microsoft visual studio 14.0\vc\include\vector

; 1226 : 		return (*(this->_Myfirst() + _Pos));

	mov	eax, DWORD PTR _pob$[ebp]
	mov	ecx, DWORD PTR [eax+108]
	mov	eax, esi
	imul	eax, edx
	add	eax, DWORD PTR _iper2$1$[esp+136]
	lea	eax, DWORD PTR [eax+eax*2]
; File c:\github\mvtools\sources\planeofblocks.cpp

; 471  :           v1 = v2 = pob.vectors[iper2 + (jper2) * pob.nBlkX];

	movq	xmm0, QWORD PTR [ecx+eax*4]
	mov	ebx, DWORD PTR [ecx+eax*4+8]
	mov	eax, ebx
	mov	DWORD PTR _v1$1$[esp+136], eax

; 472  :           v3 = v4 = pob.vectors[iper2 + (jper2 + offy) * pob.nBlkX];

	mov	eax, DWORD PTR _offy$1$[esp+136]
	add	eax, edx
	movq	QWORD PTR _v2$3[esp+136], xmm0
; File c:\program files (x86)\microsoft visual studio 14.0\vc\include\vector

; 1226 : 		return (*(this->_Myfirst() + _Pos));

	imul	eax, esi
; File c:\github\mvtools\sources\planeofblocks.cpp

; 471  :           v1 = v2 = pob.vectors[iper2 + (jper2) * pob.nBlkX];

	movq	xmm0, xmm0
	movq	QWORD PTR _v1$4[esp+136], xmm0
	mov	DWORD PTR _v2$1$[esp+136], ebx

; 472  :           v3 = v4 = pob.vectors[iper2 + (jper2 + offy) * pob.nBlkX];

	mov	ebx, DWORD PTR _this$1$[esp+136]
; File c:\program files (x86)\microsoft visual studio 14.0\vc\include\vector

; 1226 : 		return (*(this->_Myfirst() + _Pos));

	add	eax, DWORD PTR _iper2$1$[esp+136]
	lea	eax, DWORD PTR [eax+eax*2]
; File c:\github\mvtools\sources\planeofblocks.cpp

; 472  :           v3 = v4 = pob.vectors[iper2 + (jper2 + offy) * pob.nBlkX];

	movq	xmm0, QWORD PTR [ecx+eax*4]
	mov	edi, DWORD PTR [ecx+eax*4+8]
	mov	esi, edi
	movq	QWORD PTR _v4$2[esp+136], xmm0
	movq	xmm0, xmm0
	movq	QWORD PTR _v3$1[esp+136], xmm0
	mov	DWORD PTR _v3$1$[esp+136], esi
	jmp	SHORT $LN257@Interpolat
$LN15@Interpolat:
; File c:\program files (x86)\microsoft visual studio 14.0\vc\include\vector

; 1226 : 		return (*(this->_Myfirst() + _Pos));

	mov	eax, DWORD PTR _pob$[ebp]
	imul	esi, edx
	mov	eax, DWORD PTR [eax+108]
	add	esi, DWORD PTR _iper2$1$[esp+136]
	lea	ecx, DWORD PTR [esi+esi*2]
; File c:\github\mvtools\sources\planeofblocks.cpp

; 467  :           v1 = v2 = v3 = v4 = pob.vectors[iper2 + (jper2) * pob.nBlkX];

	movq	xmm0, QWORD PTR [eax+ecx*4]
	mov	edi, DWORD PTR [eax+ecx*4+8]
	mov	edx, edi
	movq	QWORD PTR _v4$2[esp+136], xmm0
	movq	xmm0, xmm0
	movq	QWORD PTR _v3$1[esp+136], xmm0
	movq	xmm0, QWORD PTR [eax+ecx*4]
	mov	eax, edi
	movq	QWORD PTR _v2$3[esp+136], xmm0
	movq	xmm0, xmm0
	mov	DWORD PTR _v3$1$[esp+136], edx
	mov	DWORD PTR _v2$1$[esp+136], edx
	movq	QWORD PTR _v1$4[esp+136], xmm0
	mov	DWORD PTR _v1$1$[esp+136], eax
$LN257@Interpolat:

; 486  :       }
; 487  :       typedef typename std::conditional < sizeof(pixel_t) == 1, sad_t, bigsad_t >::type cumulated_sad_t;
; 488  :       cumulated_sad_t tmp_sad; // 16 bit worst case: 16 * sad_max: 16 * 3x32x32x65536 = 4+5+5+16 > 2^31 over limit
; 489  :       // in case of BlockSize > 32, e.g. 128x128x65536 is even more: 7+7+16=30 bits
; 490  : 
; 491  :       if (nOverlapX == 0 && nOverlapY == 0)

	mov	ecx, DWORD PTR [ebx+40]
	mov	DWORD PTR _v4$1$[esp+136], edi
	test	ecx, ecx
	jne	SHORT $LN19@Interpolat
	cmp	DWORD PTR [ebx+44], ecx
	jne	SHORT $LN19@Interpolat

; 492  :       {
; 493  :         vectors[index].x = 9 * v1.x + 3 * v2.x + 3 * v3.x + v4.x;

	mov	ecx, DWORD PTR _v1$4[esp+136]
	mov	eax, DWORD PTR _v3$1[esp+136]
	mov	edi, DWORD PTR tv244[esp+136]
	lea	edx, DWORD PTR [eax+ecx*2]
	mov	eax, DWORD PTR _v4$2[esp+136]
	add	edx, ecx
	add	edx, DWORD PTR _v2$3[esp+136]
	lea	ecx, DWORD PTR [eax+edx*2]
	mov	eax, DWORD PTR [ebx+108]
	add	ecx, edx

; 494  :         vectors[index].y = 9 * v1.y + 3 * v2.y + 3 * v3.y + v4.y;

	mov	edx, DWORD PTR _v1$4[esp+140]
	mov	DWORD PTR [edi+eax], ecx
	mov	ecx, DWORD PTR _v3$1[esp+140]

; 495  :         tmp_sad = 9 * (cumulated_sad_t)v1.sad + 3 * (cumulated_sad_t)v2.sad + 3 * (cumulated_sad_t)v3.sad + (cumulated_sad_t)v4.sad + 8;

	mov	eax, DWORD PTR _v3$1$[esp+136]
	lea	esi, DWORD PTR [ecx+edx*2]
	mov	ecx, DWORD PTR _v4$2[esp+140]
	add	esi, edx
	add	esi, DWORD PTR _v2$3[esp+140]
	lea	edx, DWORD PTR [ecx+esi*2]
	mov	ecx, DWORD PTR [ebx+108]
	add	edx, esi
	mov	DWORD PTR [ecx+edi+4], edx
	mov	ecx, 3
	imul	ecx
	mov	edi, eax
	mov	esi, edx
	mov	eax, DWORD PTR _v2$1$[esp+136]
	imul	ecx
	mov	ecx, 9
	add	edi, eax
	mov	eax, DWORD PTR _v1$1$[esp+136]
	adc	esi, edx
	imul	ecx
	add	edi, eax
	mov	eax, DWORD PTR _v4$1$[esp+136]
	adc	esi, edx
	cdq
	jmp	$LN258@Interpolat
$LN19@Interpolat:

; 496  :         
; 497  :       }
; 498  :       else if (nOverlapX <= (nBlkSizeX >> 1) && nOverlapY <= (nBlkSizeY >> 1)) // corrected in v1.4.11

	mov	esi, DWORD PTR [ebx+8]
	mov	eax, esi
	sar	eax, 1
	cmp	ecx, eax
	jg	$LN21@Interpolat
	mov	eax, DWORD PTR [ebx+44]
	mov	edx, DWORD PTR [ebx+12]
	mov	DWORD PTR tv407[esp+136], eax
	mov	eax, edx
	sar	eax, 1
	cmp	DWORD PTR [ebx+44], eax
	jg	$LN21@Interpolat

; 499  :       {
; 500  :         int	ax1 = (offx > 0) ? aoddx : aevenx;

	cmp	DWORD PTR _offx$1$[esp+136], 0
	mov	eax, DWORD PTR _aevenx$1$[esp+136]
	cmovg	eax, DWORD PTR _aoddx$1$[esp+136]

; 501  :         int ax2 = (nBlkSizeX - nOverlapX) * 4 - ax1;

	sub	esi, ecx
	shl	esi, 2
	sub	esi, eax

; 502  :         int ay1 = (offy > 0) ? aoddy : aeveny;

	cmp	DWORD PTR _offy$1$[esp+136], 0
	mov	DWORD PTR _ax2$1$[esp+136], esi
	mov	esi, DWORD PTR _aeveny$1$[esp+136]
	cmovg	esi, DWORD PTR _aoddy$1$[esp+136]

; 503  :         int ay2 = (nBlkSizeY - nOverlapY) * 4 - ay1;

	sub	edx, DWORD PTR tv407[esp+136]

; 504  :         int a11 = ax1*ay1, a12 = ax1*ay2, a21 = ax2*ay1, a22 = ax2*ay2;

	mov	ebx, esi
	imul	ebx, eax
	shl	edx, 2
	sub	edx, esi
	imul	esi, DWORD PTR _ax2$1$[esp+136]
	mov	edi, edx
	imul	edx, DWORD PTR _ax2$1$[esp+136]
	imul	edi, eax
	mov	DWORD PTR _a21$1$[esp+136], esi

; 505  :         vectors[index].x = (a11*v1.x + a21*v2.x + a12*v3.x + a22*v4.x) / normov;

	mov	eax, edx
	mov	DWORD PTR _a22$1$[esp+136], edx
	imul	eax, DWORD PTR _v4$2[esp+136]
	mov	ecx, edi
	imul	ecx, DWORD PTR _v3$1[esp+136]
	add	eax, ecx
	mov	ecx, esi
	imul	ecx, DWORD PTR _v2$3[esp+136]

; 506  :         vectors[index].y = (a11*v1.y + a21*v2.y + a12*v3.y + a22*v4.y) / normov;

	imul	esi, DWORD PTR _v2$3[esp+140]
	add	eax, ecx
	mov	ecx, ebx
	imul	ecx, DWORD PTR _v1$4[esp+136]
	add	eax, ecx
	mov	ecx, DWORD PTR _this$1$[esp+136]
	cdq
	idiv	DWORD PTR _normov$1$[esp+136]
	mov	ecx, DWORD PTR [ecx+108]
	mov	edx, DWORD PTR tv244[esp+136]
	mov	DWORD PTR [edx+ecx], eax
	mov	ecx, edi
	imul	ecx, DWORD PTR _v3$1[esp+140]
	mov	eax, DWORD PTR _a22$1$[esp+136]
	imul	eax, DWORD PTR _v4$2[esp+140]
	add	eax, ecx
	mov	ecx, ebx
	imul	ecx, DWORD PTR _v1$4[esp+140]
	add	eax, esi
	add	eax, ecx
	mov	ecx, DWORD PTR _this$1$[esp+136]
	cdq
	idiv	DWORD PTR _normov$1$[esp+136]
	mov	ecx, DWORD PTR [ecx+108]
	mov	edx, DWORD PTR tv244[esp+136]
	mov	DWORD PTR [ecx+edx+4], eax

; 507  :         tmp_sad = ((cumulated_sad_t)a11*v1.sad + (cumulated_sad_t)a21*v2.sad + (cumulated_sad_t)a12*v3.sad + (cumulated_sad_t)a22*v4.sad) / normov;

	mov	eax, DWORD PTR _a22$1$[esp+136]
	imul	DWORD PTR _v4$1$[esp+136]
	mov	esi, eax
	mov	ecx, edx
	mov	eax, edi
	imul	DWORD PTR _v3$1$[esp+136]
	add	esi, eax
	mov	eax, DWORD PTR _a21$1$[esp+136]
	adc	ecx, edx
	imul	DWORD PTR _v2$1$[esp+136]
	add	esi, eax
	mov	eax, ebx
	adc	ecx, edx
	imul	DWORD PTR _v1$1$[esp+136]
	add	esi, eax
	mov	eax, DWORD PTR _normov$1$[esp+136]
	adc	ecx, edx
	cdq
	push	edx
	push	eax
	push	ecx
	push	esi
	call	__alldiv

; 508  :       }
; 509  :       else // large overlap. Weights are not quite correct but let it be

	mov	ebx, DWORD PTR _this$1$[esp+136]
	mov	edi, eax
	mov	esi, edx
	jmp	SHORT $LN22@Interpolat
$LN21@Interpolat:

; 510  :       {
; 511  :         vectors[index].x = (v1.x + v2.x + v3.x + v4.x) << 2;

	mov	ecx, DWORD PTR _v3$1[esp+136]
	add	ecx, DWORD PTR _v4$2[esp+136]
	add	ecx, DWORD PTR _v2$3[esp+136]
	add	ecx, DWORD PTR _v1$4[esp+136]
	mov	eax, DWORD PTR [ebx+108]
	mov	edx, DWORD PTR tv244[esp+136]
	shl	ecx, 2
	mov	DWORD PTR [edx+eax], ecx

; 512  :         vectors[index].y = (v1.y + v2.y + v3.y + v4.y) << 2;

	mov	ecx, DWORD PTR _v3$1[esp+140]
	add	ecx, DWORD PTR _v4$2[esp+140]
	add	ecx, DWORD PTR _v2$3[esp+140]
	add	ecx, DWORD PTR _v1$4[esp+140]
	mov	eax, DWORD PTR [ebx+108]
	shl	ecx, 2
	mov	DWORD PTR [eax+edx+4], ecx

; 513  :         tmp_sad = ((cumulated_sad_t)v1.sad + v2.sad + v3.sad + v4.sad + 2) << 2;

	mov	eax, edi
	mov	ecx, 4
	imul	ecx
	mov	edi, eax
	mov	esi, edx
	mov	eax, DWORD PTR _v3$1$[esp+136]
	imul	ecx
	add	edi, eax
	mov	eax, DWORD PTR _v2$1$[esp+136]
	adc	esi, edx
	imul	ecx
	add	edi, eax
	mov	eax, DWORD PTR _v1$1$[esp+136]
	adc	esi, edx
	imul	ecx
$LN258@Interpolat:
	add	edi, eax
	adc	esi, edx
	add	edi, 8
	adc	esi, 0
$LN22@Interpolat:

; 514  :       }
; 515  :       vectors[index].x = (vectors[index].x >> normFactor) << mulFactor;

	mov	edx, DWORD PTR [ebx+108]
	add	edx, DWORD PTR tv244[esp+136]
	mov	ecx, DWORD PTR _normFactor$2$[esp+136]

; 516  :       vectors[index].y = (vectors[index].y >> normFactor) << mulFactor;
; 517  :       vectors[index].sad = (sad_t)(tmp_sad >> 4);

	shrd	edi, esi, 4
	mov	eax, DWORD PTR [edx]
	sar	eax, cl
	mov	ecx, DWORD PTR tv454[esp+136]
	shl	eax, cl
	mov	ecx, DWORD PTR _normFactor$2$[esp+136]
	mov	DWORD PTR [edx], eax
	mov	edx, DWORD PTR [ebx+108]
	add	edx, DWORD PTR tv244[esp+136]
	sar	esi, 4
	mov	eax, DWORD PTR [edx+4]
	sar	eax, cl
	mov	ecx, DWORD PTR tv454[esp+136]
	shl	eax, cl
	mov	ecx, DWORD PTR tv244[esp+136]
	mov	DWORD PTR [edx+4], eax
	mov	eax, DWORD PTR [ebx+108]
	mov	edx, DWORD PTR _k$1$[esp+136]
	inc	edx
	mov	DWORD PTR _k$1$[esp+136], edx
	mov	DWORD PTR [eax+ecx+8], edi
	add	ecx, 12					; 0000000cH
	mov	eax, DWORD PTR _index$1$[esp+136]
	inc	eax
	mov	DWORD PTR tv244[esp+136], ecx
	mov	ecx, DWORD PTR _l$1$[esp+136]
	mov	DWORD PTR _index$1$[esp+136], eax
	cmp	edx, DWORD PTR [ebx]
	jl	$LL7@Interpolat
$LN2@Interpolat:

; 439  :   int aoddy = (nBlkSizeY * 3 - nOverlapY * 2);
; 440  :   int aeveny = (nBlkSizeY * 3 - nOverlapY * 4);
; 441  :   // note: overlapping is still (v2.5.7) not processed properly
; 442  :   // PF todo make faster
; 443  :   for (int l = 0, index = 0; l < nBlkY; l++)

	inc	ecx
	mov	DWORD PTR _l$1$[esp+136], ecx
	cmp	ecx, DWORD PTR [ebx+4]
	jl	$LL4@Interpolat
$LN3@Interpolat:

; 518  :     }	// for k < nBlkX
; 519  :   }	// for l < nBlkY
; 520  : }

	pop	edi
	pop	esi
	pop	ebx
	mov	esp, ebp
	pop	ebp
	ret	4
??$InterpolatePrediction@G@PlaneOfBlocks@@QAEXABV0@@Z ENDP ; PlaneOfBlocks::InterpolatePrediction<unsigned short>
_TEXT	ENDS
; Function compile flags: /Ogtpy
; File c:\github\mvtools\sources\planeofblocks.cpp
;	COMDAT ?WriteDefaultToArray@PlaneOfBlocks@@QAEHPAHH@Z
_TEXT	SEGMENT
_array$ = 8						; size = 4
_divideMode$ = 12					; size = 4
?WriteDefaultToArray@PlaneOfBlocks@@QAEHPAHH@Z PROC	; PlaneOfBlocks::WriteDefaultToArray, COMDAT
; _this$ = ecx

; 536  :   array[0] = nBlkCount * N_PER_BLOCK + 1;

	mov	eax, DWORD PTR [ecx+16]
	push	esi
	push	edi
	mov	edi, DWORD PTR _array$[esp+4]

; 537  :   //	int verybigSAD = nBlkSizeX*nBlkSizeY*256*  bits_per_pixel_factor;
; 538  :   for (int i = 0; i < nBlkCount*N_PER_BLOCK; i += N_PER_BLOCK)

	xor	esi, esi
	lea	eax, DWORD PTR [eax+eax*2]
	inc	eax
	mov	DWORD PTR [edi], eax
	mov	eax, DWORD PTR [ecx+16]
	lea	eax, DWORD PTR [eax+eax*2]
	test	eax, eax
	jle	SHORT $LN3@WriteDefau

; 536  :   array[0] = nBlkCount * N_PER_BLOCK + 1;

	lea	edx, DWORD PTR [edi+8]
	npad	2
$LL4@WriteDefau:

; 539  :   {
; 540  :     array[i + 1] = 0;

	mov	DWORD PTR [edx-4], 0
	lea	edx, DWORD PTR [edx+12]

; 541  :     array[i + 2] = 0;

	mov	DWORD PTR [edx-12], 0
	add	esi, 3

; 542  :     array[i + 3] = verybigSAD; // float or int!!

	mov	eax, DWORD PTR [ecx+156]
	mov	DWORD PTR [edx-8], eax
	mov	eax, DWORD PTR [ecx+16]
	lea	eax, DWORD PTR [eax+eax*2]
	cmp	esi, eax
	jl	SHORT $LL4@WriteDefau
$LN3@WriteDefau:

; 543  :     //*(sad_t *)(&array[i + 3]) = verybigSAD; // float or int!!
; 544  :   }
; 545  : 
; 546  :   if (nLogScale == 0)

	cmp	DWORD PTR [ecx+32], 0
	jne	SHORT $LN6@WriteDefau

; 547  :   {
; 548  :     array += array[0];
; 549  :     if (divideMode)

	cmp	DWORD PTR _divideMode$[esp+4], 0
	mov	eax, DWORD PTR [edi]
	lea	edx, DWORD PTR [edi+eax*4]
	je	SHORT $LN6@WriteDefau

; 550  :     {
; 551  :       // reserve space for divided subblocks extra level
; 552  :       array[0] = nBlkCount * N_PER_BLOCK * 4 + 1; // 4 subblocks

	mov	eax, DWORD PTR [ecx+16]

; 553  :       for (int i = 0; i < nBlkCount * 4 * N_PER_BLOCK; i += N_PER_BLOCK)

	xor	esi, esi
	lea	eax, DWORD PTR [eax+eax*2]
	lea	eax, DWORD PTR [eax*4+1]
	mov	DWORD PTR [edx], eax
	mov	eax, DWORD PTR [ecx+16]
	lea	eax, DWORD PTR [eax+eax*2]
	shl	eax, 2
	test	eax, eax
	jle	SHORT $LN6@WriteDefau

; 550  :     {
; 551  :       // reserve space for divided subblocks extra level
; 552  :       array[0] = nBlkCount * N_PER_BLOCK * 4 + 1; // 4 subblocks

	add	edx, 8
	npad	6
$LL7@WriteDefau:

; 554  :       {
; 555  :         array[i + 1] = 0;

	mov	DWORD PTR [edx-4], 0
	lea	edx, DWORD PTR [edx+12]

; 556  :         array[i + 2] = 0;

	mov	DWORD PTR [edx-12], 0
	add	esi, 3

; 557  :         array[i + 3] = verybigSAD; // float or int!!

	mov	eax, DWORD PTR [ecx+156]
	mov	DWORD PTR [edx-8], eax
	mov	eax, DWORD PTR [ecx+16]
	lea	eax, DWORD PTR [eax+eax*2]
	shl	eax, 2
	cmp	esi, eax
	jl	SHORT $LL7@WriteDefau
$LN6@WriteDefau:

; 572  :   size += nBlkCount * N_PER_BLOCK;  // vectors, sad, luma src, luma ref, var

	mov	eax, DWORD PTR [ecx+16]
	pop	edi
	pop	esi
	lea	edx, DWORD PTR [eax*2+1]
	add	edx, eax

; 573  : 
; 574  :   if (nLogScale == 0)

	cmp	DWORD PTR [ecx+32], 0
	jne	SHORT $LN24@WriteDefau

; 575  :   {
; 576  :     if (divideMode)

	cmp	DWORD PTR _divideMode$[esp-4], 0
	je	SHORT $LN24@WriteDefau

; 577  :     {
; 578  :       size += 1 + nBlkCount * N_PER_BLOCK * 4; // reserve space for divided subblocks extra level

	lea	eax, DWORD PTR [eax+eax*2]
	lea	eax, DWORD PTR [eax*4+1]
	add	eax, edx

; 564  : }

	ret	8
$LN24@WriteDefau:

; 558  :         //*(sad_t *)(&array[i + 3]) = verybigSAD; // float or int
; 559  :       }
; 560  :       array += array[0];
; 561  :     }
; 562  :   }
; 563  :   return GetArraySize(divideMode);

	mov	eax, edx

; 564  : }

	ret	8
?WriteDefaultToArray@PlaneOfBlocks@@QAEHPAHH@Z ENDP	; PlaneOfBlocks::WriteDefaultToArray
_TEXT	ENDS
; Function compile flags: /Ogtpy
; File c:\github\mvtools\sources\planeofblocks.cpp
;	COMDAT ?GetArraySize@PlaneOfBlocks@@QAEHH@Z
_TEXT	SEGMENT
_divideMode$ = 8					; size = 4
?GetArraySize@PlaneOfBlocks@@QAEHH@Z PROC		; PlaneOfBlocks::GetArraySize, COMDAT
; _this$ = ecx

; 570  :   int size = 0;
; 571  :   size += 1;              // mb data size storage
; 572  :   size += nBlkCount * N_PER_BLOCK;  // vectors, sad, luma src, luma ref, var

	mov	eax, DWORD PTR [ecx+16]
	lea	edx, DWORD PTR [eax*2+1]
	add	edx, eax

; 573  : 
; 574  :   if (nLogScale == 0)

	cmp	DWORD PTR [ecx+32], 0
	jne	SHORT $LN6@GetArraySi

; 575  :   {
; 576  :     if (divideMode)

	cmp	DWORD PTR _divideMode$[esp-4], 0
	je	SHORT $LN6@GetArraySi

; 577  :     {
; 578  :       size += 1 + nBlkCount * N_PER_BLOCK * 4; // reserve space for divided subblocks extra level

	lea	eax, DWORD PTR [eax+eax*2]
	lea	eax, DWORD PTR [eax*4+1]
	add	eax, edx

; 583  : }

	ret	4
$LN6@GetArraySi:

; 579  :     }
; 580  :   }
; 581  : 
; 582  :   return size;

	mov	eax, edx

; 583  : }

	ret	4
?GetArraySize@PlaneOfBlocks@@QAEHH@Z ENDP		; PlaneOfBlocks::GetArraySize
_TEXT	ENDS
; Function compile flags: /Ogtpy
; File c:\github\mvtools\sources\planeofblocks.cpp
; File c:\github\mvtools\sources\conc\interlocked.hpp
; File c:\github\mvtools\sources\planeofblocks.cpp
; File c:\github\mvtools\sources\conc\interlocked.hpp
; File c:\github\mvtools\sources\planeofblocks.cpp
;	COMDAT ?EstimateGlobalMVDoubled@PlaneOfBlocks@@QAEXPAUVECTOR@@AAV?$MTSlicer@VPlaneOfBlocks@@V1@$0EA@@@@Z
_TEXT	SEGMENT
_globalMVec$ = 8					; size = 4
_slicer$ = 12						; size = 4
?EstimateGlobalMVDoubled@PlaneOfBlocks@@QAEXPAUVECTOR@@AAV?$MTSlicer@VPlaneOfBlocks@@V1@$0EA@@@@Z PROC ; PlaneOfBlocks::EstimateGlobalMVDoubled, COMDAT
; _this$ = ecx
; File c:\github\mvtools\sources\conc\interlocked.hpp

; 49   : 	return (

	mov	edx, 2
; File c:\github\mvtools\sources\planeofblocks.cpp

; 1368 :   _gvect_result_count = 2;

	lea	eax, DWORD PTR [ecx+764]
; File c:\github\mvtools\sources\conc\interlocked.hpp

; 49   : 	return (

	xchg	DWORD PTR [eax], edx
; File c:\github\mvtools\sources\planeofblocks.cpp

; 1369 :   _gvect_estim_ptr = globalMVec;

	mov	eax, DWORD PTR _globalMVec$[esp-4]

; 1370 : 
; 1371 :   slicer.start(2, *this, &PlaneOfBlocks::estimate_global_mv_doubled_slice);

	push	1
	push	OFFSET ?estimate_global_mv_doubled_slice@PlaneOfBlocks@@AAEXAAVTaskData@?$MTSlicer@VPlaneOfBlocks@@V1@$0EA@@@@Z ; PlaneOfBlocks::estimate_global_mv_doubled_slice
	push	ecx
	mov	DWORD PTR [ecx+760], eax
	mov	ecx, DWORD PTR _slicer$[esp+8]
	push	2
	call	?start@?$MTSlicer@VPlaneOfBlocks@@V1@$0EA@@@QAEXHAAVPlaneOfBlocks@@P82@AEXAAVTaskData@1@@ZH@Z ; MTSlicer<PlaneOfBlocks,PlaneOfBlocks,64>::start

; 1372 : }

	ret	8
?EstimateGlobalMVDoubled@PlaneOfBlocks@@QAEXPAUVECTOR@@AAV?$MTSlicer@VPlaneOfBlocks@@V1@$0EA@@@@Z ENDP ; PlaneOfBlocks::EstimateGlobalMVDoubled
_TEXT	ENDS
; Function compile flags: /Ogtpy
; File c:\github\mvtools\sources\planeofblocks.cpp
; File c:\github\mvtools\sources\mvframe.h
; File c:\github\mvtools\sources\mvplane.h
; File c:\github\mvtools\sources\planeofblocks.cpp
; File c:\github\mvtools\sources\mvframe.h
; File c:\github\mvtools\sources\mvplane.h
; File c:\github\mvtools\sources\planeofblocks.cpp
; File c:\github\mvtools\sources\mvframe.h
; File c:\github\mvtools\sources\mvplane.h
; File c:\github\mvtools\sources\planeofblocks.cpp
; File c:\github\mvtools\sources\mvframe.h
; File c:\github\mvtools\sources\mvplane.h
; File c:\github\mvtools\sources\planeofblocks.cpp
; File c:\github\mvtools\sources\mvframe.h
; File c:\github\mvtools\sources\mvplane.h
; File c:\github\mvtools\sources\planeofblocks.cpp
; File c:\github\mvtools\sources\mvframe.h
; File c:\github\mvtools\sources\mvplane.h
; File c:\github\mvtools\sources\planeofblocks.cpp
; File c:\github\mvtools\sources\mtslicer.hpp
; File c:\github\mvtools\sources\planeofblocks.cpp
; File c:\github\mvtools\sources\mtslicer.hpp
; File c:\github\mvtools\sources\avstpwrapper.cpp
; File c:\github\mvtools\sources\mtslicer.hpp
; File c:\github\mvtools\sources\avstpwrapper.cpp
; File c:\github\mvtools\sources\mtslicer.hpp
; File c:\github\mvtools\sources\avstpwrapper.cpp
; File c:\github\mvtools\sources\mtslicer.hpp
; File c:\github\mvtools\sources\avstpwrapper.cpp
; File c:\github\mvtools\sources\mtslicer.hpp
; File c:\github\mvtools\sources\planeofblocks.cpp
;	COMDAT ?RecalculateMVs@PlaneOfBlocks@@QAEXAAVMVClip@@PAVMVFrame@@1W4SearchType@@HHHHHPAHPAFHHHH_N@Z
_TEXT	SEGMENT
_slicer$ = -1056					; size = 1044
__$EHRec$ = -12						; size = 12
_mvClip$ = 8						; size = 4
__pSrcFrame$ = 12					; size = 4
__pRefFrame$ = 16					; size = 4
_st$ = 20						; size = 4
_stp$ = 24						; size = 4
_lambda$ = 28						; size = 4
_lsad$ = 32						; size = 4
_pnew$ = 36						; size = 4
_flags$ = 40						; size = 4
_out$ = 44						; size = 4
_outfilebuf$ = 48					; size = 4
_fieldShift$ = 52					; size = 4
_thSAD$ = 56						; size = 4
_divideExtra$dead$ = 60					; size = 4
_smooth$ = 64						; size = 4
_meander$ = 68						; size = 1
?RecalculateMVs@PlaneOfBlocks@@QAEXAAVMVClip@@PAVMVFrame@@1W4SearchType@@HHHHHPAHPAFHHHH_N@Z PROC ; PlaneOfBlocks::RecalculateMVs, COMDAT
; _this$ = ecx

; 335  : {

	push	ebp
	mov	ebp, esp
	mov	eax, DWORD PTR fs:0
	push	-1
	push	__ehhandler$?RecalculateMVs@PlaneOfBlocks@@QAEXAAVMVClip@@PAVMVFrame@@1W4SearchType@@HHHHHPAHPAFHHHH_N@Z
	push	eax

; 340  :   zeroMVfieldShifted.y = fieldShift;

	mov	eax, DWORD PTR _fieldShift$[ebp]
	mov	DWORD PTR fs:0, esp
	sub	esp, 1044				; 00000414H
	push	esi
	mov	esi, ecx

; 361  : 
; 362  :   pSrcFrame = _pSrcFrame;

	mov	ecx, DWORD PTR __pSrcFrame$[ebp]
	push	edi

; 529  :   array[0] = nBlkCount * N_PER_BLOCK + 1;

	mov	edi, DWORD PTR _out$[ebp]

; 340  :   zeroMVfieldShifted.y = fieldShift;

	mov	DWORD PTR [esi+208], eax

; 348  :   _glob_mv_pred_def.y = fieldShift;

	mov	DWORD PTR [esi+284], eax

; 529  :   array[0] = nBlkCount * N_PER_BLOCK + 1;

	mov	eax, DWORD PTR [esi+16]

; 336  :   // -  -  -  -  -  -  -  -  -  -  -  -  -  -  -  -  -  -  -  -  -  -  -  -  -
; 337  :   // Frame- and plane-related data preparation
; 338  : 
; 339  :   zeroMVfieldShifted.x = 0;

	mov	DWORD PTR [esi+204], 0

; 341  :   zeroMVfieldShifted.sad = 0; // vs

	mov	DWORD PTR [esi+212], 0

; 342  : #ifdef ALLOW_DCT
; 343  :   dctweight16 = 8;//min(16,abs(*pmeanLumaChange)/(nBlkSizeX*nBlkSizeY)); //equal dct and spatial weights for meanLumaChange=8 (empirical)

	mov	DWORD PTR [esi+220], 8

; 529  :   array[0] = nBlkCount * N_PER_BLOCK + 1;

	lea	eax, DWORD PTR [eax+eax*2]

; 344  : #endif	// ALLOW_DCT
; 345  : 
; 346  :   // Actually the global predictor is not used in RecalculateMVs().
; 347  :   _glob_mv_pred_def.x = 0;

	mov	DWORD PTR [esi+280], 0

; 529  :   array[0] = nBlkCount * N_PER_BLOCK + 1;

	inc	eax

; 349  :   _glob_mv_pred_def.sad = 9999999; // P.F. will be good for floats, too

	mov	DWORD PTR [esi+288], 9999999		; 0098967fH

; 529  :   array[0] = nBlkCount * N_PER_BLOCK + 1;

	mov	DWORD PTR [edi], eax

; 350  : 
; 351  :   //	int nOutPitchY = nBlkX * (nBlkSizeX - nOverlapX) + nOverlapX;
; 352  :   //	int nOutPitchUV = (nBlkX * (nBlkSizeX - nOverlapX) + nOverlapX) / 2; // xRatioUV=2
; 353  :   //	char debugbuf[128];
; 354  :   //	wsprintf(debugbuf,"MVCOMP1: nOutPitchUV=%d, nOverlap=%d, nBlkX=%d, nBlkSize=%d",nOutPitchUV, nOverlap, nBlkX, nBlkSize);
; 355  :   //	OutputDebugString(debugbuf);
; 356  : 
; 357  :     // write the plane's header
; 358  :   WriteHeaderToArray(out);
; 359  : 
; 360  :   nFlags |= flags;

	mov	eax, DWORD PTR _flags$[ebp]
	or	DWORD PTR [esi+36], eax

; 363  :   pRefFrame = _pRefFrame;

	mov	eax, DWORD PTR __pRefFrame$[ebp]
	mov	DWORD PTR [esi+160], ecx
	mov	DWORD PTR [esi+164], eax
; File c:\github\mvtools\sources\mvframe.h

; 67   :          return pYPlane;

	mov	eax, DWORD PTR [ecx]
; File c:\github\mvtools\sources\mvplane.h

; 112  :    inline int GetPitch() const { return nPitch; }

	mov	eax, DWORD PTR [eax+12]
; File c:\github\mvtools\sources\planeofblocks.cpp

; 366  :   nSrcPitch_plane[0] = pSrcFrame->GetPlane(YPLANE)->GetPitch();

	mov	DWORD PTR [esi+192], eax

; 367  :   if (chroma)

	cmp	BYTE PTR [esi+122], 0
	je	SHORT $LN2@Recalculat
; File c:\github\mvtools\sources\mvframe.h

; 70   :          return pUPlane;

	mov	eax, DWORD PTR [ecx+4]
; File c:\github\mvtools\sources\mvplane.h

; 112  :    inline int GetPitch() const { return nPitch; }

	mov	eax, DWORD PTR [eax+12]
; File c:\github\mvtools\sources\planeofblocks.cpp

; 369  :     nSrcPitch_plane[1] = pSrcFrame->GetPlane(UPLANE)->GetPitch();

	mov	DWORD PTR [esi+196], eax
; File c:\github\mvtools\sources\mvframe.h

; 73   :          return pVPlane;

	mov	eax, DWORD PTR [ecx+8]
; File c:\github\mvtools\sources\mvplane.h

; 112  :    inline int GetPitch() const { return nPitch; }

	mov	eax, DWORD PTR [eax+12]
; File c:\github\mvtools\sources\planeofblocks.cpp

; 370  :     nSrcPitch_plane[2] = pSrcFrame->GetPlane(VPLANE)->GetPitch();

	mov	DWORD PTR [esi+200], eax
$LN2@Recalculat:

; 371  :   }
; 372  :   nSrcPitch[0] = pixelsize * nBlkSizeX;

	mov	eax, DWORD PTR [esi+8]
	imul	eax, DWORD PTR [esi+64]
	mov	DWORD PTR [esi+168], eax

; 373  :   nSrcPitch[1] = pixelsize * nBlkSizeX / xRatioUV; // PF after 2.7.0.22c

	mov	eax, DWORD PTR [esi+8]
	imul	eax, DWORD PTR [esi+64]
	cdq
	idiv	DWORD PTR [esi+48]
	mov	DWORD PTR [esi+172], eax

; 374  :   nSrcPitch[2] = pixelsize * nBlkSizeX / xRatioUV; // PF after 2.7.0.22c

	mov	eax, DWORD PTR [esi+8]
	imul	eax, DWORD PTR [esi+64]
	cdq
	idiv	DWORD PTR [esi+48]
	mov	DWORD PTR [esi+176], eax

; 383  :   nRefPitch[0] = pRefFrame->GetPlane(YPLANE)->GetPitch();

	mov	eax, DWORD PTR [esi+164]
; File c:\github\mvtools\sources\mvframe.h

; 67   :          return pYPlane;

	mov	eax, DWORD PTR [eax]
; File c:\github\mvtools\sources\mvplane.h

; 112  :    inline int GetPitch() const { return nPitch; }

	mov	eax, DWORD PTR [eax+12]
; File c:\github\mvtools\sources\planeofblocks.cpp

; 383  :   nRefPitch[0] = pRefFrame->GetPlane(YPLANE)->GetPitch();

	mov	DWORD PTR [esi+180], eax

; 384  :   if (chroma)

	cmp	BYTE PTR [esi+122], 0
	je	SHORT $LN3@Recalculat

; 386  :     nRefPitch[1] = pRefFrame->GetPlane(UPLANE)->GetPitch();

	mov	eax, DWORD PTR [esi+164]
; File c:\github\mvtools\sources\mvframe.h

; 70   :          return pUPlane;

	mov	eax, DWORD PTR [eax+4]
; File c:\github\mvtools\sources\mvplane.h

; 112  :    inline int GetPitch() const { return nPitch; }

	mov	eax, DWORD PTR [eax+12]
; File c:\github\mvtools\sources\planeofblocks.cpp

; 386  :     nRefPitch[1] = pRefFrame->GetPlane(UPLANE)->GetPitch();

	mov	DWORD PTR [esi+184], eax

; 387  :     nRefPitch[2] = pRefFrame->GetPlane(VPLANE)->GetPitch();

	mov	eax, DWORD PTR [esi+164]
; File c:\github\mvtools\sources\mvframe.h

; 73   :          return pVPlane;

	mov	eax, DWORD PTR [eax+8]
; File c:\github\mvtools\sources\mvplane.h

; 112  :    inline int GetPitch() const { return nPitch; }

	mov	eax, DWORD PTR [eax+12]
; File c:\github\mvtools\sources\planeofblocks.cpp

; 387  :     nRefPitch[2] = pRefFrame->GetPlane(VPLANE)->GetPitch();

	mov	DWORD PTR [esi+188], eax
$LN3@Recalculat:

; 388  :   }
; 389  : 
; 390  :   searchType = st;

	mov	eax, DWORD PTR _st$[ebp]

; 391  :   nSearchParam = stp;//*nPel; // v1.8.2 - redesigned in v1.8.5
; 392  : 
; 393  :   _lambda_level = lambda / (nPel * nPel);

	mov	ecx, DWORD PTR [esi+20]
	mov	DWORD PTR [esi+224], eax
	mov	eax, DWORD PTR _stp$[ebp]
	mov	DWORD PTR [esi+228], eax
	mov	eax, DWORD PTR _lambda$[ebp]
	imul	ecx, ecx
	cdq
	push	ebx

; 394  :   //	if (plevel==1)
; 395  :   //	{
; 396  :   //		_lambda_level *= nScale;// scale lambda - Fizick
; 397  :   //	}
; 398  :   //	else if (plevel==2)
; 399  :   //	{
; 400  :   //		_lambda_level *= nScale*nScale;
; 401  :   //	}
; 402  : 
; 403  :   planeSAD = 0;

	sub	esp, 8
	idiv	ecx
	lea	ecx, DWORD PTR [esi+264]
	mov	DWORD PTR [esi+292], eax
	call	??4?$AtomicInt@_J@conc@@QAEAAV01@_J@Z	; conc::AtomicInt<__int64>::operator=

; 404  :   sumLumaChange = 0;

	sub	esp, 8
	lea	ecx, DWORD PTR [esi+272]
	call	??4?$AtomicInt@_J@conc@@QAEAAV01@_J@Z	; conc::AtomicInt<__int64>::operator=

; 405  : 
; 406  :   _out = out;
; 407  :   _outfilebuf = outfilebuf;

	mov	eax, DWORD PTR _outfilebuf$[ebp]

; 417  :   Slicer			slicer(_mt_flag);

	mov	bl, BYTE PTR [esi+76]
	mov	DWORD PTR [esi+300], eax
	mov	al, BYTE PTR _meander$[ebp]
	mov	BYTE PTR [esi+308], al
	mov	eax, DWORD PTR _pnew$[ebp]
	mov	DWORD PTR [esi+312], eax
	mov	eax, DWORD PTR _lsad$[ebp]
	mov	DWORD PTR [esi+316], eax
	mov	eax, DWORD PTR _mvClip$[ebp]
	mov	DWORD PTR [esi+320], eax
	mov	eax, DWORD PTR _smooth$[ebp]
	mov	DWORD PTR [esi+324], eax
	mov	eax, DWORD PTR _thSAD$[ebp]
	mov	DWORD PTR [esi+296], edi
	mov	DWORD PTR [esi+328], eax
; File c:\github\mvtools\sources\mtslicer.hpp

; 70   : {

	mov	DWORD PTR _slicer$[ebp], OFFSET ??_7?$MTSlicer@VPlaneOfBlocks@@V1@$0EA@@@6B@

; 65   : :	_avstp (AvstpWrapper::use_instance ())

	call	?use_instance@AvstpWrapper@@SAAAV1@XZ	; AvstpWrapper::use_instance
	mov	DWORD PTR _slicer$[ebp+4], eax

; 66   : ,	_proc_ptr (0)
; 67   : ,	_dispatcher_ptr (0)
; 68   : ,	_task_data_arr ()

	lea	eax, DWORD PTR _slicer$[ebp+16]
	push	1024					; 00000400H
	push	0
	mov	DWORD PTR _slicer$[ebp+8], 0
	push	eax
	mov	DWORD PTR _slicer$[ebp+12], 0
	call	_memset
	add	esp, 12					; 0000000cH

; 69   : ,	_mt_flag (mt_flag)

	mov	BYTE PTR _slicer$[ebp+1040], bl
; File c:\github\mvtools\sources\planeofblocks.cpp

; 417  :   Slicer			slicer(_mt_flag);

	mov	DWORD PTR __$EHRec$[ebp+8], 0

; 418  :   if(pixelsize==8)
; 419  :     slicer.start(nBlkY, *this, &PlaneOfBlocks::recalculate_mv_slice<uint8_t>, 4);

	lea	ecx, DWORD PTR _slicer$[ebp]
	cmp	DWORD PTR [esi+64], 8
	pop	ebx
	push	4
	jne	SHORT $LN4@Recalculat
	push	OFFSET ??$recalculate_mv_slice@E@PlaneOfBlocks@@AAEXAAVTaskData@?$MTSlicer@VPlaneOfBlocks@@V1@$0EA@@@@Z ; PlaneOfBlocks::recalculate_mv_slice<unsigned char>

; 420  :   else

	jmp	SHORT $LN85@Recalculat
$LN4@Recalculat:

; 421  :     slicer.start(nBlkY, *this, &PlaneOfBlocks::recalculate_mv_slice<uint16_t>, 4);

	push	OFFSET ??$recalculate_mv_slice@G@PlaneOfBlocks@@AAEXAAVTaskData@?$MTSlicer@VPlaneOfBlocks@@V1@$0EA@@@@Z ; PlaneOfBlocks::recalculate_mv_slice<unsigned short>
$LN85@Recalculat:
	push	esi
	push	DWORD PTR [esi+4]
	call	?start@?$MTSlicer@VPlaneOfBlocks@@V1@$0EA@@@QAEXHAAVPlaneOfBlocks@@P82@AEXAAVTaskData@1@@ZH@Z ; MTSlicer<PlaneOfBlocks,PlaneOfBlocks,64>::start
; File c:\github\mvtools\sources\mtslicer.hpp

; 217  : 	if (_mt_flag)

	cmp	BYTE PTR _slicer$[ebp+1040], 0
	pop	edi
	pop	esi
	je	SHORT $LN67@Recalculat

; 218  : 	{
; 219  : 		assert (_dispatcher_ptr != 0);
; 220  : 
; 221  : 		_avstp.wait_completion (_dispatcher_ptr);

	mov	eax, DWORD PTR _slicer$[ebp+12]
; File c:\github\mvtools\sources\avstpwrapper.cpp

; 146  : 	return (_avstp_wait_completion_ptr (td_ptr));

	push	eax
	mov	eax, DWORD PTR _slicer$[ebp+4]
	mov	eax, DWORD PTR [eax+24]
	call	eax
; File c:\github\mvtools\sources\mtslicer.hpp

; 222  : 		_avstp.destroy_dispatcher (_dispatcher_ptr);

	mov	eax, DWORD PTR _slicer$[ebp+12]
; File c:\github\mvtools\sources\avstpwrapper.cpp

; 125  : 	_avstp_destroy_dispatcher_ptr (td_ptr);

	push	eax
	mov	eax, DWORD PTR _slicer$[ebp+4]
	mov	eax, DWORD PTR [eax+12]
	call	eax
	add	esp, 8
$LN67@Recalculat:
; File c:\github\mvtools\sources\mtslicer.hpp

; 225  : 	_proc_ptr = 0;

	mov	DWORD PTR _slicer$[ebp+8], 0

; 226  : 	_dispatcher_ptr = 0;

	mov	DWORD PTR _slicer$[ebp+12], 0

; 86   : {

	mov	DWORD PTR __$EHRec$[ebp+8], 1

; 87   : 	if (_dispatcher_ptr != 0)

	cmp	DWORD PTR _slicer$[ebp+12], 0
	mov	DWORD PTR _slicer$[ebp], OFFSET ??_7?$MTSlicer@VPlaneOfBlocks@@V1@$0EA@@@6B@
	je	SHORT $LN74@Recalculat

; 217  : 	if (_mt_flag)

	cmp	BYTE PTR _slicer$[ebp+1040], 0
	je	SHORT $LN78@Recalculat

; 218  : 	{
; 219  : 		assert (_dispatcher_ptr != 0);
; 220  : 
; 221  : 		_avstp.wait_completion (_dispatcher_ptr);

	mov	eax, DWORD PTR _slicer$[ebp+12]
; File c:\github\mvtools\sources\avstpwrapper.cpp

; 146  : 	return (_avstp_wait_completion_ptr (td_ptr));

	push	eax
	mov	eax, DWORD PTR _slicer$[ebp+4]
	mov	eax, DWORD PTR [eax+24]
	call	eax
; File c:\github\mvtools\sources\mtslicer.hpp

; 222  : 		_avstp.destroy_dispatcher (_dispatcher_ptr);

	mov	eax, DWORD PTR _slicer$[ebp+12]
; File c:\github\mvtools\sources\avstpwrapper.cpp

; 125  : 	_avstp_destroy_dispatcher_ptr (td_ptr);

	push	eax
	mov	eax, DWORD PTR _slicer$[ebp+4]
	mov	eax, DWORD PTR [eax+12]
	call	eax
	add	esp, 8
$LN78@Recalculat:
; File c:\github\mvtools\sources\mtslicer.hpp

; 225  : 	_proc_ptr = 0;

	mov	DWORD PTR _slicer$[ebp+8], 0

; 226  : 	_dispatcher_ptr = 0;

	mov	DWORD PTR _slicer$[ebp+12], 0
$LN74@Recalculat:
; File c:\github\mvtools\sources\planeofblocks.cpp

; 425  : }

	mov	ecx, DWORD PTR __$EHRec$[ebp]
	mov	DWORD PTR fs:0, ecx
	mov	esp, ebp
	pop	ebp
	ret	64					; 00000040H
_TEXT	ENDS
;	COMDAT text$x
text$x	SEGMENT
__unwindfunclet$?RecalculateMVs@PlaneOfBlocks@@QAEXAAVMVClip@@PAVMVFrame@@1W4SearchType@@HHHHHPAHPAFHHHH_N@Z$0:
	lea	ecx, DWORD PTR _slicer$[ebp]
	jmp	??1?$MTSlicer@VPlaneOfBlocks@@V1@$0EA@@@UAE@XZ ; MTSlicer<PlaneOfBlocks,PlaneOfBlocks,64>::~MTSlicer<PlaneOfBlocks,PlaneOfBlocks,64>
__unwindfunclet$?RecalculateMVs@PlaneOfBlocks@@QAEXAAVMVClip@@PAVMVFrame@@1W4SearchType@@HHHHHPAHPAFHHHH_N@Z$1:
	call	DWORD PTR __imp____std_terminate
	ret	0
__ehhandler$?RecalculateMVs@PlaneOfBlocks@@QAEXAAVMVClip@@PAVMVFrame@@1W4SearchType@@HHHHHPAHPAFHHHH_N@Z:
	mov	eax, OFFSET __ehfuncinfo$?RecalculateMVs@PlaneOfBlocks@@QAEXAAVMVClip@@PAVMVFrame@@1W4SearchType@@HHHHHPAHPAFHHHH_N@Z
	jmp	___CxxFrameHandler3
text$x	ENDS
?RecalculateMVs@PlaneOfBlocks@@QAEXAAVMVClip@@PAVMVFrame@@1W4SearchType@@HHHHHPAHPAFHHHH_N@Z ENDP ; PlaneOfBlocks::RecalculateMVs
; Function compile flags: /Ogtpy
; File c:\github\mvtools\sources\commonfunctions.h
;	COMDAT ?satz@@YAHH@Z
_TEXT	SEGMENT
?satz@@YAHH@Z PROC					; satz, COMDAT
; _a$ = ecx

; 7    : 	return ~(a >> (sizeof(int)*8 - 1)) & a;

	mov	eax, ecx
	sar	eax, 31					; 0000001fH
	not	eax
	and	eax, ecx

; 8    : }

	ret	0
?satz@@YAHH@Z ENDP					; satz
_TEXT	ENDS
; Function compile flags: /Ogtpy
; File c:\github\mvtools\sources\commonfunctions.h
;	COMDAT ?ilog2@@YAHH@Z
_TEXT	SEGMENT
?ilog2@@YAHH@Z PROC					; ilog2, COMDAT
; _i$ = ecx

; 24   : {

	mov	eax, ecx

; 25   : 	int result = 0;

	xor	ecx, ecx

; 26   : 	while ( i > 1 ) { i /= 2; result++; }

	cmp	eax, 1
	jle	SHORT $LN9@ilog2
	npad	7
$LL2@ilog2:
	cdq
	inc	ecx
	sub	eax, edx
	sar	eax, 1
	cmp	eax, 1
	jg	SHORT $LL2@ilog2
$LN9@ilog2:

; 27   : 	return result;

	mov	eax, ecx

; 28   : }

	ret	0
?ilog2@@YAHH@Z ENDP					; ilog2
_TEXT	ENDS
; Function compile flags: /Ogtpy
; File c:\github\mvtools\sources\commonfunctions.h
;	COMDAT ?iexp2@@YAHH@Z
_TEXT	SEGMENT
?iexp2@@YAHH@Z PROC					; iexp2, COMDAT
; _i$ = ecx

; 7    : 	return ~(a >> (sizeof(int)*8 - 1)) & a;

	mov	edx, ecx

; 33   : 	return 1 << satz(i);

	mov	eax, 1

; 7    : 	return ~(a >> (sizeof(int)*8 - 1)) & a;

	sar	edx, 31					; 0000001fH
	not	edx
	and	ecx, edx

; 33   : 	return 1 << satz(i);

	shl	eax, cl

; 34   : // 	int result = 1;
; 35   : // 	while ( i > 0 ) { result *= 2; i--; }
; 36   : // 	return result;
; 37   : }

	ret	0
?iexp2@@YAHH@Z ENDP					; iexp2
_TEXT	ENDS
; Function compile flags: /Ogtpy
; File c:\github\mvtools\sources\debugprintf.h
;	COMDAT ?DebugPrintf@@YAXPADZZ
_TEXT	SEGMENT
_fmt$ = 8						; size = 4
?DebugPrintf@@YAXPADZZ PROC				; DebugPrintf, COMDAT

; 52   :   __noop(fmt); 	// Nothing
; 53   : }

	ret	0
?DebugPrintf@@YAXPADZZ ENDP				; DebugPrintf
_TEXT	ENDS
; Function compile flags: /Ogtpy
; File c:\github\mvtools\sources\fakeplaneofblocks.h
;	COMDAT ?GetReducedWidth@FakePlaneOfBlocks@@QBEHXZ
_TEXT	SEGMENT
?GetReducedWidth@FakePlaneOfBlocks@@QBEHXZ PROC		; FakePlaneOfBlocks::GetReducedWidth, COMDAT
; _this$ = ecx

; 64   : 	inline int GetReducedWidth() const { return nBlkX; }

	mov	eax, DWORD PTR [ecx+8]
	ret	0
?GetReducedWidth@FakePlaneOfBlocks@@QBEHXZ ENDP		; FakePlaneOfBlocks::GetReducedWidth
_TEXT	ENDS
; Function compile flags: /Ogtpy
; File c:\github\mvtools\sources\fakeplaneofblocks.h
;	COMDAT ?GetReducedHeight@FakePlaneOfBlocks@@QBEHXZ
_TEXT	SEGMENT
?GetReducedHeight@FakePlaneOfBlocks@@QBEHXZ PROC	; FakePlaneOfBlocks::GetReducedHeight, COMDAT
; _this$ = ecx

; 65   : 	inline int GetReducedHeight() const { return nBlkY; }

	mov	eax, DWORD PTR [ecx+12]
	ret	0
?GetReducedHeight@FakePlaneOfBlocks@@QBEHXZ ENDP	; FakePlaneOfBlocks::GetReducedHeight
_TEXT	ENDS
; Function compile flags: /Ogtpy
; File c:\github\mvtools\sources\mvframe.h
;	COMDAT ?GetMode@MVFrame@@QAEHXZ
_TEXT	SEGMENT
?GetMode@MVFrame@@QAEHXZ PROC				; MVFrame::GetMode, COMDAT
; _this$ = ecx

; 78   :    inline int GetMode() { return nMode; }

	mov	eax, DWORD PTR [ecx+12]
	ret	0
?GetMode@MVFrame@@QAEHXZ ENDP				; MVFrame::GetMode
_TEXT	ENDS
; Function compile flags: /Ogtpy
; File c:\github\mvtools\sources\conc\atomicmem.hpp
; File c:\github\mvtools\sources\conc\interlocked.hpp
; File c:\github\mvtools\sources\conc\atomicmem.hpp
;	COMDAT ?swap@?$AtomicMem@$02@conc@@SA_JAC_J_J@Z
_TEXT	SEGMENT
_excg$ = -24						; size = 8
_old$1 = -16						; size = 8
_dest$ = -4						; size = 4
_excg$dead$ = 8						; size = 8
?swap@?$AtomicMem@$02@conc@@SA_JAC_J_J@Z PROC		; conc::AtomicMem<3>::swap, COMDAT
; _dest$ = ecx

; 60   : {

	push	ebp
	mov	ebp, esp
	sub	esp, 24					; 00000018H
	push	ebx
	xorps	xmm0, xmm0
	mov	DWORD PTR _dest$[ebp], ecx
	push	esi
	movlpd	QWORD PTR _excg$[ebp], xmm0
; File c:\github\mvtools\sources\conc\interlocked.hpp

; 83   : 		push				ebx

	push	ebx

; 84   : 		mov				esi, [dest]

	mov	esi, DWORD PTR _dest$[ebp]

; 85   : 		mov				ebx, [dword ptr excg    ]

	mov	ebx, DWORD PTR _excg$[ebp]

; 86   : 		mov				ecx, [dword ptr excg + 4]

	mov	ecx, DWORD PTR _excg$[ebp+4]
$cas_loop$6:

; 87   : 
; 88   : 	cas_loop:
; 89   : 		mov				eax, [esi    ]

	mov	eax, DWORD PTR [esi]

; 90   : 		mov				edx, [esi + 4]

	mov	edx, DWORD PTR [esi+4]

; 91   : 		lock cmpxchg8b	[esi]

	lock	 cmpxchg8b QWORD PTR [esi]

; 92   : 		jnz				cas_loop

	jne	SHORT $cas_loop$6

; 93   : 
; 94   : 		mov				[dword ptr old    ], eax

	mov	DWORD PTR _old$1[ebp], eax

; 95   : 		mov				[dword ptr old + 4], edx

	mov	DWORD PTR _old$1[ebp+4], edx

; 96   : 		pop				ebx

	pop	ebx
; File c:\github\mvtools\sources\conc\atomicmem.hpp

; 61   : 	return (Interlocked::swap (dest, excg));

	mov	eax, DWORD PTR _old$1[ebp]
	mov	edx, DWORD PTR _old$1[ebp+4]

; 62   : }

	pop	esi
	pop	ebx
	mov	esp, ebp
	pop	ebp
	ret	0
?swap@?$AtomicMem@$02@conc@@SA_JAC_J_J@Z ENDP		; conc::AtomicMem<3>::swap
_TEXT	ENDS
; Function compile flags: /Ogtpy
; File c:\github\mvtools\sources\conc\atomicmem.hpp
; File c:\github\mvtools\sources\conc\interlocked.hpp
; File c:\github\mvtools\sources\conc\atomicmem.hpp
; File c:\github\mvtools\sources\conc\interlocked.hpp
; File c:\github\mvtools\sources\conc\atomicmem.hpp
;	COMDAT ?cas@?$AtomicMem@$02@conc@@SA_JAC_J_J1@Z
_TEXT	SEGMENT
_excg$ = 8						; size = 8
_comp$ = 16						; size = 8
?cas@?$AtomicMem@$02@conc@@SA_JAC_J_J1@Z PROC		; conc::AtomicMem<3>::cas, COMDAT
; _dest$ = ecx
; File c:\github\mvtools\sources\conc\interlocked.hpp

; 110  : 	return (_InterlockedCompareExchange64 (&dest, excg, comp));

	mov	eax, DWORD PTR _comp$[esp-4]
	mov	edx, DWORD PTR _comp$[esp]
; File c:\github\mvtools\sources\conc\atomicmem.hpp

; 67   : {

	push	ebx
	push	esi
	mov	esi, ecx
; File c:\github\mvtools\sources\conc\interlocked.hpp

; 110  : 	return (_InterlockedCompareExchange64 (&dest, excg, comp));

	mov	ecx, DWORD PTR _excg$[esp+8]
	mov	ebx, DWORD PTR _excg$[esp+4]
	lock	 cmpxchg8b QWORD PTR [esi]
; File c:\github\mvtools\sources\conc\atomicmem.hpp

; 69   : }

	pop	esi
	pop	ebx
	ret	0
?cas@?$AtomicMem@$02@conc@@SA_JAC_J_J1@Z ENDP		; conc::AtomicMem<3>::cas
_TEXT	ENDS
; Function compile flags: /Ogtpy
; File c:\github\mvtools\sources\mvplane.h
;	COMDAT ?GetAbsolutePelPointer@MVPlane@@QBEPBEHH@Z
_TEXT	SEGMENT
_nX$ = 8						; size = 4
_nY$ = 12						; size = 4
?GetAbsolutePelPointer@MVPlane@@QBEPBEHH@Z PROC		; MVPlane::GetAbsolutePelPointer, COMDAT
; _this$ = ecx

; 109  : 		return pPlane[0] + (nX << pixelsize_shift) + nY * nPitch;

	mov	eax, DWORD PTR _nX$[esp-4]
	push	esi
	mov	esi, ecx
	mov	edx, DWORD PTR [esi+12]
	mov	ecx, DWORD PTR [esi+52]
	imul	edx, DWORD PTR _nY$[esp]
	shl	eax, cl
	mov	ecx, DWORD PTR [esi]
	pop	esi
	add	eax, edx
	add	eax, DWORD PTR [ecx]

; 110  : 	}

	ret	8
?GetAbsolutePelPointer@MVPlane@@QBEPBEHH@Z ENDP		; MVPlane::GetAbsolutePelPointer
_TEXT	ENDS
; Function compile flags: /Ogtpy
; File c:\github\mvtools\sources\mvplane.h
;	COMDAT ?GetHPadding@MVPlane@@QBEHXZ
_TEXT	SEGMENT
?GetHPadding@MVPlane@@QBEHXZ PROC			; MVPlane::GetHPadding, COMDAT
; _this$ = ecx

; 117  :    inline int GetHPadding() const { return nHPadding; }

	mov	eax, DWORD PTR [ecx+16]
	ret	0
?GetHPadding@MVPlane@@QBEHXZ ENDP			; MVPlane::GetHPadding
_TEXT	ENDS
; Function compile flags: /Ogtpy
; File c:\github\mvtools\sources\mvplane.h
;	COMDAT ?GetVPadding@MVPlane@@QBEHXZ
_TEXT	SEGMENT
?GetVPadding@MVPlane@@QBEHXZ PROC			; MVPlane::GetVPadding, COMDAT
; _this$ = ecx

; 118  :    inline int GetVPadding() const { return nVPadding; }

	mov	eax, DWORD PTR [ecx+20]
	ret	0
?GetVPadding@MVPlane@@QBEHXZ ENDP			; MVPlane::GetVPadding
_TEXT	ENDS
; Function compile flags: /Ogtpy
;	COMDAT ??0?$Array@V?$vector@HV?$allocator@H@std@@@std@@$01@conc@@QAE@XZ
_TEXT	SEGMENT
__$EHRec$ = -12						; size = 12
??0?$Array@V?$vector@HV?$allocator@H@std@@@std@@$01@conc@@QAE@XZ PROC ; conc::Array<std::vector<int,std::allocator<int> >,2>::Array<std::vector<int,std::allocator<int> >,2>, COMDAT
; _this$ = ecx
	push	ebp
	mov	ebp, esp
	mov	eax, DWORD PTR fs:0
	push	-1
	push	__ehhandler$??0?$Array@V?$vector@HV?$allocator@H@std@@@std@@$01@conc@@QAE@XZ
	push	eax
	mov	DWORD PTR fs:0, esp
	push	esi
	push	OFFSET ??1?$vector@HV?$allocator@H@std@@@std@@QAE@XZ ; std::vector<int,std::allocator<int> >::~vector<int,std::allocator<int> >
	push	OFFSET ??0?$vector@HV?$allocator@H@std@@@std@@QAE@XZ ; std::vector<int,std::allocator<int> >::vector<int,std::allocator<int> >
	push	2
	mov	esi, ecx
	push	12					; 0000000cH
	push	esi
	call	??_L@YGXPAXIIP6EX0@Z1@Z
	mov	ecx, DWORD PTR __$EHRec$[ebp]
	mov	eax, esi
	mov	DWORD PTR fs:0, ecx
	pop	esi
	mov	esp, ebp
	pop	ebp
	ret	0
_TEXT	ENDS
;	COMDAT text$x
text$x	SEGMENT
__ehhandler$??0?$Array@V?$vector@HV?$allocator@H@std@@@std@@$01@conc@@QAE@XZ:
	mov	eax, OFFSET __ehfuncinfo$??0?$Array@V?$vector@HV?$allocator@H@std@@@std@@$01@conc@@QAE@XZ
	jmp	___CxxFrameHandler3
text$x	ENDS
??0?$Array@V?$vector@HV?$allocator@H@std@@@std@@$01@conc@@QAE@XZ ENDP ; conc::Array<std::vector<int,std::allocator<int> >,2>::Array<std::vector<int,std::allocator<int> >,2>
; Function compile flags: /Ogtpy
;	COMDAT ??1?$Array@V?$vector@HV?$allocator@H@std@@@std@@$01@conc@@QAE@XZ
_TEXT	SEGMENT
__$EHRec$ = -12						; size = 12
??1?$Array@V?$vector@HV?$allocator@H@std@@@std@@$01@conc@@QAE@XZ PROC ; conc::Array<std::vector<int,std::allocator<int> >,2>::~Array<std::vector<int,std::allocator<int> >,2>, COMDAT
; _this$ = ecx
	push	ebp
	mov	ebp, esp
	mov	eax, DWORD PTR fs:0
	push	-1
	push	__ehhandler$??1?$Array@V?$vector@HV?$allocator@H@std@@@std@@$01@conc@@QAE@XZ
	push	eax
	mov	DWORD PTR fs:0, esp
	push	OFFSET ??1?$vector@HV?$allocator@H@std@@@std@@QAE@XZ ; std::vector<int,std::allocator<int> >::~vector<int,std::allocator<int> >
	push	2
	push	12					; 0000000cH
	push	ecx
	call	??_M@YGXPAXIIP6EX0@Z@Z
	mov	ecx, DWORD PTR __$EHRec$[ebp]
	mov	DWORD PTR fs:0, ecx
	mov	esp, ebp
	pop	ebp
	ret	0
_TEXT	ENDS
;	COMDAT text$x
text$x	SEGMENT
__ehhandler$??1?$Array@V?$vector@HV?$allocator@H@std@@@std@@$01@conc@@QAE@XZ:
	mov	eax, OFFSET __ehfuncinfo$??1?$Array@V?$vector@HV?$allocator@H@std@@@std@@$01@conc@@QAE@XZ
	jmp	___CxxFrameHandler3
text$x	ENDS
??1?$Array@V?$vector@HV?$allocator@H@std@@@std@@$01@conc@@QAE@XZ ENDP ; conc::Array<std::vector<int,std::allocator<int> >,2>::~Array<std::vector<int,std::allocator<int> >,2>
; Function compile flags: /Ogtpy
; File c:\github\mvtools\sources\conc\objfactoryinterface.h
;	COMDAT ??1WorkingAreaFactory@PlaneOfBlocks@@UAE@XZ
_TEXT	SEGMENT
??1WorkingAreaFactory@PlaneOfBlocks@@UAE@XZ PROC	; PlaneOfBlocks::WorkingAreaFactory::~WorkingAreaFactory, COMDAT
; _this$ = ecx

; 47   : 	virtual			~ObjFactoryInterface () {}

	mov	DWORD PTR [ecx], OFFSET ??_7?$ObjFactoryInterface@VWorkingArea@PlaneOfBlocks@@@conc@@6B@
	ret	0
??1WorkingAreaFactory@PlaneOfBlocks@@UAE@XZ ENDP	; PlaneOfBlocks::WorkingAreaFactory::~WorkingAreaFactory
_TEXT	ENDS
; Function compile flags: /Ogtpy
; File c:\github\mvtools\sources\planeofblocks.cpp
;	COMDAT ?WriteHeaderToArray@PlaneOfBlocks@@QAEXPAH@Z
_TEXT	SEGMENT
_array$ = 8						; size = 4
?WriteHeaderToArray@PlaneOfBlocks@@QAEXPAH@Z PROC	; PlaneOfBlocks::WriteHeaderToArray, COMDAT
; _this$ = ecx

; 529  :   array[0] = nBlkCount * N_PER_BLOCK + 1;

	mov	eax, DWORD PTR [ecx+16]
	lea	ecx, DWORD PTR [eax*2+1]
	add	ecx, eax
	mov	eax, DWORD PTR _array$[esp-4]
	mov	DWORD PTR [eax], ecx

; 530  : }

	ret	4
?WriteHeaderToArray@PlaneOfBlocks@@QAEXPAH@Z ENDP	; PlaneOfBlocks::WriteHeaderToArray
_TEXT	ENDS
; Function compile flags: /Ogtpy
; File c:\github\mvtools\sources\planeofblocks.cpp
;	COMDAT ?Refine@PlaneOfBlocks@@AAEXAAVWorkingArea@1@@Z
_TEXT	SEGMENT
_mvy$1$ = -4						; size = 4
_mvx$1$ = -4						; size = 4
_mvx$1$ = 8						; size = 4
_mvy$1$ = 8						; size = 4
_mvy$1$ = 8						; size = 4
_workarea$ = 8						; size = 4
?Refine@PlaneOfBlocks@@AAEXAAVWorkingArea@1@@Z PROC	; PlaneOfBlocks::Refine, COMDAT
; _this$ = ecx

; 674  : {

	push	ecx
	push	ebx
	push	ebp
	push	esi
	mov	esi, ecx
	push	edi

; 675  :   // then, we refine, according to the search type
; 676  :   if (searchType & ONETIME)

	mov	edi, DWORD PTR _workarea$[esp+16]
	test	BYTE PTR [esi+224], 1
	je	SHORT $LN3@Refine

; 677  :   {
; 678  :     for (int i = nSearchParam; i > 0; i /= 2)

	mov	ebx, DWORD PTR [esi+228]
	test	ebx, ebx
	jle	SHORT $LN3@Refine
	npad	2
$LL4@Refine:

; 679  :     {
; 680  :       OneTimeSearch(workarea, i);

	push	ebx
	push	edi
	mov	ecx, esi
	call	?OneTimeSearch@PlaneOfBlocks@@AAEXAAVWorkingArea@1@H@Z ; PlaneOfBlocks::OneTimeSearch
	mov	eax, ebx
	cdq
	sub	eax, edx
	mov	ebx, eax
	sar	ebx, 1
	test	ebx, ebx
	jg	SHORT $LL4@Refine
$LN3@Refine:

; 681  :     }
; 682  :   }
; 683  : 
; 684  :   if (searchType & NSTEP)

	test	BYTE PTR [esi+224], 2
	je	SHORT $LN18@Refine

; 685  :   {
; 686  :     NStepSearch(workarea, nSearchParam);

	push	DWORD PTR [esi+228]
	mov	ecx, esi
	push	edi
	call	?NStepSearch@PlaneOfBlocks@@AAEXAAVWorkingArea@1@H@Z ; PlaneOfBlocks::NStepSearch
$LN18@Refine:

; 687  :   }
; 688  : 
; 689  :   if (searchType & LOGARITHMIC)

	test	BYTE PTR [esi+224], 4
	je	SHORT $LN6@Refine

; 690  :   {
; 691  :     for (int i = nSearchParam; i > 0; i /= 2)

	mov	ebx, DWORD PTR [esi+228]
	test	ebx, ebx
	jle	SHORT $LN6@Refine
$LL7@Refine:

; 692  :     {
; 693  :       DiamondSearch(workarea, i);

	push	ebx
	push	edi
	mov	ecx, esi
	call	?DiamondSearch@PlaneOfBlocks@@AAEXAAVWorkingArea@1@H@Z ; PlaneOfBlocks::DiamondSearch
	mov	eax, ebx
	cdq
	sub	eax, edx
	mov	ebx, eax
	sar	ebx, 1
	test	ebx, ebx
	jg	SHORT $LL7@Refine
$LN6@Refine:

; 694  :     }
; 695  :   }
; 696  : 
; 697  :   if (searchType & EXHAUSTIVE)

	test	BYTE PTR [esi+224], 8
	je	SHORT $LN9@Refine

; 698  :   {
; 699  :     //		ExhaustiveSearch(nSearchParam);
; 700  :     int mvx = workarea.bestMV.x;
; 701  :     int mvy = workarea.bestMV.y;

	mov	eax, DWORD PTR [edi+104]

; 702  :     for (int i = 1; i <= nSearchParam; i++)// region is same as exhaustive, but ordered by radius (from near to far)

	mov	ebx, 1
	mov	ebp, DWORD PTR [edi+100]
	mov	DWORD PTR _mvy$1$[esp+16], eax
	cmp	DWORD PTR [esi+228], ebx
	jl	SHORT $LN9@Refine
$LL10@Refine:

; 703  :     {
; 704  :       ExpandingSearch(workarea, i, 1, mvx, mvy);

	push	eax
	push	ebp
	push	1
	push	ebx
	push	edi
	mov	ecx, esi
	call	?ExpandingSearch@PlaneOfBlocks@@AAEXAAVWorkingArea@1@HHHH@Z ; PlaneOfBlocks::ExpandingSearch
	mov	eax, DWORD PTR _mvy$1$[esp+16]
	inc	ebx
	cmp	ebx, DWORD PTR [esi+228]
	jle	SHORT $LL10@Refine
$LN9@Refine:

; 705  :     }
; 706  :   }
; 707  : 
; 708  :   //	if ( searchType & SQUARE )
; 709  :   //	{
; 710  :   //		SquareSearch();
; 711  :   //	}
; 712  : 
; 713  :   if (searchType & HEX2SEARCH)

	test	BYTE PTR [esi+224], 16			; 00000010H
	je	SHORT $LN21@Refine

; 714  :   {
; 715  :     Hex2Search(workarea, nSearchParam);

	push	DWORD PTR [esi+228]
	mov	ecx, esi
	push	edi
	call	?Hex2Search@PlaneOfBlocks@@AAEXAAVWorkingArea@1@H@Z ; PlaneOfBlocks::Hex2Search
$LN21@Refine:

; 716  :   }
; 717  : 
; 718  :   if (searchType & UMHSEARCH)

	test	BYTE PTR [esi+224], 32			; 00000020H
	je	SHORT $LN22@Refine

; 719  :   {
; 720  :     UMHSearch(workarea, nSearchParam, workarea.bestMV.x, workarea.bestMV.y);

	push	DWORD PTR [edi+104]
	mov	ecx, esi
	push	DWORD PTR [edi+100]
	push	DWORD PTR [esi+228]
	push	edi
	call	?UMHSearch@PlaneOfBlocks@@AAEXAAVWorkingArea@1@HHH@Z ; PlaneOfBlocks::UMHSearch
$LN22@Refine:

; 721  :   }
; 722  : 
; 723  :   if (searchType & HSEARCH)

	test	BYTE PTR [esi+224], 64			; 00000040H
	je	SHORT $LN12@Refine

; 724  :   {
; 725  :     int mvx = workarea.bestMV.x;

	mov	ecx, DWORD PTR [edi+100]

; 726  :     int mvy = workarea.bestMV.y;
; 727  :     for (int i = 1; i <= nSearchParam; i++)// region is same as exhaustive, but ordered by radius (from near to far)

	mov	ebx, 1
	mov	eax, DWORD PTR [edi+104]
	mov	DWORD PTR _mvx$1$[esp+20], ecx
	mov	DWORD PTR _mvy$1$[esp+16], eax
	cmp	DWORD PTR [esi+228], ebx
	jl	SHORT $LN12@Refine

; 724  :   {
; 725  :     int mvx = workarea.bestMV.x;

	lea	ebp, DWORD PTR [ecx-1]
	npad	5
$LL13@Refine:

; 728  :     {
; 729  :       CheckMV(workarea, mvx - i, mvy);

	push	eax
	push	ebp
	push	edi
	mov	ecx, esi
	call	?CheckMV@PlaneOfBlocks@@AAEXAAVWorkingArea@1@HH@Z ; PlaneOfBlocks::CheckMV

; 730  :       CheckMV(workarea, mvx + i, mvy);

	push	DWORD PTR _mvy$1$[esp+16]
	mov	eax, DWORD PTR _mvx$1$[esp+24]
	mov	ecx, esi
	add	eax, ebx
	push	eax
	push	edi
	call	?CheckMV@PlaneOfBlocks@@AAEXAAVWorkingArea@1@HH@Z ; PlaneOfBlocks::CheckMV
	mov	eax, DWORD PTR _mvy$1$[esp+16]
	inc	ebx
	dec	ebp
	cmp	ebx, DWORD PTR [esi+228]
	jle	SHORT $LL13@Refine
$LN12@Refine:

; 731  :     }
; 732  :   }
; 733  : 
; 734  :   if (searchType & VSEARCH)

	test	BYTE PTR [esi+224], 128			; 00000080H
	je	SHORT $LN15@Refine

; 735  :   {
; 736  :     int mvx = workarea.bestMV.x;

	mov	eax, DWORD PTR [edi+100]

; 737  :     int mvy = workarea.bestMV.y;
; 738  :     for (int i = 1; i <= nSearchParam; i++)// region is same as exhaustive, but ordered by radius (from near to far)

	mov	ebx, 1
	mov	ecx, DWORD PTR [edi+104]
	mov	DWORD PTR _mvx$1$[esp+16], eax
	mov	DWORD PTR _mvy$1$[esp+20], ecx
	cmp	DWORD PTR [esi+228], ebx
	jl	SHORT $LN15@Refine

; 735  :   {
; 736  :     int mvx = workarea.bestMV.x;

	lea	ebp, DWORD PTR [ecx-1]
$LL16@Refine:

; 739  :     {
; 740  :       CheckMV(workarea, mvx, mvy - i);

	push	ebp
	push	eax
	push	edi
	mov	ecx, esi
	call	?CheckMV@PlaneOfBlocks@@AAEXAAVWorkingArea@1@HH@Z ; PlaneOfBlocks::CheckMV

; 741  :       CheckMV(workarea, mvx, mvy + i);

	mov	eax, DWORD PTR _mvy$1$[esp+20]
	mov	ecx, esi
	add	eax, ebx
	push	eax
	push	DWORD PTR _mvx$1$[esp+20]
	push	edi
	call	?CheckMV@PlaneOfBlocks@@AAEXAAVWorkingArea@1@HH@Z ; PlaneOfBlocks::CheckMV
	mov	eax, DWORD PTR _mvx$1$[esp+16]
	inc	ebx
	dec	ebp
	cmp	ebx, DWORD PTR [esi+228]
	jle	SHORT $LL16@Refine
$LN15@Refine:
	pop	edi
	pop	esi
	pop	ebp
	pop	ebx

; 742  :     }
; 743  :   }
; 744  : }

	pop	ecx
	ret	4
?Refine@PlaneOfBlocks@@AAEXAAVWorkingArea@1@@Z ENDP	; PlaneOfBlocks::Refine
_TEXT	ENDS
; Function compile flags: /Ogtpy
; File c:\github\mvtools\sources\planeofblocks.cpp
;	COMDAT ?DiamondSearch@PlaneOfBlocks@@AAEXAAVWorkingArea@1@H@Z
_TEXT	SEGMENT
_dx$2$ = -12						; size = 4
_this$1$ = -8						; size = 4
_lastDirection$1$ = -4					; size = 4
_direction$ = 8						; size = 4
_workarea$ = 8						; size = 4
_dy$2$ = 12						; size = 4
_dy$1$ = 12						; size = 4
_length$ = 12						; size = 4
?DiamondSearch@PlaneOfBlocks@@AAEXAAVWorkingArea@1@H@Z PROC ; PlaneOfBlocks::DiamondSearch, COMDAT
; _this$ = ecx

; 979  : {

	sub	esp, 12					; 0000000cH
	push	ebx
	mov	ebx, DWORD PTR _workarea$[esp+12]
	push	ebp

; 980  :   // The meaning of the directions are the following :
; 981  :   //		* 1 means right
; 982  :   //		* 2 means left
; 983  :   //		* 4 means down
; 984  :   //		* 8 means up
; 985  :   // So 1 + 4 means down right, and so on...
; 986  : 
; 987  :   int dx;
; 988  :   int dy;
; 989  : 
; 990  :   // We begin by making no assumption on which direction to search.
; 991  :   int direction = 15;

	mov	ebp, DWORD PTR _length$[esp+16]
	push	esi
	push	edi
	mov	edi, ecx
	mov	ecx, 15					; 0000000fH
	mov	DWORD PTR _this$1$[esp+28], edi
	mov	DWORD PTR _lastDirection$1$[esp+28], ecx
	npad	2
$LL2@DiamondSea:

; 992  : 
; 993  :   int lastDirection;
; 994  : 
; 995  :   while (direction > 0)
; 996  :   {
; 997  :     dx = workarea.bestMV.x;

	mov	esi, DWORD PTR [ebx+100]

; 998  :     dy = workarea.bestMV.y;

	mov	eax, DWORD PTR [ebx+104]
	mov	DWORD PTR _dx$2$[esp+28], esi
	mov	DWORD PTR _dy$2$[esp+24], eax

; 999  :     lastDirection = direction;
; 1000 :     direction = 0;

	mov	DWORD PTR _direction$[esp+24], 0

; 1001 : 
; 1002 :     // First, we look the directions that were hinted by the previous step
; 1003 :     // of the algorithm. If we find one, we add it to the set of directions
; 1004 :     // we'll test next
; 1005 :     if (lastDirection & 1) CheckMV2(workarea, dx + length, dy, &direction, 1);

	test	cl, 1
	je	SHORT $LN6@DiamondSea
	push	1
	lea	ecx, DWORD PTR _direction$[esp+28]
	push	ecx
	push	eax
	lea	eax, DWORD PTR [esi+ebp]
	mov	ecx, edi
	push	eax
	push	ebx
	call	?CheckMV2@PlaneOfBlocks@@AAEXAAVWorkingArea@1@HHPAHH@Z ; PlaneOfBlocks::CheckMV2
	mov	eax, DWORD PTR _dy$2$[esp+24]
	mov	ecx, DWORD PTR _lastDirection$1$[esp+28]
$LN6@DiamondSea:

; 1006 :     if (lastDirection & 2) CheckMV2(workarea, dx - length, dy, &direction, 2);

	test	cl, 2
	je	SHORT $LN7@DiamondSea
	push	2
	lea	ecx, DWORD PTR _direction$[esp+28]
	push	ecx
	push	eax
	mov	eax, esi
	mov	ecx, edi
	sub	eax, ebp
	push	eax
	push	ebx
	call	?CheckMV2@PlaneOfBlocks@@AAEXAAVWorkingArea@1@HHPAHH@Z ; PlaneOfBlocks::CheckMV2
	mov	ecx, DWORD PTR _lastDirection$1$[esp+28]
$LN7@DiamondSea:

; 1007 :     if (lastDirection & 4) CheckMV2(workarea, dx, dy + length, &direction, 4);

	test	cl, 4
	je	SHORT $LN8@DiamondSea
	push	4
	lea	eax, DWORD PTR _direction$[esp+28]
	mov	ecx, edi
	push	eax
	mov	eax, DWORD PTR _dy$2$[esp+32]
	add	eax, ebp
	push	eax
	push	esi
	push	ebx
	call	?CheckMV2@PlaneOfBlocks@@AAEXAAVWorkingArea@1@HHPAHH@Z ; PlaneOfBlocks::CheckMV2
	mov	ecx, DWORD PTR _lastDirection$1$[esp+28]
$LN8@DiamondSea:

; 1008 :     if (lastDirection & 8) CheckMV2(workarea, dx, dy - length, &direction, 8);

	test	cl, 8
	je	SHORT $LN9@DiamondSea
	push	8
	lea	eax, DWORD PTR _direction$[esp+28]
	mov	ecx, edi
	push	eax
	mov	eax, DWORD PTR _dy$2$[esp+32]
	sub	eax, ebp
	push	eax
	push	esi
	push	ebx
	call	?CheckMV2@PlaneOfBlocks@@AAEXAAVWorkingArea@1@HHPAHH@Z ; PlaneOfBlocks::CheckMV2
	mov	ecx, DWORD PTR _lastDirection$1$[esp+28]
$LN9@DiamondSea:

; 1009 : 
; 1010 :     // If one of the directions improves the SAD, we make further tests
; 1011 :     // on the diagonals
; 1012 :     if (direction)

	mov	edx, DWORD PTR _direction$[esp+24]
	test	edx, edx
	je	SHORT $LN10@DiamondSea

; 1013 :     {
; 1014 :       lastDirection = direction;
; 1015 :       dx = workarea.bestMV.x;
; 1016 :       dy = workarea.bestMV.y;

	mov	eax, DWORD PTR [ebx+104]

; 1017 : 
; 1018 :       if (lastDirection & 3)
; 1019 :       {
; 1020 :         CheckMV2(workarea, dx, dy + length, &direction, 4);

	lea	ecx, DWORD PTR _direction$[esp+24]
	mov	esi, DWORD PTR [ebx+100]
	mov	DWORD PTR _dy$1$[esp+24], eax
	test	dl, 3
	je	SHORT $LN12@DiamondSea
	push	4
	push	ecx
	add	eax, ebp
	mov	ecx, edi
	push	eax
	push	esi
	push	ebx
	call	?CheckMV2@PlaneOfBlocks@@AAEXAAVWorkingArea@1@HHPAHH@Z ; PlaneOfBlocks::CheckMV2

; 1021 :         CheckMV2(workarea, dx, dy - length, &direction, 8);

	push	8
	lea	eax, DWORD PTR _direction$[esp+28]
	push	eax
	mov	eax, DWORD PTR _dy$1$[esp+32]
	sub	eax, ebp
	push	eax
	push	esi

; 1022 :       }
; 1023 :       else

	jmp	$LN27@DiamondSea
$LN12@DiamondSea:

; 1024 :       {
; 1025 :         CheckMV2(workarea, dx + length, dy, &direction, 1);

	push	1
	push	ecx
	push	eax
	lea	eax, DWORD PTR [esi+ebp]
	mov	ecx, edi
	push	eax
	push	ebx
	call	?CheckMV2@PlaneOfBlocks@@AAEXAAVWorkingArea@1@HHPAHH@Z ; PlaneOfBlocks::CheckMV2

; 1026 :         CheckMV2(workarea, dx - length, dy, &direction, 2);

	push	2
	lea	eax, DWORD PTR _direction$[esp+28]
	sub	esi, ebp
	push	eax
	mov	eax, DWORD PTR _dy$1$[esp+32]
	push	eax
	push	esi

; 1027 :       }
; 1028 :     }
; 1029 : 
; 1030 :     // If not, we do not stop here. We infer from the last direction the
; 1031 :     // diagonals to be checked, because we might be lucky.
; 1032 :     else

	jmp	$LN27@DiamondSea
$LN10@DiamondSea:

; 1033 :     {
; 1034 :       switch (lastDirection)

	dec	ecx
	cmp	ecx, 9
	ja	$LN22@DiamondSea
	jmp	DWORD PTR $LN31@DiamondSea[ecx*4]
$LN14@DiamondSea:

; 1035 :       {
; 1036 :       case 1:
; 1037 :         CheckMV2(workarea, dx + length, dy + length, &direction, 1 + 4);

	push	5
	lea	eax, DWORD PTR _direction$[esp+28]
	add	esi, ebp
	push	eax
	mov	eax, DWORD PTR _dy$2$[esp+32]
	mov	ecx, edi
	add	eax, ebp
	push	eax
	push	esi
	push	ebx
	call	?CheckMV2@PlaneOfBlocks@@AAEXAAVWorkingArea@1@HHPAHH@Z ; PlaneOfBlocks::CheckMV2

; 1038 :         CheckMV2(workarea, dx + length, dy - length, &direction, 1 + 8);

	push	9
	lea	eax, DWORD PTR _direction$[esp+28]
	push	eax
	mov	eax, DWORD PTR _dy$2$[esp+32]
	sub	eax, ebp
	push	eax
	push	esi

; 1039 :         break;

	jmp	$LN27@DiamondSea
$LN15@DiamondSea:

; 1040 :       case 2:
; 1041 :         CheckMV2(workarea, dx - length, dy + length, &direction, 2 + 4);

	push	6
	lea	eax, DWORD PTR _direction$[esp+28]
	sub	esi, ebp
	push	eax
	mov	eax, DWORD PTR _dy$2$[esp+32]
	mov	ecx, edi
	add	eax, ebp
	push	eax
	push	esi
	push	ebx
	call	?CheckMV2@PlaneOfBlocks@@AAEXAAVWorkingArea@1@HHPAHH@Z ; PlaneOfBlocks::CheckMV2

; 1042 :         CheckMV2(workarea, dx - length, dy - length, &direction, 2 + 8);

	push	10					; 0000000aH
	lea	eax, DWORD PTR _direction$[esp+28]
	push	eax
	mov	eax, DWORD PTR _dy$2$[esp+32]
	sub	eax, ebp
	push	eax
	push	esi

; 1043 :         break;

	jmp	$LN27@DiamondSea
$LN16@DiamondSea:

; 1044 :       case 4:
; 1045 :         CheckMV2(workarea, dx + length, dy + length, &direction, 1 + 4);

	mov	esi, DWORD PTR _dy$2$[esp+24]
	lea	eax, DWORD PTR _direction$[esp+24]
	push	5
	push	eax
	mov	eax, DWORD PTR _dx$2$[esp+36]
	add	esi, ebp
	push	esi
	add	eax, ebp
	mov	ecx, edi
	push	eax
	push	ebx
	call	?CheckMV2@PlaneOfBlocks@@AAEXAAVWorkingArea@1@HHPAHH@Z ; PlaneOfBlocks::CheckMV2

; 1046 :         CheckMV2(workarea, dx - length, dy + length, &direction, 2 + 4);

	lea	eax, DWORD PTR _direction$[esp+24]
	push	6
	push	eax
	mov	eax, DWORD PTR _dx$2$[esp+36]
	sub	eax, ebp

; 1047 :         break;

	jmp	$LN28@DiamondSea
$LN17@DiamondSea:

; 1048 :       case 8:
; 1049 :         CheckMV2(workarea, dx + length, dy - length, &direction, 1 + 8);

	mov	eax, DWORD PTR _dy$2$[esp+24]
	lea	ecx, DWORD PTR _direction$[esp+24]
	push	9
	push	ecx
	sub	eax, ebp
	mov	ecx, edi
	push	eax
	mov	DWORD PTR _dy$2$[esp+36], eax
	lea	eax, DWORD PTR [esi+ebp]
	push	eax
	push	ebx
	call	?CheckMV2@PlaneOfBlocks@@AAEXAAVWorkingArea@1@HHPAHH@Z ; PlaneOfBlocks::CheckMV2

; 1050 :         CheckMV2(workarea, dx - length, dy - length, &direction, 2 + 8);

	push	10					; 0000000aH
	lea	eax, DWORD PTR _direction$[esp+28]
	sub	esi, ebp
	push	eax
	push	DWORD PTR _dy$2$[esp+32]
	push	esi

; 1051 :         break;

	jmp	$LN27@DiamondSea
$LN18@DiamondSea:

; 1052 :       case 1 + 4:
; 1053 :         CheckMV2(workarea, dx + length, dy + length, &direction, 1 + 4);

	mov	esi, DWORD PTR _dy$2$[esp+24]
	lea	eax, DWORD PTR _direction$[esp+24]
	mov	edi, DWORD PTR _dx$2$[esp+28]
	add	esi, ebp
	mov	ecx, DWORD PTR _this$1$[esp+28]
	add	edi, ebp
	push	5
	push	eax
	push	esi
	push	edi
	push	ebx
	call	?CheckMV2@PlaneOfBlocks@@AAEXAAVWorkingArea@1@HHPAHH@Z ; PlaneOfBlocks::CheckMV2

; 1054 :         CheckMV2(workarea, dx - length, dy + length, &direction, 2 + 4);

	mov	ecx, DWORD PTR _this$1$[esp+28]
	lea	eax, DWORD PTR _direction$[esp+24]
	push	6
	push	eax
	mov	eax, DWORD PTR _dx$2$[esp+36]
	push	esi
	sub	eax, ebp
	push	eax
	push	ebx
	call	?CheckMV2@PlaneOfBlocks@@AAEXAAVWorkingArea@1@HHPAHH@Z ; PlaneOfBlocks::CheckMV2

; 1055 :         CheckMV2(workarea, dx + length, dy - length, &direction, 1 + 8);

	push	9
	lea	eax, DWORD PTR _direction$[esp+28]
	push	eax
	mov	eax, DWORD PTR _dy$2$[esp+32]
	sub	eax, ebp
	push	eax
	push	edi
	mov	edi, DWORD PTR _this$1$[esp+44]

; 1056 :         break;

	jmp	$LN27@DiamondSea
$LN19@DiamondSea:

; 1057 :       case 2 + 4:
; 1058 :         CheckMV2(workarea, dx + length, dy + length, &direction, 1 + 4);

	mov	esi, DWORD PTR _dy$2$[esp+24]
	lea	eax, DWORD PTR _direction$[esp+24]
	push	5
	push	eax
	mov	eax, DWORD PTR _dx$2$[esp+36]
	add	esi, ebp
	push	esi
	add	eax, ebp
	mov	ecx, edi
	push	eax
	push	ebx
	call	?CheckMV2@PlaneOfBlocks@@AAEXAAVWorkingArea@1@HHPAHH@Z ; PlaneOfBlocks::CheckMV2

; 1059 :         CheckMV2(workarea, dx - length, dy + length, &direction, 2 + 4);

	mov	eax, DWORD PTR _dx$2$[esp+28]
	lea	ecx, DWORD PTR _direction$[esp+24]
	push	6
	push	ecx
	sub	eax, ebp
	mov	ecx, edi
	push	esi
	push	eax
	push	ebx
	mov	DWORD PTR _dx$2$[esp+48], eax
	call	?CheckMV2@PlaneOfBlocks@@AAEXAAVWorkingArea@1@HHPAHH@Z ; PlaneOfBlocks::CheckMV2

; 1060 :         CheckMV2(workarea, dx - length, dy - length, &direction, 2 + 8);

	push	10					; 0000000aH
	lea	eax, DWORD PTR _direction$[esp+28]
	push	eax
	mov	eax, DWORD PTR _dy$2$[esp+32]
	sub	eax, ebp
	push	eax
	mov	eax, DWORD PTR _dx$2$[esp+40]

; 1061 :         break;

	jmp	$LN29@DiamondSea
$LN20@DiamondSea:

; 1062 :       case 1 + 8:
; 1063 :         CheckMV2(workarea, dx + length, dy + length, &direction, 1 + 4);

	push	5
	lea	eax, DWORD PTR _direction$[esp+28]
	add	esi, ebp
	push	eax
	mov	eax, DWORD PTR _dy$2$[esp+32]
	mov	ecx, edi
	add	eax, ebp
	push	eax
	push	esi
	push	ebx
	call	?CheckMV2@PlaneOfBlocks@@AAEXAAVWorkingArea@1@HHPAHH@Z ; PlaneOfBlocks::CheckMV2

; 1064 :         CheckMV2(workarea, dx - length, dy - length, &direction, 2 + 8);

	mov	eax, DWORD PTR _dy$2$[esp+24]
	lea	ecx, DWORD PTR _direction$[esp+24]
	push	10					; 0000000aH
	sub	eax, ebp
	push	ecx
	push	eax
	mov	DWORD PTR _dy$2$[esp+36], eax
	mov	ecx, edi
	mov	eax, DWORD PTR _dx$2$[esp+40]
	sub	eax, ebp
	push	eax
	push	ebx
	call	?CheckMV2@PlaneOfBlocks@@AAEXAAVWorkingArea@1@HHPAHH@Z ; PlaneOfBlocks::CheckMV2

; 1065 :         CheckMV2(workarea, dx + length, dy - length, &direction, 1 + 8);

	push	9
	lea	eax, DWORD PTR _direction$[esp+28]
	push	eax
	push	DWORD PTR _dy$2$[esp+32]
	push	esi

; 1066 :         break;

	jmp	$LN27@DiamondSea
$LN21@DiamondSea:

; 1067 :       case 2 + 8:
; 1068 :         CheckMV2(workarea, dx - length, dy - length, &direction, 2 + 8);

	mov	edi, DWORD PTR _dy$2$[esp+24]
	lea	eax, DWORD PTR _direction$[esp+24]
	mov	ecx, DWORD PTR _this$1$[esp+28]
	sub	edi, ebp
	push	10					; 0000000aH
	push	eax
	push	edi
	sub	esi, ebp
	push	esi
	push	ebx
	call	?CheckMV2@PlaneOfBlocks@@AAEXAAVWorkingArea@1@HHPAHH@Z ; PlaneOfBlocks::CheckMV2

; 1069 :         CheckMV2(workarea, dx - length, dy + length, &direction, 2 + 4);

	mov	ecx, DWORD PTR _this$1$[esp+28]
	lea	eax, DWORD PTR _direction$[esp+24]
	push	6
	push	eax
	mov	eax, DWORD PTR _dy$2$[esp+32]
	add	eax, ebp
	push	eax
	push	esi
	push	ebx
	call	?CheckMV2@PlaneOfBlocks@@AAEXAAVWorkingArea@1@HHPAHH@Z ; PlaneOfBlocks::CheckMV2

; 1070 :         CheckMV2(workarea, dx + length, dy - length, &direction, 1 + 8);

	push	9
	lea	eax, DWORD PTR _direction$[esp+28]
	push	eax
	mov	eax, DWORD PTR _dx$2$[esp+36]
	push	edi
	mov	edi, DWORD PTR _this$1$[esp+40]
	add	eax, ebp

; 1071 :         break;

	jmp	SHORT $LN29@DiamondSea
$LN22@DiamondSea:

; 1072 :       default:
; 1073 :         // Even the default case may happen, in the first step of the
; 1074 :         // algorithm for example.
; 1075 :         CheckMV2(workarea, dx + length, dy + length, &direction, 1 + 4);

	mov	esi, DWORD PTR _dy$2$[esp+24]
	lea	eax, DWORD PTR _direction$[esp+24]
	mov	edi, DWORD PTR _dx$2$[esp+28]
	add	esi, ebp
	mov	ecx, DWORD PTR _this$1$[esp+28]
	add	edi, ebp
	push	5
	push	eax
	push	esi
	push	edi
	push	ebx
	call	?CheckMV2@PlaneOfBlocks@@AAEXAAVWorkingArea@1@HHPAHH@Z ; PlaneOfBlocks::CheckMV2

; 1076 :         CheckMV2(workarea, dx - length, dy + length, &direction, 2 + 4);

	mov	eax, DWORD PTR _dx$2$[esp+28]
	lea	ecx, DWORD PTR _direction$[esp+24]
	push	6
	push	ecx
	mov	ecx, DWORD PTR _this$1$[esp+36]
	sub	eax, ebp
	push	esi
	push	eax
	push	ebx
	mov	DWORD PTR _dx$2$[esp+48], eax
	call	?CheckMV2@PlaneOfBlocks@@AAEXAAVWorkingArea@1@HHPAHH@Z ; PlaneOfBlocks::CheckMV2

; 1077 :         CheckMV2(workarea, dx + length, dy - length, &direction, 1 + 8);

	mov	esi, DWORD PTR _dy$2$[esp+24]
	lea	eax, DWORD PTR _direction$[esp+24]
	push	9
	push	eax
	sub	esi, ebp
	push	esi
	push	edi
	mov	edi, DWORD PTR _this$1$[esp+44]
	mov	ecx, edi
	push	ebx
	call	?CheckMV2@PlaneOfBlocks@@AAEXAAVWorkingArea@1@HHPAHH@Z ; PlaneOfBlocks::CheckMV2

; 1078 :         CheckMV2(workarea, dx - length, dy - length, &direction, 2 + 8);

	lea	eax, DWORD PTR _direction$[esp+24]
	push	10					; 0000000aH
	push	eax
	mov	eax, DWORD PTR _dx$2$[esp+36]
$LN28@DiamondSea:
	push	esi
$LN29@DiamondSea:
	push	eax
$LN27@DiamondSea:
	push	ebx
	mov	ecx, edi
	call	?CheckMV2@PlaneOfBlocks@@AAEXAAVWorkingArea@1@HHPAHH@Z ; PlaneOfBlocks::CheckMV2
	mov	ecx, DWORD PTR _direction$[esp+24]
	mov	DWORD PTR _lastDirection$1$[esp+28], ecx
	test	ecx, ecx
	jg	$LL2@DiamondSea
	pop	edi
	pop	esi
	pop	ebp
	pop	ebx

; 1079 :         break;
; 1080 :       }
; 1081 :     }	// if ! direction
; 1082 :   }	// while direction > 0
; 1083 : }

	add	esp, 12					; 0000000cH
	ret	8
	npad	2
$LN31@DiamondSea:
	DD	$LN14@DiamondSea
	DD	$LN15@DiamondSea
	DD	$LN22@DiamondSea
	DD	$LN16@DiamondSea
	DD	$LN18@DiamondSea
	DD	$LN19@DiamondSea
	DD	$LN22@DiamondSea
	DD	$LN17@DiamondSea
	DD	$LN20@DiamondSea
	DD	$LN21@DiamondSea
?DiamondSearch@PlaneOfBlocks@@AAEXAAVWorkingArea@1@H@Z ENDP ; PlaneOfBlocks::DiamondSearch
_TEXT	ENDS
; Function compile flags: /Ogtpy
; File c:\github\mvtools\sources\planeofblocks.cpp
; File c:\github\mvtools\sources\mvframe.h
; File c:\github\mvtools\sources\planeofblocks.cpp
; File c:\github\mvtools\sources\mvplane.h
; File c:\github\mvtools\sources\planeofblocks.cpp
; File c:\github\mvtools\sources\mvplane.h
; File c:\github\mvtools\sources\planeofblocks.cpp
; File c:\github\mvtools\sources\mvframe.h
; File c:\github\mvtools\sources\planeofblocks.cpp
; File c:\github\mvtools\sources\mvplane.h
; File c:\github\mvtools\sources\planeofblocks.cpp
; File c:\github\mvtools\sources\mvplane.h
; File c:\github\mvtools\sources\planeofblocks.cpp
; File c:\github\mvtools\sources\mvframe.h
; File c:\github\mvtools\sources\planeofblocks.cpp
; File c:\github\mvtools\sources\mvplane.h
; File c:\github\mvtools\sources\planeofblocks.cpp
; File c:\github\mvtools\sources\mvplane.h
; File c:\github\mvtools\sources\planeofblocks.cpp
; File c:\github\mvtools\sources\mvplane.h
; File c:\github\mvtools\sources\planeofblocks.cpp
; File c:\github\mvtools\sources\mvplane.h
; File c:\github\mvtools\sources\planeofblocks.cpp
; File c:\github\mvtools\sources\mvframe.h
; File c:\github\mvtools\sources\planeofblocks.cpp
; File c:\github\mvtools\sources\mvframe.h
; File c:\github\mvtools\sources\planeofblocks.cpp
; File c:\github\mvtools\sources\mvplane.h
; File c:\github\mvtools\sources\planeofblocks.cpp
; File c:\github\mvtools\sources\mvplane.h
; File c:\github\mvtools\sources\planeofblocks.cpp
; File c:\github\mvtools\sources\mvplane.h
; File c:\github\mvtools\sources\mvframe.h
; File c:\github\mvtools\sources\mvplane.h
; File c:\github\mvtools\sources\mvframe.h
