; Listing generated by Microsoft (R) Optimizing Compiler Version 19.00.24215.1 

	TITLE	c:\github\mvtools\sources\sadfunctions.cpp
	.686P
	.XMM
	include listing.inc
	.model	flat

INCLUDELIB OLDNAMES

EXTRN	_x264_pixel_satd_8x16_sse2:PROC
EXTRN	_x264_pixel_satd_8x4_sse2:PROC
EXTRN	_Sad4x2_iSSE:PROC
EXTRN	_x264_pixel_sad_8x16_mmx2:PROC
EXTRN	_Sad8x1_iSSE:PROC
EXTRN	_x264_pixel_satd_16x8_sse2:PROC
EXTRN	_x264_pixel_satd_16x16_ssse3:PROC
EXTRN	_x264_pixel_sad_8x8_mmx2:PROC
EXTRN	_Sad32x8_iSSE:PROC
EXTRN	_x264_pixel_sad_16x16_sse2:PROC
EXTRN	_Sad8x2_iSSE:PROC
EXTRN	_x264_pixel_sad_4x4_mmx2:PROC
EXTRN	_x264_pixel_sad_4x8_mmx2:PROC
EXTRN	_x264_pixel_sad_16x8_sse2:PROC
EXTRN	_Sad2x2_iSSE:PROC
EXTRN	_x264_pixel_satd_8x8_sse2:PROC
EXTRN	_x264_pixel_satd_16x16_sse2:PROC
EXTRN	_Sad16x32_iSSE:PROC
EXTRN	_x264_pixel_sad_16x4_mmx2:PROC
EXTRN	_x264_pixel_satd_16x8_ssse3:PROC
EXTRN	_Sad2x4_iSSE:PROC
EXTRN	_Sad32x16_iSSE:PROC
EXTRN	_x264_pixel_sad_8x4_mmx2:PROC
EXTRN	_Sad32x32_iSSE:PROC
EXTRN	_x264_pixel_sad_16x2_mmx2:PROC
?piecewise_construct@std@@3Upiecewise_construct_t@1@B	ORG $+1 ; std::piecewise_construct
PUBLIC	??$?0V?$tuple@$$QAV?$tuple@HHHW4arch_t@@@std@@@std@@V?$tuple@$$V@1@$0A@$$Z$S@?$pair@$$CBV?$tuple@HHHW4arch_t@@@std@@P6AIPBEH0H@Z@std@@QAE@AAV?$tuple@$$QAV?$tuple@HHHW4arch_t@@@std@@@1@AAV?$tuple@$$V@1@U?$integer_sequence@I$0A@@1@U?$integer_sequence@I$S@1@@Z ; std::pair<std::tuple<int,int,int,enum arch_t> const ,unsigned int (__cdecl*)(unsigned char const *,int,unsigned char const *,int)>::pair<std::tuple<int,int,int,enum arch_t> const ,unsigned int (__cdecl*)(unsigned char const *,int,unsigned char const *,int)><std::tuple<std::tuple<int,int,int,enum arch_t> &&>,std::tuple<>,0>
PUBLIC	??$?0$$QAV?$tuple@HHHW4arch_t@@@std@@$$Z$$V@?$pair@$$CBV?$tuple@HHHW4arch_t@@@std@@P6AIPBEH0H@Z@std@@QAE@Upiecewise_construct_t@1@V?$tuple@$$QAV?$tuple@HHHW4arch_t@@@std@@@1@V?$tuple@$$V@1@@Z ; std::pair<std::tuple<int,int,int,enum arch_t> const ,unsigned int (__cdecl*)(unsigned char const *,int,unsigned char const *,int)>::pair<std::tuple<int,int,int,enum arch_t> const ,unsigned int (__cdecl*)(unsigned char const *,int,unsigned char const *,int)><std::tuple<int,int,int,enum arch_t> &&>
PUBLIC	??$construct@U?$pair@$$CBV?$tuple@HHHW4arch_t@@@std@@P6AIPBEH0H@Z@std@@ABUpiecewise_construct_t@2@V?$tuple@$$QAV?$tuple@HHHW4arch_t@@@std@@@2@V?$tuple@$$V@2@@?$allocator@U?$_Tree_node@U?$pair@$$CBV?$tuple@HHHW4arch_t@@@std@@P6AIPBEH0H@Z@std@@PAX@std@@@std@@QAEXPAU?$pair@$$CBV?$tuple@HHHW4arch_t@@@std@@P6AIPBEH0H@Z@1@ABUpiecewise_construct_t@1@$$QAV?$tuple@$$QAV?$tuple@HHHW4arch_t@@@std@@@1@$$QAV?$tuple@$$V@1@@Z ; std::allocator<std::_Tree_node<std::pair<std::tuple<int,int,int,enum arch_t> const ,unsigned int (__cdecl*)(unsigned char const *,int,unsigned char const *,int)>,void *> >::construct<std::pair<std::tuple<int,int,int,enum arch_t> const ,unsigned int (__cdecl*)(unsigned char const *,int,unsigned char const *,int)>,std::piecewise_construct_t const &,std::tuple<std::tuple<int,int,int,enum arch_t> &&>,std::tuple<> >
PUBLIC	??$_Buynode_if_nil@AAU?$pair@$$CBV?$tuple@HHHW4arch_t@@@std@@P6AIPBEH0H@Z@std@@@?$_Tree@V?$_Tmap_traits@V?$tuple@HHHW4arch_t@@@std@@P6AIPBEH0H@ZU?$less@V?$tuple@HHHW4arch_t@@@std@@@2@V?$allocator@U?$pair@$$CBV?$tuple@HHHW4arch_t@@@std@@P6AIPBEH0H@Z@std@@@2@$0A@@std@@@std@@IAEPAU?$_Tree_node@U?$pair@$$CBV?$tuple@HHHW4arch_t@@@std@@P6AIPBEH0H@Z@std@@PAX@1@PAU21@AAU?$pair@$$CBV?$tuple@HHHW4arch_t@@@std@@P6AIPBEH0H@Z@1@@Z ; std::_Tree<std::_Tmap_traits<std::tuple<int,int,int,enum arch_t>,unsigned int (__cdecl*)(unsigned char const *,int,unsigned char const *,int),std::less<std::tuple<int,int,int,enum arch_t> >,std::allocator<std::pair<std::tuple<int,int,int,enum arch_t> const ,unsigned int (__cdecl*)(unsigned char const *,int,unsigned char const *,int)> >,0> >::_Buynode_if_nil<std::pair<std::tuple<int,int,int,enum arch_t> const ,unsigned int (__cdecl*)(unsigned char const *,int,unsigned char const *,int)> &>
PUBLIC	??$construct@U?$pair@$$CBV?$tuple@HHHW4arch_t@@@std@@P6AIPBEH0H@Z@std@@ABUpiecewise_construct_t@2@V?$tuple@$$QAV?$tuple@HHHW4arch_t@@@std@@@2@V?$tuple@$$V@2@@?$allocator_traits@V?$allocator@U?$_Tree_node@U?$pair@$$CBV?$tuple@HHHW4arch_t@@@std@@P6AIPBEH0H@Z@std@@PAX@std@@@std@@@std@@SAXAAV?$allocator@U?$_Tree_node@U?$pair@$$CBV?$tuple@HHHW4arch_t@@@std@@P6AIPBEH0H@Z@std@@PAX@std@@@1@PAU?$pair@$$CBV?$tuple@HHHW4arch_t@@@std@@P6AIPBEH0H@Z@1@ABUpiecewise_construct_t@1@$$QAV?$tuple@$$QAV?$tuple@HHHW4arch_t@@@std@@@1@$$QAV?$tuple@$$V@1@@Z ; std::allocator_traits<std::allocator<std::_Tree_node<std::pair<std::tuple<int,int,int,enum arch_t> const ,unsigned int (__cdecl*)(unsigned char const *,int,unsigned char const *,int)>,void *> > >::construct<std::pair<std::tuple<int,int,int,enum arch_t> const ,unsigned int (__cdecl*)(unsigned char const *,int,unsigned char const *,int)>,std::piecewise_construct_t const &,std::tuple<std::tuple<int,int,int,enum arch_t> &&>,std::tuple<> >
PUBLIC	?max_size@?$allocator@U?$_Tree_node@U?$pair@$$CBV?$tuple@HHHW4arch_t@@@std@@P6AIPBEH0H@Z@std@@PAX@std@@@std@@QBEIXZ ; std::allocator<std::_Tree_node<std::pair<std::tuple<int,int,int,enum arch_t> const ,unsigned int (__cdecl*)(unsigned char const *,int,unsigned char const *,int)>,void *> >::max_size
PUBLIC	?max_size@?$allocator_traits@V?$allocator@U?$_Tree_node@U?$pair@$$CBV?$tuple@HHHW4arch_t@@@std@@P6AIPBEH0H@Z@std@@PAX@std@@@std@@@std@@SAIABV?$allocator@U?$_Tree_node@U?$pair@$$CBV?$tuple@HHHW4arch_t@@@std@@P6AIPBEH0H@Z@std@@PAX@std@@@2@@Z ; std::allocator_traits<std::allocator<std::_Tree_node<std::pair<std::tuple<int,int,int,enum arch_t> const ,unsigned int (__cdecl*)(unsigned char const *,int,unsigned char const *,int)>,void *> > >::max_size
PUBLIC	?_Get_first@?$_Compressed_pair@U?$_Wrap_alloc@V?$allocator@U?$_Tree_node@U?$pair@$$CBV?$tuple@HHHW4arch_t@@@std@@P6AIPBEH0H@Z@std@@PAX@std@@@std@@@std@@V?$_Tree_val@U?$_Tree_simple_types@U?$pair@$$CBV?$tuple@HHHW4arch_t@@@std@@P6AIPBEH0H@Z@std@@@std@@@2@$00@std@@QBEABU?$_Wrap_alloc@V?$allocator@U?$_Tree_node@U?$pair@$$CBV?$tuple@HHHW4arch_t@@@std@@P6AIPBEH0H@Z@std@@PAX@std@@@std@@@2@XZ ; std::_Compressed_pair<std::_Wrap_alloc<std::allocator<std::_Tree_node<std::pair<std::tuple<int,int,int,enum arch_t> const ,unsigned int (__cdecl*)(unsigned char const *,int,unsigned char const *,int)>,void *> > >,std::_Tree_val<std::_Tree_simple_types<std::pair<std::tuple<int,int,int,enum arch_t> const ,unsigned int (__cdecl*)(unsigned char const *,int,unsigned char const *,int)> > >,1>::_Get_first
PUBLIC	?_Getal@?$_Tree_comp_alloc@V?$_Tmap_traits@V?$tuple@HHHW4arch_t@@@std@@P6AIPBEH0H@ZU?$less@V?$tuple@HHHW4arch_t@@@std@@@2@V?$allocator@U?$pair@$$CBV?$tuple@HHHW4arch_t@@@std@@P6AIPBEH0H@Z@std@@@2@$0A@@std@@@std@@QBEABU?$_Wrap_alloc@V?$allocator@U?$_Tree_node@U?$pair@$$CBV?$tuple@HHHW4arch_t@@@std@@P6AIPBEH0H@Z@std@@PAX@std@@@std@@@2@XZ ; std::_Tree_comp_alloc<std::_Tmap_traits<std::tuple<int,int,int,enum arch_t>,unsigned int (__cdecl*)(unsigned char const *,int,unsigned char const *,int),std::less<std::tuple<int,int,int,enum arch_t> >,std::allocator<std::pair<std::tuple<int,int,int,enum arch_t> const ,unsigned int (__cdecl*)(unsigned char const *,int,unsigned char const *,int)> >,0> >::_Getal
PUBLIC	?max_size@?$_Wrap_alloc@V?$allocator@U?$_Tree_node@U?$pair@$$CBV?$tuple@HHHW4arch_t@@@std@@P6AIPBEH0H@Z@std@@PAX@std@@@std@@@std@@QBEIU_Nil@2@@Z ; std::_Wrap_alloc<std::allocator<std::_Tree_node<std::pair<std::tuple<int,int,int,enum arch_t> const ,unsigned int (__cdecl*)(unsigned char const *,int,unsigned char const *,int)>,void *> > >::max_size
PUBLIC	?max_size@?$_Tree@V?$_Tmap_traits@V?$tuple@HHHW4arch_t@@@std@@P6AIPBEH0H@ZU?$less@V?$tuple@HHHW4arch_t@@@std@@@2@V?$allocator@U?$pair@$$CBV?$tuple@HHHW4arch_t@@@std@@P6AIPBEH0H@Z@std@@@2@$0A@@std@@@std@@QBEIXZ ; std::_Tree<std::_Tmap_traits<std::tuple<int,int,int,enum arch_t>,unsigned int (__cdecl*)(unsigned char const *,int,unsigned char const *,int),std::less<std::tuple<int,int,int,enum arch_t> >,std::allocator<std::pair<std::tuple<int,int,int,enum arch_t> const ,unsigned int (__cdecl*)(unsigned char const *,int,unsigned char const *,int)> >,0> >::max_size
PUBLIC	??F?$_Tree_iterator@V?$_Tree_val@U?$_Tree_simple_types@U?$pair@$$CBV?$tuple@HHHW4arch_t@@@std@@P6AIPBEH0H@Z@std@@@std@@@std@@@std@@QAEAAV01@XZ ; std::_Tree_iterator<std::_Tree_val<std::_Tree_simple_types<std::pair<std::tuple<int,int,int,enum arch_t> const ,unsigned int (__cdecl*)(unsigned char const *,int,unsigned char const *,int)> > > >::operator--
PUBLIC	??$_Insert_nohint@AAU?$pair@$$CBV?$tuple@HHHW4arch_t@@@std@@P6AIPBEH0H@Z@std@@PAU?$_Tree_node@U?$pair@$$CBV?$tuple@HHHW4arch_t@@@std@@P6AIPBEH0H@Z@std@@PAX@2@@?$_Tree@V?$_Tmap_traits@V?$tuple@HHHW4arch_t@@@std@@P6AIPBEH0H@ZU?$less@V?$tuple@HHHW4arch_t@@@std@@@2@V?$allocator@U?$pair@$$CBV?$tuple@HHHW4arch_t@@@std@@P6AIPBEH0H@Z@std@@@2@$0A@@std@@@std@@IAE?AU?$pair@V?$_Tree_iterator@V?$_Tree_val@U?$_Tree_simple_types@U?$pair@$$CBV?$tuple@HHHW4arch_t@@@std@@P6AIPBEH0H@Z@std@@@std@@@std@@@std@@_N@1@_NAAU?$pair@$$CBV?$tuple@HHHW4arch_t@@@std@@P6AIPBEH0H@Z@1@PAU?$_Tree_node@U?$pair@$$CBV?$tuple@HHHW4arch_t@@@std@@P6AIPBEH0H@Z@std@@PAX@1@@Z ; std::_Tree<std::_Tmap_traits<std::tuple<int,int,int,enum arch_t>,unsigned int (__cdecl*)(unsigned char const *,int,unsigned char const *,int),std::less<std::tuple<int,int,int,enum arch_t> >,std::allocator<std::pair<std::tuple<int,int,int,enum arch_t> const ,unsigned int (__cdecl*)(unsigned char const *,int,unsigned char const *,int)> >,0> >::_Insert_nohint<std::pair<std::tuple<int,int,int,enum arch_t> const ,unsigned int (__cdecl*)(unsigned char const *,int,unsigned char const *,int)> &,std::_Tree_node<std::pair<std::tuple<int,int,int,enum arch_t> const ,unsigned int (__cdecl*)(unsigned char const *,int,unsigned char const *,int)>,void *> *>
PUBLIC	??$_Insert_at@AAU?$pair@$$CBV?$tuple@HHHW4arch_t@@@std@@P6AIPBEH0H@Z@std@@PAU?$_Tree_node@U?$pair@$$CBV?$tuple@HHHW4arch_t@@@std@@P6AIPBEH0H@Z@std@@PAX@2@@?$_Tree@V?$_Tmap_traits@V?$tuple@HHHW4arch_t@@@std@@P6AIPBEH0H@ZU?$less@V?$tuple@HHHW4arch_t@@@std@@@2@V?$allocator@U?$pair@$$CBV?$tuple@HHHW4arch_t@@@std@@P6AIPBEH0H@Z@std@@@2@$0A@@std@@@std@@IAE?AV?$_Tree_iterator@V?$_Tree_val@U?$_Tree_simple_types@U?$pair@$$CBV?$tuple@HHHW4arch_t@@@std@@P6AIPBEH0H@Z@std@@@std@@@std@@@1@_NPAU?$_Tree_node@U?$pair@$$CBV?$tuple@HHHW4arch_t@@@std@@P6AIPBEH0H@Z@std@@PAX@1@AAU?$pair@$$CBV?$tuple@HHHW4arch_t@@@std@@P6AIPBEH0H@Z@1@1@Z ; std::_Tree<std::_Tmap_traits<std::tuple<int,int,int,enum arch_t>,unsigned int (__cdecl*)(unsigned char const *,int,unsigned char const *,int),std::less<std::tuple<int,int,int,enum arch_t> >,std::allocator<std::pair<std::tuple<int,int,int,enum arch_t> const ,unsigned int (__cdecl*)(unsigned char const *,int,unsigned char const *,int)> >,0> >::_Insert_at<std::pair<std::tuple<int,int,int,enum arch_t> const ,unsigned int (__cdecl*)(unsigned char const *,int,unsigned char const *,int)> &,std::_Tree_node<std::pair<std::tuple<int,int,int,enum arch_t> const ,unsigned int (__cdecl*)(unsigned char const *,int,unsigned char const *,int)>,void *> *>
PUBLIC	??$forward@AAU?$pair@$$CBV?$tuple@HHHW4arch_t@@@std@@P6AIPBEH0H@Z@std@@@std@@YAAAU?$pair@$$CBV?$tuple@HHHW4arch_t@@@std@@P6AIPBEH0H@Z@0@AAU10@@Z ; std::forward<std::pair<std::tuple<int,int,int,enum arch_t> const ,unsigned int (__cdecl*)(unsigned char const *,int,unsigned char const *,int)> &>
PUBLIC	??$construct@U?$pair@$$CBV?$tuple@HHHW4arch_t@@@std@@P6AIPBEH0H@Z@std@@ABUpiecewise_construct_t@2@V?$tuple@$$QAV?$tuple@HHHW4arch_t@@@std@@@2@V?$tuple@$$V@2@@?$_Wrap_alloc@V?$allocator@U?$_Tree_node@U?$pair@$$CBV?$tuple@HHHW4arch_t@@@std@@P6AIPBEH0H@Z@std@@PAX@std@@@std@@@std@@QAEXPAU?$pair@$$CBV?$tuple@HHHW4arch_t@@@std@@P6AIPBEH0H@Z@1@ABUpiecewise_construct_t@1@$$QAV?$tuple@$$QAV?$tuple@HHHW4arch_t@@@std@@@1@$$QAV?$tuple@$$V@1@@Z ; std::_Wrap_alloc<std::allocator<std::_Tree_node<std::pair<std::tuple<int,int,int,enum arch_t> const ,unsigned int (__cdecl*)(unsigned char const *,int,unsigned char const *,int)>,void *> > >::construct<std::pair<std::tuple<int,int,int,enum arch_t> const ,unsigned int (__cdecl*)(unsigned char const *,int,unsigned char const *,int)>,std::piecewise_construct_t const &,std::tuple<std::tuple<int,int,int,enum arch_t> &&>,std::tuple<> >
PUBLIC	?_Mysize@?$_Tree_comp_alloc@V?$_Tmap_traits@V?$tuple@HHHW4arch_t@@@std@@P6AIPBEH0H@ZU?$less@V?$tuple@HHHW4arch_t@@@std@@@2@V?$allocator@U?$pair@$$CBV?$tuple@HHHW4arch_t@@@std@@P6AIPBEH0H@Z@std@@@2@$0A@@std@@@std@@QBEABIXZ ; std::_Tree_comp_alloc<std::_Tmap_traits<std::tuple<int,int,int,enum arch_t>,unsigned int (__cdecl*)(unsigned char const *,int,unsigned char const *,int),std::less<std::tuple<int,int,int,enum arch_t> >,std::allocator<std::pair<std::tuple<int,int,int,enum arch_t> const ,unsigned int (__cdecl*)(unsigned char const *,int,unsigned char const *,int)> >,0> >::_Mysize
PUBLIC	??0?$_Tree_unchecked_const_iterator@V?$_Tree_val@U?$_Tree_simple_types@U?$pair@$$CBV?$tuple@HHHW4arch_t@@@std@@P6AIPBEH0H@Z@std@@@std@@@std@@U_Iterator_base0@2@@std@@QAE@XZ ; std::_Tree_unchecked_const_iterator<std::_Tree_val<std::_Tree_simple_types<std::pair<std::tuple<int,int,int,enum arch_t> const ,unsigned int (__cdecl*)(unsigned char const *,int,unsigned char const *,int)> > >,std::_Iterator_base0>::_Tree_unchecked_const_iterator<std::_Tree_val<std::_Tree_simple_types<std::pair<std::tuple<int,int,int,enum arch_t> const ,unsigned int (__cdecl*)(unsigned char const *,int,unsigned char const *,int)> > >,std::_Iterator_base0>
PUBLIC	??F?$_Tree_unchecked_const_iterator@V?$_Tree_val@U?$_Tree_simple_types@U?$pair@$$CBV?$tuple@HHHW4arch_t@@@std@@P6AIPBEH0H@Z@std@@@std@@@std@@U_Iterator_base0@2@@std@@QAEAAV01@XZ ; std::_Tree_unchecked_const_iterator<std::_Tree_val<std::_Tree_simple_types<std::pair<std::tuple<int,int,int,enum arch_t> const ,unsigned int (__cdecl*)(unsigned char const *,int,unsigned char const *,int)> > >,std::_Iterator_base0>::operator--
PUBLIC	?size@?$_Tree@V?$_Tmap_traits@V?$tuple@HHHW4arch_t@@@std@@P6AIPBEH0H@ZU?$less@V?$tuple@HHHW4arch_t@@@std@@@2@V?$allocator@U?$pair@$$CBV?$tuple@HHHW4arch_t@@@std@@P6AIPBEH0H@Z@std@@@2@$0A@@std@@@std@@QBEIXZ ; std::_Tree<std::_Tmap_traits<std::tuple<int,int,int,enum arch_t>,unsigned int (__cdecl*)(unsigned char const *,int,unsigned char const *,int),std::less<std::tuple<int,int,int,enum arch_t> >,std::allocator<std::pair<std::tuple<int,int,int,enum arch_t> const ,unsigned int (__cdecl*)(unsigned char const *,int,unsigned char const *,int)> >,0> >::size
PUBLIC	?_Destroy_if_not_nil@?$_Tree@V?$_Tmap_traits@V?$tuple@HHHW4arch_t@@@std@@P6AIPBEH0H@ZU?$less@V?$tuple@HHHW4arch_t@@@std@@@2@V?$allocator@U?$pair@$$CBV?$tuple@HHHW4arch_t@@@std@@P6AIPBEH0H@Z@std@@@2@$0A@@std@@@std@@IAEXPAU?$_Tree_node@U?$pair@$$CBV?$tuple@HHHW4arch_t@@@std@@P6AIPBEH0H@Z@std@@PAX@2@@Z ; std::_Tree<std::_Tmap_traits<std::tuple<int,int,int,enum arch_t>,unsigned int (__cdecl*)(unsigned char const *,int,unsigned char const *,int),std::less<std::tuple<int,int,int,enum arch_t> >,std::allocator<std::pair<std::tuple<int,int,int,enum arch_t> const ,unsigned int (__cdecl*)(unsigned char const *,int,unsigned char const *,int)> >,0> >::_Destroy_if_not_nil
PUBLIC	?_Buynode0@?$_Tree_comp_alloc@V?$_Tmap_traits@V?$tuple@HHHW4arch_t@@@std@@P6AIPBEH0H@ZU?$less@V?$tuple@HHHW4arch_t@@@std@@@2@V?$allocator@U?$pair@$$CBV?$tuple@HHHW4arch_t@@@std@@P6AIPBEH0H@Z@std@@@2@$0A@@std@@@std@@QAEPAU?$_Tree_node@U?$pair@$$CBV?$tuple@HHHW4arch_t@@@std@@P6AIPBEH0H@Z@std@@PAX@2@XZ ; std::_Tree_comp_alloc<std::_Tmap_traits<std::tuple<int,int,int,enum arch_t>,unsigned int (__cdecl*)(unsigned char const *,int,unsigned char const *,int),std::less<std::tuple<int,int,int,enum arch_t> >,std::allocator<std::pair<std::tuple<int,int,int,enum arch_t> const ,unsigned int (__cdecl*)(unsigned char const *,int,unsigned char const *,int)> >,0> >::_Buynode0
PUBLIC	?_Freenode0@?$_Tree_comp_alloc@V?$_Tmap_traits@V?$tuple@HHHW4arch_t@@@std@@P6AIPBEH0H@ZU?$less@V?$tuple@HHHW4arch_t@@@std@@@2@V?$allocator@U?$pair@$$CBV?$tuple@HHHW4arch_t@@@std@@P6AIPBEH0H@Z@std@@@2@$0A@@std@@@std@@QAEXPAU?$_Tree_node@U?$pair@$$CBV?$tuple@HHHW4arch_t@@@std@@P6AIPBEH0H@Z@std@@PAX@2@@Z ; std::_Tree_comp_alloc<std::_Tmap_traits<std::tuple<int,int,int,enum arch_t>,unsigned int (__cdecl*)(unsigned char const *,int,unsigned char const *,int),std::less<std::tuple<int,int,int,enum arch_t> >,std::allocator<std::pair<std::tuple<int,int,int,enum arch_t> const ,unsigned int (__cdecl*)(unsigned char const *,int,unsigned char const *,int)> >,0> >::_Freenode0
PUBLIC	??0?$_Tree_const_iterator@V?$_Tree_val@U?$_Tree_simple_types@U?$pair@$$CBV?$tuple@HHHW4arch_t@@@std@@P6AIPBEH0H@Z@std@@@std@@@std@@@std@@QAE@XZ ; std::_Tree_const_iterator<std::_Tree_val<std::_Tree_simple_types<std::pair<std::tuple<int,int,int,enum arch_t> const ,unsigned int (__cdecl*)(unsigned char const *,int,unsigned char const *,int)> > > >::_Tree_const_iterator<std::_Tree_val<std::_Tree_simple_types<std::pair<std::tuple<int,int,int,enum arch_t> const ,unsigned int (__cdecl*)(unsigned char const *,int,unsigned char const *,int)> > > >
PUBLIC	??F?$_Tree_const_iterator@V?$_Tree_val@U?$_Tree_simple_types@U?$pair@$$CBV?$tuple@HHHW4arch_t@@@std@@P6AIPBEH0H@Z@std@@@std@@@std@@@std@@QAEAAV01@XZ ; std::_Tree_const_iterator<std::_Tree_val<std::_Tree_simple_types<std::pair<std::tuple<int,int,int,enum arch_t> const ,unsigned int (__cdecl*)(unsigned char const *,int,unsigned char const *,int)> > > >::operator--
PUBLIC	??$forward@AAV?$_Tree_iterator@V?$_Tree_val@U?$_Tree_simple_types@U?$pair@$$CBV?$tuple@HHHW4arch_t@@@std@@P6AIPBEH0H@Z@std@@@std@@@std@@@std@@@std@@YAAAV?$_Tree_iterator@V?$_Tree_val@U?$_Tree_simple_types@U?$pair@$$CBV?$tuple@HHHW4arch_t@@@std@@P6AIPBEH0H@Z@std@@@std@@@std@@@0@AAV10@@Z ; std::forward<std::_Tree_iterator<std::_Tree_val<std::_Tree_simple_types<std::pair<std::tuple<int,int,int,enum arch_t> const ,unsigned int (__cdecl*)(unsigned char const *,int,unsigned char const *,int)> > > > &>
PUBLIC	??$forward@V?$_Tree_iterator@V?$_Tree_val@U?$_Tree_simple_types@U?$pair@$$CBV?$tuple@HHHW4arch_t@@@std@@P6AIPBEH0H@Z@std@@@std@@@std@@@std@@@std@@YA$$QAV?$_Tree_iterator@V?$_Tree_val@U?$_Tree_simple_types@U?$pair@$$CBV?$tuple@HHHW4arch_t@@@std@@P6AIPBEH0H@Z@std@@@std@@@std@@@0@AAV10@@Z ; std::forward<std::_Tree_iterator<std::_Tree_val<std::_Tree_simple_types<std::pair<std::tuple<int,int,int,enum arch_t> const ,unsigned int (__cdecl*)(unsigned char const *,int,unsigned char const *,int)> > > > >
PUBLIC	??$_Insert_hint@AAU?$pair@$$CBV?$tuple@HHHW4arch_t@@@std@@P6AIPBEH0H@Z@std@@PAU?$_Tree_node@U?$pair@$$CBV?$tuple@HHHW4arch_t@@@std@@P6AIPBEH0H@Z@std@@PAX@2@@?$_Tree@V?$_Tmap_traits@V?$tuple@HHHW4arch_t@@@std@@P6AIPBEH0H@ZU?$less@V?$tuple@HHHW4arch_t@@@std@@@2@V?$allocator@U?$pair@$$CBV?$tuple@HHHW4arch_t@@@std@@P6AIPBEH0H@Z@std@@@2@$0A@@std@@@std@@IAE?AV?$_Tree_iterator@V?$_Tree_val@U?$_Tree_simple_types@U?$pair@$$CBV?$tuple@HHHW4arch_t@@@std@@P6AIPBEH0H@Z@std@@@std@@@std@@@1@V?$_Tree_const_iterator@V?$_Tree_val@U?$_Tree_simple_types@U?$pair@$$CBV?$tuple@HHHW4arch_t@@@std@@P6AIPBEH0H@Z@std@@@std@@@std@@@1@AAU?$pair@$$CBV?$tuple@HHHW4arch_t@@@std@@P6AIPBEH0H@Z@1@PAU?$_Tree_node@U?$pair@$$CBV?$tuple@HHHW4arch_t@@@std@@P6AIPBEH0H@Z@std@@PAX@1@@Z ; std::_Tree<std::_Tmap_traits<std::tuple<int,int,int,enum arch_t>,unsigned int (__cdecl*)(unsigned char const *,int,unsigned char const *,int),std::less<std::tuple<int,int,int,enum arch_t> >,std::allocator<std::pair<std::tuple<int,int,int,enum arch_t> const ,unsigned int (__cdecl*)(unsigned char const *,int,unsigned char const *,int)> >,0> >::_Insert_hint<std::pair<std::tuple<int,int,int,enum arch_t> const ,unsigned int (__cdecl*)(unsigned char const *,int,unsigned char const *,int)> &,std::_Tree_node<std::pair<std::tuple<int,int,int,enum arch_t> const ,unsigned int (__cdecl*)(unsigned char const *,int,unsigned char const *,int)>,void *> *>
PUBLIC	??$_Buynode@ABUpiecewise_construct_t@std@@V?$tuple@$$QAV?$tuple@HHHW4arch_t@@@std@@@2@V?$tuple@$$V@2@@?$_Tree_comp_alloc@V?$_Tmap_traits@V?$tuple@HHHW4arch_t@@@std@@P6AIPBEH0H@ZU?$less@V?$tuple@HHHW4arch_t@@@std@@@2@V?$allocator@U?$pair@$$CBV?$tuple@HHHW4arch_t@@@std@@P6AIPBEH0H@Z@std@@@2@$0A@@std@@@std@@QAEPAU?$_Tree_node@U?$pair@$$CBV?$tuple@HHHW4arch_t@@@std@@P6AIPBEH0H@Z@std@@PAX@1@ABUpiecewise_construct_t@1@$$QAV?$tuple@$$QAV?$tuple@HHHW4arch_t@@@std@@@1@$$QAV?$tuple@$$V@1@@Z ; std::_Tree_comp_alloc<std::_Tmap_traits<std::tuple<int,int,int,enum arch_t>,unsigned int (__cdecl*)(unsigned char const *,int,unsigned char const *,int),std::less<std::tuple<int,int,int,enum arch_t> >,std::allocator<std::pair<std::tuple<int,int,int,enum arch_t> const ,unsigned int (__cdecl*)(unsigned char const *,int,unsigned char const *,int)> >,0> >::_Buynode<std::piecewise_construct_t const &,std::tuple<std::tuple<int,int,int,enum arch_t> &&>,std::tuple<> >
PUBLIC	??$?0U_Exact_args_t@std@@AAHW4arch_t@@$0A@@?$tuple@HW4arch_t@@@std@@QAE@U_Exact_args_t@1@AAH$$QAW4arch_t@@@Z ; std::tuple<int,enum arch_t>::tuple<int,enum arch_t><std::_Exact_args_t,int &,enum arch_t,0>
PUBLIC	?_Get_first@?$_Compressed_pair@U?$less@V?$tuple@HHHW4arch_t@@@std@@@std@@V?$_Compressed_pair@U?$_Wrap_alloc@V?$allocator@U?$_Tree_node@U?$pair@$$CBV?$tuple@HHHW4arch_t@@@std@@P6AIPBEH0H@Z@std@@PAX@std@@@std@@@std@@V?$_Tree_val@U?$_Tree_simple_types@U?$pair@$$CBV?$tuple@HHHW4arch_t@@@std@@P6AIPBEH0H@Z@std@@@std@@@2@$00@2@$00@std@@QBEABU?$less@V?$tuple@HHHW4arch_t@@@std@@@2@XZ ; std::_Compressed_pair<std::less<std::tuple<int,int,int,enum arch_t> >,std::_Compressed_pair<std::_Wrap_alloc<std::allocator<std::_Tree_node<std::pair<std::tuple<int,int,int,enum arch_t> const ,unsigned int (__cdecl*)(unsigned char const *,int,unsigned char const *,int)>,void *> > >,std::_Tree_val<std::_Tree_simple_types<std::pair<std::tuple<int,int,int,enum arch_t> const ,unsigned int (__cdecl*)(unsigned char const *,int,unsigned char const *,int)> > >,1>,1>::_Get_first
PUBLIC	?_Getcomp@?$_Tree_comp_alloc@V?$_Tmap_traits@V?$tuple@HHHW4arch_t@@@std@@P6AIPBEH0H@ZU?$less@V?$tuple@HHHW4arch_t@@@std@@@2@V?$allocator@U?$pair@$$CBV?$tuple@HHHW4arch_t@@@std@@P6AIPBEH0H@Z@std@@@2@$0A@@std@@@std@@QBEABU?$less@V?$tuple@HHHW4arch_t@@@std@@@2@XZ ; std::_Tree_comp_alloc<std::_Tmap_traits<std::tuple<int,int,int,enum arch_t>,unsigned int (__cdecl*)(unsigned char const *,int,unsigned char const *,int),std::less<std::tuple<int,int,int,enum arch_t> >,std::allocator<std::pair<std::tuple<int,int,int,enum arch_t> const ,unsigned int (__cdecl*)(unsigned char const *,int,unsigned char const *,int)> >,0> >::_Getcomp
PUBLIC	?_Compare@?$_Tree@V?$_Tmap_traits@V?$tuple@HHHW4arch_t@@@std@@P6AIPBEH0H@ZU?$less@V?$tuple@HHHW4arch_t@@@std@@@2@V?$allocator@U?$pair@$$CBV?$tuple@HHHW4arch_t@@@std@@P6AIPBEH0H@Z@std@@@2@$0A@@std@@@std@@IBE_NABV?$tuple@HHHW4arch_t@@@2@0@Z ; std::_Tree<std::_Tmap_traits<std::tuple<int,int,int,enum arch_t>,unsigned int (__cdecl*)(unsigned char const *,int,unsigned char const *,int),std::less<std::tuple<int,int,int,enum arch_t> >,std::allocator<std::pair<std::tuple<int,int,int,enum arch_t> const ,unsigned int (__cdecl*)(unsigned char const *,int,unsigned char const *,int)> >,0> >::_Compare
PUBLIC	??$_Kfn@$$CBV?$tuple@HHHW4arch_t@@@std@@P6AIPBEH0H@Z@?$_Tmap_traits@V?$tuple@HHHW4arch_t@@@std@@P6AIPBEH0H@ZU?$less@V?$tuple@HHHW4arch_t@@@std@@@2@V?$allocator@U?$pair@$$CBV?$tuple@HHHW4arch_t@@@std@@P6AIPBEH0H@Z@std@@@2@$0A@@std@@SAABV?$tuple@HHHW4arch_t@@@1@ABU?$pair@$$CBV?$tuple@HHHW4arch_t@@@std@@P6AIPBEH0H@Z@1@@Z ; std::_Tmap_traits<std::tuple<int,int,int,enum arch_t>,unsigned int (__cdecl*)(unsigned char const *,int,unsigned char const *,int),std::less<std::tuple<int,int,int,enum arch_t> >,std::allocator<std::pair<std::tuple<int,int,int,enum arch_t> const ,unsigned int (__cdecl*)(unsigned char const *,int,unsigned char const *,int)> >,0>::_Kfn<std::tuple<int,int,int,enum arch_t> const ,unsigned int (__cdecl*)(unsigned char const *,int,unsigned char const *,int)>
PUBLIC	??$_Lbound@V?$tuple@HHHW4arch_t@@@std@@@?$_Tree@V?$_Tmap_traits@V?$tuple@HHHW4arch_t@@@std@@P6AIPBEH0H@ZU?$less@V?$tuple@HHHW4arch_t@@@std@@@2@V?$allocator@U?$pair@$$CBV?$tuple@HHHW4arch_t@@@std@@P6AIPBEH0H@Z@std@@@2@$0A@@std@@@std@@IBEPAU?$_Tree_node@U?$pair@$$CBV?$tuple@HHHW4arch_t@@@std@@P6AIPBEH0H@Z@std@@PAX@1@ABV?$tuple@HHHW4arch_t@@@1@@Z ; std::_Tree<std::_Tmap_traits<std::tuple<int,int,int,enum arch_t>,unsigned int (__cdecl*)(unsigned char const *,int,unsigned char const *,int),std::less<std::tuple<int,int,int,enum arch_t> >,std::allocator<std::pair<std::tuple<int,int,int,enum arch_t> const ,unsigned int (__cdecl*)(unsigned char const *,int,unsigned char const *,int)> >,0> >::_Lbound<std::tuple<int,int,int,enum arch_t> >
PUBLIC	??$construct@PAU?$_Tree_node@U?$pair@$$CBV?$tuple@HHHW4arch_t@@@std@@P6AIPBEH0H@Z@std@@PAX@std@@AAPAU12@@?$allocator@U?$_Tree_node@U?$pair@$$CBV?$tuple@HHHW4arch_t@@@std@@P6AIPBEH0H@Z@std@@PAX@std@@@std@@QAEXPAPAU?$_Tree_node@U?$pair@$$CBV?$tuple@HHHW4arch_t@@@std@@P6AIPBEH0H@Z@std@@PAX@1@AAPAU21@@Z ; std::allocator<std::_Tree_node<std::pair<std::tuple<int,int,int,enum arch_t> const ,unsigned int (__cdecl*)(unsigned char const *,int,unsigned char const *,int)>,void *> >::construct<std::_Tree_node<std::pair<std::tuple<int,int,int,enum arch_t> const ,unsigned int (__cdecl*)(unsigned char const *,int,unsigned char const *,int)>,void *> *,std::_Tree_node<std::pair<std::tuple<int,int,int,enum arch_t> const ,unsigned int (__cdecl*)(unsigned char const *,int,unsigned char const *,int)>,void *> * &>
PUBLIC	??$destroy@U?$pair@$$CBV?$tuple@HHHW4arch_t@@@std@@P6AIPBEH0H@Z@std@@@?$allocator@U?$_Tree_node@U?$pair@$$CBV?$tuple@HHHW4arch_t@@@std@@P6AIPBEH0H@Z@std@@PAX@std@@@std@@QAEXPAU?$pair@$$CBV?$tuple@HHHW4arch_t@@@std@@P6AIPBEH0H@Z@1@@Z ; std::allocator<std::_Tree_node<std::pair<std::tuple<int,int,int,enum arch_t> const ,unsigned int (__cdecl*)(unsigned char const *,int,unsigned char const *,int)>,void *> >::destroy<std::pair<std::tuple<int,int,int,enum arch_t> const ,unsigned int (__cdecl*)(unsigned char const *,int,unsigned char const *,int)> >
PUBLIC	??$destroy@PAU?$_Tree_node@U?$pair@$$CBV?$tuple@HHHW4arch_t@@@std@@P6AIPBEH0H@Z@std@@PAX@std@@@?$allocator@U?$_Tree_node@U?$pair@$$CBV?$tuple@HHHW4arch_t@@@std@@P6AIPBEH0H@Z@std@@PAX@std@@@std@@QAEXPAPAU?$_Tree_node@U?$pair@$$CBV?$tuple@HHHW4arch_t@@@std@@P6AIPBEH0H@Z@std@@PAX@1@@Z ; std::allocator<std::_Tree_node<std::pair<std::tuple<int,int,int,enum arch_t> const ,unsigned int (__cdecl*)(unsigned char const *,int,unsigned char const *,int)>,void *> >::destroy<std::_Tree_node<std::pair<std::tuple<int,int,int,enum arch_t> const ,unsigned int (__cdecl*)(unsigned char const *,int,unsigned char const *,int)>,void *> *>
PUBLIC	??$?0AAV?$_Tree_iterator@V?$_Tree_val@U?$_Tree_simple_types@U?$pair@$$CBV?$tuple@HHHW4arch_t@@@std@@P6AIPBEH0H@Z@std@@@std@@@std@@@std@@_NX$0A@@?$pair@V?$_Tree_iterator@V?$_Tree_val@U?$_Tree_simple_types@U?$pair@$$CBV?$tuple@HHHW4arch_t@@@std@@P6AIPBEH0H@Z@std@@@std@@@std@@@std@@_N@std@@QAE@AAV?$_Tree_iterator@V?$_Tree_val@U?$_Tree_simple_types@U?$pair@$$CBV?$tuple@HHHW4arch_t@@@std@@P6AIPBEH0H@Z@std@@@std@@@std@@@1@$$QA_N@Z ; std::pair<std::_Tree_iterator<std::_Tree_val<std::_Tree_simple_types<std::pair<std::tuple<int,int,int,enum arch_t> const ,unsigned int (__cdecl*)(unsigned char const *,int,unsigned char const *,int)> > > >,bool>::pair<std::_Tree_iterator<std::_Tree_val<std::_Tree_simple_types<std::pair<std::tuple<int,int,int,enum arch_t> const ,unsigned int (__cdecl*)(unsigned char const *,int,unsigned char const *,int)> > > >,bool><std::_Tree_iterator<std::_Tree_val<std::_Tree_simple_types<std::pair<std::tuple<int,int,int,enum arch_t> const ,unsigned int (__cdecl*)(unsigned char const *,int,unsigned char const *,int)> > > > &,bool,void,0>
PUBLIC	??$?0V?$_Tree_iterator@V?$_Tree_val@U?$_Tree_simple_types@U?$pair@$$CBV?$tuple@HHHW4arch_t@@@std@@P6AIPBEH0H@Z@std@@@std@@@std@@@std@@_NX$0A@@?$pair@V?$_Tree_iterator@V?$_Tree_val@U?$_Tree_simple_types@U?$pair@$$CBV?$tuple@HHHW4arch_t@@@std@@P6AIPBEH0H@Z@std@@@std@@@std@@@std@@_N@std@@QAE@$$QAV?$_Tree_iterator@V?$_Tree_val@U?$_Tree_simple_types@U?$pair@$$CBV?$tuple@HHHW4arch_t@@@std@@P6AIPBEH0H@Z@std@@@std@@@std@@@1@$$QA_N@Z ; std::pair<std::_Tree_iterator<std::_Tree_val<std::_Tree_simple_types<std::pair<std::tuple<int,int,int,enum arch_t> const ,unsigned int (__cdecl*)(unsigned char const *,int,unsigned char const *,int)> > > >,bool>::pair<std::_Tree_iterator<std::_Tree_val<std::_Tree_simple_types<std::pair<std::tuple<int,int,int,enum arch_t> const ,unsigned int (__cdecl*)(unsigned char const *,int,unsigned char const *,int)> > > >,bool><std::_Tree_iterator<std::_Tree_val<std::_Tree_simple_types<std::pair<std::tuple<int,int,int,enum arch_t> const ,unsigned int (__cdecl*)(unsigned char const *,int,unsigned char const *,int)> > > >,bool,void,0>
PUBLIC	??$emplace_hint@ABUpiecewise_construct_t@std@@V?$tuple@$$QAV?$tuple@HHHW4arch_t@@@std@@@2@V?$tuple@$$V@2@@?$_Tree@V?$_Tmap_traits@V?$tuple@HHHW4arch_t@@@std@@P6AIPBEH0H@ZU?$less@V?$tuple@HHHW4arch_t@@@std@@@2@V?$allocator@U?$pair@$$CBV?$tuple@HHHW4arch_t@@@std@@P6AIPBEH0H@Z@std@@@2@$0A@@std@@@std@@QAE?AV?$_Tree_iterator@V?$_Tree_val@U?$_Tree_simple_types@U?$pair@$$CBV?$tuple@HHHW4arch_t@@@std@@P6AIPBEH0H@Z@std@@@std@@@std@@@1@V?$_Tree_const_iterator@V?$_Tree_val@U?$_Tree_simple_types@U?$pair@$$CBV?$tuple@HHHW4arch_t@@@std@@P6AIPBEH0H@Z@std@@@std@@@std@@@1@ABUpiecewise_construct_t@1@$$QAV?$tuple@$$QAV?$tuple@HHHW4arch_t@@@std@@@1@$$QAV?$tuple@$$V@1@@Z ; std::_Tree<std::_Tmap_traits<std::tuple<int,int,int,enum arch_t>,unsigned int (__cdecl*)(unsigned char const *,int,unsigned char const *,int),std::less<std::tuple<int,int,int,enum arch_t> >,std::allocator<std::pair<std::tuple<int,int,int,enum arch_t> const ,unsigned int (__cdecl*)(unsigned char const *,int,unsigned char const *,int)> >,0> >::emplace_hint<std::piecewise_construct_t const &,std::tuple<std::tuple<int,int,int,enum arch_t> &&>,std::tuple<> >
PUBLIC	??$?0U_Exact_args_t@std@@AAHAAHW4arch_t@@$0A@@?$tuple@HHW4arch_t@@@std@@QAE@U_Exact_args_t@1@AAH1$$QAW4arch_t@@@Z ; std::tuple<int,int,enum arch_t>::tuple<int,int,enum arch_t><std::_Exact_args_t,int &,int &,enum arch_t,0>
PUBLIC	?_Kfn@?$_Tree@V?$_Tmap_traits@V?$tuple@HHHW4arch_t@@@std@@P6AIPBEH0H@ZU?$less@V?$tuple@HHHW4arch_t@@@std@@@2@V?$allocator@U?$pair@$$CBV?$tuple@HHHW4arch_t@@@std@@P6AIPBEH0H@Z@std@@@2@$0A@@std@@@std@@IBEABV?$tuple@HHHW4arch_t@@@2@ABU?$pair@$$CBV?$tuple@HHHW4arch_t@@@std@@P6AIPBEH0H@Z@2@@Z ; std::_Tree<std::_Tmap_traits<std::tuple<int,int,int,enum arch_t>,unsigned int (__cdecl*)(unsigned char const *,int,unsigned char const *,int),std::less<std::tuple<int,int,int,enum arch_t> >,std::allocator<std::pair<std::tuple<int,int,int,enum arch_t> const ,unsigned int (__cdecl*)(unsigned char const *,int,unsigned char const *,int)> >,0> >::_Kfn
PUBLIC	??0?$allocator@U?$_Tree_node@U?$pair@$$CBV?$tuple@HHHW4arch_t@@@std@@P6AIPBEH0H@Z@std@@PAX@std@@@std@@QAE@XZ ; std::allocator<std::_Tree_node<std::pair<std::tuple<int,int,int,enum arch_t> const ,unsigned int (__cdecl*)(unsigned char const *,int,unsigned char const *,int)>,void *> >::allocator<std::_Tree_node<std::pair<std::tuple<int,int,int,enum arch_t> const ,unsigned int (__cdecl*)(unsigned char const *,int,unsigned char const *,int)>,void *> >
PUBLIC	?_Get_first@?$_Compressed_pair@U?$less@V?$tuple@HHHW4arch_t@@@std@@@std@@V?$_Compressed_pair@U?$_Wrap_alloc@V?$allocator@U?$_Tree_node@U?$pair@$$CBV?$tuple@HHHW4arch_t@@@std@@P6AIPBEH0H@Z@std@@PAX@std@@@std@@@std@@V?$_Tree_val@U?$_Tree_simple_types@U?$pair@$$CBV?$tuple@HHHW4arch_t@@@std@@P6AIPBEH0H@Z@std@@@std@@@2@$00@2@$00@std@@QAEAAU?$less@V?$tuple@HHHW4arch_t@@@std@@@2@XZ ; std::_Compressed_pair<std::less<std::tuple<int,int,int,enum arch_t> >,std::_Compressed_pair<std::_Wrap_alloc<std::allocator<std::_Tree_node<std::pair<std::tuple<int,int,int,enum arch_t> const ,unsigned int (__cdecl*)(unsigned char const *,int,unsigned char const *,int)>,void *> > >,std::_Tree_val<std::_Tree_simple_types<std::pair<std::tuple<int,int,int,enum arch_t> const ,unsigned int (__cdecl*)(unsigned char const *,int,unsigned char const *,int)> > >,1>,1>::_Get_first
PUBLIC	?lower_bound@?$_Tree@V?$_Tmap_traits@V?$tuple@HHHW4arch_t@@@std@@P6AIPBEH0H@ZU?$less@V?$tuple@HHHW4arch_t@@@std@@@2@V?$allocator@U?$pair@$$CBV?$tuple@HHHW4arch_t@@@std@@P6AIPBEH0H@Z@std@@@2@$0A@@std@@@std@@QAE?AV?$_Tree_iterator@V?$_Tree_val@U?$_Tree_simple_types@U?$pair@$$CBV?$tuple@HHHW4arch_t@@@std@@P6AIPBEH0H@Z@std@@@std@@@std@@@2@ABV?$tuple@HHHW4arch_t@@@2@@Z ; std::_Tree<std::_Tmap_traits<std::tuple<int,int,int,enum arch_t>,unsigned int (__cdecl*)(unsigned char const *,int,unsigned char const *,int),std::less<std::tuple<int,int,int,enum arch_t> >,std::allocator<std::pair<std::tuple<int,int,int,enum arch_t> const ,unsigned int (__cdecl*)(unsigned char const *,int,unsigned char const *,int)> >,0> >::lower_bound
PUBLIC	?_Key@?$_Tree@V?$_Tmap_traits@V?$tuple@HHHW4arch_t@@@std@@P6AIPBEH0H@ZU?$less@V?$tuple@HHHW4arch_t@@@std@@@2@V?$allocator@U?$pair@$$CBV?$tuple@HHHW4arch_t@@@std@@P6AIPBEH0H@Z@std@@@2@$0A@@std@@@std@@IBEABV?$tuple@HHHW4arch_t@@@2@PAU?$_Tree_node@U?$pair@$$CBV?$tuple@HHHW4arch_t@@@std@@P6AIPBEH0H@Z@std@@PAX@2@@Z ; std::_Tree<std::_Tmap_traits<std::tuple<int,int,int,enum arch_t>,unsigned int (__cdecl*)(unsigned char const *,int,unsigned char const *,int),std::less<std::tuple<int,int,int,enum arch_t> >,std::allocator<std::pair<std::tuple<int,int,int,enum arch_t> const ,unsigned int (__cdecl*)(unsigned char const *,int,unsigned char const *,int)> >,0> >::_Key
PUBLIC	?_Getcomp@?$_Tree_comp_alloc@V?$_Tmap_traits@V?$tuple@HHHW4arch_t@@@std@@P6AIPBEH0H@ZU?$less@V?$tuple@HHHW4arch_t@@@std@@@2@V?$allocator@U?$pair@$$CBV?$tuple@HHHW4arch_t@@@std@@P6AIPBEH0H@Z@std@@@2@$0A@@std@@@std@@QAEAAU?$less@V?$tuple@HHHW4arch_t@@@std@@@2@XZ ; std::_Tree_comp_alloc<std::_Tmap_traits<std::tuple<int,int,int,enum arch_t>,unsigned int (__cdecl*)(unsigned char const *,int,unsigned char const *,int),std::less<std::tuple<int,int,int,enum arch_t> >,std::allocator<std::pair<std::tuple<int,int,int,enum arch_t> const ,unsigned int (__cdecl*)(unsigned char const *,int,unsigned char const *,int)> >,0> >::_Getcomp
PUBLIC	??0?$_Wrap_alloc@V?$allocator@U?$_Tree_node@U?$pair@$$CBV?$tuple@HHHW4arch_t@@@std@@P6AIPBEH0H@Z@std@@PAX@std@@@std@@@std@@QAE@XZ ; std::_Wrap_alloc<std::allocator<std::_Tree_node<std::pair<std::tuple<int,int,int,enum arch_t> const ,unsigned int (__cdecl*)(unsigned char const *,int,unsigned char const *,int)>,void *> > >::_Wrap_alloc<std::allocator<std::_Tree_node<std::pair<std::tuple<int,int,int,enum arch_t> const ,unsigned int (__cdecl*)(unsigned char const *,int,unsigned char const *,int)>,void *> > >
PUBLIC	??0?$_Tree_val@U?$_Tree_simple_types@U?$pair@$$CBV?$tuple@HHHW4arch_t@@@std@@P6AIPBEH0H@Z@std@@@std@@@std@@QAE@XZ ; std::_Tree_val<std::_Tree_simple_types<std::pair<std::tuple<int,int,int,enum arch_t> const ,unsigned int (__cdecl*)(unsigned char const *,int,unsigned char const *,int)> > >::_Tree_val<std::_Tree_simple_types<std::pair<std::tuple<int,int,int,enum arch_t> const ,unsigned int (__cdecl*)(unsigned char const *,int,unsigned char const *,int)> > >
PUBLIC	??$construct@PAU?$_Tree_node@U?$pair@$$CBV?$tuple@HHHW4arch_t@@@std@@P6AIPBEH0H@Z@std@@PAX@std@@AAPAU12@@?$allocator_traits@V?$allocator@U?$_Tree_node@U?$pair@$$CBV?$tuple@HHHW4arch_t@@@std@@P6AIPBEH0H@Z@std@@PAX@std@@@std@@@std@@SAXAAV?$allocator@U?$_Tree_node@U?$pair@$$CBV?$tuple@HHHW4arch_t@@@std@@P6AIPBEH0H@Z@std@@PAX@std@@@1@PAPAU?$_Tree_node@U?$pair@$$CBV?$tuple@HHHW4arch_t@@@std@@P6AIPBEH0H@Z@std@@PAX@1@AAPAU31@@Z ; std::allocator_traits<std::allocator<std::_Tree_node<std::pair<std::tuple<int,int,int,enum arch_t> const ,unsigned int (__cdecl*)(unsigned char const *,int,unsigned char const *,int)>,void *> > >::construct<std::_Tree_node<std::pair<std::tuple<int,int,int,enum arch_t> const ,unsigned int (__cdecl*)(unsigned char const *,int,unsigned char const *,int)>,void *> *,std::_Tree_node<std::pair<std::tuple<int,int,int,enum arch_t> const ,unsigned int (__cdecl*)(unsigned char const *,int,unsigned char const *,int)>,void *> * &>
PUBLIC	??$forward@AAPAU?$_Tree_node@U?$pair@$$CBV?$tuple@HHHW4arch_t@@@std@@P6AIPBEH0H@Z@std@@PAX@std@@@std@@YAAAPAU?$_Tree_node@U?$pair@$$CBV?$tuple@HHHW4arch_t@@@std@@P6AIPBEH0H@Z@std@@PAX@0@AAPAU10@@Z ; std::forward<std::_Tree_node<std::pair<std::tuple<int,int,int,enum arch_t> const ,unsigned int (__cdecl*)(unsigned char const *,int,unsigned char const *,int)>,void *> * &>
PUBLIC	??$destroy@U?$pair@$$CBV?$tuple@HHHW4arch_t@@@std@@P6AIPBEH0H@Z@std@@@?$allocator_traits@V?$allocator@U?$_Tree_node@U?$pair@$$CBV?$tuple@HHHW4arch_t@@@std@@P6AIPBEH0H@Z@std@@PAX@std@@@std@@@std@@SAXAAV?$allocator@U?$_Tree_node@U?$pair@$$CBV?$tuple@HHHW4arch_t@@@std@@P6AIPBEH0H@Z@std@@PAX@std@@@1@PAU?$pair@$$CBV?$tuple@HHHW4arch_t@@@std@@P6AIPBEH0H@Z@1@@Z ; std::allocator_traits<std::allocator<std::_Tree_node<std::pair<std::tuple<int,int,int,enum arch_t> const ,unsigned int (__cdecl*)(unsigned char const *,int,unsigned char const *,int)>,void *> > >::destroy<std::pair<std::tuple<int,int,int,enum arch_t> const ,unsigned int (__cdecl*)(unsigned char const *,int,unsigned char const *,int)> >
PUBLIC	??$?0$$V@?$_Compressed_pair@U?$_Wrap_alloc@V?$allocator@U?$_Tree_node@U?$pair@$$CBV?$tuple@HHHW4arch_t@@@std@@P6AIPBEH0H@Z@std@@PAX@std@@@std@@@std@@V?$_Tree_val@U?$_Tree_simple_types@U?$pair@$$CBV?$tuple@HHHW4arch_t@@@std@@P6AIPBEH0H@Z@std@@@std@@@2@$00@std@@QAE@U_Zero_then_variadic_args_t@1@@Z ; std::_Compressed_pair<std::_Wrap_alloc<std::allocator<std::_Tree_node<std::pair<std::tuple<int,int,int,enum arch_t> const ,unsigned int (__cdecl*)(unsigned char const *,int,unsigned char const *,int)>,void *> > >,std::_Tree_val<std::_Tree_simple_types<std::pair<std::tuple<int,int,int,enum arch_t> const ,unsigned int (__cdecl*)(unsigned char const *,int,unsigned char const *,int)> > >,1>::_Compressed_pair<std::_Wrap_alloc<std::allocator<std::_Tree_node<std::pair<std::tuple<int,int,int,enum arch_t> const ,unsigned int (__cdecl*)(unsigned char const *,int,unsigned char const *,int)>,void *> > >,std::_Tree_val<std::_Tree_simple_types<std::pair<std::tuple<int,int,int,enum arch_t> const ,unsigned int (__cdecl*)(unsigned char const *,int,unsigned char const *,int)> > >,1><>
PUBLIC	??$destroy@PAU?$_Tree_node@U?$pair@$$CBV?$tuple@HHHW4arch_t@@@std@@P6AIPBEH0H@Z@std@@PAX@std@@@?$allocator_traits@V?$allocator@U?$_Tree_node@U?$pair@$$CBV?$tuple@HHHW4arch_t@@@std@@P6AIPBEH0H@Z@std@@PAX@std@@@std@@@std@@SAXAAV?$allocator@U?$_Tree_node@U?$pair@$$CBV?$tuple@HHHW4arch_t@@@std@@P6AIPBEH0H@Z@std@@PAX@std@@@1@PAPAU?$_Tree_node@U?$pair@$$CBV?$tuple@HHHW4arch_t@@@std@@P6AIPBEH0H@Z@std@@PAX@1@@Z ; std::allocator_traits<std::allocator<std::_Tree_node<std::pair<std::tuple<int,int,int,enum arch_t> const ,unsigned int (__cdecl*)(unsigned char const *,int,unsigned char const *,int)>,void *> > >::destroy<std::_Tree_node<std::pair<std::tuple<int,int,int,enum arch_t> const ,unsigned int (__cdecl*)(unsigned char const *,int,unsigned char const *,int)>,void *> *>
PUBLIC	??$_Try_emplace@V?$tuple@HHHW4arch_t@@@std@@$$V@?$map@V?$tuple@HHHW4arch_t@@@std@@P6AIPBEH0H@ZU?$less@V?$tuple@HHHW4arch_t@@@std@@@2@V?$allocator@U?$pair@$$CBV?$tuple@HHHW4arch_t@@@std@@P6AIPBEH0H@Z@std@@@2@@std@@QAE?AU?$pair@V?$_Tree_iterator@V?$_Tree_val@U?$_Tree_simple_types@U?$pair@$$CBV?$tuple@HHHW4arch_t@@@std@@P6AIPBEH0H@Z@std@@@std@@@std@@@std@@_N@1@$$QAV?$tuple@HHHW4arch_t@@@1@@Z ; std::map<std::tuple<int,int,int,enum arch_t>,unsigned int (__cdecl*)(unsigned char const *,int,unsigned char const *,int),std::less<std::tuple<int,int,int,enum arch_t> >,std::allocator<std::pair<std::tuple<int,int,int,enum arch_t> const ,unsigned int (__cdecl*)(unsigned char const *,int,unsigned char const *,int)> > >::_Try_emplace<std::tuple<int,int,int,enum arch_t> >
PUBLIC	??$?0AAHAAHAAHW4arch_t@@$0A@@?$tuple@HHHW4arch_t@@@std@@QAE@AAH00$$QAW4arch_t@@@Z ; std::tuple<int,int,int,enum arch_t>::tuple<int,int,int,enum arch_t><int &,int &,int &,enum arch_t,0>
PUBLIC	??$construct@PAU?$_Tree_node@U?$pair@$$CBV?$tuple@HHHW4arch_t@@@std@@P6AIPBEH0H@Z@std@@PAX@std@@AAPAU12@@?$_Wrap_alloc@V?$allocator@U?$_Tree_node@U?$pair@$$CBV?$tuple@HHHW4arch_t@@@std@@P6AIPBEH0H@Z@std@@PAX@std@@@std@@@std@@QAEXPAPAU?$_Tree_node@U?$pair@$$CBV?$tuple@HHHW4arch_t@@@std@@P6AIPBEH0H@Z@std@@PAX@1@AAPAU21@@Z ; std::_Wrap_alloc<std::allocator<std::_Tree_node<std::pair<std::tuple<int,int,int,enum arch_t> const ,unsigned int (__cdecl*)(unsigned char const *,int,unsigned char const *,int)>,void *> > >::construct<std::_Tree_node<std::pair<std::tuple<int,int,int,enum arch_t> const ,unsigned int (__cdecl*)(unsigned char const *,int,unsigned char const *,int)>,void *> *,std::_Tree_node<std::pair<std::tuple<int,int,int,enum arch_t> const ,unsigned int (__cdecl*)(unsigned char const *,int,unsigned char const *,int)>,void *> * &>
PUBLIC	??$destroy@U?$pair@$$CBV?$tuple@HHHW4arch_t@@@std@@P6AIPBEH0H@Z@std@@@?$_Wrap_alloc@V?$allocator@U?$_Tree_node@U?$pair@$$CBV?$tuple@HHHW4arch_t@@@std@@P6AIPBEH0H@Z@std@@PAX@std@@@std@@@std@@QAEXPAU?$pair@$$CBV?$tuple@HHHW4arch_t@@@std@@P6AIPBEH0H@Z@1@@Z ; std::_Wrap_alloc<std::allocator<std::_Tree_node<std::pair<std::tuple<int,int,int,enum arch_t> const ,unsigned int (__cdecl*)(unsigned char const *,int,unsigned char const *,int)>,void *> > >::destroy<std::pair<std::tuple<int,int,int,enum arch_t> const ,unsigned int (__cdecl*)(unsigned char const *,int,unsigned char const *,int)> >
PUBLIC	??$?0ABU?$less@V?$tuple@HHHW4arch_t@@@std@@@std@@U_Zero_then_variadic_args_t@1@@?$_Compressed_pair@U?$less@V?$tuple@HHHW4arch_t@@@std@@@std@@V?$_Compressed_pair@U?$_Wrap_alloc@V?$allocator@U?$_Tree_node@U?$pair@$$CBV?$tuple@HHHW4arch_t@@@std@@P6AIPBEH0H@Z@std@@PAX@std@@@std@@@std@@V?$_Tree_val@U?$_Tree_simple_types@U?$pair@$$CBV?$tuple@HHHW4arch_t@@@std@@P6AIPBEH0H@Z@std@@@std@@@2@$00@2@$00@std@@QAE@U_One_then_variadic_args_t@1@ABU?$less@V?$tuple@HHHW4arch_t@@@std@@@1@$$QAU_Zero_then_variadic_args_t@1@@Z ; std::_Compressed_pair<std::less<std::tuple<int,int,int,enum arch_t> >,std::_Compressed_pair<std::_Wrap_alloc<std::allocator<std::_Tree_node<std::pair<std::tuple<int,int,int,enum arch_t> const ,unsigned int (__cdecl*)(unsigned char const *,int,unsigned char const *,int)>,void *> > >,std::_Tree_val<std::_Tree_simple_types<std::pair<std::tuple<int,int,int,enum arch_t> const ,unsigned int (__cdecl*)(unsigned char const *,int,unsigned char const *,int)> > >,1>,1>::_Compressed_pair<std::less<std::tuple<int,int,int,enum arch_t> >,std::_Compressed_pair<std::_Wrap_alloc<std::allocator<std::_Tree_node<std::pair<std::tuple<int,int,int,enum arch_t> const ,unsigned int (__cdecl*)(unsigned char const *,int,unsigned char const *,int)>,void *> > >,std::_Tree_val<std::_Tree_simple_types<std::pair<std::tuple<int,int,int,enum arch_t> const ,unsigned int (__cdecl*)(unsigned char const *,int,unsigned char const *,int)> > >,1>,1><std::less<std::tuple<int,int,int,enum arch_t> > const &,std::_Zero_then_variadic_args_t>
PUBLIC	??$destroy@PAU?$_Tree_node@U?$pair@$$CBV?$tuple@HHHW4arch_t@@@std@@P6AIPBEH0H@Z@std@@PAX@std@@@?$_Wrap_alloc@V?$allocator@U?$_Tree_node@U?$pair@$$CBV?$tuple@HHHW4arch_t@@@std@@P6AIPBEH0H@Z@std@@PAX@std@@@std@@@std@@QAEXPAPAU?$_Tree_node@U?$pair@$$CBV?$tuple@HHHW4arch_t@@@std@@P6AIPBEH0H@Z@std@@PAX@1@@Z ; std::_Wrap_alloc<std::allocator<std::_Tree_node<std::pair<std::tuple<int,int,int,enum arch_t> const ,unsigned int (__cdecl*)(unsigned char const *,int,unsigned char const *,int)>,void *> > >::destroy<std::_Tree_node<std::pair<std::tuple<int,int,int,enum arch_t> const ,unsigned int (__cdecl*)(unsigned char const *,int,unsigned char const *,int)>,void *> *>
PUBLIC	??$addressof@PAU?$_Tree_node@U?$pair@$$CBV?$tuple@HHHW4arch_t@@@std@@P6AIPBEH0H@Z@std@@PAX@std@@@std@@YAPAPAU?$_Tree_node@U?$pair@$$CBV?$tuple@HHHW4arch_t@@@std@@P6AIPBEH0H@Z@std@@PAX@0@AAPAU10@@Z ; std::addressof<std::_Tree_node<std::pair<std::tuple<int,int,int,enum arch_t> const ,unsigned int (__cdecl*)(unsigned char const *,int,unsigned char const *,int)>,void *> *>
PUBLIC	??$addressof@U?$pair@$$CBV?$tuple@HHHW4arch_t@@@std@@P6AIPBEH0H@Z@std@@@std@@YAPAU?$pair@$$CBV?$tuple@HHHW4arch_t@@@std@@P6AIPBEH0H@Z@0@AAU10@@Z ; std::addressof<std::pair<std::tuple<int,int,int,enum arch_t> const ,unsigned int (__cdecl*)(unsigned char const *,int,unsigned char const *,int)> >
PUBLIC	??$try_emplace@$$V@?$map@V?$tuple@HHHW4arch_t@@@std@@P6AIPBEH0H@ZU?$less@V?$tuple@HHHW4arch_t@@@std@@@2@V?$allocator@U?$pair@$$CBV?$tuple@HHHW4arch_t@@@std@@P6AIPBEH0H@Z@std@@@2@@std@@QAE?AU?$pair@V?$_Tree_iterator@V?$_Tree_val@U?$_Tree_simple_types@U?$pair@$$CBV?$tuple@HHHW4arch_t@@@std@@P6AIPBEH0H@Z@std@@@std@@@std@@@std@@_N@1@$$QAV?$tuple@HHHW4arch_t@@@1@@Z ; std::map<std::tuple<int,int,int,enum arch_t>,unsigned int (__cdecl*)(unsigned char const *,int,unsigned char const *,int),std::less<std::tuple<int,int,int,enum arch_t> >,std::allocator<std::pair<std::tuple<int,int,int,enum arch_t> const ,unsigned int (__cdecl*)(unsigned char const *,int,unsigned char const *,int)> > >::try_emplace<>
PUBLIC	??$make_tuple@AAHAAHAAHW4arch_t@@@std@@YA?AV?$tuple@HHHW4arch_t@@@0@AAH00$$QAW4arch_t@@@Z ; std::make_tuple<int &,int &,int &,enum arch_t>
PUBLIC	??$Sad16_sse2@$03$01G@@YAIPBEH0H@Z		; Sad16_sse2<4,2,unsigned short>
PUBLIC	??$Sad16_sse2@$03$03G@@YAIPBEH0H@Z		; Sad16_sse2<4,4,unsigned short>
PUBLIC	??$Sad16_sse2@$03$07G@@YAIPBEH0H@Z		; Sad16_sse2<4,8,unsigned short>
PUBLIC	??$Sad16_sse2@$07$00G@@YAIPBEH0H@Z		; Sad16_sse2<8,1,unsigned short>
PUBLIC	??$Sad16_sse2@$07$01G@@YAIPBEH0H@Z		; Sad16_sse2<8,2,unsigned short>
PUBLIC	??$Sad16_sse2@$07$03G@@YAIPBEH0H@Z		; Sad16_sse2<8,4,unsigned short>
PUBLIC	??$Sad16_sse2@$07$07G@@YAIPBEH0H@Z		; Sad16_sse2<8,8,unsigned short>
PUBLIC	??$Sad16_sse2@$07$0BA@G@@YAIPBEH0H@Z		; Sad16_sse2<8,16,unsigned short>
PUBLIC	??$Sad16_sse2@$0BA@$00G@@YAIPBEH0H@Z		; Sad16_sse2<16,1,unsigned short>
PUBLIC	??$Sad16_sse2@$0BA@$01G@@YAIPBEH0H@Z		; Sad16_sse2<16,2,unsigned short>
PUBLIC	??$Sad16_sse2@$0BA@$03G@@YAIPBEH0H@Z		; Sad16_sse2<16,4,unsigned short>
PUBLIC	??$Sad16_sse2@$0BA@$07G@@YAIPBEH0H@Z		; Sad16_sse2<16,8,unsigned short>
PUBLIC	??$Sad16_sse2@$0BA@$0BA@G@@YAIPBEH0H@Z		; Sad16_sse2<16,16,unsigned short>
PUBLIC	??$Sad16_sse2@$0BA@$0CA@G@@YAIPBEH0H@Z		; Sad16_sse2<16,32,unsigned short>
PUBLIC	??$Sad16_sse2@$0CA@$07G@@YAIPBEH0H@Z		; Sad16_sse2<32,8,unsigned short>
PUBLIC	??$Sad16_sse2@$0CA@$0BA@G@@YAIPBEH0H@Z		; Sad16_sse2<32,16,unsigned short>
PUBLIC	??$Sad16_sse2@$0CA@$0CA@G@@YAIPBEH0H@Z		; Sad16_sse2<32,32,unsigned short>
PUBLIC	?allocate@?$allocator@U?$_Tree_node@U?$pair@$$CBV?$tuple@HHHW4arch_t@@@std@@P6AIPBEH0H@Z@std@@PAX@std@@@std@@QAEPAU?$_Tree_node@U?$pair@$$CBV?$tuple@HHHW4arch_t@@@std@@P6AIPBEH0H@Z@std@@PAX@2@I@Z ; std::allocator<std::_Tree_node<std::pair<std::tuple<int,int,int,enum arch_t> const ,unsigned int (__cdecl*)(unsigned char const *,int,unsigned char const *,int)>,void *> >::allocate
PUBLIC	?_Get_second@?$_Compressed_pair@U?$_Wrap_alloc@V?$allocator@U?$_Tree_node@U?$pair@$$CBV?$tuple@HHHW4arch_t@@@std@@P6AIPBEH0H@Z@std@@PAX@std@@@std@@@std@@V?$_Tree_val@U?$_Tree_simple_types@U?$pair@$$CBV?$tuple@HHHW4arch_t@@@std@@P6AIPBEH0H@Z@std@@@std@@@2@$00@std@@QBEABV?$_Tree_val@U?$_Tree_simple_types@U?$pair@$$CBV?$tuple@HHHW4arch_t@@@std@@P6AIPBEH0H@Z@std@@@std@@@2@XZ ; std::_Compressed_pair<std::_Wrap_alloc<std::allocator<std::_Tree_node<std::pair<std::tuple<int,int,int,enum arch_t> const ,unsigned int (__cdecl*)(unsigned char const *,int,unsigned char const *,int)>,void *> > >,std::_Tree_val<std::_Tree_simple_types<std::pair<std::tuple<int,int,int,enum arch_t> const ,unsigned int (__cdecl*)(unsigned char const *,int,unsigned char const *,int)> > >,1>::_Get_second
PUBLIC	?_Get_second@?$_Compressed_pair@U?$less@V?$tuple@HHHW4arch_t@@@std@@@std@@V?$_Compressed_pair@U?$_Wrap_alloc@V?$allocator@U?$_Tree_node@U?$pair@$$CBV?$tuple@HHHW4arch_t@@@std@@P6AIPBEH0H@Z@std@@PAX@std@@@std@@@std@@V?$_Tree_val@U?$_Tree_simple_types@U?$pair@$$CBV?$tuple@HHHW4arch_t@@@std@@P6AIPBEH0H@Z@std@@@std@@@2@$00@2@$00@std@@QBEABV?$_Compressed_pair@U?$_Wrap_alloc@V?$allocator@U?$_Tree_node@U?$pair@$$CBV?$tuple@HHHW4arch_t@@@std@@P6AIPBEH0H@Z@std@@PAX@std@@@std@@@std@@V?$_Tree_val@U?$_Tree_simple_types@U?$pair@$$CBV?$tuple@HHHW4arch_t@@@std@@P6AIPBEH0H@Z@std@@@std@@@2@$00@2@XZ ; std::_Compressed_pair<std::less<std::tuple<int,int,int,enum arch_t> >,std::_Compressed_pair<std::_Wrap_alloc<std::allocator<std::_Tree_node<std::pair<std::tuple<int,int,int,enum arch_t> const ,unsigned int (__cdecl*)(unsigned char const *,int,unsigned char const *,int)>,void *> > >,std::_Tree_val<std::_Tree_simple_types<std::pair<std::tuple<int,int,int,enum arch_t> const ,unsigned int (__cdecl*)(unsigned char const *,int,unsigned char const *,int)> > >,1>,1>::_Get_second
PUBLIC	?_Get_data@?$_Tree_comp_alloc@V?$_Tmap_traits@V?$tuple@HHHW4arch_t@@@std@@P6AIPBEH0H@ZU?$less@V?$tuple@HHHW4arch_t@@@std@@@2@V?$allocator@U?$pair@$$CBV?$tuple@HHHW4arch_t@@@std@@P6AIPBEH0H@Z@std@@@2@$0A@@std@@@std@@QBEABV?$_Tree_val@U?$_Tree_simple_types@U?$pair@$$CBV?$tuple@HHHW4arch_t@@@std@@P6AIPBEH0H@Z@std@@@std@@@2@XZ ; std::_Tree_comp_alloc<std::_Tmap_traits<std::tuple<int,int,int,enum arch_t>,unsigned int (__cdecl*)(unsigned char const *,int,unsigned char const *,int),std::less<std::tuple<int,int,int,enum arch_t> >,std::allocator<std::pair<std::tuple<int,int,int,enum arch_t> const ,unsigned int (__cdecl*)(unsigned char const *,int,unsigned char const *,int)> >,0> >::_Get_data
PUBLIC	?allocate@?$_Wrap_alloc@V?$allocator@U?$_Tree_node@U?$pair@$$CBV?$tuple@HHHW4arch_t@@@std@@P6AIPBEH0H@Z@std@@PAX@std@@@std@@@std@@QAEPAU?$_Tree_node@U?$pair@$$CBV?$tuple@HHHW4arch_t@@@std@@P6AIPBEH0H@Z@std@@PAX@2@I@Z ; std::_Wrap_alloc<std::allocator<std::_Tree_node<std::pair<std::tuple<int,int,int,enum arch_t> const ,unsigned int (__cdecl*)(unsigned char const *,int,unsigned char const *,int)>,void *> > >::allocate
PUBLIC	?_Color@?$_Tree_val@U?$_Tree_simple_types@U?$pair@$$CBV?$tuple@HHHW4arch_t@@@std@@P6AIPBEH0H@Z@std@@@std@@@std@@SAAADPAU?$_Tree_node@U?$pair@$$CBV?$tuple@HHHW4arch_t@@@std@@P6AIPBEH0H@Z@std@@PAX@2@@Z ; std::_Tree_val<std::_Tree_simple_types<std::pair<std::tuple<int,int,int,enum arch_t> const ,unsigned int (__cdecl*)(unsigned char const *,int,unsigned char const *,int)> > >::_Color
PUBLIC	?_Isnil@?$_Tree_val@U?$_Tree_simple_types@U?$pair@$$CBV?$tuple@HHHW4arch_t@@@std@@P6AIPBEH0H@Z@std@@@std@@@std@@SAAADPAU?$_Tree_node@U?$pair@$$CBV?$tuple@HHHW4arch_t@@@std@@P6AIPBEH0H@Z@std@@PAX@2@@Z ; std::_Tree_val<std::_Tree_simple_types<std::pair<std::tuple<int,int,int,enum arch_t> const ,unsigned int (__cdecl*)(unsigned char const *,int,unsigned char const *,int)> > >::_Isnil
PUBLIC	?_Max@?$_Tree_val@U?$_Tree_simple_types@U?$pair@$$CBV?$tuple@HHHW4arch_t@@@std@@P6AIPBEH0H@Z@std@@@std@@@std@@SAPAU?$_Tree_node@U?$pair@$$CBV?$tuple@HHHW4arch_t@@@std@@P6AIPBEH0H@Z@std@@PAX@2@PAU32@@Z ; std::_Tree_val<std::_Tree_simple_types<std::pair<std::tuple<int,int,int,enum arch_t> const ,unsigned int (__cdecl*)(unsigned char const *,int,unsigned char const *,int)> > >::_Max
PUBLIC	?_Min@?$_Tree_val@U?$_Tree_simple_types@U?$pair@$$CBV?$tuple@HHHW4arch_t@@@std@@P6AIPBEH0H@Z@std@@@std@@@std@@SAPAU?$_Tree_node@U?$pair@$$CBV?$tuple@HHHW4arch_t@@@std@@P6AIPBEH0H@Z@std@@PAX@2@PAU32@@Z ; std::_Tree_val<std::_Tree_simple_types<std::pair<std::tuple<int,int,int,enum arch_t> const ,unsigned int (__cdecl*)(unsigned char const *,int,unsigned char const *,int)> > >::_Min
PUBLIC	??0?$_Tree_unchecked_const_iterator@V?$_Tree_val@U?$_Tree_simple_types@U?$pair@$$CBV?$tuple@HHHW4arch_t@@@std@@P6AIPBEH0H@Z@std@@@std@@@std@@U_Iterator_base0@2@@std@@QAE@PAU?$_Tree_node@U?$pair@$$CBV?$tuple@HHHW4arch_t@@@std@@P6AIPBEH0H@Z@std@@PAX@1@PBV?$_Tree_val@U?$_Tree_simple_types@U?$pair@$$CBV?$tuple@HHHW4arch_t@@@std@@P6AIPBEH0H@Z@std@@@std@@@1@@Z ; std::_Tree_unchecked_const_iterator<std::_Tree_val<std::_Tree_simple_types<std::pair<std::tuple<int,int,int,enum arch_t> const ,unsigned int (__cdecl*)(unsigned char const *,int,unsigned char const *,int)> > >,std::_Iterator_base0>::_Tree_unchecked_const_iterator<std::_Tree_val<std::_Tree_simple_types<std::pair<std::tuple<int,int,int,enum arch_t> const ,unsigned int (__cdecl*)(unsigned char const *,int,unsigned char const *,int)> > >,std::_Iterator_base0>
PUBLIC	??E?$_Tree_unchecked_const_iterator@V?$_Tree_val@U?$_Tree_simple_types@U?$pair@$$CBV?$tuple@HHHW4arch_t@@@std@@P6AIPBEH0H@Z@std@@@std@@@std@@U_Iterator_base0@2@@std@@QAEAAV01@XZ ; std::_Tree_unchecked_const_iterator<std::_Tree_val<std::_Tree_simple_types<std::pair<std::tuple<int,int,int,enum arch_t> const ,unsigned int (__cdecl*)(unsigned char const *,int,unsigned char const *,int)> > >,std::_Iterator_base0>::operator++
PUBLIC	?_Erase@?$_Tree@V?$_Tmap_traits@V?$tuple@HHHW4arch_t@@@std@@P6AIPBEH0H@ZU?$less@V?$tuple@HHHW4arch_t@@@std@@@2@V?$allocator@U?$pair@$$CBV?$tuple@HHHW4arch_t@@@std@@P6AIPBEH0H@Z@std@@@2@$0A@@std@@@std@@IAEXPAU?$_Tree_node@U?$pair@$$CBV?$tuple@HHHW4arch_t@@@std@@P6AIPBEH0H@Z@std@@PAX@2@@Z ; std::_Tree<std::_Tmap_traits<std::tuple<int,int,int,enum arch_t>,unsigned int (__cdecl*)(unsigned char const *,int,unsigned char const *,int),std::less<std::tuple<int,int,int,enum arch_t> >,std::allocator<std::pair<std::tuple<int,int,int,enum arch_t> const ,unsigned int (__cdecl*)(unsigned char const *,int,unsigned char const *,int)> >,0> >::_Erase
PUBLIC	?_Lrotate@?$_Tree@V?$_Tmap_traits@V?$tuple@HHHW4arch_t@@@std@@P6AIPBEH0H@ZU?$less@V?$tuple@HHHW4arch_t@@@std@@@2@V?$allocator@U?$pair@$$CBV?$tuple@HHHW4arch_t@@@std@@P6AIPBEH0H@Z@std@@@2@$0A@@std@@@std@@IAEXPAU?$_Tree_node@U?$pair@$$CBV?$tuple@HHHW4arch_t@@@std@@P6AIPBEH0H@Z@std@@PAX@2@@Z ; std::_Tree<std::_Tmap_traits<std::tuple<int,int,int,enum arch_t>,unsigned int (__cdecl*)(unsigned char const *,int,unsigned char const *,int),std::less<std::tuple<int,int,int,enum arch_t> >,std::allocator<std::pair<std::tuple<int,int,int,enum arch_t> const ,unsigned int (__cdecl*)(unsigned char const *,int,unsigned char const *,int)> >,0> >::_Lrotate
PUBLIC	?_Rmost@?$_Tree@V?$_Tmap_traits@V?$tuple@HHHW4arch_t@@@std@@P6AIPBEH0H@ZU?$less@V?$tuple@HHHW4arch_t@@@std@@@2@V?$allocator@U?$pair@$$CBV?$tuple@HHHW4arch_t@@@std@@P6AIPBEH0H@Z@std@@@2@$0A@@std@@@std@@IBEAAPAU?$_Tree_node@U?$pair@$$CBV?$tuple@HHHW4arch_t@@@std@@P6AIPBEH0H@Z@std@@PAX@2@XZ ; std::_Tree<std::_Tmap_traits<std::tuple<int,int,int,enum arch_t>,unsigned int (__cdecl*)(unsigned char const *,int,unsigned char const *,int),std::less<std::tuple<int,int,int,enum arch_t> >,std::allocator<std::pair<std::tuple<int,int,int,enum arch_t> const ,unsigned int (__cdecl*)(unsigned char const *,int,unsigned char const *,int)> >,0> >::_Rmost
PUBLIC	?_Root@?$_Tree@V?$_Tmap_traits@V?$tuple@HHHW4arch_t@@@std@@P6AIPBEH0H@ZU?$less@V?$tuple@HHHW4arch_t@@@std@@@2@V?$allocator@U?$pair@$$CBV?$tuple@HHHW4arch_t@@@std@@P6AIPBEH0H@Z@std@@@2@$0A@@std@@@std@@IBEAAPAU?$_Tree_node@U?$pair@$$CBV?$tuple@HHHW4arch_t@@@std@@P6AIPBEH0H@Z@std@@PAX@2@XZ ; std::_Tree<std::_Tmap_traits<std::tuple<int,int,int,enum arch_t>,unsigned int (__cdecl*)(unsigned char const *,int,unsigned char const *,int),std::less<std::tuple<int,int,int,enum arch_t> >,std::allocator<std::pair<std::tuple<int,int,int,enum arch_t> const ,unsigned int (__cdecl*)(unsigned char const *,int,unsigned char const *,int)> >,0> >::_Root
PUBLIC	?_Rrotate@?$_Tree@V?$_Tmap_traits@V?$tuple@HHHW4arch_t@@@std@@P6AIPBEH0H@ZU?$less@V?$tuple@HHHW4arch_t@@@std@@@2@V?$allocator@U?$pair@$$CBV?$tuple@HHHW4arch_t@@@std@@P6AIPBEH0H@Z@std@@@2@$0A@@std@@@std@@IAEXPAU?$_Tree_node@U?$pair@$$CBV?$tuple@HHHW4arch_t@@@std@@P6AIPBEH0H@Z@std@@PAX@2@@Z ; std::_Tree<std::_Tmap_traits<std::tuple<int,int,int,enum arch_t>,unsigned int (__cdecl*)(unsigned char const *,int,unsigned char const *,int),std::less<std::tuple<int,int,int,enum arch_t> >,std::allocator<std::pair<std::tuple<int,int,int,enum arch_t> const ,unsigned int (__cdecl*)(unsigned char const *,int,unsigned char const *,int)> >,0> >::_Rrotate
PUBLIC	?_Color@?$_Tree_comp_alloc@V?$_Tmap_traits@V?$tuple@HHHW4arch_t@@@std@@P6AIPBEH0H@ZU?$less@V?$tuple@HHHW4arch_t@@@std@@@2@V?$allocator@U?$pair@$$CBV?$tuple@HHHW4arch_t@@@std@@P6AIPBEH0H@Z@std@@@2@$0A@@std@@@std@@SAAADPAU?$_Tree_node@U?$pair@$$CBV?$tuple@HHHW4arch_t@@@std@@P6AIPBEH0H@Z@std@@PAX@2@@Z ; std::_Tree_comp_alloc<std::_Tmap_traits<std::tuple<int,int,int,enum arch_t>,unsigned int (__cdecl*)(unsigned char const *,int,unsigned char const *,int),std::less<std::tuple<int,int,int,enum arch_t> >,std::allocator<std::pair<std::tuple<int,int,int,enum arch_t> const ,unsigned int (__cdecl*)(unsigned char const *,int,unsigned char const *,int)> >,0> >::_Color
PUBLIC	?_Isnil@?$_Tree_comp_alloc@V?$_Tmap_traits@V?$tuple@HHHW4arch_t@@@std@@P6AIPBEH0H@ZU?$less@V?$tuple@HHHW4arch_t@@@std@@@2@V?$allocator@U?$pair@$$CBV?$tuple@HHHW4arch_t@@@std@@P6AIPBEH0H@Z@std@@@2@$0A@@std@@@std@@SAAADPAU?$_Tree_node@U?$pair@$$CBV?$tuple@HHHW4arch_t@@@std@@P6AIPBEH0H@Z@std@@PAX@2@@Z ; std::_Tree_comp_alloc<std::_Tmap_traits<std::tuple<int,int,int,enum arch_t>,unsigned int (__cdecl*)(unsigned char const *,int,unsigned char const *,int),std::less<std::tuple<int,int,int,enum arch_t> >,std::allocator<std::pair<std::tuple<int,int,int,enum arch_t> const ,unsigned int (__cdecl*)(unsigned char const *,int,unsigned char const *,int)> >,0> >::_Isnil
PUBLIC	?_Myval@?$_Tree_comp_alloc@V?$_Tmap_traits@V?$tuple@HHHW4arch_t@@@std@@P6AIPBEH0H@ZU?$less@V?$tuple@HHHW4arch_t@@@std@@@2@V?$allocator@U?$pair@$$CBV?$tuple@HHHW4arch_t@@@std@@P6AIPBEH0H@Z@std@@@2@$0A@@std@@@std@@SAAAU?$pair@$$CBV?$tuple@HHHW4arch_t@@@std@@P6AIPBEH0H@Z@2@PAU?$_Tree_node@U?$pair@$$CBV?$tuple@HHHW4arch_t@@@std@@P6AIPBEH0H@Z@std@@PAX@2@@Z ; std::_Tree_comp_alloc<std::_Tmap_traits<std::tuple<int,int,int,enum arch_t>,unsigned int (__cdecl*)(unsigned char const *,int,unsigned char const *,int),std::less<std::tuple<int,int,int,enum arch_t> >,std::allocator<std::pair<std::tuple<int,int,int,enum arch_t> const ,unsigned int (__cdecl*)(unsigned char const *,int,unsigned char const *,int)> >,0> >::_Myval
PUBLIC	?_Max@?$_Tree_comp_alloc@V?$_Tmap_traits@V?$tuple@HHHW4arch_t@@@std@@P6AIPBEH0H@ZU?$less@V?$tuple@HHHW4arch_t@@@std@@@2@V?$allocator@U?$pair@$$CBV?$tuple@HHHW4arch_t@@@std@@P6AIPBEH0H@Z@std@@@2@$0A@@std@@@std@@SAPAU?$_Tree_node@U?$pair@$$CBV?$tuple@HHHW4arch_t@@@std@@P6AIPBEH0H@Z@std@@PAX@2@PAU32@@Z ; std::_Tree_comp_alloc<std::_Tmap_traits<std::tuple<int,int,int,enum arch_t>,unsigned int (__cdecl*)(unsigned char const *,int,unsigned char const *,int),std::less<std::tuple<int,int,int,enum arch_t> >,std::allocator<std::pair<std::tuple<int,int,int,enum arch_t> const ,unsigned int (__cdecl*)(unsigned char const *,int,unsigned char const *,int)> >,0> >::_Max
PUBLIC	?_Min@?$_Tree_comp_alloc@V?$_Tmap_traits@V?$tuple@HHHW4arch_t@@@std@@P6AIPBEH0H@ZU?$less@V?$tuple@HHHW4arch_t@@@std@@@2@V?$allocator@U?$pair@$$CBV?$tuple@HHHW4arch_t@@@std@@P6AIPBEH0H@Z@std@@@2@$0A@@std@@@std@@SAPAU?$_Tree_node@U?$pair@$$CBV?$tuple@HHHW4arch_t@@@std@@P6AIPBEH0H@Z@std@@PAX@2@PAU32@@Z ; std::_Tree_comp_alloc<std::_Tmap_traits<std::tuple<int,int,int,enum arch_t>,unsigned int (__cdecl*)(unsigned char const *,int,unsigned char const *,int),std::less<std::tuple<int,int,int,enum arch_t> >,std::allocator<std::pair<std::tuple<int,int,int,enum arch_t> const ,unsigned int (__cdecl*)(unsigned char const *,int,unsigned char const *,int)> >,0> >::_Min
PUBLIC	?_Buyheadnode@?$_Tree_comp_alloc@V?$_Tmap_traits@V?$tuple@HHHW4arch_t@@@std@@P6AIPBEH0H@ZU?$less@V?$tuple@HHHW4arch_t@@@std@@@2@V?$allocator@U?$pair@$$CBV?$tuple@HHHW4arch_t@@@std@@P6AIPBEH0H@Z@std@@@2@$0A@@std@@@std@@QAEPAU?$_Tree_node@U?$pair@$$CBV?$tuple@HHHW4arch_t@@@std@@P6AIPBEH0H@Z@std@@PAX@2@XZ ; std::_Tree_comp_alloc<std::_Tmap_traits<std::tuple<int,int,int,enum arch_t>,unsigned int (__cdecl*)(unsigned char const *,int,unsigned char const *,int),std::less<std::tuple<int,int,int,enum arch_t> >,std::allocator<std::pair<std::tuple<int,int,int,enum arch_t> const ,unsigned int (__cdecl*)(unsigned char const *,int,unsigned char const *,int)> >,0> >::_Buyheadnode
PUBLIC	?_Myhead@?$_Tree_comp_alloc@V?$_Tmap_traits@V?$tuple@HHHW4arch_t@@@std@@P6AIPBEH0H@ZU?$less@V?$tuple@HHHW4arch_t@@@std@@@2@V?$allocator@U?$pair@$$CBV?$tuple@HHHW4arch_t@@@std@@P6AIPBEH0H@Z@std@@@2@$0A@@std@@@std@@QBEABQAU?$_Tree_node@U?$pair@$$CBV?$tuple@HHHW4arch_t@@@std@@P6AIPBEH0H@Z@std@@PAX@2@XZ ; std::_Tree_comp_alloc<std::_Tmap_traits<std::tuple<int,int,int,enum arch_t>,unsigned int (__cdecl*)(unsigned char const *,int,unsigned char const *,int),std::less<std::tuple<int,int,int,enum arch_t> >,std::allocator<std::pair<std::tuple<int,int,int,enum arch_t> const ,unsigned int (__cdecl*)(unsigned char const *,int,unsigned char const *,int)> >,0> >::_Myhead
PUBLIC	?_Mysize@?$_Tree_comp_alloc@V?$_Tmap_traits@V?$tuple@HHHW4arch_t@@@std@@P6AIPBEH0H@ZU?$less@V?$tuple@HHHW4arch_t@@@std@@@2@V?$allocator@U?$pair@$$CBV?$tuple@HHHW4arch_t@@@std@@P6AIPBEH0H@Z@std@@@2@$0A@@std@@@std@@QAEAAIXZ ; std::_Tree_comp_alloc<std::_Tmap_traits<std::tuple<int,int,int,enum arch_t>,unsigned int (__cdecl*)(unsigned char const *,int,unsigned char const *,int),std::less<std::tuple<int,int,int,enum arch_t> >,std::allocator<std::pair<std::tuple<int,int,int,enum arch_t> const ,unsigned int (__cdecl*)(unsigned char const *,int,unsigned char const *,int)> >,0> >::_Mysize
PUBLIC	?deallocate@?$allocator@U?$_Tree_node@U?$pair@$$CBV?$tuple@HHHW4arch_t@@@std@@P6AIPBEH0H@Z@std@@PAX@std@@@std@@QAEXPAU?$_Tree_node@U?$pair@$$CBV?$tuple@HHHW4arch_t@@@std@@P6AIPBEH0H@Z@std@@PAX@2@I@Z ; std::allocator<std::_Tree_node<std::pair<std::tuple<int,int,int,enum arch_t> const ,unsigned int (__cdecl*)(unsigned char const *,int,unsigned char const *,int)>,void *> >::deallocate
PUBLIC	?_Left@?$_Tree_val@U?$_Tree_simple_types@U?$pair@$$CBV?$tuple@HHHW4arch_t@@@std@@P6AIPBEH0H@Z@std@@@std@@@std@@SAAAPAU?$_Tree_node@U?$pair@$$CBV?$tuple@HHHW4arch_t@@@std@@P6AIPBEH0H@Z@std@@PAX@2@PAU32@@Z ; std::_Tree_val<std::_Tree_simple_types<std::pair<std::tuple<int,int,int,enum arch_t> const ,unsigned int (__cdecl*)(unsigned char const *,int,unsigned char const *,int)> > >::_Left
PUBLIC	?_Parent@?$_Tree_val@U?$_Tree_simple_types@U?$pair@$$CBV?$tuple@HHHW4arch_t@@@std@@P6AIPBEH0H@Z@std@@@std@@@std@@SAAAPAU?$_Tree_node@U?$pair@$$CBV?$tuple@HHHW4arch_t@@@std@@P6AIPBEH0H@Z@std@@PAX@2@PAU32@@Z ; std::_Tree_val<std::_Tree_simple_types<std::pair<std::tuple<int,int,int,enum arch_t> const ,unsigned int (__cdecl*)(unsigned char const *,int,unsigned char const *,int)> > >::_Parent
PUBLIC	?_Right@?$_Tree_val@U?$_Tree_simple_types@U?$pair@$$CBV?$tuple@HHHW4arch_t@@@std@@P6AIPBEH0H@Z@std@@@std@@@std@@SAAAPAU?$_Tree_node@U?$pair@$$CBV?$tuple@HHHW4arch_t@@@std@@P6AIPBEH0H@Z@std@@PAX@2@PAU32@@Z ; std::_Tree_val<std::_Tree_simple_types<std::pair<std::tuple<int,int,int,enum arch_t> const ,unsigned int (__cdecl*)(unsigned char const *,int,unsigned char const *,int)> > >::_Right
PUBLIC	?_Myval@?$_Tree_val@U?$_Tree_simple_types@U?$pair@$$CBV?$tuple@HHHW4arch_t@@@std@@P6AIPBEH0H@Z@std@@@std@@@std@@SAAAU?$pair@$$CBV?$tuple@HHHW4arch_t@@@std@@P6AIPBEH0H@Z@2@PAU?$_Tree_node@U?$pair@$$CBV?$tuple@HHHW4arch_t@@@std@@P6AIPBEH0H@Z@std@@PAX@2@@Z ; std::_Tree_val<std::_Tree_simple_types<std::pair<std::tuple<int,int,int,enum arch_t> const ,unsigned int (__cdecl*)(unsigned char const *,int,unsigned char const *,int)> > >::_Myval
PUBLIC	??0?$_Tree_const_iterator@V?$_Tree_val@U?$_Tree_simple_types@U?$pair@$$CBV?$tuple@HHHW4arch_t@@@std@@P6AIPBEH0H@Z@std@@@std@@@std@@@std@@QAE@PAU?$_Tree_node@U?$pair@$$CBV?$tuple@HHHW4arch_t@@@std@@P6AIPBEH0H@Z@std@@PAX@1@PBV?$_Tree_val@U?$_Tree_simple_types@U?$pair@$$CBV?$tuple@HHHW4arch_t@@@std@@P6AIPBEH0H@Z@std@@@std@@@1@@Z ; std::_Tree_const_iterator<std::_Tree_val<std::_Tree_simple_types<std::pair<std::tuple<int,int,int,enum arch_t> const ,unsigned int (__cdecl*)(unsigned char const *,int,unsigned char const *,int)> > > >::_Tree_const_iterator<std::_Tree_val<std::_Tree_simple_types<std::pair<std::tuple<int,int,int,enum arch_t> const ,unsigned int (__cdecl*)(unsigned char const *,int,unsigned char const *,int)> > > >
PUBLIC	??E?$_Tree_const_iterator@V?$_Tree_val@U?$_Tree_simple_types@U?$pair@$$CBV?$tuple@HHHW4arch_t@@@std@@P6AIPBEH0H@Z@std@@@std@@@std@@@std@@QAEAAV01@XZ ; std::_Tree_const_iterator<std::_Tree_val<std::_Tree_simple_types<std::pair<std::tuple<int,int,int,enum arch_t> const ,unsigned int (__cdecl*)(unsigned char const *,int,unsigned char const *,int)> > > >::operator++
PUBLIC	?_Get_first@?$_Compressed_pair@U?$_Wrap_alloc@V?$allocator@U?$_Tree_node@U?$pair@$$CBV?$tuple@HHHW4arch_t@@@std@@P6AIPBEH0H@Z@std@@PAX@std@@@std@@@std@@V?$_Tree_val@U?$_Tree_simple_types@U?$pair@$$CBV?$tuple@HHHW4arch_t@@@std@@P6AIPBEH0H@Z@std@@@std@@@2@$00@std@@QAEAAU?$_Wrap_alloc@V?$allocator@U?$_Tree_node@U?$pair@$$CBV?$tuple@HHHW4arch_t@@@std@@P6AIPBEH0H@Z@std@@PAX@std@@@std@@@2@XZ ; std::_Compressed_pair<std::_Wrap_alloc<std::allocator<std::_Tree_node<std::pair<std::tuple<int,int,int,enum arch_t> const ,unsigned int (__cdecl*)(unsigned char const *,int,unsigned char const *,int)>,void *> > >,std::_Tree_val<std::_Tree_simple_types<std::pair<std::tuple<int,int,int,enum arch_t> const ,unsigned int (__cdecl*)(unsigned char const *,int,unsigned char const *,int)> > >,1>::_Get_first
PUBLIC	?_Get_second@?$_Compressed_pair@U?$_Wrap_alloc@V?$allocator@U?$_Tree_node@U?$pair@$$CBV?$tuple@HHHW4arch_t@@@std@@P6AIPBEH0H@Z@std@@PAX@std@@@std@@@std@@V?$_Tree_val@U?$_Tree_simple_types@U?$pair@$$CBV?$tuple@HHHW4arch_t@@@std@@P6AIPBEH0H@Z@std@@@std@@@2@$00@std@@QAEAAV?$_Tree_val@U?$_Tree_simple_types@U?$pair@$$CBV?$tuple@HHHW4arch_t@@@std@@P6AIPBEH0H@Z@std@@@std@@@2@XZ ; std::_Compressed_pair<std::_Wrap_alloc<std::allocator<std::_Tree_node<std::pair<std::tuple<int,int,int,enum arch_t> const ,unsigned int (__cdecl*)(unsigned char const *,int,unsigned char const *,int)>,void *> > >,std::_Tree_val<std::_Tree_simple_types<std::pair<std::tuple<int,int,int,enum arch_t> const ,unsigned int (__cdecl*)(unsigned char const *,int,unsigned char const *,int)> > >,1>::_Get_second
PUBLIC	?_Get_second@?$_Compressed_pair@U?$less@V?$tuple@HHHW4arch_t@@@std@@@std@@V?$_Compressed_pair@U?$_Wrap_alloc@V?$allocator@U?$_Tree_node@U?$pair@$$CBV?$tuple@HHHW4arch_t@@@std@@P6AIPBEH0H@Z@std@@PAX@std@@@std@@@std@@V?$_Tree_val@U?$_Tree_simple_types@U?$pair@$$CBV?$tuple@HHHW4arch_t@@@std@@P6AIPBEH0H@Z@std@@@std@@@2@$00@2@$00@std@@QAEAAV?$_Compressed_pair@U?$_Wrap_alloc@V?$allocator@U?$_Tree_node@U?$pair@$$CBV?$tuple@HHHW4arch_t@@@std@@P6AIPBEH0H@Z@std@@PAX@std@@@std@@@std@@V?$_Tree_val@U?$_Tree_simple_types@U?$pair@$$CBV?$tuple@HHHW4arch_t@@@std@@P6AIPBEH0H@Z@std@@@std@@@2@$00@2@XZ ; std::_Compressed_pair<std::less<std::tuple<int,int,int,enum arch_t> >,std::_Compressed_pair<std::_Wrap_alloc<std::allocator<std::_Tree_node<std::pair<std::tuple<int,int,int,enum arch_t> const ,unsigned int (__cdecl*)(unsigned char const *,int,unsigned char const *,int)>,void *> > >,std::_Tree_val<std::_Tree_simple_types<std::pair<std::tuple<int,int,int,enum arch_t> const ,unsigned int (__cdecl*)(unsigned char const *,int,unsigned char const *,int)> > >,1>,1>::_Get_second
PUBLIC	?_Mynode@?$_Tree_unchecked_const_iterator@V?$_Tree_val@U?$_Tree_simple_types@U?$pair@$$CBV?$tuple@HHHW4arch_t@@@std@@P6AIPBEH0H@Z@std@@@std@@@std@@U_Iterator_base0@2@@std@@QBEPAU?$_Tree_node@U?$pair@$$CBV?$tuple@HHHW4arch_t@@@std@@P6AIPBEH0H@Z@std@@PAX@2@XZ ; std::_Tree_unchecked_const_iterator<std::_Tree_val<std::_Tree_simple_types<std::pair<std::tuple<int,int,int,enum arch_t> const ,unsigned int (__cdecl*)(unsigned char const *,int,unsigned char const *,int)> > >,std::_Iterator_base0>::_Mynode
PUBLIC	?erase@?$_Tree@V?$_Tmap_traits@V?$tuple@HHHW4arch_t@@@std@@P6AIPBEH0H@ZU?$less@V?$tuple@HHHW4arch_t@@@std@@@2@V?$allocator@U?$pair@$$CBV?$tuple@HHHW4arch_t@@@std@@P6AIPBEH0H@Z@std@@@2@$0A@@std@@@std@@QAE?AV?$_Tree_iterator@V?$_Tree_val@U?$_Tree_simple_types@U?$pair@$$CBV?$tuple@HHHW4arch_t@@@std@@P6AIPBEH0H@Z@std@@@std@@@std@@@2@V?$_Tree_const_iterator@V?$_Tree_val@U?$_Tree_simple_types@U?$pair@$$CBV?$tuple@HHHW4arch_t@@@std@@P6AIPBEH0H@Z@std@@@std@@@std@@@2@@Z ; std::_Tree<std::_Tmap_traits<std::tuple<int,int,int,enum arch_t>,unsigned int (__cdecl*)(unsigned char const *,int,unsigned char const *,int),std::less<std::tuple<int,int,int,enum arch_t> >,std::allocator<std::pair<std::tuple<int,int,int,enum arch_t> const ,unsigned int (__cdecl*)(unsigned char const *,int,unsigned char const *,int)> >,0> >::erase
PUBLIC	?clear@?$_Tree@V?$_Tmap_traits@V?$tuple@HHHW4arch_t@@@std@@P6AIPBEH0H@ZU?$less@V?$tuple@HHHW4arch_t@@@std@@@2@V?$allocator@U?$pair@$$CBV?$tuple@HHHW4arch_t@@@std@@P6AIPBEH0H@Z@std@@@2@$0A@@std@@@std@@QAEXXZ ; std::_Tree<std::_Tmap_traits<std::tuple<int,int,int,enum arch_t>,unsigned int (__cdecl*)(unsigned char const *,int,unsigned char const *,int),std::less<std::tuple<int,int,int,enum arch_t> >,std::allocator<std::pair<std::tuple<int,int,int,enum arch_t> const ,unsigned int (__cdecl*)(unsigned char const *,int,unsigned char const *,int)> >,0> >::clear
PUBLIC	?_Lmost@?$_Tree@V?$_Tmap_traits@V?$tuple@HHHW4arch_t@@@std@@P6AIPBEH0H@ZU?$less@V?$tuple@HHHW4arch_t@@@std@@@2@V?$allocator@U?$pair@$$CBV?$tuple@HHHW4arch_t@@@std@@P6AIPBEH0H@Z@std@@@2@$0A@@std@@@std@@IBEAAPAU?$_Tree_node@U?$pair@$$CBV?$tuple@HHHW4arch_t@@@std@@P6AIPBEH0H@Z@std@@PAX@2@XZ ; std::_Tree<std::_Tmap_traits<std::tuple<int,int,int,enum arch_t>,unsigned int (__cdecl*)(unsigned char const *,int,unsigned char const *,int),std::less<std::tuple<int,int,int,enum arch_t> >,std::allocator<std::pair<std::tuple<int,int,int,enum arch_t> const ,unsigned int (__cdecl*)(unsigned char const *,int,unsigned char const *,int)> >,0> >::_Lmost
PUBLIC	?_Left@?$_Tree_comp_alloc@V?$_Tmap_traits@V?$tuple@HHHW4arch_t@@@std@@P6AIPBEH0H@ZU?$less@V?$tuple@HHHW4arch_t@@@std@@@2@V?$allocator@U?$pair@$$CBV?$tuple@HHHW4arch_t@@@std@@P6AIPBEH0H@Z@std@@@2@$0A@@std@@@std@@SAAAPAU?$_Tree_node@U?$pair@$$CBV?$tuple@HHHW4arch_t@@@std@@P6AIPBEH0H@Z@std@@PAX@2@PAU32@@Z ; std::_Tree_comp_alloc<std::_Tmap_traits<std::tuple<int,int,int,enum arch_t>,unsigned int (__cdecl*)(unsigned char const *,int,unsigned char const *,int),std::less<std::tuple<int,int,int,enum arch_t> >,std::allocator<std::pair<std::tuple<int,int,int,enum arch_t> const ,unsigned int (__cdecl*)(unsigned char const *,int,unsigned char const *,int)> >,0> >::_Left
PUBLIC	?_Parent@?$_Tree_comp_alloc@V?$_Tmap_traits@V?$tuple@HHHW4arch_t@@@std@@P6AIPBEH0H@ZU?$less@V?$tuple@HHHW4arch_t@@@std@@@2@V?$allocator@U?$pair@$$CBV?$tuple@HHHW4arch_t@@@std@@P6AIPBEH0H@Z@std@@@2@$0A@@std@@@std@@SAAAPAU?$_Tree_node@U?$pair@$$CBV?$tuple@HHHW4arch_t@@@std@@P6AIPBEH0H@Z@std@@PAX@2@PAU32@@Z ; std::_Tree_comp_alloc<std::_Tmap_traits<std::tuple<int,int,int,enum arch_t>,unsigned int (__cdecl*)(unsigned char const *,int,unsigned char const *,int),std::less<std::tuple<int,int,int,enum arch_t> >,std::allocator<std::pair<std::tuple<int,int,int,enum arch_t> const ,unsigned int (__cdecl*)(unsigned char const *,int,unsigned char const *,int)> >,0> >::_Parent
PUBLIC	?_Right@?$_Tree_comp_alloc@V?$_Tmap_traits@V?$tuple@HHHW4arch_t@@@std@@P6AIPBEH0H@ZU?$less@V?$tuple@HHHW4arch_t@@@std@@@2@V?$allocator@U?$pair@$$CBV?$tuple@HHHW4arch_t@@@std@@P6AIPBEH0H@Z@std@@@2@$0A@@std@@@std@@SAAAPAU?$_Tree_node@U?$pair@$$CBV?$tuple@HHHW4arch_t@@@std@@P6AIPBEH0H@Z@std@@PAX@2@PAU32@@Z ; std::_Tree_comp_alloc<std::_Tmap_traits<std::tuple<int,int,int,enum arch_t>,unsigned int (__cdecl*)(unsigned char const *,int,unsigned char const *,int),std::less<std::tuple<int,int,int,enum arch_t> >,std::allocator<std::pair<std::tuple<int,int,int,enum arch_t> const ,unsigned int (__cdecl*)(unsigned char const *,int,unsigned char const *,int)> >,0> >::_Right
PUBLIC	?_Construct@?$_Tree_comp_alloc@V?$_Tmap_traits@V?$tuple@HHHW4arch_t@@@std@@P6AIPBEH0H@ZU?$less@V?$tuple@HHHW4arch_t@@@std@@@2@V?$allocator@U?$pair@$$CBV?$tuple@HHHW4arch_t@@@std@@P6AIPBEH0H@Z@std@@@2@$0A@@std@@@std@@QAEXXZ ; std::_Tree_comp_alloc<std::_Tmap_traits<std::tuple<int,int,int,enum arch_t>,unsigned int (__cdecl*)(unsigned char const *,int,unsigned char const *,int),std::less<std::tuple<int,int,int,enum arch_t> >,std::allocator<std::pair<std::tuple<int,int,int,enum arch_t> const ,unsigned int (__cdecl*)(unsigned char const *,int,unsigned char const *,int)> >,0> >::_Construct
PUBLIC	?_Getal@?$_Tree_comp_alloc@V?$_Tmap_traits@V?$tuple@HHHW4arch_t@@@std@@P6AIPBEH0H@ZU?$less@V?$tuple@HHHW4arch_t@@@std@@@2@V?$allocator@U?$pair@$$CBV?$tuple@HHHW4arch_t@@@std@@P6AIPBEH0H@Z@std@@@2@$0A@@std@@@std@@QAEAAU?$_Wrap_alloc@V?$allocator@U?$_Tree_node@U?$pair@$$CBV?$tuple@HHHW4arch_t@@@std@@P6AIPBEH0H@Z@std@@PAX@std@@@std@@@2@XZ ; std::_Tree_comp_alloc<std::_Tmap_traits<std::tuple<int,int,int,enum arch_t>,unsigned int (__cdecl*)(unsigned char const *,int,unsigned char const *,int),std::less<std::tuple<int,int,int,enum arch_t> >,std::allocator<std::pair<std::tuple<int,int,int,enum arch_t> const ,unsigned int (__cdecl*)(unsigned char const *,int,unsigned char const *,int)> >,0> >::_Getal
PUBLIC	?_Get_data@?$_Tree_comp_alloc@V?$_Tmap_traits@V?$tuple@HHHW4arch_t@@@std@@P6AIPBEH0H@ZU?$less@V?$tuple@HHHW4arch_t@@@std@@@2@V?$allocator@U?$pair@$$CBV?$tuple@HHHW4arch_t@@@std@@P6AIPBEH0H@Z@std@@@2@$0A@@std@@@std@@QAEAAV?$_Tree_val@U?$_Tree_simple_types@U?$pair@$$CBV?$tuple@HHHW4arch_t@@@std@@P6AIPBEH0H@Z@std@@@std@@@2@XZ ; std::_Tree_comp_alloc<std::_Tmap_traits<std::tuple<int,int,int,enum arch_t>,unsigned int (__cdecl*)(unsigned char const *,int,unsigned char const *,int),std::less<std::tuple<int,int,int,enum arch_t> >,std::allocator<std::pair<std::tuple<int,int,int,enum arch_t> const ,unsigned int (__cdecl*)(unsigned char const *,int,unsigned char const *,int)> >,0> >::_Get_data
PUBLIC	?deallocate@?$_Wrap_alloc@V?$allocator@U?$_Tree_node@U?$pair@$$CBV?$tuple@HHHW4arch_t@@@std@@P6AIPBEH0H@Z@std@@PAX@std@@@std@@@std@@QAEXPAU?$_Tree_node@U?$pair@$$CBV?$tuple@HHHW4arch_t@@@std@@P6AIPBEH0H@Z@std@@PAX@2@I@Z ; std::_Wrap_alloc<std::allocator<std::_Tree_node<std::pair<std::tuple<int,int,int,enum arch_t> const ,unsigned int (__cdecl*)(unsigned char const *,int,unsigned char const *,int)>,void *> > >::deallocate
PUBLIC	??D?$_Tree_const_iterator@V?$_Tree_val@U?$_Tree_simple_types@U?$pair@$$CBV?$tuple@HHHW4arch_t@@@std@@P6AIPBEH0H@Z@std@@@std@@@std@@@std@@QBEABU?$pair@$$CBV?$tuple@HHHW4arch_t@@@std@@P6AIPBEH0H@Z@1@XZ ; std::_Tree_const_iterator<std::_Tree_val<std::_Tree_simple_types<std::pair<std::tuple<int,int,int,enum arch_t> const ,unsigned int (__cdecl*)(unsigned char const *,int,unsigned char const *,int)> > > >::operator*
PUBLIC	??E?$_Tree_const_iterator@V?$_Tree_val@U?$_Tree_simple_types@U?$pair@$$CBV?$tuple@HHHW4arch_t@@@std@@P6AIPBEH0H@Z@std@@@std@@@std@@@std@@QAE?AV01@H@Z ; std::_Tree_const_iterator<std::_Tree_val<std::_Tree_simple_types<std::pair<std::tuple<int,int,int,enum arch_t> const ,unsigned int (__cdecl*)(unsigned char const *,int,unsigned char const *,int)> > > >::operator++
PUBLIC	??8?$_Tree_const_iterator@V?$_Tree_val@U?$_Tree_simple_types@U?$pair@$$CBV?$tuple@HHHW4arch_t@@@std@@P6AIPBEH0H@Z@std@@@std@@@std@@@std@@QBE_NABV01@@Z ; std::_Tree_const_iterator<std::_Tree_val<std::_Tree_simple_types<std::pair<std::tuple<int,int,int,enum arch_t> const ,unsigned int (__cdecl*)(unsigned char const *,int,unsigned char const *,int)> > > >::operator==
PUBLIC	??9?$_Tree_const_iterator@V?$_Tree_val@U?$_Tree_simple_types@U?$pair@$$CBV?$tuple@HHHW4arch_t@@@std@@P6AIPBEH0H@Z@std@@@std@@@std@@@std@@QBE_NABV01@@Z ; std::_Tree_const_iterator<std::_Tree_val<std::_Tree_simple_types<std::pair<std::tuple<int,int,int,enum arch_t> const ,unsigned int (__cdecl*)(unsigned char const *,int,unsigned char const *,int)> > > >::operator!=
PUBLIC	??0?$_Tree_iterator@V?$_Tree_val@U?$_Tree_simple_types@U?$pair@$$CBV?$tuple@HHHW4arch_t@@@std@@P6AIPBEH0H@Z@std@@@std@@@std@@@std@@QAE@PAU?$_Tree_node@U?$pair@$$CBV?$tuple@HHHW4arch_t@@@std@@P6AIPBEH0H@Z@std@@PAX@1@PBV?$_Tree_val@U?$_Tree_simple_types@U?$pair@$$CBV?$tuple@HHHW4arch_t@@@std@@P6AIPBEH0H@Z@std@@@std@@@1@@Z ; std::_Tree_iterator<std::_Tree_val<std::_Tree_simple_types<std::pair<std::tuple<int,int,int,enum arch_t> const ,unsigned int (__cdecl*)(unsigned char const *,int,unsigned char const *,int)> > > >::_Tree_iterator<std::_Tree_val<std::_Tree_simple_types<std::pair<std::tuple<int,int,int,enum arch_t> const ,unsigned int (__cdecl*)(unsigned char const *,int,unsigned char const *,int)> > > >
PUBLIC	?begin@?$_Tree@V?$_Tmap_traits@V?$tuple@HHHW4arch_t@@@std@@P6AIPBEH0H@ZU?$less@V?$tuple@HHHW4arch_t@@@std@@@2@V?$allocator@U?$pair@$$CBV?$tuple@HHHW4arch_t@@@std@@P6AIPBEH0H@Z@std@@@2@$0A@@std@@@std@@QAE?AV?$_Tree_iterator@V?$_Tree_val@U?$_Tree_simple_types@U?$pair@$$CBV?$tuple@HHHW4arch_t@@@std@@P6AIPBEH0H@Z@std@@@std@@@std@@@2@XZ ; std::_Tree<std::_Tmap_traits<std::tuple<int,int,int,enum arch_t>,unsigned int (__cdecl*)(unsigned char const *,int,unsigned char const *,int),std::less<std::tuple<int,int,int,enum arch_t> >,std::allocator<std::pair<std::tuple<int,int,int,enum arch_t> const ,unsigned int (__cdecl*)(unsigned char const *,int,unsigned char const *,int)> >,0> >::begin
PUBLIC	?end@?$_Tree@V?$_Tmap_traits@V?$tuple@HHHW4arch_t@@@std@@P6AIPBEH0H@ZU?$less@V?$tuple@HHHW4arch_t@@@std@@@2@V?$allocator@U?$pair@$$CBV?$tuple@HHHW4arch_t@@@std@@P6AIPBEH0H@Z@std@@@2@$0A@@std@@@std@@QAE?AV?$_Tree_iterator@V?$_Tree_val@U?$_Tree_simple_types@U?$pair@$$CBV?$tuple@HHHW4arch_t@@@std@@P6AIPBEH0H@Z@std@@@std@@@std@@@2@XZ ; std::_Tree<std::_Tmap_traits<std::tuple<int,int,int,enum arch_t>,unsigned int (__cdecl*)(unsigned char const *,int,unsigned char const *,int),std::less<std::tuple<int,int,int,enum arch_t> >,std::allocator<std::pair<std::tuple<int,int,int,enum arch_t> const ,unsigned int (__cdecl*)(unsigned char const *,int,unsigned char const *,int)> >,0> >::end
PUBLIC	?erase@?$_Tree@V?$_Tmap_traits@V?$tuple@HHHW4arch_t@@@std@@P6AIPBEH0H@ZU?$less@V?$tuple@HHHW4arch_t@@@std@@@2@V?$allocator@U?$pair@$$CBV?$tuple@HHHW4arch_t@@@std@@P6AIPBEH0H@Z@std@@@2@$0A@@std@@@std@@QAE?AV?$_Tree_iterator@V?$_Tree_val@U?$_Tree_simple_types@U?$pair@$$CBV?$tuple@HHHW4arch_t@@@std@@P6AIPBEH0H@Z@std@@@std@@@std@@@2@V?$_Tree_const_iterator@V?$_Tree_val@U?$_Tree_simple_types@U?$pair@$$CBV?$tuple@HHHW4arch_t@@@std@@P6AIPBEH0H@Z@std@@@std@@@std@@@2@0@Z ; std::_Tree<std::_Tmap_traits<std::tuple<int,int,int,enum arch_t>,unsigned int (__cdecl*)(unsigned char const *,int,unsigned char const *,int),std::less<std::tuple<int,int,int,enum arch_t> >,std::allocator<std::pair<std::tuple<int,int,int,enum arch_t> const ,unsigned int (__cdecl*)(unsigned char const *,int,unsigned char const *,int)> >,0> >::erase
PUBLIC	??0?$_Tree_comp_alloc@V?$_Tmap_traits@V?$tuple@HHHW4arch_t@@@std@@P6AIPBEH0H@ZU?$less@V?$tuple@HHHW4arch_t@@@std@@@2@V?$allocator@U?$pair@$$CBV?$tuple@HHHW4arch_t@@@std@@P6AIPBEH0H@Z@std@@@2@$0A@@std@@@std@@QAE@ABU?$less@V?$tuple@HHHW4arch_t@@@std@@@1@@Z ; std::_Tree_comp_alloc<std::_Tmap_traits<std::tuple<int,int,int,enum arch_t>,unsigned int (__cdecl*)(unsigned char const *,int,unsigned char const *,int),std::less<std::tuple<int,int,int,enum arch_t> >,std::allocator<std::pair<std::tuple<int,int,int,enum arch_t> const ,unsigned int (__cdecl*)(unsigned char const *,int,unsigned char const *,int)> >,0> >::_Tree_comp_alloc<std::_Tmap_traits<std::tuple<int,int,int,enum arch_t>,unsigned int (__cdecl*)(unsigned char const *,int,unsigned char const *,int),std::less<std::tuple<int,int,int,enum arch_t> >,std::allocator<std::pair<std::tuple<int,int,int,enum arch_t> const ,unsigned int (__cdecl*)(unsigned char const *,int,unsigned char const *,int)> >,0> >
PUBLIC	?_Freeheadnode@?$_Tree_comp_alloc@V?$_Tmap_traits@V?$tuple@HHHW4arch_t@@@std@@P6AIPBEH0H@ZU?$less@V?$tuple@HHHW4arch_t@@@std@@@2@V?$allocator@U?$pair@$$CBV?$tuple@HHHW4arch_t@@@std@@P6AIPBEH0H@Z@std@@@2@$0A@@std@@@std@@QAEXPAU?$_Tree_node@U?$pair@$$CBV?$tuple@HHHW4arch_t@@@std@@P6AIPBEH0H@Z@std@@PAX@2@@Z ; std::_Tree_comp_alloc<std::_Tmap_traits<std::tuple<int,int,int,enum arch_t>,unsigned int (__cdecl*)(unsigned char const *,int,unsigned char const *,int),std::less<std::tuple<int,int,int,enum arch_t> >,std::allocator<std::pair<std::tuple<int,int,int,enum arch_t> const ,unsigned int (__cdecl*)(unsigned char const *,int,unsigned char const *,int)> >,0> >::_Freeheadnode
PUBLIC	?_Myhead@?$_Tree_comp_alloc@V?$_Tmap_traits@V?$tuple@HHHW4arch_t@@@std@@P6AIPBEH0H@ZU?$less@V?$tuple@HHHW4arch_t@@@std@@@2@V?$allocator@U?$pair@$$CBV?$tuple@HHHW4arch_t@@@std@@P6AIPBEH0H@Z@std@@@2@$0A@@std@@@std@@QAEAAPAU?$_Tree_node@U?$pair@$$CBV?$tuple@HHHW4arch_t@@@std@@P6AIPBEH0H@Z@std@@PAX@2@XZ ; std::_Tree_comp_alloc<std::_Tmap_traits<std::tuple<int,int,int,enum arch_t>,unsigned int (__cdecl*)(unsigned char const *,int,unsigned char const *,int),std::less<std::tuple<int,int,int,enum arch_t> >,std::allocator<std::pair<std::tuple<int,int,int,enum arch_t> const ,unsigned int (__cdecl*)(unsigned char const *,int,unsigned char const *,int)> >,0> >::_Myhead
PUBLIC	??D?$_Tree_iterator@V?$_Tree_val@U?$_Tree_simple_types@U?$pair@$$CBV?$tuple@HHHW4arch_t@@@std@@P6AIPBEH0H@Z@std@@@std@@@std@@@std@@QBEAAU?$pair@$$CBV?$tuple@HHHW4arch_t@@@std@@P6AIPBEH0H@Z@1@XZ ; std::_Tree_iterator<std::_Tree_val<std::_Tree_simple_types<std::pair<std::tuple<int,int,int,enum arch_t> const ,unsigned int (__cdecl*)(unsigned char const *,int,unsigned char const *,int)> > > >::operator*
PUBLIC	?pointer_to@?$pointer_traits@PAU?$pair@$$CBV?$tuple@HHHW4arch_t@@@std@@P6AIPBEH0H@Z@std@@@std@@SAPAU?$pair@$$CBV?$tuple@HHHW4arch_t@@@std@@P6AIPBEH0H@Z@2@AAU32@@Z ; std::pointer_traits<std::pair<std::tuple<int,int,int,enum arch_t> const ,unsigned int (__cdecl*)(unsigned char const *,int,unsigned char const *,int)> *>::pointer_to
PUBLIC	??0?$_Tree@V?$_Tmap_traits@V?$tuple@HHHW4arch_t@@@std@@P6AIPBEH0H@ZU?$less@V?$tuple@HHHW4arch_t@@@std@@@2@V?$allocator@U?$pair@$$CBV?$tuple@HHHW4arch_t@@@std@@P6AIPBEH0H@Z@std@@@2@$0A@@std@@@std@@QAE@ABU?$less@V?$tuple@HHHW4arch_t@@@std@@@1@@Z ; std::_Tree<std::_Tmap_traits<std::tuple<int,int,int,enum arch_t>,unsigned int (__cdecl*)(unsigned char const *,int,unsigned char const *,int),std::less<std::tuple<int,int,int,enum arch_t> >,std::allocator<std::pair<std::tuple<int,int,int,enum arch_t> const ,unsigned int (__cdecl*)(unsigned char const *,int,unsigned char const *,int)> >,0> >::_Tree<std::_Tmap_traits<std::tuple<int,int,int,enum arch_t>,unsigned int (__cdecl*)(unsigned char const *,int,unsigned char const *,int),std::less<std::tuple<int,int,int,enum arch_t> >,std::allocator<std::pair<std::tuple<int,int,int,enum arch_t> const ,unsigned int (__cdecl*)(unsigned char const *,int,unsigned char const *,int)> >,0> >
PUBLIC	?_Tidy@?$_Tree@V?$_Tmap_traits@V?$tuple@HHHW4arch_t@@@std@@P6AIPBEH0H@ZU?$less@V?$tuple@HHHW4arch_t@@@std@@@2@V?$allocator@U?$pair@$$CBV?$tuple@HHHW4arch_t@@@std@@P6AIPBEH0H@Z@std@@@2@$0A@@std@@@std@@IAEXXZ ; std::_Tree<std::_Tmap_traits<std::tuple<int,int,int,enum arch_t>,unsigned int (__cdecl*)(unsigned char const *,int,unsigned char const *,int),std::less<std::tuple<int,int,int,enum arch_t> >,std::allocator<std::pair<std::tuple<int,int,int,enum arch_t> const ,unsigned int (__cdecl*)(unsigned char const *,int,unsigned char const *,int)> >,0> >::_Tidy
PUBLIC	??1?$_Tree_comp_alloc@V?$_Tmap_traits@V?$tuple@HHHW4arch_t@@@std@@P6AIPBEH0H@ZU?$less@V?$tuple@HHHW4arch_t@@@std@@@2@V?$allocator@U?$pair@$$CBV?$tuple@HHHW4arch_t@@@std@@P6AIPBEH0H@Z@std@@@2@$0A@@std@@@std@@QAE@XZ ; std::_Tree_comp_alloc<std::_Tmap_traits<std::tuple<int,int,int,enum arch_t>,unsigned int (__cdecl*)(unsigned char const *,int,unsigned char const *,int),std::less<std::tuple<int,int,int,enum arch_t> >,std::allocator<std::pair<std::tuple<int,int,int,enum arch_t> const ,unsigned int (__cdecl*)(unsigned char const *,int,unsigned char const *,int)> >,0> >::~_Tree_comp_alloc<std::_Tmap_traits<std::tuple<int,int,int,enum arch_t>,unsigned int (__cdecl*)(unsigned char const *,int,unsigned char const *,int),std::less<std::tuple<int,int,int,enum arch_t> >,std::allocator<std::pair<std::tuple<int,int,int,enum arch_t> const ,unsigned int (__cdecl*)(unsigned char const *,int,unsigned char const *,int)> >,0> >
PUBLIC	??C?$_Tree_iterator@V?$_Tree_val@U?$_Tree_simple_types@U?$pair@$$CBV?$tuple@HHHW4arch_t@@@std@@P6AIPBEH0H@Z@std@@@std@@@std@@@std@@QBEPAU?$pair@$$CBV?$tuple@HHHW4arch_t@@@std@@P6AIPBEH0H@Z@1@XZ ; std::_Tree_iterator<std::_Tree_val<std::_Tree_simple_types<std::pair<std::tuple<int,int,int,enum arch_t> const ,unsigned int (__cdecl*)(unsigned char const *,int,unsigned char const *,int)> > > >::operator->
PUBLIC	??0?$map@V?$tuple@HHHW4arch_t@@@std@@P6AIPBEH0H@ZU?$less@V?$tuple@HHHW4arch_t@@@std@@@2@V?$allocator@U?$pair@$$CBV?$tuple@HHHW4arch_t@@@std@@P6AIPBEH0H@Z@std@@@2@@std@@QAE@XZ ; std::map<std::tuple<int,int,int,enum arch_t>,unsigned int (__cdecl*)(unsigned char const *,int,unsigned char const *,int),std::less<std::tuple<int,int,int,enum arch_t> >,std::allocator<std::pair<std::tuple<int,int,int,enum arch_t> const ,unsigned int (__cdecl*)(unsigned char const *,int,unsigned char const *,int)> > >::map<std::tuple<int,int,int,enum arch_t>,unsigned int (__cdecl*)(unsigned char const *,int,unsigned char const *,int),std::less<std::tuple<int,int,int,enum arch_t> >,std::allocator<std::pair<std::tuple<int,int,int,enum arch_t> const ,unsigned int (__cdecl*)(unsigned char const *,int,unsigned char const *,int)> > >
PUBLIC	??A?$map@V?$tuple@HHHW4arch_t@@@std@@P6AIPBEH0H@ZU?$less@V?$tuple@HHHW4arch_t@@@std@@@2@V?$allocator@U?$pair@$$CBV?$tuple@HHHW4arch_t@@@std@@P6AIPBEH0H@Z@std@@@2@@std@@QAEAAP6AIPBEH0H@Z$$QAV?$tuple@HHHW4arch_t@@@1@@Z ; std::map<std::tuple<int,int,int,enum arch_t>,unsigned int (__cdecl*)(unsigned char const *,int,unsigned char const *,int),std::less<std::tuple<int,int,int,enum arch_t> >,std::allocator<std::pair<std::tuple<int,int,int,enum arch_t> const ,unsigned int (__cdecl*)(unsigned char const *,int,unsigned char const *,int)> > >::operator[]
PUBLIC	??1?$_Tree@V?$_Tmap_traits@V?$tuple@HHHW4arch_t@@@std@@P6AIPBEH0H@ZU?$less@V?$tuple@HHHW4arch_t@@@std@@@2@V?$allocator@U?$pair@$$CBV?$tuple@HHHW4arch_t@@@std@@P6AIPBEH0H@Z@std@@@2@$0A@@std@@@std@@QAE@XZ ; std::_Tree<std::_Tmap_traits<std::tuple<int,int,int,enum arch_t>,unsigned int (__cdecl*)(unsigned char const *,int,unsigned char const *,int),std::less<std::tuple<int,int,int,enum arch_t> >,std::allocator<std::pair<std::tuple<int,int,int,enum arch_t> const ,unsigned int (__cdecl*)(unsigned char const *,int,unsigned char const *,int)> >,0> >::~_Tree<std::_Tmap_traits<std::tuple<int,int,int,enum arch_t>,unsigned int (__cdecl*)(unsigned char const *,int,unsigned char const *,int),std::less<std::tuple<int,int,int,enum arch_t> >,std::allocator<std::pair<std::tuple<int,int,int,enum arch_t> const ,unsigned int (__cdecl*)(unsigned char const *,int,unsigned char const *,int)> >,0> >
PUBLIC	_x264_pixel_satd_32x16_sse2
PUBLIC	_x264_pixel_satd_32x32_sse2
PUBLIC	??1?$map@V?$tuple@HHHW4arch_t@@@std@@P6AIPBEH0H@ZU?$less@V?$tuple@HHHW4arch_t@@@std@@@2@V?$allocator@U?$pair@$$CBV?$tuple@HHHW4arch_t@@@std@@P6AIPBEH0H@Z@std@@@2@@std@@QAE@XZ ; std::map<std::tuple<int,int,int,enum arch_t>,unsigned int (__cdecl*)(unsigned char const *,int,unsigned char const *,int),std::less<std::tuple<int,int,int,enum arch_t> >,std::allocator<std::pair<std::tuple<int,int,int,enum arch_t> const ,unsigned int (__cdecl*)(unsigned char const *,int,unsigned char const *,int)> > >::~map<std::tuple<int,int,int,enum arch_t>,unsigned int (__cdecl*)(unsigned char const *,int,unsigned char const *,int),std::less<std::tuple<int,int,int,enum arch_t> >,std::allocator<std::pair<std::tuple<int,int,int,enum arch_t> const ,unsigned int (__cdecl*)(unsigned char const *,int,unsigned char const *,int)> > >
PUBLIC	_x264_pixel_satd_uint16_32x16_c
PUBLIC	_x264_pixel_satd_uint16_32x32_c
PUBLIC	?SADABS@@YAIH@Z					; SADABS
PUBLIC	?get_satd_function@@YAP6AIPBEH0H@ZHHHW4arch_t@@@Z ; get_satd_function
PUBLIC	?get_sad_function@@YAP6AIPBEH0H@ZHHHW4arch_t@@@Z ; get_sad_function
;	COMDAT xdata$x
xdata$x	SEGMENT
__ehfuncinfo$?get_sad_function@@YAP6AIPBEH0H@ZHHHW4arch_t@@@Z DD 019930522H
	DD	01H
	DD	FLAT:__unwindtable$?get_sad_function@@YAP6AIPBEH0H@ZHHHW4arch_t@@@Z
	DD	2 DUP(00H)
	DD	2 DUP(00H)
	DD	00H
	DD	01H
__unwindtable$?get_sad_function@@YAP6AIPBEH0H@ZHHHW4arch_t@@@Z DD 0ffffffffH
	DD	FLAT:__unwindfunclet$?get_sad_function@@YAP6AIPBEH0H@ZHHHW4arch_t@@@Z$0
xdata$x	ENDS
;	COMDAT xdata$x
xdata$x	SEGMENT
__ehfuncinfo$?get_satd_function@@YAP6AIPBEH0H@ZHHHW4arch_t@@@Z DD 019930522H
	DD	01H
	DD	FLAT:__unwindtable$?get_satd_function@@YAP6AIPBEH0H@ZHHHW4arch_t@@@Z
	DD	2 DUP(00H)
	DD	2 DUP(00H)
	DD	00H
	DD	01H
__unwindtable$?get_satd_function@@YAP6AIPBEH0H@ZHHHW4arch_t@@@Z DD 0ffffffffH
	DD	FLAT:__unwindfunclet$?get_satd_function@@YAP6AIPBEH0H@ZHHHW4arch_t@@@Z$0
xdata$x	ENDS
;	COMDAT xdata$x
xdata$x	SEGMENT
__ehfuncinfo$?clear@?$_Tree@V?$_Tmap_traits@V?$tuple@HHHW4arch_t@@@std@@P6AIPBEH0H@ZU?$less@V?$tuple@HHHW4arch_t@@@std@@@2@V?$allocator@U?$pair@$$CBV?$tuple@HHHW4arch_t@@@std@@P6AIPBEH0H@Z@std@@@2@$0A@@std@@@std@@QAEXXZ DD 019930522H
	DD	00H
	DD	00H
	DD	2 DUP(00H)
	DD	2 DUP(00H)
	DD	00H
	DD	05H
xdata$x	ENDS
;	COMDAT xdata$x
xdata$x	SEGMENT
__ehfuncinfo$??$_Insert_hint@AAU?$pair@$$CBV?$tuple@HHHW4arch_t@@@std@@P6AIPBEH0H@Z@std@@PAU?$_Tree_node@U?$pair@$$CBV?$tuple@HHHW4arch_t@@@std@@P6AIPBEH0H@Z@std@@PAX@2@@?$_Tree@V?$_Tmap_traits@V?$tuple@HHHW4arch_t@@@std@@P6AIPBEH0H@ZU?$less@V?$tuple@HHHW4arch_t@@@std@@@2@V?$allocator@U?$pair@$$CBV?$tuple@HHHW4arch_t@@@std@@P6AIPBEH0H@Z@std@@@2@$0A@@std@@@std@@IAE?AV?$_Tree_iterator@V?$_Tree_val@U?$_Tree_simple_types@U?$pair@$$CBV?$tuple@HHHW4arch_t@@@std@@P6AIPBEH0H@Z@std@@@std@@@std@@@1@V?$_Tree_const_iterator@V?$_Tree_val@U?$_Tree_simple_types@U?$pair@$$CBV?$tuple@HHHW4arch_t@@@std@@P6AIPBEH0H@Z@std@@@std@@@std@@@1@AAU?$pair@$$CBV?$tuple@HHHW4arch_t@@@std@@P6AIPBEH0H@Z@1@PAU?$_Tree_node@U?$pair@$$CBV?$tuple@HHHW4arch_t@@@std@@P6AIPBEH0H@Z@std@@PAX@1@@Z DD 019930522H
	DD	02H
	DD	FLAT:__unwindtable$??$_Insert_hint@AAU?$pair@$$CBV?$tuple@HHHW4arch_t@@@std@@P6AIPBEH0H@Z@std@@PAU?$_Tree_node@U?$pair@$$CBV?$tuple@HHHW4arch_t@@@std@@P6AIPBEH0H@Z@std@@PAX@2@@?$_Tree@V?$_Tmap_traits@V?$tuple@HHHW4arch_t@@@std@@P6AIPBEH0H@ZU?$less@V?$tuple@HHHW4arch_t@@@std@@@2@V?$allocator@U?$pair@$$CBV?$tuple@HHHW4arch_t@@@std@@P6AIPBEH0H@Z@std@@@2@$0A@@std@@@std@@IAE?AV?$_Tree_iterator@V?$_Tree_val@U?$_Tree_simple_types@U?$pair@$$CBV?$tuple@HHHW4arch_t@@@std@@P6AIPBEH0H@Z@std@@@std@@@std@@@1@V?$_Tree_const_iterator@V?$_Tree_val@U?$_Tree_simple_types@U?$pair@$$CBV?$tuple@HHHW4arch_t@@@std@@P6AIPBEH0H@Z@std@@@std@@@std@@@1@AAU?$pair@$$CBV?$tuple@HHHW4arch_t@@@std@@P6AIPBEH0H@Z@1@PAU?$_Tree_node@U?$pair@$$CBV?$tuple@HHHW4arch_t@@@std@@P6AIPBEH0H@Z@std@@PAX@1@@Z
	DD	01H
	DD	FLAT:__tryblocktable$??$_Insert_hint@AAU?$pair@$$CBV?$tuple@HHHW4arch_t@@@std@@P6AIPBEH0H@Z@std@@PAU?$_Tree_node@U?$pair@$$CBV?$tuple@HHHW4arch_t@@@std@@P6AIPBEH0H@Z@std@@PAX@2@@?$_Tree@V?$_Tmap_traits@V?$tuple@HHHW4arch_t@@@std@@P6AIPBEH0H@ZU?$less@V?$tuple@HHHW4arch_t@@@std@@@2@V?$allocator@U?$pair@$$CBV?$tuple@HHHW4arch_t@@@std@@P6AIPBEH0H@Z@std@@@2@$0A@@std@@@std@@IAE?AV?$_Tree_iterator@V?$_Tree_val@U?$_Tree_simple_types@U?$pair@$$CBV?$tuple@HHHW4arch_t@@@std@@P6AIPBEH0H@Z@std@@@std@@@std@@@1@V?$_Tree_const_iterator@V?$_Tree_val@U?$_Tree_simple_types@U?$pair@$$CBV?$tuple@HHHW4arch_t@@@std@@P6AIPBEH0H@Z@std@@@std@@@std@@@1@AAU?$pair@$$CBV?$tuple@HHHW4arch_t@@@std@@P6AIPBEH0H@Z@1@PAU?$_Tree_node@U?$pair@$$CBV?$tuple@HHHW4arch_t@@@std@@P6AIPBEH0H@Z@std@@PAX@1@@Z
	DD	2 DUP(00H)
	DD	00H
	DD	01H
__unwindtable$??$_Insert_hint@AAU?$pair@$$CBV?$tuple@HHHW4arch_t@@@std@@P6AIPBEH0H@Z@std@@PAU?$_Tree_node@U?$pair@$$CBV?$tuple@HHHW4arch_t@@@std@@P6AIPBEH0H@Z@std@@PAX@2@@?$_Tree@V?$_Tmap_traits@V?$tuple@HHHW4arch_t@@@std@@P6AIPBEH0H@ZU?$less@V?$tuple@HHHW4arch_t@@@std@@@2@V?$allocator@U?$pair@$$CBV?$tuple@HHHW4arch_t@@@std@@P6AIPBEH0H@Z@std@@@2@$0A@@std@@@std@@IAE?AV?$_Tree_iterator@V?$_Tree_val@U?$_Tree_simple_types@U?$pair@$$CBV?$tuple@HHHW4arch_t@@@std@@P6AIPBEH0H@Z@std@@@std@@@std@@@1@V?$_Tree_const_iterator@V?$_Tree_val@U?$_Tree_simple_types@U?$pair@$$CBV?$tuple@HHHW4arch_t@@@std@@P6AIPBEH0H@Z@std@@@std@@@std@@@1@AAU?$pair@$$CBV?$tuple@HHHW4arch_t@@@std@@P6AIPBEH0H@Z@1@PAU?$_Tree_node@U?$pair@$$CBV?$tuple@HHHW4arch_t@@@std@@P6AIPBEH0H@Z@std@@PAX@1@@Z DD 0ffffffffH
	DD	00H
	DD	0ffffffffH
	DD	00H
__tryblocktable$??$_Insert_hint@AAU?$pair@$$CBV?$tuple@HHHW4arch_t@@@std@@P6AIPBEH0H@Z@std@@PAU?$_Tree_node@U?$pair@$$CBV?$tuple@HHHW4arch_t@@@std@@P6AIPBEH0H@Z@std@@PAX@2@@?$_Tree@V?$_Tmap_traits@V?$tuple@HHHW4arch_t@@@std@@P6AIPBEH0H@ZU?$less@V?$tuple@HHHW4arch_t@@@std@@@2@V?$allocator@U?$pair@$$CBV?$tuple@HHHW4arch_t@@@std@@P6AIPBEH0H@Z@std@@@2@$0A@@std@@@std@@IAE?AV?$_Tree_iterator@V?$_Tree_val@U?$_Tree_simple_types@U?$pair@$$CBV?$tuple@HHHW4arch_t@@@std@@P6AIPBEH0H@Z@std@@@std@@@std@@@1@V?$_Tree_const_iterator@V?$_Tree_val@U?$_Tree_simple_types@U?$pair@$$CBV?$tuple@HHHW4arch_t@@@std@@P6AIPBEH0H@Z@std@@@std@@@std@@@1@AAU?$pair@$$CBV?$tuple@HHHW4arch_t@@@std@@P6AIPBEH0H@Z@1@PAU?$_Tree_node@U?$pair@$$CBV?$tuple@HHHW4arch_t@@@std@@P6AIPBEH0H@Z@std@@PAX@1@@Z DD 00H
	DD	00H
	DD	01H
	DD	01H
	DD	FLAT:__catchsym$??$_Insert_hint@AAU?$pair@$$CBV?$tuple@HHHW4arch_t@@@std@@P6AIPBEH0H@Z@std@@PAU?$_Tree_node@U?$pair@$$CBV?$tuple@HHHW4arch_t@@@std@@P6AIPBEH0H@Z@std@@PAX@2@@?$_Tree@V?$_Tmap_traits@V?$tuple@HHHW4arch_t@@@std@@P6AIPBEH0H@ZU?$less@V?$tuple@HHHW4arch_t@@@std@@@2@V?$allocator@U?$pair@$$CBV?$tuple@HHHW4arch_t@@@std@@P6AIPBEH0H@Z@std@@@2@$0A@@std@@@std@@IAE?AV?$_Tree_iterator@V?$_Tree_val@U?$_Tree_simple_types@U?$pair@$$CBV?$tuple@HHHW4arch_t@@@std@@P6AIPBEH0H@Z@std@@@std@@@std@@@1@V?$_Tree_const_iterator@V?$_Tree_val@U?$_Tree_simple_types@U?$pair@$$CBV?$tuple@HHHW4arch_t@@@std@@P6AIPBEH0H@Z@std@@@std@@@std@@@1@AAU?$pair@$$CBV?$tuple@HHHW4arch_t@@@std@@P6AIPBEH0H@Z@1@PAU?$_Tree_node@U?$pair@$$CBV?$tuple@HHHW4arch_t@@@std@@P6AIPBEH0H@Z@std@@PAX@1@@Z$120
__catchsym$??$_Insert_hint@AAU?$pair@$$CBV?$tuple@HHHW4arch_t@@@std@@P6AIPBEH0H@Z@std@@PAU?$_Tree_node@U?$pair@$$CBV?$tuple@HHHW4arch_t@@@std@@P6AIPBEH0H@Z@std@@PAX@2@@?$_Tree@V?$_Tmap_traits@V?$tuple@HHHW4arch_t@@@std@@P6AIPBEH0H@ZU?$less@V?$tuple@HHHW4arch_t@@@std@@@2@V?$allocator@U?$pair@$$CBV?$tuple@HHHW4arch_t@@@std@@P6AIPBEH0H@Z@std@@@2@$0A@@std@@@std@@IAE?AV?$_Tree_iterator@V?$_Tree_val@U?$_Tree_simple_types@U?$pair@$$CBV?$tuple@HHHW4arch_t@@@std@@P6AIPBEH0H@Z@std@@@std@@@std@@@1@V?$_Tree_const_iterator@V?$_Tree_val@U?$_Tree_simple_types@U?$pair@$$CBV?$tuple@HHHW4arch_t@@@std@@P6AIPBEH0H@Z@std@@@std@@@std@@@1@AAU?$pair@$$CBV?$tuple@HHHW4arch_t@@@std@@P6AIPBEH0H@Z@1@PAU?$_Tree_node@U?$pair@$$CBV?$tuple@HHHW4arch_t@@@std@@P6AIPBEH0H@Z@std@@PAX@1@@Z$120 DD 040H
	DD	00H
	DD	00H
	DD	FLAT:__catch$??$_Insert_hint@AAU?$pair@$$CBV?$tuple@HHHW4arch_t@@@std@@P6AIPBEH0H@Z@std@@PAU?$_Tree_node@U?$pair@$$CBV?$tuple@HHHW4arch_t@@@std@@P6AIPBEH0H@Z@std@@PAX@2@@?$_Tree@V?$_Tmap_traits@V?$tuple@HHHW4arch_t@@@std@@P6AIPBEH0H@ZU?$less@V?$tuple@HHHW4arch_t@@@std@@@2@V?$allocator@U?$pair@$$CBV?$tuple@HHHW4arch_t@@@std@@P6AIPBEH0H@Z@std@@@2@$0A@@std@@@std@@IAE?AV?$_Tree_iterator@V?$_Tree_val@U?$_Tree_simple_types@U?$pair@$$CBV?$tuple@HHHW4arch_t@@@std@@P6AIPBEH0H@Z@std@@@std@@@std@@@1@V?$_Tree_const_iterator@V?$_Tree_val@U?$_Tree_simple_types@U?$pair@$$CBV?$tuple@HHHW4arch_t@@@std@@P6AIPBEH0H@Z@std@@@std@@@std@@@1@AAU?$pair@$$CBV?$tuple@HHHW4arch_t@@@std@@P6AIPBEH0H@Z@1@PAU?$_Tree_node@U?$pair@$$CBV?$tuple@HHHW4arch_t@@@std@@P6AIPBEH0H@Z@std@@PAX@1@@Z$0
xdata$x	ENDS
;	COMDAT xdata$x
xdata$x	SEGMENT
__ehfuncinfo$??$_Insert_nohint@AAU?$pair@$$CBV?$tuple@HHHW4arch_t@@@std@@P6AIPBEH0H@Z@std@@PAU?$_Tree_node@U?$pair@$$CBV?$tuple@HHHW4arch_t@@@std@@P6AIPBEH0H@Z@std@@PAX@2@@?$_Tree@V?$_Tmap_traits@V?$tuple@HHHW4arch_t@@@std@@P6AIPBEH0H@ZU?$less@V?$tuple@HHHW4arch_t@@@std@@@2@V?$allocator@U?$pair@$$CBV?$tuple@HHHW4arch_t@@@std@@P6AIPBEH0H@Z@std@@@2@$0A@@std@@@std@@IAE?AU?$pair@V?$_Tree_iterator@V?$_Tree_val@U?$_Tree_simple_types@U?$pair@$$CBV?$tuple@HHHW4arch_t@@@std@@P6AIPBEH0H@Z@std@@@std@@@std@@@std@@_N@1@_NAAU?$pair@$$CBV?$tuple@HHHW4arch_t@@@std@@P6AIPBEH0H@Z@1@PAU?$_Tree_node@U?$pair@$$CBV?$tuple@HHHW4arch_t@@@std@@P6AIPBEH0H@Z@std@@PAX@1@@Z DD 019930522H
	DD	02H
	DD	FLAT:__unwindtable$??$_Insert_nohint@AAU?$pair@$$CBV?$tuple@HHHW4arch_t@@@std@@P6AIPBEH0H@Z@std@@PAU?$_Tree_node@U?$pair@$$CBV?$tuple@HHHW4arch_t@@@std@@P6AIPBEH0H@Z@std@@PAX@2@@?$_Tree@V?$_Tmap_traits@V?$tuple@HHHW4arch_t@@@std@@P6AIPBEH0H@ZU?$less@V?$tuple@HHHW4arch_t@@@std@@@2@V?$allocator@U?$pair@$$CBV?$tuple@HHHW4arch_t@@@std@@P6AIPBEH0H@Z@std@@@2@$0A@@std@@@std@@IAE?AU?$pair@V?$_Tree_iterator@V?$_Tree_val@U?$_Tree_simple_types@U?$pair@$$CBV?$tuple@HHHW4arch_t@@@std@@P6AIPBEH0H@Z@std@@@std@@@std@@@std@@_N@1@_NAAU?$pair@$$CBV?$tuple@HHHW4arch_t@@@std@@P6AIPBEH0H@Z@1@PAU?$_Tree_node@U?$pair@$$CBV?$tuple@HHHW4arch_t@@@std@@P6AIPBEH0H@Z@std@@PAX@1@@Z
	DD	01H
	DD	FLAT:__tryblocktable$??$_Insert_nohint@AAU?$pair@$$CBV?$tuple@HHHW4arch_t@@@std@@P6AIPBEH0H@Z@std@@PAU?$_Tree_node@U?$pair@$$CBV?$tuple@HHHW4arch_t@@@std@@P6AIPBEH0H@Z@std@@PAX@2@@?$_Tree@V?$_Tmap_traits@V?$tuple@HHHW4arch_t@@@std@@P6AIPBEH0H@ZU?$less@V?$tuple@HHHW4arch_t@@@std@@@2@V?$allocator@U?$pair@$$CBV?$tuple@HHHW4arch_t@@@std@@P6AIPBEH0H@Z@std@@@2@$0A@@std@@@std@@IAE?AU?$pair@V?$_Tree_iterator@V?$_Tree_val@U?$_Tree_simple_types@U?$pair@$$CBV?$tuple@HHHW4arch_t@@@std@@P6AIPBEH0H@Z@std@@@std@@@std@@@std@@_N@1@_NAAU?$pair@$$CBV?$tuple@HHHW4arch_t@@@std@@P6AIPBEH0H@Z@1@PAU?$_Tree_node@U?$pair@$$CBV?$tuple@HHHW4arch_t@@@std@@P6AIPBEH0H@Z@std@@PAX@1@@Z
	DD	2 DUP(00H)
	DD	00H
	DD	01H
__unwindtable$??$_Insert_nohint@AAU?$pair@$$CBV?$tuple@HHHW4arch_t@@@std@@P6AIPBEH0H@Z@std@@PAU?$_Tree_node@U?$pair@$$CBV?$tuple@HHHW4arch_t@@@std@@P6AIPBEH0H@Z@std@@PAX@2@@?$_Tree@V?$_Tmap_traits@V?$tuple@HHHW4arch_t@@@std@@P6AIPBEH0H@ZU?$less@V?$tuple@HHHW4arch_t@@@std@@@2@V?$allocator@U?$pair@$$CBV?$tuple@HHHW4arch_t@@@std@@P6AIPBEH0H@Z@std@@@2@$0A@@std@@@std@@IAE?AU?$pair@V?$_Tree_iterator@V?$_Tree_val@U?$_Tree_simple_types@U?$pair@$$CBV?$tuple@HHHW4arch_t@@@std@@P6AIPBEH0H@Z@std@@@std@@@std@@@std@@_N@1@_NAAU?$pair@$$CBV?$tuple@HHHW4arch_t@@@std@@P6AIPBEH0H@Z@1@PAU?$_Tree_node@U?$pair@$$CBV?$tuple@HHHW4arch_t@@@std@@P6AIPBEH0H@Z@std@@PAX@1@@Z DD 0ffffffffH
	DD	00H
	DD	0ffffffffH
	DD	00H
__tryblocktable$??$_Insert_nohint@AAU?$pair@$$CBV?$tuple@HHHW4arch_t@@@std@@P6AIPBEH0H@Z@std@@PAU?$_Tree_node@U?$pair@$$CBV?$tuple@HHHW4arch_t@@@std@@P6AIPBEH0H@Z@std@@PAX@2@@?$_Tree@V?$_Tmap_traits@V?$tuple@HHHW4arch_t@@@std@@P6AIPBEH0H@ZU?$less@V?$tuple@HHHW4arch_t@@@std@@@2@V?$allocator@U?$pair@$$CBV?$tuple@HHHW4arch_t@@@std@@P6AIPBEH0H@Z@std@@@2@$0A@@std@@@std@@IAE?AU?$pair@V?$_Tree_iterator@V?$_Tree_val@U?$_Tree_simple_types@U?$pair@$$CBV?$tuple@HHHW4arch_t@@@std@@P6AIPBEH0H@Z@std@@@std@@@std@@@std@@_N@1@_NAAU?$pair@$$CBV?$tuple@HHHW4arch_t@@@std@@P6AIPBEH0H@Z@1@PAU?$_Tree_node@U?$pair@$$CBV?$tuple@HHHW4arch_t@@@std@@P6AIPBEH0H@Z@std@@PAX@1@@Z DD 00H
	DD	00H
	DD	01H
	DD	01H
	DD	FLAT:__catchsym$??$_Insert_nohint@AAU?$pair@$$CBV?$tuple@HHHW4arch_t@@@std@@P6AIPBEH0H@Z@std@@PAU?$_Tree_node@U?$pair@$$CBV?$tuple@HHHW4arch_t@@@std@@P6AIPBEH0H@Z@std@@PAX@2@@?$_Tree@V?$_Tmap_traits@V?$tuple@HHHW4arch_t@@@std@@P6AIPBEH0H@ZU?$less@V?$tuple@HHHW4arch_t@@@std@@@2@V?$allocator@U?$pair@$$CBV?$tuple@HHHW4arch_t@@@std@@P6AIPBEH0H@Z@std@@@2@$0A@@std@@@std@@IAE?AU?$pair@V?$_Tree_iterator@V?$_Tree_val@U?$_Tree_simple_types@U?$pair@$$CBV?$tuple@HHHW4arch_t@@@std@@P6AIPBEH0H@Z@std@@@std@@@std@@@std@@_N@1@_NAAU?$pair@$$CBV?$tuple@HHHW4arch_t@@@std@@P6AIPBEH0H@Z@1@PAU?$_Tree_node@U?$pair@$$CBV?$tuple@HHHW4arch_t@@@std@@P6AIPBEH0H@Z@std@@PAX@1@@Z$71
__catchsym$??$_Insert_nohint@AAU?$pair@$$CBV?$tuple@HHHW4arch_t@@@std@@P6AIPBEH0H@Z@std@@PAU?$_Tree_node@U?$pair@$$CBV?$tuple@HHHW4arch_t@@@std@@P6AIPBEH0H@Z@std@@PAX@2@@?$_Tree@V?$_Tmap_traits@V?$tuple@HHHW4arch_t@@@std@@P6AIPBEH0H@ZU?$less@V?$tuple@HHHW4arch_t@@@std@@@2@V?$allocator@U?$pair@$$CBV?$tuple@HHHW4arch_t@@@std@@P6AIPBEH0H@Z@std@@@2@$0A@@std@@@std@@IAE?AU?$pair@V?$_Tree_iterator@V?$_Tree_val@U?$_Tree_simple_types@U?$pair@$$CBV?$tuple@HHHW4arch_t@@@std@@P6AIPBEH0H@Z@std@@@std@@@std@@@std@@_N@1@_NAAU?$pair@$$CBV?$tuple@HHHW4arch_t@@@std@@P6AIPBEH0H@Z@1@PAU?$_Tree_node@U?$pair@$$CBV?$tuple@HHHW4arch_t@@@std@@P6AIPBEH0H@Z@std@@PAX@1@@Z$71 DD 040H
	DD	00H
	DD	00H
	DD	FLAT:__catch$??$_Insert_nohint@AAU?$pair@$$CBV?$tuple@HHHW4arch_t@@@std@@P6AIPBEH0H@Z@std@@PAU?$_Tree_node@U?$pair@$$CBV?$tuple@HHHW4arch_t@@@std@@P6AIPBEH0H@Z@std@@PAX@2@@?$_Tree@V?$_Tmap_traits@V?$tuple@HHHW4arch_t@@@std@@P6AIPBEH0H@ZU?$less@V?$tuple@HHHW4arch_t@@@std@@@2@V?$allocator@U?$pair@$$CBV?$tuple@HHHW4arch_t@@@std@@P6AIPBEH0H@Z@std@@@2@$0A@@std@@@std@@IAE?AU?$pair@V?$_Tree_iterator@V?$_Tree_val@U?$_Tree_simple_types@U?$pair@$$CBV?$tuple@HHHW4arch_t@@@std@@P6AIPBEH0H@Z@std@@@std@@@std@@@std@@_N@1@_NAAU?$pair@$$CBV?$tuple@HHHW4arch_t@@@std@@P6AIPBEH0H@Z@1@PAU?$_Tree_node@U?$pair@$$CBV?$tuple@HHHW4arch_t@@@std@@P6AIPBEH0H@Z@std@@PAX@1@@Z$0
; Function compile flags: /Ogtpy
; File c:\github\mvtools\sources\sadfunctions.cpp
; File c:\program files (x86)\microsoft visual studio 14.0\vc\include\xtree
; File c:\github\mvtools\sources\sadfunctions.cpp
; File c:\program files (x86)\microsoft visual studio 14.0\vc\include\xtree
; File c:\program files (x86)\microsoft visual studio 14.0\vc\include\map
; File c:\github\mvtools\sources\sadfunctions.cpp
; File c:\program files (x86)\microsoft visual studio 14.0\vc\include\map
; File c:\github\mvtools\sources\sadfunctions.cpp
; File c:\program files (x86)\microsoft visual studio 14.0\vc\include\map
; File c:\github\mvtools\sources\sadfunctions.cpp
; File c:\program files (x86)\microsoft visual studio 14.0\vc\include\map
; File c:\github\mvtools\sources\sadfunctions.cpp
; File c:\program files (x86)\microsoft visual studio 14.0\vc\include\map
; File c:\github\mvtools\sources\sadfunctions.cpp
; File c:\program files (x86)\microsoft visual studio 14.0\vc\include\map
; File c:\github\mvtools\sources\sadfunctions.cpp
; File c:\program files (x86)\microsoft visual studio 14.0\vc\include\map
; File c:\github\mvtools\sources\sadfunctions.cpp
; File c:\program files (x86)\microsoft visual studio 14.0\vc\include\map
; File c:\github\mvtools\sources\sadfunctions.cpp
; File c:\program files (x86)\microsoft visual studio 14.0\vc\include\map
; File c:\github\mvtools\sources\sadfunctions.cpp
; File c:\program files (x86)\microsoft visual studio 14.0\vc\include\map
; File c:\github\mvtools\sources\sadfunctions.cpp
; File c:\program files (x86)\microsoft visual studio 14.0\vc\include\map
; File c:\github\mvtools\sources\sadfunctions.cpp
; File c:\program files (x86)\microsoft visual studio 14.0\vc\include\map
; File c:\github\mvtools\sources\sadfunctions.cpp
; File c:\program files (x86)\microsoft visual studio 14.0\vc\include\map
; File c:\github\mvtools\sources\sadfunctions.cpp
; File c:\program files (x86)\microsoft visual studio 14.0\vc\include\map
; File c:\github\mvtools\sources\sadfunctions.cpp
; File c:\program files (x86)\microsoft visual studio 14.0\vc\include\map
; File c:\github\mvtools\sources\sadfunctions.cpp
; File c:\program files (x86)\microsoft visual studio 14.0\vc\include\map
; File c:\github\mvtools\sources\sadfunctions.cpp
; File c:\program files (x86)\microsoft visual studio 14.0\vc\include\map
; File c:\github\mvtools\sources\sadfunctions.cpp
; File c:\program files (x86)\microsoft visual studio 14.0\vc\include\map
; File c:\github\mvtools\sources\sadfunctions.cpp
; File c:\program files (x86)\microsoft visual studio 14.0\vc\include\map
; File c:\github\mvtools\sources\sadfunctions.cpp
; File c:\program files (x86)\microsoft visual studio 14.0\vc\include\map
; File c:\github\mvtools\sources\sadfunctions.cpp
; File c:\program files (x86)\microsoft visual studio 14.0\vc\include\map
; File c:\github\mvtools\sources\sadfunctions.cpp
; File c:\program files (x86)\microsoft visual studio 14.0\vc\include\map
; File c:\github\mvtools\sources\sadfunctions.cpp
; File c:\program files (x86)\microsoft visual studio 14.0\vc\include\map
; File c:\github\mvtools\sources\sadfunctions.cpp
; File c:\program files (x86)\microsoft visual studio 14.0\vc\include\map
; File c:\github\mvtools\sources\sadfunctions.cpp
; File c:\program files (x86)\microsoft visual studio 14.0\vc\include\map
; File c:\github\mvtools\sources\sadfunctions.cpp
; File c:\program files (x86)\microsoft visual studio 14.0\vc\include\map
; File c:\github\mvtools\sources\sadfunctions.cpp
; File c:\program files (x86)\microsoft visual studio 14.0\vc\include\map
; File c:\github\mvtools\sources\sadfunctions.cpp
; File c:\program files (x86)\microsoft visual studio 14.0\vc\include\map
; File c:\github\mvtools\sources\sadfunctions.cpp
; File c:\program files (x86)\microsoft visual studio 14.0\vc\include\map
; File c:\github\mvtools\sources\sadfunctions.cpp
; File c:\program files (x86)\microsoft visual studio 14.0\vc\include\map
; File c:\github\mvtools\sources\sadfunctions.cpp
; File c:\program files (x86)\microsoft visual studio 14.0\vc\include\map
; File c:\github\mvtools\sources\sadfunctions.cpp
; File c:\program files (x86)\microsoft visual studio 14.0\vc\include\map
; File c:\github\mvtools\sources\sadfunctions.cpp
; File c:\program files (x86)\microsoft visual studio 14.0\vc\include\map
; File c:\github\mvtools\sources\sadfunctions.cpp
; File c:\program files (x86)\microsoft visual studio 14.0\vc\include\map
; File c:\github\mvtools\sources\sadfunctions.cpp
; File c:\program files (x86)\microsoft visual studio 14.0\vc\include\map
; File c:\github\mvtools\sources\sadfunctions.cpp
; File c:\program files (x86)\microsoft visual studio 14.0\vc\include\map
; File c:\github\mvtools\sources\sadfunctions.cpp
; File c:\program files (x86)\microsoft visual studio 14.0\vc\include\map
; File c:\github\mvtools\sources\sadfunctions.cpp
; File c:\program files (x86)\microsoft visual studio 14.0\vc\include\map
; File c:\github\mvtools\sources\sadfunctions.cpp
; File c:\program files (x86)\microsoft visual studio 14.0\vc\include\map
; File c:\github\mvtools\sources\sadfunctions.cpp
; File c:\program files (x86)\microsoft visual studio 14.0\vc\include\map
; File c:\github\mvtools\sources\sadfunctions.cpp
; File c:\program files (x86)\microsoft visual studio 14.0\vc\include\map
; File c:\github\mvtools\sources\sadfunctions.cpp
; File c:\program files (x86)\microsoft visual studio 14.0\vc\include\map
; File c:\github\mvtools\sources\sadfunctions.cpp
; File c:\program files (x86)\microsoft visual studio 14.0\vc\include\map
; File c:\github\mvtools\sources\sadfunctions.cpp
; File c:\program files (x86)\microsoft visual studio 14.0\vc\include\map
; File c:\github\mvtools\sources\sadfunctions.cpp
; File c:\program files (x86)\microsoft visual studio 14.0\vc\include\map
; File c:\github\mvtools\sources\sadfunctions.cpp
; File c:\program files (x86)\microsoft visual studio 14.0\vc\include\map
; File c:\github\mvtools\sources\sadfunctions.cpp
; File c:\program files (x86)\microsoft visual studio 14.0\vc\include\map
; File c:\github\mvtools\sources\sadfunctions.cpp
; File c:\program files (x86)\microsoft visual studio 14.0\vc\include\map
; File c:\github\mvtools\sources\sadfunctions.cpp
; File c:\program files (x86)\microsoft visual studio 14.0\vc\include\map
; File c:\github\mvtools\sources\sadfunctions.cpp
; File c:\program files (x86)\microsoft visual studio 14.0\vc\include\map
; File c:\github\mvtools\sources\sadfunctions.cpp
; File c:\program files (x86)\microsoft visual studio 14.0\vc\include\map
; File c:\github\mvtools\sources\sadfunctions.cpp
; File c:\program files (x86)\microsoft visual studio 14.0\vc\include\map
; File c:\github\mvtools\sources\sadfunctions.cpp
; File c:\program files (x86)\microsoft visual studio 14.0\vc\include\map
; File c:\github\mvtools\sources\sadfunctions.cpp
; File c:\program files (x86)\microsoft visual studio 14.0\vc\include\map
; File c:\github\mvtools\sources\sadfunctions.cpp
; File c:\program files (x86)\microsoft visual studio 14.0\vc\include\map
; File c:\github\mvtools\sources\sadfunctions.cpp
; File c:\program files (x86)\microsoft visual studio 14.0\vc\include\map
; File c:\github\mvtools\sources\sadfunctions.cpp
; File c:\program files (x86)\microsoft visual studio 14.0\vc\include\map
; File c:\github\mvtools\sources\sadfunctions.cpp
; File c:\program files (x86)\microsoft visual studio 14.0\vc\include\map
; File c:\github\mvtools\sources\sadfunctions.cpp
; File c:\program files (x86)\microsoft visual studio 14.0\vc\include\map
; File c:\github\mvtools\sources\sadfunctions.cpp
; File c:\program files (x86)\microsoft visual studio 14.0\vc\include\map
; File c:\github\mvtools\sources\sadfunctions.cpp
; File c:\program files (x86)\microsoft visual studio 14.0\vc\include\map
; File c:\github\mvtools\sources\sadfunctions.cpp
; File c:\program files (x86)\microsoft visual studio 14.0\vc\include\map
; File c:\github\mvtools\sources\sadfunctions.cpp
; File c:\program files (x86)\microsoft visual studio 14.0\vc\include\map
; File c:\github\mvtools\sources\sadfunctions.cpp
; File c:\program files (x86)\microsoft visual studio 14.0\vc\include\map
; File c:\github\mvtools\sources\sadfunctions.cpp
; File c:\program files (x86)\microsoft visual studio 14.0\vc\include\map
; File c:\github\mvtools\sources\sadfunctions.cpp
; File c:\program files (x86)\microsoft visual studio 14.0\vc\include\map
; File c:\github\mvtools\sources\sadfunctions.cpp
; File c:\program files (x86)\microsoft visual studio 14.0\vc\include\map
; File c:\github\mvtools\sources\sadfunctions.cpp
; File c:\program files (x86)\microsoft visual studio 14.0\vc\include\map
; File c:\github\mvtools\sources\sadfunctions.cpp
; File c:\program files (x86)\microsoft visual studio 14.0\vc\include\map
; File c:\github\mvtools\sources\sadfunctions.cpp
; File c:\program files (x86)\microsoft visual studio 14.0\vc\include\map
; File c:\github\mvtools\sources\sadfunctions.cpp
; File c:\program files (x86)\microsoft visual studio 14.0\vc\include\map
; File c:\github\mvtools\sources\sadfunctions.cpp
; File c:\program files (x86)\microsoft visual studio 14.0\vc\include\map
; File c:\github\mvtools\sources\sadfunctions.cpp
; File c:\program files (x86)\microsoft visual studio 14.0\vc\include\map
; File c:\github\mvtools\sources\sadfunctions.cpp
; File c:\program files (x86)\microsoft visual studio 14.0\vc\include\map
; File c:\github\mvtools\sources\sadfunctions.cpp
; File c:\program files (x86)\microsoft visual studio 14.0\vc\include\map
; File c:\github\mvtools\sources\sadfunctions.cpp
; File c:\program files (x86)\microsoft visual studio 14.0\vc\include\map
; File c:\github\mvtools\sources\sadfunctions.cpp
; File c:\program files (x86)\microsoft visual studio 14.0\vc\include\map
; File c:\github\mvtools\sources\sadfunctions.cpp
; File c:\program files (x86)\microsoft visual studio 14.0\vc\include\map
; File c:\github\mvtools\sources\sadfunctions.cpp
; File c:\program files (x86)\microsoft visual studio 14.0\vc\include\map
; File c:\github\mvtools\sources\sadfunctions.cpp
; File c:\program files (x86)\microsoft visual studio 14.0\vc\include\map
; File c:\github\mvtools\sources\sadfunctions.cpp
; File c:\program files (x86)\microsoft visual studio 14.0\vc\include\map
; File c:\github\mvtools\sources\sadfunctions.cpp
; File c:\program files (x86)\microsoft visual studio 14.0\vc\include\map
; File c:\github\mvtools\sources\sadfunctions.cpp
; File c:\program files (x86)\microsoft visual studio 14.0\vc\include\map
; File c:\github\mvtools\sources\sadfunctions.cpp
; File c:\program files (x86)\microsoft visual studio 14.0\vc\include\map
; File c:\github\mvtools\sources\sadfunctions.cpp
; File c:\program files (x86)\microsoft visual studio 14.0\vc\include\map
; File c:\github\mvtools\sources\sadfunctions.cpp
; File c:\program files (x86)\microsoft visual studio 14.0\vc\include\map
; File c:\github\mvtools\sources\sadfunctions.cpp
; File c:\program files (x86)\microsoft visual studio 14.0\vc\include\map
; File c:\github\mvtools\sources\sadfunctions.cpp
; File c:\program files (x86)\microsoft visual studio 14.0\vc\include\map
; File c:\github\mvtools\sources\sadfunctions.cpp
; File c:\program files (x86)\microsoft visual studio 14.0\vc\include\map
; File c:\github\mvtools\sources\sadfunctions.cpp
; File c:\program files (x86)\microsoft visual studio 14.0\vc\include\map
; File c:\github\mvtools\sources\sadfunctions.cpp
; File c:\program files (x86)\microsoft visual studio 14.0\vc\include\map
; File c:\github\mvtools\sources\sadfunctions.cpp
; File c:\program files (x86)\microsoft visual studio 14.0\vc\include\xtree
; File c:\github\mvtools\sources\sadfunctions.cpp
; File c:\program files (x86)\microsoft visual studio 14.0\vc\include\xtree
; File c:\github\mvtools\sources\sadfunctions.cpp
;	COMDAT ?get_sad_function@@YAP6AIPBEH0H@ZHHHW4arch_t@@@Z
_TEXT	SEGMENT
$T2 = -60						; size = 16
$T3 = -44						; size = 16
$T4 = -28						; size = 16
__$EHRec$ = -12						; size = 12
$T5 = 0							; size = 16
$T6 = 0							; size = 16
$T7 = 16						; size = 16
$T8 = 16						; size = 16
_archlist$ = 32						; size = 20
$T9 = 36						; size = 16
_BlockX$ = 52						; size = 4
_BlockY$ = 56						; size = 4
$T10 = 60						; size = 16
$T11 = 60						; size = 16
$T12 = 60						; size = 16
$T13 = 60						; size = 16
$T14 = 60						; size = 16
$T15 = 60						; size = 16
$T16 = 60						; size = 16
$T17 = 60						; size = 16
$T18 = 60						; size = 16
$T19 = 60						; size = 16
$T20 = 60						; size = 16
$T21 = 60						; size = 16
$T22 = 60						; size = 16
$T23 = 60						; size = 16
$T24 = 60						; size = 16
$T25 = 60						; size = 16
$T26 = 60						; size = 16
$T27 = 60						; size = 16
$T28 = 60						; size = 16
$T29 = 60						; size = 16
$T30 = 60						; size = 16
$T31 = 60						; size = 16
$T32 = 60						; size = 16
$T33 = 60						; size = 16
$T34 = 60						; size = 16
$T35 = 60						; size = 16
$T36 = 60						; size = 16
$T37 = 60						; size = 16
$T38 = 60						; size = 16
$T39 = 60						; size = 16
$T40 = 60						; size = 16
$T41 = 60						; size = 16
$T42 = 60						; size = 16
$T43 = 60						; size = 16
$T44 = 60						; size = 16
$T45 = 60						; size = 16
$T46 = 60						; size = 16
$T47 = 60						; size = 16
$T48 = 60						; size = 16
$T49 = 60						; size = 16
$T50 = 60						; size = 16
$T51 = 60						; size = 16
$T52 = 60						; size = 16
$T53 = 60						; size = 16
$T54 = 60						; size = 16
$T55 = 60						; size = 16
$T56 = 60						; size = 16
$T57 = 60						; size = 16
$T58 = 60						; size = 16
$T59 = 60						; size = 16
$T60 = 60						; size = 16
$T61 = 60						; size = 16
$T62 = 60						; size = 16
$T63 = 60						; size = 16
$T64 = 60						; size = 16
$T65 = 60						; size = 16
$T66 = 60						; size = 16
$T67 = 60						; size = 16
$T68 = 60						; size = 16
$T69 = 60						; size = 16
$T70 = 60						; size = 16
$T71 = 60						; size = 16
$T72 = 60						; size = 16
$T73 = 60						; size = 16
$T74 = 60						; size = 16
$T75 = 60						; size = 16
$T76 = 60						; size = 16
$T77 = 60						; size = 16
$T78 = 60						; size = 16
$T79 = 60						; size = 16
$T80 = 60						; size = 16
$T81 = 60						; size = 16
$T82 = 60						; size = 16
$T83 = 60						; size = 16
$T84 = 60						; size = 16
$T85 = 60						; size = 16
$T86 = 60						; size = 16
$T87 = 60						; size = 16
$T88 = 60						; size = 16
$T89 = 60						; size = 16
$T90 = 60						; size = 16
$T91 = 60						; size = 16
$T92 = 60						; size = 16
$T93 = 60						; size = 16
$T94 = 60						; size = 16
$T95 = 60						; size = 16
$T96 = 60						; size = 16
$T97 = 60						; size = 16
$T98 = 60						; size = 16
$T99 = 60						; size = 16
$T100 = 60						; size = 16
$T101 = 60						; size = 16
$T102 = 60						; size = 16
$T103 = 60						; size = 16
$T104 = 60						; size = 16
$T105 = 60						; size = 16
$T106 = 60						; size = 16
$T107 = 60						; size = 16
$T108 = 60						; size = 16
$T109 = 60						; size = 16
$T110 = 60						; size = 16
_func_sad$ = 76						; size = 8
$T111 = 84						; size = 8
$T112 = 84						; size = 8
$T113 = 84						; size = 8
$T114 = 84						; size = 8
$T115 = 84						; size = 8
$T116 = 84						; size = 8
$T117 = 84						; size = 8
$T118 = 84						; size = 8
$T119 = 84						; size = 8
$T120 = 84						; size = 8
$T121 = 84						; size = 8
$T122 = 84						; size = 8
$T123 = 84						; size = 8
$T124 = 84						; size = 8
$T125 = 84						; size = 8
$T126 = 84						; size = 8
$T127 = 84						; size = 8
$T128 = 84						; size = 8
$T129 = 84						; size = 8
$T130 = 84						; size = 8
$T131 = 84						; size = 8
$T132 = 84						; size = 8
$T133 = 84						; size = 8
$T134 = 84						; size = 8
$T135 = 84						; size = 8
$T136 = 84						; size = 8
$T137 = 84						; size = 8
$T138 = 84						; size = 8
$T139 = 84						; size = 8
$T140 = 84						; size = 8
$T141 = 84						; size = 8
$T142 = 84						; size = 8
$T143 = 84						; size = 8
$T144 = 84						; size = 8
$T145 = 84						; size = 8
$T146 = 84						; size = 8
$T147 = 84						; size = 8
$T148 = 84						; size = 8
$T149 = 84						; size = 8
$T150 = 84						; size = 8
$T151 = 84						; size = 8
$T152 = 84						; size = 8
$T153 = 84						; size = 8
$T154 = 84						; size = 8
$T155 = 84						; size = 8
$T156 = 84						; size = 8
$T157 = 84						; size = 8
$T158 = 88						; size = 4
$T159 = 88						; size = 4
$T160 = 88						; size = 4
$T161 = 88						; size = 4
$T162 = 88						; size = 4
$T163 = 88						; size = 4
$T164 = 88						; size = 4
$T165 = 88						; size = 4
$T166 = 88						; size = 4
$T167 = 88						; size = 4
$T168 = 88						; size = 4
$T169 = 88						; size = 4
$T170 = 88						; size = 4
$T171 = 88						; size = 4
$T172 = 88						; size = 4
$T173 = 88						; size = 4
$T174 = 88						; size = 4
$T175 = 88						; size = 4
$T176 = 88						; size = 4
$T177 = 88						; size = 4
$T178 = 88						; size = 4
$T179 = 88						; size = 4
$T180 = 88						; size = 4
$T181 = 88						; size = 4
$T182 = 88						; size = 4
$T183 = 88						; size = 4
$T184 = 88						; size = 4
$T185 = 88						; size = 4
$T186 = 88						; size = 4
$T187 = 88						; size = 4
$T188 = 88						; size = 4
$T189 = 88						; size = 4
$T190 = 88						; size = 4
$T191 = 88						; size = 4
$T192 = 88						; size = 4
$T193 = 88						; size = 4
$T194 = 88						; size = 4
$T195 = 88						; size = 4
$T196 = 88						; size = 4
$T197 = 88						; size = 4
$T198 = 88						; size = 4
$T199 = 88						; size = 4
$T200 = 88						; size = 4
$T201 = 88						; size = 4
$T202 = 88						; size = 4
$T203 = 88						; size = 4
$T204 = 88						; size = 4
$T205 = 88						; size = 4
$T206 = 88						; size = 4
$T207 = 88						; size = 4
$T208 = 88						; size = 4
$T209 = 88						; size = 4
$T210 = 88						; size = 4
$T211 = 88						; size = 4
$T212 = 88						; size = 4
$T213 = 88						; size = 4
$T214 = 88						; size = 4
$T215 = 88						; size = 4
$T216 = 88						; size = 4
$T217 = 88						; size = 4
$T218 = 92						; size = 4
$T219 = 92						; size = 4
$T220 = 92						; size = 4
$T221 = 92						; size = 4
$T222 = 92						; size = 4
$T223 = 92						; size = 4
$T224 = 92						; size = 4
$T225 = 92						; size = 4
$T226 = 92						; size = 4
$T227 = 92						; size = 4
$T228 = 92						; size = 4
$T229 = 92						; size = 4
$T230 = 92						; size = 4
$T231 = 92						; size = 4
$T232 = 92						; size = 4
$T233 = 92						; size = 4
$T234 = 92						; size = 4
$T235 = 92						; size = 4
$T236 = 92						; size = 4
$T237 = 92						; size = 4
$T238 = 92						; size = 4
$T239 = 92						; size = 4
$T240 = 92						; size = 4
$T241 = 92						; size = 4
$T242 = 92						; size = 4
$T243 = 92						; size = 4
$T244 = 92						; size = 4
$T245 = 92						; size = 4
$T246 = 92						; size = 4
$T247 = 92						; size = 4
$T248 = 92						; size = 4
$T249 = 92						; size = 4
$T250 = 92						; size = 4
$T251 = 92						; size = 4
$T252 = 92						; size = 4
$T253 = 92						; size = 4
$T254 = 92						; size = 4
$T255 = 92						; size = 4
$T256 = 92						; size = 4
$T257 = 92						; size = 4
$T258 = 92						; size = 4
$T259 = 92						; size = 4
$T260 = 92						; size = 4
$T261 = 92						; size = 4
$T262 = 92						; size = 4
$T263 = 92						; size = 4
$T264 = 92						; size = 4
$T265 = 92						; size = 4
$T266 = 92						; size = 4
$T267 = 92						; size = 4
$T268 = 92						; size = 4
$T269 = 92						; size = 4
$T270 = 92						; size = 4
$T271 = 92						; size = 4
$T272 = 92						; size = 4
$T273 = 92						; size = 4
$T274 = 92						; size = 4
$T275 = 92						; size = 4
$T276 = 92						; size = 4
tv7297 = 96						; size = 4
$T277 = 96						; size = 4
$T278 = 96						; size = 4
$T279 = 96						; size = 4
$T280 = 96						; size = 4
$T281 = 96						; size = 4
$T282 = 96						; size = 4
$T283 = 96						; size = 4
$T284 = 96						; size = 4
$T285 = 96						; size = 4
$T286 = 96						; size = 4
$T287 = 96						; size = 4
$T288 = 96						; size = 4
$T289 = 96						; size = 4
$T290 = 96						; size = 4
$T291 = 96						; size = 4
$T292 = 96						; size = 4
$T293 = 96						; size = 4
$T294 = 96						; size = 4
$T295 = 96						; size = 4
$T296 = 96						; size = 4
$T297 = 96						; size = 4
$T298 = 96						; size = 4
$T299 = 96						; size = 4
$T300 = 96						; size = 4
$T301 = 96						; size = 4
$T302 = 96						; size = 4
$T303 = 96						; size = 4
$T304 = 96						; size = 4
$T305 = 96						; size = 4
$T306 = 96						; size = 4
$T307 = 96						; size = 4
$T308 = 96						; size = 4
$T309 = 96						; size = 4
$T310 = 96						; size = 4
$T311 = 96						; size = 4
$T312 = 96						; size = 4
$T313 = 96						; size = 4
$T314 = 96						; size = 4
$T315 = 96						; size = 4
$T316 = 96						; size = 4
$T317 = 96						; size = 4
$T318 = 96						; size = 4
$T319 = 96						; size = 4
$T320 = 96						; size = 4
$T321 = 96						; size = 4
$T322 = 96						; size = 4
$T323 = 96						; size = 4
$T324 = 96						; size = 4
$T325 = 96						; size = 4
$T326 = 96						; size = 4
$T327 = 96						; size = 4
$T328 = 96						; size = 4
$T329 = 96						; size = 4
$T330 = 96						; size = 4
$T331 = 96						; size = 4
$T332 = 96						; size = 4
$T333 = 96						; size = 4
$T334 = 96						; size = 4
$T335 = 96						; size = 4
_current_arch_try$336 = 100				; size = 4
$T337 = 100						; size = 4
$T338 = 100						; size = 4
$T339 = 100						; size = 4
$T340 = 100						; size = 4
$T341 = 100						; size = 4
$T342 = 100						; size = 4
$T343 = 100						; size = 4
$T344 = 100						; size = 4
$T345 = 100						; size = 4
$T346 = 100						; size = 4
$T347 = 100						; size = 4
$T348 = 100						; size = 4
$T349 = 100						; size = 4
$T350 = 100						; size = 4
$T351 = 100						; size = 4
$T352 = 100						; size = 4
$T353 = 100						; size = 4
$T354 = 100						; size = 4
$T355 = 100						; size = 4
$T356 = 100						; size = 4
$T357 = 100						; size = 4
$T358 = 100						; size = 4
$T359 = 100						; size = 4
$T360 = 100						; size = 4
$T361 = 100						; size = 4
$T362 = 100						; size = 4
$T363 = 100						; size = 4
$T364 = 100						; size = 4
$T365 = 100						; size = 4
$T366 = 100						; size = 4
$T367 = 100						; size = 4
$T368 = 100						; size = 4
$T369 = 100						; size = 4
$T370 = 100						; size = 4
$T371 = 100						; size = 4
$T372 = 100						; size = 4
$T373 = 100						; size = 4
$T374 = 100						; size = 4
$T375 = 100						; size = 4
$T376 = 100						; size = 4
$T377 = 100						; size = 4
$T378 = 100						; size = 4
$T379 = 100						; size = 4
$T380 = 100						; size = 4
$T381 = 100						; size = 4
$T382 = 100						; size = 4
$T383 = 100						; size = 4
$T384 = 100						; size = 4
$T385 = 100						; size = 4
$T386 = 100						; size = 4
$T387 = 100						; size = 4
$T388 = 100						; size = 4
$T389 = 100						; size = 4
$T390 = 100						; size = 4
$T391 = 100						; size = 4
$T392 = 100						; size = 4
$T393 = 100						; size = 4
$T394 = 100						; size = 4
$T395 = 100						; size = 4
_pixelsize$ = 112					; size = 4
_arch$ = 116						; size = 4
?get_sad_function@@YAP6AIPBEH0H@ZHHHW4arch_t@@@Z PROC	; get_sad_function, COMDAT
; _BlockX$ = ecx
; _BlockY$ = edx

; 158  : {

	push	ebp
	lea	ebp, DWORD PTR [esp-104]
	sub	esp, 104				; 00000068H
	push	-1
	push	__ehhandler$?get_sad_function@@YAP6AIPBEH0H@ZHHHW4arch_t@@@Z
	mov	eax, DWORD PTR fs:0
	push	eax
	mov	DWORD PTR fs:0, esp
	sub	esp, 48					; 00000030H
	push	ebx
	push	esi
	mov	ebx, edx
; File c:\program files (x86)\microsoft visual studio 14.0\vc\include\xtree

; 567  : 		: _Myhead(),

	mov	DWORD PTR _func_sad$[ebp], 0
; File c:\github\mvtools\sources\sadfunctions.cpp

; 158  : {

	mov	esi, ecx
	mov	DWORD PTR _BlockY$[ebp], ebx
	push	edi
	mov	DWORD PTR _BlockX$[ebp], esi
; File c:\program files (x86)\microsoft visual studio 14.0\vc\include\xtree

; 568  : 		_Mysize(0)

	mov	DWORD PTR _func_sad$[ebp+4], 0

; 721  : 		_Myhead() = _Buyheadnode();

	call	?_Buyheadnode@?$_Tree_comp_alloc@V?$_Tmap_traits@V?$tuple@HHHW4arch_t@@@std@@P6AIPBEH0H@ZU?$less@V?$tuple@HHHW4arch_t@@@std@@@2@V?$allocator@U?$pair@$$CBV?$tuple@HHHW4arch_t@@@std@@P6AIPBEH0H@Z@std@@@2@$0A@@std@@@std@@QAEPAU?$_Tree_node@U?$pair@$$CBV?$tuple@HHHW4arch_t@@@std@@P6AIPBEH0H@Z@std@@PAX@2@XZ ; std::_Tree_comp_alloc<std::_Tmap_traits<std::tuple<int,int,int,enum arch_t>,unsigned int (__cdecl*)(unsigned char const *,int,unsigned char const *,int),std::less<std::tuple<int,int,int,enum arch_t> >,std::allocator<std::pair<std::tuple<int,int,int,enum arch_t> const ,unsigned int (__cdecl*)(unsigned char const *,int,unsigned char const *,int)> >,0> >::_Buyheadnode
	mov	DWORD PTR _func_sad$[ebp], eax
; File c:\program files (x86)\microsoft visual studio 14.0\vc\include\map

; 244  : 		return (_Try_emplace(_STD move(_Keyval),

	lea	eax, DWORD PTR $T110[ebp]
; File c:\github\mvtools\sources\sadfunctions.cpp

; 162  :     std::map<std::tuple<int, int, int, arch_t>, SADFunction*> func_sad;

	mov	DWORD PTR __$EHRec$[ebp+8], 0
	movaps	xmm0, XMMWORD PTR __xmm@00000020000000200000000100000000
; File c:\program files (x86)\microsoft visual studio 14.0\vc\include\map

; 244  : 		return (_Try_emplace(_STD move(_Keyval),

	lea	ecx, DWORD PTR _func_sad$[ebp]
	push	eax
	lea	eax, DWORD PTR $T157[ebp]
	push	eax
	movups	XMMWORD PTR $T110[ebp], xmm0
	call	??$_Try_emplace@V?$tuple@HHHW4arch_t@@@std@@$$V@?$map@V?$tuple@HHHW4arch_t@@@std@@P6AIPBEH0H@ZU?$less@V?$tuple@HHHW4arch_t@@@std@@@2@V?$allocator@U?$pair@$$CBV?$tuple@HHHW4arch_t@@@std@@P6AIPBEH0H@Z@std@@@2@@std@@QAE?AU?$pair@V?$_Tree_iterator@V?$_Tree_val@U?$_Tree_simple_types@U?$pair@$$CBV?$tuple@HHHW4arch_t@@@std@@P6AIPBEH0H@Z@std@@@std@@@std@@@std@@_N@1@$$QAV?$tuple@HHHW4arch_t@@@1@@Z ; std::map<std::tuple<int,int,int,enum arch_t>,unsigned int (__cdecl*)(unsigned char const *,int,unsigned char const *,int),std::less<std::tuple<int,int,int,enum arch_t> >,std::allocator<std::pair<std::tuple<int,int,int,enum arch_t> const ,unsigned int (__cdecl*)(unsigned char const *,int,unsigned char const *,int)> > >::_Try_emplace<std::tuple<int,int,int,enum arch_t> >
; File c:\github\mvtools\sources\sadfunctions.cpp

; 164  :     func_sad[make_tuple(32, 32, 1, NO_SIMD)] = Sad_C<32, 32,uint8_t>;

	mov	eax, DWORD PTR $T157[ebp]
; File c:\program files (x86)\microsoft visual studio 14.0\vc\include\map

; 244  : 		return (_Try_emplace(_STD move(_Keyval),

	lea	ecx, DWORD PTR _func_sad$[ebp]
	movaps	xmm0, XMMWORD PTR __xmm@00000020000000100000000100000000
; File c:\github\mvtools\sources\sadfunctions.cpp

; 164  :     func_sad[make_tuple(32, 32, 1, NO_SIMD)] = Sad_C<32, 32,uint8_t>;

	mov	DWORD PTR [eax+32], OFFSET ??$Sad_C@$0CA@$0CA@E@@YAIPBEH0H@Z ; Sad_C<32,32,unsigned char>
; File c:\program files (x86)\microsoft visual studio 14.0\vc\include\map

; 244  : 		return (_Try_emplace(_STD move(_Keyval),

	lea	eax, DWORD PTR $T109[ebp]
	push	eax
	lea	eax, DWORD PTR $T156[ebp]
	push	eax
	movups	XMMWORD PTR $T109[ebp], xmm0
	call	??$_Try_emplace@V?$tuple@HHHW4arch_t@@@std@@$$V@?$map@V?$tuple@HHHW4arch_t@@@std@@P6AIPBEH0H@ZU?$less@V?$tuple@HHHW4arch_t@@@std@@@2@V?$allocator@U?$pair@$$CBV?$tuple@HHHW4arch_t@@@std@@P6AIPBEH0H@Z@std@@@2@@std@@QAE?AU?$pair@V?$_Tree_iterator@V?$_Tree_val@U?$_Tree_simple_types@U?$pair@$$CBV?$tuple@HHHW4arch_t@@@std@@P6AIPBEH0H@Z@std@@@std@@@std@@@std@@_N@1@$$QAV?$tuple@HHHW4arch_t@@@1@@Z ; std::map<std::tuple<int,int,int,enum arch_t>,unsigned int (__cdecl*)(unsigned char const *,int,unsigned char const *,int),std::less<std::tuple<int,int,int,enum arch_t> >,std::allocator<std::pair<std::tuple<int,int,int,enum arch_t> const ,unsigned int (__cdecl*)(unsigned char const *,int,unsigned char const *,int)> > >::_Try_emplace<std::tuple<int,int,int,enum arch_t> >
; File c:\github\mvtools\sources\sadfunctions.cpp

; 165  :     func_sad[make_tuple(32, 16, 1, NO_SIMD)] = Sad_C<32, 16,uint8_t>;

	mov	eax, DWORD PTR $T156[ebp]
; File c:\program files (x86)\microsoft visual studio 14.0\vc\include\map

; 244  : 		return (_Try_emplace(_STD move(_Keyval),

	lea	ecx, DWORD PTR _func_sad$[ebp]
	movaps	xmm0, XMMWORD PTR __xmm@00000020000000080000000100000000
; File c:\github\mvtools\sources\sadfunctions.cpp

; 165  :     func_sad[make_tuple(32, 16, 1, NO_SIMD)] = Sad_C<32, 16,uint8_t>;

	mov	DWORD PTR [eax+32], OFFSET ??$Sad_C@$0CA@$0BA@E@@YAIPBEH0H@Z ; Sad_C<32,16,unsigned char>
; File c:\program files (x86)\microsoft visual studio 14.0\vc\include\map

; 244  : 		return (_Try_emplace(_STD move(_Keyval),

	lea	eax, DWORD PTR $T108[ebp]
	push	eax
	lea	eax, DWORD PTR $T155[ebp]
	push	eax
	movups	XMMWORD PTR $T108[ebp], xmm0
	call	??$_Try_emplace@V?$tuple@HHHW4arch_t@@@std@@$$V@?$map@V?$tuple@HHHW4arch_t@@@std@@P6AIPBEH0H@ZU?$less@V?$tuple@HHHW4arch_t@@@std@@@2@V?$allocator@U?$pair@$$CBV?$tuple@HHHW4arch_t@@@std@@P6AIPBEH0H@Z@std@@@2@@std@@QAE?AU?$pair@V?$_Tree_iterator@V?$_Tree_val@U?$_Tree_simple_types@U?$pair@$$CBV?$tuple@HHHW4arch_t@@@std@@P6AIPBEH0H@Z@std@@@std@@@std@@@std@@_N@1@$$QAV?$tuple@HHHW4arch_t@@@1@@Z ; std::map<std::tuple<int,int,int,enum arch_t>,unsigned int (__cdecl*)(unsigned char const *,int,unsigned char const *,int),std::less<std::tuple<int,int,int,enum arch_t> >,std::allocator<std::pair<std::tuple<int,int,int,enum arch_t> const ,unsigned int (__cdecl*)(unsigned char const *,int,unsigned char const *,int)> > >::_Try_emplace<std::tuple<int,int,int,enum arch_t> >
; File c:\github\mvtools\sources\sadfunctions.cpp

; 166  :     func_sad[make_tuple(32, 8 , 1, NO_SIMD)] = Sad_C<32, 8,uint8_t>;

	mov	eax, DWORD PTR $T155[ebp]
; File c:\program files (x86)\microsoft visual studio 14.0\vc\include\map

; 244  : 		return (_Try_emplace(_STD move(_Keyval),

	lea	ecx, DWORD PTR _func_sad$[ebp]
	movaps	xmm0, XMMWORD PTR __xmm@00000010000000200000000100000000
; File c:\github\mvtools\sources\sadfunctions.cpp

; 166  :     func_sad[make_tuple(32, 8 , 1, NO_SIMD)] = Sad_C<32, 8,uint8_t>;

	mov	DWORD PTR [eax+32], OFFSET ??$Sad_C@$0CA@$07E@@YAIPBEH0H@Z ; Sad_C<32,8,unsigned char>
; File c:\program files (x86)\microsoft visual studio 14.0\vc\include\map

; 244  : 		return (_Try_emplace(_STD move(_Keyval),

	lea	eax, DWORD PTR $T107[ebp]
	push	eax
	lea	eax, DWORD PTR $T154[ebp]
	push	eax
	movups	XMMWORD PTR $T107[ebp], xmm0
	call	??$_Try_emplace@V?$tuple@HHHW4arch_t@@@std@@$$V@?$map@V?$tuple@HHHW4arch_t@@@std@@P6AIPBEH0H@ZU?$less@V?$tuple@HHHW4arch_t@@@std@@@2@V?$allocator@U?$pair@$$CBV?$tuple@HHHW4arch_t@@@std@@P6AIPBEH0H@Z@std@@@2@@std@@QAE?AU?$pair@V?$_Tree_iterator@V?$_Tree_val@U?$_Tree_simple_types@U?$pair@$$CBV?$tuple@HHHW4arch_t@@@std@@P6AIPBEH0H@Z@std@@@std@@@std@@@std@@_N@1@$$QAV?$tuple@HHHW4arch_t@@@1@@Z ; std::map<std::tuple<int,int,int,enum arch_t>,unsigned int (__cdecl*)(unsigned char const *,int,unsigned char const *,int),std::less<std::tuple<int,int,int,enum arch_t> >,std::allocator<std::pair<std::tuple<int,int,int,enum arch_t> const ,unsigned int (__cdecl*)(unsigned char const *,int,unsigned char const *,int)> > >::_Try_emplace<std::tuple<int,int,int,enum arch_t> >
; File c:\github\mvtools\sources\sadfunctions.cpp

; 167  :     func_sad[make_tuple(16, 32, 1, NO_SIMD)] = Sad_C<16, 32,uint8_t>;

	mov	eax, DWORD PTR $T154[ebp]
; File c:\program files (x86)\microsoft visual studio 14.0\vc\include\map

; 244  : 		return (_Try_emplace(_STD move(_Keyval),

	lea	ecx, DWORD PTR _func_sad$[ebp]
	movaps	xmm0, XMMWORD PTR __xmm@00000010000000100000000100000000
; File c:\github\mvtools\sources\sadfunctions.cpp

; 167  :     func_sad[make_tuple(16, 32, 1, NO_SIMD)] = Sad_C<16, 32,uint8_t>;

	mov	DWORD PTR [eax+32], OFFSET ??$Sad_C@$0BA@$0CA@E@@YAIPBEH0H@Z ; Sad_C<16,32,unsigned char>
; File c:\program files (x86)\microsoft visual studio 14.0\vc\include\map

; 244  : 		return (_Try_emplace(_STD move(_Keyval),

	lea	eax, DWORD PTR $T106[ebp]
	push	eax
	lea	eax, DWORD PTR $T153[ebp]
	push	eax
	movups	XMMWORD PTR $T106[ebp], xmm0
	call	??$_Try_emplace@V?$tuple@HHHW4arch_t@@@std@@$$V@?$map@V?$tuple@HHHW4arch_t@@@std@@P6AIPBEH0H@ZU?$less@V?$tuple@HHHW4arch_t@@@std@@@2@V?$allocator@U?$pair@$$CBV?$tuple@HHHW4arch_t@@@std@@P6AIPBEH0H@Z@std@@@2@@std@@QAE?AU?$pair@V?$_Tree_iterator@V?$_Tree_val@U?$_Tree_simple_types@U?$pair@$$CBV?$tuple@HHHW4arch_t@@@std@@P6AIPBEH0H@Z@std@@@std@@@std@@@std@@_N@1@$$QAV?$tuple@HHHW4arch_t@@@1@@Z ; std::map<std::tuple<int,int,int,enum arch_t>,unsigned int (__cdecl*)(unsigned char const *,int,unsigned char const *,int),std::less<std::tuple<int,int,int,enum arch_t> >,std::allocator<std::pair<std::tuple<int,int,int,enum arch_t> const ,unsigned int (__cdecl*)(unsigned char const *,int,unsigned char const *,int)> > >::_Try_emplace<std::tuple<int,int,int,enum arch_t> >
; File c:\github\mvtools\sources\sadfunctions.cpp

; 168  :     func_sad[make_tuple(16, 16, 1, NO_SIMD)] = Sad_C<16, 16,uint8_t>;

	mov	eax, DWORD PTR $T153[ebp]
; File c:\program files (x86)\microsoft visual studio 14.0\vc\include\map

; 244  : 		return (_Try_emplace(_STD move(_Keyval),

	lea	ecx, DWORD PTR _func_sad$[ebp]
	movaps	xmm0, XMMWORD PTR __xmm@00000010000000080000000100000000
; File c:\github\mvtools\sources\sadfunctions.cpp

; 168  :     func_sad[make_tuple(16, 16, 1, NO_SIMD)] = Sad_C<16, 16,uint8_t>;

	mov	DWORD PTR [eax+32], OFFSET ??$Sad_C@$0BA@$0BA@E@@YAIPBEH0H@Z ; Sad_C<16,16,unsigned char>
; File c:\program files (x86)\microsoft visual studio 14.0\vc\include\map

; 244  : 		return (_Try_emplace(_STD move(_Keyval),

	lea	eax, DWORD PTR $T105[ebp]
	push	eax
	lea	eax, DWORD PTR $T152[ebp]
	push	eax
	movups	XMMWORD PTR $T105[ebp], xmm0
	call	??$_Try_emplace@V?$tuple@HHHW4arch_t@@@std@@$$V@?$map@V?$tuple@HHHW4arch_t@@@std@@P6AIPBEH0H@ZU?$less@V?$tuple@HHHW4arch_t@@@std@@@2@V?$allocator@U?$pair@$$CBV?$tuple@HHHW4arch_t@@@std@@P6AIPBEH0H@Z@std@@@2@@std@@QAE?AU?$pair@V?$_Tree_iterator@V?$_Tree_val@U?$_Tree_simple_types@U?$pair@$$CBV?$tuple@HHHW4arch_t@@@std@@P6AIPBEH0H@Z@std@@@std@@@std@@@std@@_N@1@$$QAV?$tuple@HHHW4arch_t@@@1@@Z ; std::map<std::tuple<int,int,int,enum arch_t>,unsigned int (__cdecl*)(unsigned char const *,int,unsigned char const *,int),std::less<std::tuple<int,int,int,enum arch_t> >,std::allocator<std::pair<std::tuple<int,int,int,enum arch_t> const ,unsigned int (__cdecl*)(unsigned char const *,int,unsigned char const *,int)> > >::_Try_emplace<std::tuple<int,int,int,enum arch_t> >
; File c:\github\mvtools\sources\sadfunctions.cpp

; 169  :     func_sad[make_tuple(16, 8 , 1, NO_SIMD)] = Sad_C<16, 8,uint8_t>;

	mov	eax, DWORD PTR $T152[ebp]
; File c:\program files (x86)\microsoft visual studio 14.0\vc\include\map

; 244  : 		return (_Try_emplace(_STD move(_Keyval),

	lea	ecx, DWORD PTR _func_sad$[ebp]
	movaps	xmm0, XMMWORD PTR __xmm@00000010000000040000000100000000
; File c:\github\mvtools\sources\sadfunctions.cpp

; 169  :     func_sad[make_tuple(16, 8 , 1, NO_SIMD)] = Sad_C<16, 8,uint8_t>;

	mov	DWORD PTR [eax+32], OFFSET ??$Sad_C@$0BA@$07E@@YAIPBEH0H@Z ; Sad_C<16,8,unsigned char>
; File c:\program files (x86)\microsoft visual studio 14.0\vc\include\map

; 244  : 		return (_Try_emplace(_STD move(_Keyval),

	lea	eax, DWORD PTR $T104[ebp]
	push	eax
	lea	eax, DWORD PTR $T151[ebp]
	push	eax
	movups	XMMWORD PTR $T104[ebp], xmm0
	call	??$_Try_emplace@V?$tuple@HHHW4arch_t@@@std@@$$V@?$map@V?$tuple@HHHW4arch_t@@@std@@P6AIPBEH0H@ZU?$less@V?$tuple@HHHW4arch_t@@@std@@@2@V?$allocator@U?$pair@$$CBV?$tuple@HHHW4arch_t@@@std@@P6AIPBEH0H@Z@std@@@2@@std@@QAE?AU?$pair@V?$_Tree_iterator@V?$_Tree_val@U?$_Tree_simple_types@U?$pair@$$CBV?$tuple@HHHW4arch_t@@@std@@P6AIPBEH0H@Z@std@@@std@@@std@@@std@@_N@1@$$QAV?$tuple@HHHW4arch_t@@@1@@Z ; std::map<std::tuple<int,int,int,enum arch_t>,unsigned int (__cdecl*)(unsigned char const *,int,unsigned char const *,int),std::less<std::tuple<int,int,int,enum arch_t> >,std::allocator<std::pair<std::tuple<int,int,int,enum arch_t> const ,unsigned int (__cdecl*)(unsigned char const *,int,unsigned char const *,int)> > >::_Try_emplace<std::tuple<int,int,int,enum arch_t> >
; File c:\github\mvtools\sources\sadfunctions.cpp

; 170  :     func_sad[make_tuple(16, 4 , 1, NO_SIMD)] = Sad_C<16, 4,uint8_t>;

	mov	eax, DWORD PTR $T151[ebp]
; File c:\program files (x86)\microsoft visual studio 14.0\vc\include\map

; 244  : 		return (_Try_emplace(_STD move(_Keyval),

	lea	ecx, DWORD PTR _func_sad$[ebp]
	movaps	xmm0, XMMWORD PTR __xmm@00000010000000020000000100000000
; File c:\github\mvtools\sources\sadfunctions.cpp

; 170  :     func_sad[make_tuple(16, 4 , 1, NO_SIMD)] = Sad_C<16, 4,uint8_t>;

	mov	DWORD PTR [eax+32], OFFSET ??$Sad_C@$0BA@$03E@@YAIPBEH0H@Z ; Sad_C<16,4,unsigned char>
; File c:\program files (x86)\microsoft visual studio 14.0\vc\include\map

; 244  : 		return (_Try_emplace(_STD move(_Keyval),

	lea	eax, DWORD PTR $T103[ebp]
	push	eax
	lea	eax, DWORD PTR $T150[ebp]
	push	eax
	movups	XMMWORD PTR $T103[ebp], xmm0
	call	??$_Try_emplace@V?$tuple@HHHW4arch_t@@@std@@$$V@?$map@V?$tuple@HHHW4arch_t@@@std@@P6AIPBEH0H@ZU?$less@V?$tuple@HHHW4arch_t@@@std@@@2@V?$allocator@U?$pair@$$CBV?$tuple@HHHW4arch_t@@@std@@P6AIPBEH0H@Z@std@@@2@@std@@QAE?AU?$pair@V?$_Tree_iterator@V?$_Tree_val@U?$_Tree_simple_types@U?$pair@$$CBV?$tuple@HHHW4arch_t@@@std@@P6AIPBEH0H@Z@std@@@std@@@std@@@std@@_N@1@$$QAV?$tuple@HHHW4arch_t@@@1@@Z ; std::map<std::tuple<int,int,int,enum arch_t>,unsigned int (__cdecl*)(unsigned char const *,int,unsigned char const *,int),std::less<std::tuple<int,int,int,enum arch_t> >,std::allocator<std::pair<std::tuple<int,int,int,enum arch_t> const ,unsigned int (__cdecl*)(unsigned char const *,int,unsigned char const *,int)> > >::_Try_emplace<std::tuple<int,int,int,enum arch_t> >
; File c:\github\mvtools\sources\sadfunctions.cpp

; 171  :     func_sad[make_tuple(16, 2 , 1, NO_SIMD)] = Sad_C<16, 2,uint8_t>;

	mov	eax, DWORD PTR $T150[ebp]
; File c:\program files (x86)\microsoft visual studio 14.0\vc\include\map

; 244  : 		return (_Try_emplace(_STD move(_Keyval),

	lea	ecx, DWORD PTR _func_sad$[ebp]
	movaps	xmm0, XMMWORD PTR __xmm@00000010000000010000000100000000
; File c:\github\mvtools\sources\sadfunctions.cpp

; 171  :     func_sad[make_tuple(16, 2 , 1, NO_SIMD)] = Sad_C<16, 2,uint8_t>;

	mov	DWORD PTR [eax+32], OFFSET ??$Sad_C@$0BA@$01E@@YAIPBEH0H@Z ; Sad_C<16,2,unsigned char>
; File c:\program files (x86)\microsoft visual studio 14.0\vc\include\map

; 244  : 		return (_Try_emplace(_STD move(_Keyval),

	lea	eax, DWORD PTR $T102[ebp]
	push	eax
	lea	eax, DWORD PTR $T149[ebp]
	push	eax
	movups	XMMWORD PTR $T102[ebp], xmm0
	call	??$_Try_emplace@V?$tuple@HHHW4arch_t@@@std@@$$V@?$map@V?$tuple@HHHW4arch_t@@@std@@P6AIPBEH0H@ZU?$less@V?$tuple@HHHW4arch_t@@@std@@@2@V?$allocator@U?$pair@$$CBV?$tuple@HHHW4arch_t@@@std@@P6AIPBEH0H@Z@std@@@2@@std@@QAE?AU?$pair@V?$_Tree_iterator@V?$_Tree_val@U?$_Tree_simple_types@U?$pair@$$CBV?$tuple@HHHW4arch_t@@@std@@P6AIPBEH0H@Z@std@@@std@@@std@@@std@@_N@1@$$QAV?$tuple@HHHW4arch_t@@@1@@Z ; std::map<std::tuple<int,int,int,enum arch_t>,unsigned int (__cdecl*)(unsigned char const *,int,unsigned char const *,int),std::less<std::tuple<int,int,int,enum arch_t> >,std::allocator<std::pair<std::tuple<int,int,int,enum arch_t> const ,unsigned int (__cdecl*)(unsigned char const *,int,unsigned char const *,int)> > >::_Try_emplace<std::tuple<int,int,int,enum arch_t> >
; File c:\github\mvtools\sources\sadfunctions.cpp

; 172  :     func_sad[make_tuple(16, 1 , 1, NO_SIMD)] = Sad_C<16, 1,uint8_t>;

	mov	eax, DWORD PTR $T149[ebp]
; File c:\program files (x86)\microsoft visual studio 14.0\vc\include\map

; 244  : 		return (_Try_emplace(_STD move(_Keyval),

	lea	ecx, DWORD PTR _func_sad$[ebp]
	movaps	xmm0, XMMWORD PTR __xmm@00000008000000100000000100000000
; File c:\github\mvtools\sources\sadfunctions.cpp

; 172  :     func_sad[make_tuple(16, 1 , 1, NO_SIMD)] = Sad_C<16, 1,uint8_t>;

	mov	DWORD PTR [eax+32], OFFSET ??$Sad_C@$0BA@$00E@@YAIPBEH0H@Z ; Sad_C<16,1,unsigned char>
; File c:\program files (x86)\microsoft visual studio 14.0\vc\include\map

; 244  : 		return (_Try_emplace(_STD move(_Keyval),

	lea	eax, DWORD PTR $T101[ebp]
	push	eax
	lea	eax, DWORD PTR $T148[ebp]
	push	eax
	movups	XMMWORD PTR $T101[ebp], xmm0
	call	??$_Try_emplace@V?$tuple@HHHW4arch_t@@@std@@$$V@?$map@V?$tuple@HHHW4arch_t@@@std@@P6AIPBEH0H@ZU?$less@V?$tuple@HHHW4arch_t@@@std@@@2@V?$allocator@U?$pair@$$CBV?$tuple@HHHW4arch_t@@@std@@P6AIPBEH0H@Z@std@@@2@@std@@QAE?AU?$pair@V?$_Tree_iterator@V?$_Tree_val@U?$_Tree_simple_types@U?$pair@$$CBV?$tuple@HHHW4arch_t@@@std@@P6AIPBEH0H@Z@std@@@std@@@std@@@std@@_N@1@$$QAV?$tuple@HHHW4arch_t@@@1@@Z ; std::map<std::tuple<int,int,int,enum arch_t>,unsigned int (__cdecl*)(unsigned char const *,int,unsigned char const *,int),std::less<std::tuple<int,int,int,enum arch_t> >,std::allocator<std::pair<std::tuple<int,int,int,enum arch_t> const ,unsigned int (__cdecl*)(unsigned char const *,int,unsigned char const *,int)> > >::_Try_emplace<std::tuple<int,int,int,enum arch_t> >
; File c:\github\mvtools\sources\sadfunctions.cpp

; 173  :     func_sad[make_tuple(8 , 16, 1, NO_SIMD)] = Sad_C<8 , 16,uint8_t>;

	mov	eax, DWORD PTR $T148[ebp]
; File c:\program files (x86)\microsoft visual studio 14.0\vc\include\map

; 244  : 		return (_Try_emplace(_STD move(_Keyval),

	lea	ecx, DWORD PTR _func_sad$[ebp]
	movaps	xmm0, XMMWORD PTR __xmm@00000008000000080000000100000000
; File c:\github\mvtools\sources\sadfunctions.cpp

; 173  :     func_sad[make_tuple(8 , 16, 1, NO_SIMD)] = Sad_C<8 , 16,uint8_t>;

	mov	DWORD PTR [eax+32], OFFSET ??$Sad_C@$07$0BA@E@@YAIPBEH0H@Z ; Sad_C<8,16,unsigned char>
; File c:\program files (x86)\microsoft visual studio 14.0\vc\include\map

; 244  : 		return (_Try_emplace(_STD move(_Keyval),

	lea	eax, DWORD PTR $T100[ebp]
	push	eax
	lea	eax, DWORD PTR $T147[ebp]
	push	eax
	movups	XMMWORD PTR $T100[ebp], xmm0
	call	??$_Try_emplace@V?$tuple@HHHW4arch_t@@@std@@$$V@?$map@V?$tuple@HHHW4arch_t@@@std@@P6AIPBEH0H@ZU?$less@V?$tuple@HHHW4arch_t@@@std@@@2@V?$allocator@U?$pair@$$CBV?$tuple@HHHW4arch_t@@@std@@P6AIPBEH0H@Z@std@@@2@@std@@QAE?AU?$pair@V?$_Tree_iterator@V?$_Tree_val@U?$_Tree_simple_types@U?$pair@$$CBV?$tuple@HHHW4arch_t@@@std@@P6AIPBEH0H@Z@std@@@std@@@std@@@std@@_N@1@$$QAV?$tuple@HHHW4arch_t@@@1@@Z ; std::map<std::tuple<int,int,int,enum arch_t>,unsigned int (__cdecl*)(unsigned char const *,int,unsigned char const *,int),std::less<std::tuple<int,int,int,enum arch_t> >,std::allocator<std::pair<std::tuple<int,int,int,enum arch_t> const ,unsigned int (__cdecl*)(unsigned char const *,int,unsigned char const *,int)> > >::_Try_emplace<std::tuple<int,int,int,enum arch_t> >
; File c:\github\mvtools\sources\sadfunctions.cpp

; 174  :     func_sad[make_tuple(8 , 8 , 1, NO_SIMD)] = Sad_C<8 , 8,uint8_t>;

	mov	eax, DWORD PTR $T147[ebp]
; File c:\program files (x86)\microsoft visual studio 14.0\vc\include\map

; 244  : 		return (_Try_emplace(_STD move(_Keyval),

	lea	ecx, DWORD PTR _func_sad$[ebp]
	movaps	xmm0, XMMWORD PTR __xmm@00000008000000040000000100000000
; File c:\github\mvtools\sources\sadfunctions.cpp

; 174  :     func_sad[make_tuple(8 , 8 , 1, NO_SIMD)] = Sad_C<8 , 8,uint8_t>;

	mov	DWORD PTR [eax+32], OFFSET ??$Sad_C@$07$07E@@YAIPBEH0H@Z ; Sad_C<8,8,unsigned char>
; File c:\program files (x86)\microsoft visual studio 14.0\vc\include\map

; 244  : 		return (_Try_emplace(_STD move(_Keyval),

	lea	eax, DWORD PTR $T99[ebp]
	push	eax
	lea	eax, DWORD PTR $T146[ebp]
	push	eax
	movups	XMMWORD PTR $T99[ebp], xmm0
	call	??$_Try_emplace@V?$tuple@HHHW4arch_t@@@std@@$$V@?$map@V?$tuple@HHHW4arch_t@@@std@@P6AIPBEH0H@ZU?$less@V?$tuple@HHHW4arch_t@@@std@@@2@V?$allocator@U?$pair@$$CBV?$tuple@HHHW4arch_t@@@std@@P6AIPBEH0H@Z@std@@@2@@std@@QAE?AU?$pair@V?$_Tree_iterator@V?$_Tree_val@U?$_Tree_simple_types@U?$pair@$$CBV?$tuple@HHHW4arch_t@@@std@@P6AIPBEH0H@Z@std@@@std@@@std@@@std@@_N@1@$$QAV?$tuple@HHHW4arch_t@@@1@@Z ; std::map<std::tuple<int,int,int,enum arch_t>,unsigned int (__cdecl*)(unsigned char const *,int,unsigned char const *,int),std::less<std::tuple<int,int,int,enum arch_t> >,std::allocator<std::pair<std::tuple<int,int,int,enum arch_t> const ,unsigned int (__cdecl*)(unsigned char const *,int,unsigned char const *,int)> > >::_Try_emplace<std::tuple<int,int,int,enum arch_t> >
; File c:\github\mvtools\sources\sadfunctions.cpp

; 175  :     func_sad[make_tuple(8 , 4 , 1, NO_SIMD)] = Sad_C<8 , 4,uint8_t>;

	mov	eax, DWORD PTR $T146[ebp]
; File c:\program files (x86)\microsoft visual studio 14.0\vc\include\map

; 244  : 		return (_Try_emplace(_STD move(_Keyval),

	lea	ecx, DWORD PTR _func_sad$[ebp]
	movaps	xmm0, XMMWORD PTR __xmm@00000008000000020000000100000000
; File c:\github\mvtools\sources\sadfunctions.cpp

; 175  :     func_sad[make_tuple(8 , 4 , 1, NO_SIMD)] = Sad_C<8 , 4,uint8_t>;

	mov	DWORD PTR [eax+32], OFFSET ??$Sad_C@$07$03E@@YAIPBEH0H@Z ; Sad_C<8,4,unsigned char>
; File c:\program files (x86)\microsoft visual studio 14.0\vc\include\map

; 244  : 		return (_Try_emplace(_STD move(_Keyval),

	lea	eax, DWORD PTR $T98[ebp]
	push	eax
	lea	eax, DWORD PTR $T145[ebp]
	push	eax
	movups	XMMWORD PTR $T98[ebp], xmm0
	call	??$_Try_emplace@V?$tuple@HHHW4arch_t@@@std@@$$V@?$map@V?$tuple@HHHW4arch_t@@@std@@P6AIPBEH0H@ZU?$less@V?$tuple@HHHW4arch_t@@@std@@@2@V?$allocator@U?$pair@$$CBV?$tuple@HHHW4arch_t@@@std@@P6AIPBEH0H@Z@std@@@2@@std@@QAE?AU?$pair@V?$_Tree_iterator@V?$_Tree_val@U?$_Tree_simple_types@U?$pair@$$CBV?$tuple@HHHW4arch_t@@@std@@P6AIPBEH0H@Z@std@@@std@@@std@@@std@@_N@1@$$QAV?$tuple@HHHW4arch_t@@@1@@Z ; std::map<std::tuple<int,int,int,enum arch_t>,unsigned int (__cdecl*)(unsigned char const *,int,unsigned char const *,int),std::less<std::tuple<int,int,int,enum arch_t> >,std::allocator<std::pair<std::tuple<int,int,int,enum arch_t> const ,unsigned int (__cdecl*)(unsigned char const *,int,unsigned char const *,int)> > >::_Try_emplace<std::tuple<int,int,int,enum arch_t> >
; File c:\github\mvtools\sources\sadfunctions.cpp

; 176  :     func_sad[make_tuple(8 , 2 , 1, NO_SIMD)] = Sad_C<8 , 2,uint8_t>;

	mov	eax, DWORD PTR $T145[ebp]
; File c:\program files (x86)\microsoft visual studio 14.0\vc\include\map

; 244  : 		return (_Try_emplace(_STD move(_Keyval),

	lea	ecx, DWORD PTR _func_sad$[ebp]
	movaps	xmm0, XMMWORD PTR __xmm@00000008000000010000000100000000
; File c:\github\mvtools\sources\sadfunctions.cpp

; 176  :     func_sad[make_tuple(8 , 2 , 1, NO_SIMD)] = Sad_C<8 , 2,uint8_t>;

	mov	DWORD PTR [eax+32], OFFSET ??$Sad_C@$07$01E@@YAIPBEH0H@Z ; Sad_C<8,2,unsigned char>
; File c:\program files (x86)\microsoft visual studio 14.0\vc\include\map

; 244  : 		return (_Try_emplace(_STD move(_Keyval),

	lea	eax, DWORD PTR $T97[ebp]
	push	eax
	lea	eax, DWORD PTR $T144[ebp]
	push	eax
	movups	XMMWORD PTR $T97[ebp], xmm0
	call	??$_Try_emplace@V?$tuple@HHHW4arch_t@@@std@@$$V@?$map@V?$tuple@HHHW4arch_t@@@std@@P6AIPBEH0H@ZU?$less@V?$tuple@HHHW4arch_t@@@std@@@2@V?$allocator@U?$pair@$$CBV?$tuple@HHHW4arch_t@@@std@@P6AIPBEH0H@Z@std@@@2@@std@@QAE?AU?$pair@V?$_Tree_iterator@V?$_Tree_val@U?$_Tree_simple_types@U?$pair@$$CBV?$tuple@HHHW4arch_t@@@std@@P6AIPBEH0H@Z@std@@@std@@@std@@@std@@_N@1@$$QAV?$tuple@HHHW4arch_t@@@1@@Z ; std::map<std::tuple<int,int,int,enum arch_t>,unsigned int (__cdecl*)(unsigned char const *,int,unsigned char const *,int),std::less<std::tuple<int,int,int,enum arch_t> >,std::allocator<std::pair<std::tuple<int,int,int,enum arch_t> const ,unsigned int (__cdecl*)(unsigned char const *,int,unsigned char const *,int)> > >::_Try_emplace<std::tuple<int,int,int,enum arch_t> >
; File c:\github\mvtools\sources\sadfunctions.cpp

; 177  :     func_sad[make_tuple(8 , 1 , 1, NO_SIMD)] = Sad_C<8 , 1,uint8_t>;

	mov	eax, DWORD PTR $T144[ebp]
; File c:\program files (x86)\microsoft visual studio 14.0\vc\include\map

; 244  : 		return (_Try_emplace(_STD move(_Keyval),

	lea	ecx, DWORD PTR _func_sad$[ebp]
	movaps	xmm0, XMMWORD PTR __xmm@00000004000000080000000100000000
; File c:\github\mvtools\sources\sadfunctions.cpp

; 177  :     func_sad[make_tuple(8 , 1 , 1, NO_SIMD)] = Sad_C<8 , 1,uint8_t>;

	mov	DWORD PTR [eax+32], OFFSET ??$Sad_C@$07$00E@@YAIPBEH0H@Z ; Sad_C<8,1,unsigned char>
; File c:\program files (x86)\microsoft visual studio 14.0\vc\include\map

; 244  : 		return (_Try_emplace(_STD move(_Keyval),

	lea	eax, DWORD PTR $T96[ebp]
	push	eax
	lea	eax, DWORD PTR $T143[ebp]
	push	eax
	movups	XMMWORD PTR $T96[ebp], xmm0
	call	??$_Try_emplace@V?$tuple@HHHW4arch_t@@@std@@$$V@?$map@V?$tuple@HHHW4arch_t@@@std@@P6AIPBEH0H@ZU?$less@V?$tuple@HHHW4arch_t@@@std@@@2@V?$allocator@U?$pair@$$CBV?$tuple@HHHW4arch_t@@@std@@P6AIPBEH0H@Z@std@@@2@@std@@QAE?AU?$pair@V?$_Tree_iterator@V?$_Tree_val@U?$_Tree_simple_types@U?$pair@$$CBV?$tuple@HHHW4arch_t@@@std@@P6AIPBEH0H@Z@std@@@std@@@std@@@std@@_N@1@$$QAV?$tuple@HHHW4arch_t@@@1@@Z ; std::map<std::tuple<int,int,int,enum arch_t>,unsigned int (__cdecl*)(unsigned char const *,int,unsigned char const *,int),std::less<std::tuple<int,int,int,enum arch_t> >,std::allocator<std::pair<std::tuple<int,int,int,enum arch_t> const ,unsigned int (__cdecl*)(unsigned char const *,int,unsigned char const *,int)> > >::_Try_emplace<std::tuple<int,int,int,enum arch_t> >
; File c:\github\mvtools\sources\sadfunctions.cpp

; 178  :     func_sad[make_tuple(4 , 8 , 1, NO_SIMD)] = Sad_C<4 , 8,uint8_t>;

	mov	eax, DWORD PTR $T143[ebp]
	movaps	xmm0, XMMWORD PTR __xmm@00000004000000040000000100000000
; File c:\program files (x86)\microsoft visual studio 14.0\vc\include\map

; 244  : 		return (_Try_emplace(_STD move(_Keyval),

	lea	ecx, DWORD PTR _func_sad$[ebp]
; File c:\github\mvtools\sources\sadfunctions.cpp

; 178  :     func_sad[make_tuple(4 , 8 , 1, NO_SIMD)] = Sad_C<4 , 8,uint8_t>;

	mov	DWORD PTR [eax+32], OFFSET ??$Sad_C@$03$07E@@YAIPBEH0H@Z ; Sad_C<4,8,unsigned char>
; File c:\program files (x86)\microsoft visual studio 14.0\vc\include\map

; 244  : 		return (_Try_emplace(_STD move(_Keyval),

	lea	eax, DWORD PTR $T95[ebp]
	push	eax
	lea	eax, DWORD PTR $T142[ebp]
	push	eax
	movups	XMMWORD PTR $T95[ebp], xmm0
	call	??$_Try_emplace@V?$tuple@HHHW4arch_t@@@std@@$$V@?$map@V?$tuple@HHHW4arch_t@@@std@@P6AIPBEH0H@ZU?$less@V?$tuple@HHHW4arch_t@@@std@@@2@V?$allocator@U?$pair@$$CBV?$tuple@HHHW4arch_t@@@std@@P6AIPBEH0H@Z@std@@@2@@std@@QAE?AU?$pair@V?$_Tree_iterator@V?$_Tree_val@U?$_Tree_simple_types@U?$pair@$$CBV?$tuple@HHHW4arch_t@@@std@@P6AIPBEH0H@Z@std@@@std@@@std@@@std@@_N@1@$$QAV?$tuple@HHHW4arch_t@@@1@@Z ; std::map<std::tuple<int,int,int,enum arch_t>,unsigned int (__cdecl*)(unsigned char const *,int,unsigned char const *,int),std::less<std::tuple<int,int,int,enum arch_t> >,std::allocator<std::pair<std::tuple<int,int,int,enum arch_t> const ,unsigned int (__cdecl*)(unsigned char const *,int,unsigned char const *,int)> > >::_Try_emplace<std::tuple<int,int,int,enum arch_t> >
; File c:\github\mvtools\sources\sadfunctions.cpp

; 179  :     func_sad[make_tuple(4 , 4 , 1, NO_SIMD)] = Sad_C<4 , 4,uint8_t>;

	mov	eax, DWORD PTR $T142[ebp]
; File c:\program files (x86)\microsoft visual studio 14.0\vc\include\map

; 244  : 		return (_Try_emplace(_STD move(_Keyval),

	lea	ecx, DWORD PTR _func_sad$[ebp]
	movaps	xmm0, XMMWORD PTR __xmm@00000004000000020000000100000000
; File c:\github\mvtools\sources\sadfunctions.cpp

; 179  :     func_sad[make_tuple(4 , 4 , 1, NO_SIMD)] = Sad_C<4 , 4,uint8_t>;

	mov	DWORD PTR [eax+32], OFFSET ??$Sad_C@$03$03E@@YAIPBEH0H@Z ; Sad_C<4,4,unsigned char>
; File c:\program files (x86)\microsoft visual studio 14.0\vc\include\map

; 244  : 		return (_Try_emplace(_STD move(_Keyval),

	lea	eax, DWORD PTR $T94[ebp]
	push	eax
	lea	eax, DWORD PTR $T141[ebp]
	push	eax
	movups	XMMWORD PTR $T94[ebp], xmm0
	call	??$_Try_emplace@V?$tuple@HHHW4arch_t@@@std@@$$V@?$map@V?$tuple@HHHW4arch_t@@@std@@P6AIPBEH0H@ZU?$less@V?$tuple@HHHW4arch_t@@@std@@@2@V?$allocator@U?$pair@$$CBV?$tuple@HHHW4arch_t@@@std@@P6AIPBEH0H@Z@std@@@2@@std@@QAE?AU?$pair@V?$_Tree_iterator@V?$_Tree_val@U?$_Tree_simple_types@U?$pair@$$CBV?$tuple@HHHW4arch_t@@@std@@P6AIPBEH0H@Z@std@@@std@@@std@@@std@@_N@1@$$QAV?$tuple@HHHW4arch_t@@@1@@Z ; std::map<std::tuple<int,int,int,enum arch_t>,unsigned int (__cdecl*)(unsigned char const *,int,unsigned char const *,int),std::less<std::tuple<int,int,int,enum arch_t> >,std::allocator<std::pair<std::tuple<int,int,int,enum arch_t> const ,unsigned int (__cdecl*)(unsigned char const *,int,unsigned char const *,int)> > >::_Try_emplace<std::tuple<int,int,int,enum arch_t> >
; File c:\github\mvtools\sources\sadfunctions.cpp

; 180  :     func_sad[make_tuple(4 , 2 , 1, NO_SIMD)] = Sad_C<4 , 2,uint8_t>;

	mov	eax, DWORD PTR $T141[ebp]
; File c:\program files (x86)\microsoft visual studio 14.0\vc\include\map

; 244  : 		return (_Try_emplace(_STD move(_Keyval),

	lea	ecx, DWORD PTR _func_sad$[ebp]
	movaps	xmm0, XMMWORD PTR __xmm@00000004000000010000000100000000
; File c:\github\mvtools\sources\sadfunctions.cpp

; 180  :     func_sad[make_tuple(4 , 2 , 1, NO_SIMD)] = Sad_C<4 , 2,uint8_t>;

	mov	DWORD PTR [eax+32], OFFSET ??$Sad_C@$03$01E@@YAIPBEH0H@Z ; Sad_C<4,2,unsigned char>
; File c:\program files (x86)\microsoft visual studio 14.0\vc\include\map

; 244  : 		return (_Try_emplace(_STD move(_Keyval),

	lea	eax, DWORD PTR $T93[ebp]
	push	eax
	lea	eax, DWORD PTR $T140[ebp]
	push	eax
	movups	XMMWORD PTR $T93[ebp], xmm0
	call	??$_Try_emplace@V?$tuple@HHHW4arch_t@@@std@@$$V@?$map@V?$tuple@HHHW4arch_t@@@std@@P6AIPBEH0H@ZU?$less@V?$tuple@HHHW4arch_t@@@std@@@2@V?$allocator@U?$pair@$$CBV?$tuple@HHHW4arch_t@@@std@@P6AIPBEH0H@Z@std@@@2@@std@@QAE?AU?$pair@V?$_Tree_iterator@V?$_Tree_val@U?$_Tree_simple_types@U?$pair@$$CBV?$tuple@HHHW4arch_t@@@std@@P6AIPBEH0H@Z@std@@@std@@@std@@@std@@_N@1@$$QAV?$tuple@HHHW4arch_t@@@1@@Z ; std::map<std::tuple<int,int,int,enum arch_t>,unsigned int (__cdecl*)(unsigned char const *,int,unsigned char const *,int),std::less<std::tuple<int,int,int,enum arch_t> >,std::allocator<std::pair<std::tuple<int,int,int,enum arch_t> const ,unsigned int (__cdecl*)(unsigned char const *,int,unsigned char const *,int)> > >::_Try_emplace<std::tuple<int,int,int,enum arch_t> >
; File c:\github\mvtools\sources\sadfunctions.cpp

; 181  :     func_sad[make_tuple(4 , 1 , 1, NO_SIMD)] = Sad_C<4 , 1,uint8_t>;

	mov	eax, DWORD PTR $T140[ebp]
; File c:\program files (x86)\microsoft visual studio 14.0\vc\include\map

; 244  : 		return (_Try_emplace(_STD move(_Keyval),

	lea	ecx, DWORD PTR _func_sad$[ebp]
	movaps	xmm0, XMMWORD PTR __xmm@00000002000000040000000100000000
; File c:\github\mvtools\sources\sadfunctions.cpp

; 181  :     func_sad[make_tuple(4 , 1 , 1, NO_SIMD)] = Sad_C<4 , 1,uint8_t>;

	mov	DWORD PTR [eax+32], OFFSET ??$Sad_C@$03$00E@@YAIPBEH0H@Z ; Sad_C<4,1,unsigned char>
; File c:\program files (x86)\microsoft visual studio 14.0\vc\include\map

; 244  : 		return (_Try_emplace(_STD move(_Keyval),

	lea	eax, DWORD PTR $T92[ebp]
	push	eax
	lea	eax, DWORD PTR $T139[ebp]
	push	eax
	movups	XMMWORD PTR $T92[ebp], xmm0
	call	??$_Try_emplace@V?$tuple@HHHW4arch_t@@@std@@$$V@?$map@V?$tuple@HHHW4arch_t@@@std@@P6AIPBEH0H@ZU?$less@V?$tuple@HHHW4arch_t@@@std@@@2@V?$allocator@U?$pair@$$CBV?$tuple@HHHW4arch_t@@@std@@P6AIPBEH0H@Z@std@@@2@@std@@QAE?AU?$pair@V?$_Tree_iterator@V?$_Tree_val@U?$_Tree_simple_types@U?$pair@$$CBV?$tuple@HHHW4arch_t@@@std@@P6AIPBEH0H@Z@std@@@std@@@std@@@std@@_N@1@$$QAV?$tuple@HHHW4arch_t@@@1@@Z ; std::map<std::tuple<int,int,int,enum arch_t>,unsigned int (__cdecl*)(unsigned char const *,int,unsigned char const *,int),std::less<std::tuple<int,int,int,enum arch_t> >,std::allocator<std::pair<std::tuple<int,int,int,enum arch_t> const ,unsigned int (__cdecl*)(unsigned char const *,int,unsigned char const *,int)> > >::_Try_emplace<std::tuple<int,int,int,enum arch_t> >
; File c:\github\mvtools\sources\sadfunctions.cpp

; 182  :     func_sad[make_tuple(2 , 4 , 1, NO_SIMD)] = Sad_C<2 , 4,uint8_t>;

	mov	eax, DWORD PTR $T139[ebp]
; File c:\program files (x86)\microsoft visual studio 14.0\vc\include\map

; 244  : 		return (_Try_emplace(_STD move(_Keyval),

	lea	ecx, DWORD PTR _func_sad$[ebp]
	movaps	xmm0, XMMWORD PTR __xmm@00000002000000020000000100000000
; File c:\github\mvtools\sources\sadfunctions.cpp

; 182  :     func_sad[make_tuple(2 , 4 , 1, NO_SIMD)] = Sad_C<2 , 4,uint8_t>;

	mov	DWORD PTR [eax+32], OFFSET ??$Sad_C@$01$03E@@YAIPBEH0H@Z ; Sad_C<2,4,unsigned char>
; File c:\program files (x86)\microsoft visual studio 14.0\vc\include\map

; 244  : 		return (_Try_emplace(_STD move(_Keyval),

	lea	eax, DWORD PTR $T91[ebp]
	push	eax
	lea	eax, DWORD PTR $T138[ebp]
	push	eax
	movups	XMMWORD PTR $T91[ebp], xmm0
	call	??$_Try_emplace@V?$tuple@HHHW4arch_t@@@std@@$$V@?$map@V?$tuple@HHHW4arch_t@@@std@@P6AIPBEH0H@ZU?$less@V?$tuple@HHHW4arch_t@@@std@@@2@V?$allocator@U?$pair@$$CBV?$tuple@HHHW4arch_t@@@std@@P6AIPBEH0H@Z@std@@@2@@std@@QAE?AU?$pair@V?$_Tree_iterator@V?$_Tree_val@U?$_Tree_simple_types@U?$pair@$$CBV?$tuple@HHHW4arch_t@@@std@@P6AIPBEH0H@Z@std@@@std@@@std@@@std@@_N@1@$$QAV?$tuple@HHHW4arch_t@@@1@@Z ; std::map<std::tuple<int,int,int,enum arch_t>,unsigned int (__cdecl*)(unsigned char const *,int,unsigned char const *,int),std::less<std::tuple<int,int,int,enum arch_t> >,std::allocator<std::pair<std::tuple<int,int,int,enum arch_t> const ,unsigned int (__cdecl*)(unsigned char const *,int,unsigned char const *,int)> > >::_Try_emplace<std::tuple<int,int,int,enum arch_t> >
; File c:\github\mvtools\sources\sadfunctions.cpp

; 183  :     func_sad[make_tuple(2 , 2 , 1, NO_SIMD)] = Sad_C<2 , 2,uint8_t>;

	mov	eax, DWORD PTR $T138[ebp]
; File c:\program files (x86)\microsoft visual studio 14.0\vc\include\map

; 244  : 		return (_Try_emplace(_STD move(_Keyval),

	lea	ecx, DWORD PTR _func_sad$[ebp]
	movaps	xmm0, XMMWORD PTR __xmm@00000002000000010000000100000000
; File c:\github\mvtools\sources\sadfunctions.cpp

; 183  :     func_sad[make_tuple(2 , 2 , 1, NO_SIMD)] = Sad_C<2 , 2,uint8_t>;

	mov	DWORD PTR [eax+32], OFFSET ??$Sad_C@$01$01E@@YAIPBEH0H@Z ; Sad_C<2,2,unsigned char>
; File c:\program files (x86)\microsoft visual studio 14.0\vc\include\map

; 244  : 		return (_Try_emplace(_STD move(_Keyval),

	lea	eax, DWORD PTR $T90[ebp]
	push	eax
	lea	eax, DWORD PTR $T137[ebp]
	push	eax
	movups	XMMWORD PTR $T90[ebp], xmm0
	call	??$_Try_emplace@V?$tuple@HHHW4arch_t@@@std@@$$V@?$map@V?$tuple@HHHW4arch_t@@@std@@P6AIPBEH0H@ZU?$less@V?$tuple@HHHW4arch_t@@@std@@@2@V?$allocator@U?$pair@$$CBV?$tuple@HHHW4arch_t@@@std@@P6AIPBEH0H@Z@std@@@2@@std@@QAE?AU?$pair@V?$_Tree_iterator@V?$_Tree_val@U?$_Tree_simple_types@U?$pair@$$CBV?$tuple@HHHW4arch_t@@@std@@P6AIPBEH0H@Z@std@@@std@@@std@@@std@@_N@1@$$QAV?$tuple@HHHW4arch_t@@@1@@Z ; std::map<std::tuple<int,int,int,enum arch_t>,unsigned int (__cdecl*)(unsigned char const *,int,unsigned char const *,int),std::less<std::tuple<int,int,int,enum arch_t> >,std::allocator<std::pair<std::tuple<int,int,int,enum arch_t> const ,unsigned int (__cdecl*)(unsigned char const *,int,unsigned char const *,int)> > >::_Try_emplace<std::tuple<int,int,int,enum arch_t> >
; File c:\github\mvtools\sources\sadfunctions.cpp

; 184  :     func_sad[make_tuple(2 , 1 , 1, NO_SIMD)] = Sad_C<2 , 1,uint8_t>;

	mov	eax, DWORD PTR $T137[ebp]
; File c:\program files (x86)\microsoft visual studio 14.0\vc\include\map

; 244  : 		return (_Try_emplace(_STD move(_Keyval),

	lea	ecx, DWORD PTR _func_sad$[ebp]
	movaps	xmm0, XMMWORD PTR __xmm@00000020000000200000000200000000
; File c:\github\mvtools\sources\sadfunctions.cpp

; 184  :     func_sad[make_tuple(2 , 1 , 1, NO_SIMD)] = Sad_C<2 , 1,uint8_t>;

	mov	DWORD PTR [eax+32], OFFSET ??$Sad_C@$01$00E@@YAIPBEH0H@Z ; Sad_C<2,1,unsigned char>
; File c:\program files (x86)\microsoft visual studio 14.0\vc\include\map

; 244  : 		return (_Try_emplace(_STD move(_Keyval),

	lea	eax, DWORD PTR $T89[ebp]
	push	eax
	lea	eax, DWORD PTR $T136[ebp]
	push	eax
	movups	XMMWORD PTR $T89[ebp], xmm0
	call	??$_Try_emplace@V?$tuple@HHHW4arch_t@@@std@@$$V@?$map@V?$tuple@HHHW4arch_t@@@std@@P6AIPBEH0H@ZU?$less@V?$tuple@HHHW4arch_t@@@std@@@2@V?$allocator@U?$pair@$$CBV?$tuple@HHHW4arch_t@@@std@@P6AIPBEH0H@Z@std@@@2@@std@@QAE?AU?$pair@V?$_Tree_iterator@V?$_Tree_val@U?$_Tree_simple_types@U?$pair@$$CBV?$tuple@HHHW4arch_t@@@std@@P6AIPBEH0H@Z@std@@@std@@@std@@@std@@_N@1@$$QAV?$tuple@HHHW4arch_t@@@1@@Z ; std::map<std::tuple<int,int,int,enum arch_t>,unsigned int (__cdecl*)(unsigned char const *,int,unsigned char const *,int),std::less<std::tuple<int,int,int,enum arch_t> >,std::allocator<std::pair<std::tuple<int,int,int,enum arch_t> const ,unsigned int (__cdecl*)(unsigned char const *,int,unsigned char const *,int)> > >::_Try_emplace<std::tuple<int,int,int,enum arch_t> >
; File c:\github\mvtools\sources\sadfunctions.cpp

; 186  :     func_sad[make_tuple(32, 32, 2, NO_SIMD)] = Sad_C<32, 32,uint16_t>;

	mov	eax, DWORD PTR $T136[ebp]
; File c:\program files (x86)\microsoft visual studio 14.0\vc\include\map

; 244  : 		return (_Try_emplace(_STD move(_Keyval),

	lea	ecx, DWORD PTR _func_sad$[ebp]
	movaps	xmm0, XMMWORD PTR __xmm@00000020000000100000000200000000
; File c:\github\mvtools\sources\sadfunctions.cpp

; 186  :     func_sad[make_tuple(32, 32, 2, NO_SIMD)] = Sad_C<32, 32,uint16_t>;

	mov	DWORD PTR [eax+32], OFFSET ??$Sad_C@$0CA@$0CA@G@@YAIPBEH0H@Z ; Sad_C<32,32,unsigned short>
; File c:\program files (x86)\microsoft visual studio 14.0\vc\include\map

; 244  : 		return (_Try_emplace(_STD move(_Keyval),

	lea	eax, DWORD PTR $T88[ebp]
	push	eax
	lea	eax, DWORD PTR $T135[ebp]
	push	eax
	movups	XMMWORD PTR $T88[ebp], xmm0
	call	??$_Try_emplace@V?$tuple@HHHW4arch_t@@@std@@$$V@?$map@V?$tuple@HHHW4arch_t@@@std@@P6AIPBEH0H@ZU?$less@V?$tuple@HHHW4arch_t@@@std@@@2@V?$allocator@U?$pair@$$CBV?$tuple@HHHW4arch_t@@@std@@P6AIPBEH0H@Z@std@@@2@@std@@QAE?AU?$pair@V?$_Tree_iterator@V?$_Tree_val@U?$_Tree_simple_types@U?$pair@$$CBV?$tuple@HHHW4arch_t@@@std@@P6AIPBEH0H@Z@std@@@std@@@std@@@std@@_N@1@$$QAV?$tuple@HHHW4arch_t@@@1@@Z ; std::map<std::tuple<int,int,int,enum arch_t>,unsigned int (__cdecl*)(unsigned char const *,int,unsigned char const *,int),std::less<std::tuple<int,int,int,enum arch_t> >,std::allocator<std::pair<std::tuple<int,int,int,enum arch_t> const ,unsigned int (__cdecl*)(unsigned char const *,int,unsigned char const *,int)> > >::_Try_emplace<std::tuple<int,int,int,enum arch_t> >
; File c:\github\mvtools\sources\sadfunctions.cpp

; 187  :     func_sad[make_tuple(32, 16, 2, NO_SIMD)] = Sad_C<32, 16,uint16_t>;

	mov	eax, DWORD PTR $T135[ebp]
	mov	DWORD PTR [eax+32], OFFSET ??$Sad_C@$0CA@$0BA@G@@YAIPBEH0H@Z ; Sad_C<32,16,unsigned short>
	movaps	xmm0, XMMWORD PTR __xmm@00000020000000080000000200000000
; File c:\program files (x86)\microsoft visual studio 14.0\vc\include\map

; 244  : 		return (_Try_emplace(_STD move(_Keyval),

	lea	eax, DWORD PTR $T87[ebp]
	push	eax
	lea	eax, DWORD PTR $T134[ebp]
	push	eax
	lea	ecx, DWORD PTR _func_sad$[ebp]
	movups	XMMWORD PTR $T87[ebp], xmm0
	call	??$_Try_emplace@V?$tuple@HHHW4arch_t@@@std@@$$V@?$map@V?$tuple@HHHW4arch_t@@@std@@P6AIPBEH0H@ZU?$less@V?$tuple@HHHW4arch_t@@@std@@@2@V?$allocator@U?$pair@$$CBV?$tuple@HHHW4arch_t@@@std@@P6AIPBEH0H@Z@std@@@2@@std@@QAE?AU?$pair@V?$_Tree_iterator@V?$_Tree_val@U?$_Tree_simple_types@U?$pair@$$CBV?$tuple@HHHW4arch_t@@@std@@P6AIPBEH0H@Z@std@@@std@@@std@@@std@@_N@1@$$QAV?$tuple@HHHW4arch_t@@@1@@Z ; std::map<std::tuple<int,int,int,enum arch_t>,unsigned int (__cdecl*)(unsigned char const *,int,unsigned char const *,int),std::less<std::tuple<int,int,int,enum arch_t> >,std::allocator<std::pair<std::tuple<int,int,int,enum arch_t> const ,unsigned int (__cdecl*)(unsigned char const *,int,unsigned char const *,int)> > >::_Try_emplace<std::tuple<int,int,int,enum arch_t> >
; File c:\github\mvtools\sources\sadfunctions.cpp

; 188  :     func_sad[make_tuple(32, 8 , 2, NO_SIMD)] = Sad_C<32, 8,uint16_t>;

	mov	eax, DWORD PTR $T134[ebp]
; File c:\program files (x86)\microsoft visual studio 14.0\vc\include\map

; 244  : 		return (_Try_emplace(_STD move(_Keyval),

	lea	ecx, DWORD PTR _func_sad$[ebp]
	movaps	xmm0, XMMWORD PTR __xmm@00000010000000200000000200000000
; File c:\github\mvtools\sources\sadfunctions.cpp

; 188  :     func_sad[make_tuple(32, 8 , 2, NO_SIMD)] = Sad_C<32, 8,uint16_t>;

	mov	DWORD PTR [eax+32], OFFSET ??$Sad_C@$0CA@$07G@@YAIPBEH0H@Z ; Sad_C<32,8,unsigned short>
; File c:\program files (x86)\microsoft visual studio 14.0\vc\include\map

; 244  : 		return (_Try_emplace(_STD move(_Keyval),

	lea	eax, DWORD PTR $T86[ebp]
	push	eax
	lea	eax, DWORD PTR $T133[ebp]
	push	eax
	movups	XMMWORD PTR $T86[ebp], xmm0
	call	??$_Try_emplace@V?$tuple@HHHW4arch_t@@@std@@$$V@?$map@V?$tuple@HHHW4arch_t@@@std@@P6AIPBEH0H@ZU?$less@V?$tuple@HHHW4arch_t@@@std@@@2@V?$allocator@U?$pair@$$CBV?$tuple@HHHW4arch_t@@@std@@P6AIPBEH0H@Z@std@@@2@@std@@QAE?AU?$pair@V?$_Tree_iterator@V?$_Tree_val@U?$_Tree_simple_types@U?$pair@$$CBV?$tuple@HHHW4arch_t@@@std@@P6AIPBEH0H@Z@std@@@std@@@std@@@std@@_N@1@$$QAV?$tuple@HHHW4arch_t@@@1@@Z ; std::map<std::tuple<int,int,int,enum arch_t>,unsigned int (__cdecl*)(unsigned char const *,int,unsigned char const *,int),std::less<std::tuple<int,int,int,enum arch_t> >,std::allocator<std::pair<std::tuple<int,int,int,enum arch_t> const ,unsigned int (__cdecl*)(unsigned char const *,int,unsigned char const *,int)> > >::_Try_emplace<std::tuple<int,int,int,enum arch_t> >
; File c:\github\mvtools\sources\sadfunctions.cpp

; 189  :     func_sad[make_tuple(16, 32, 2, NO_SIMD)] = Sad_C<16, 32,uint16_t>;

	mov	eax, DWORD PTR $T133[ebp]
; File c:\program files (x86)\microsoft visual studio 14.0\vc\include\map

; 244  : 		return (_Try_emplace(_STD move(_Keyval),

	lea	ecx, DWORD PTR _func_sad$[ebp]
	movaps	xmm0, XMMWORD PTR __xmm@00000010000000100000000200000000
; File c:\github\mvtools\sources\sadfunctions.cpp

; 189  :     func_sad[make_tuple(16, 32, 2, NO_SIMD)] = Sad_C<16, 32,uint16_t>;

	mov	DWORD PTR [eax+32], OFFSET ??$Sad_C@$0BA@$0CA@G@@YAIPBEH0H@Z ; Sad_C<16,32,unsigned short>
; File c:\program files (x86)\microsoft visual studio 14.0\vc\include\map

; 244  : 		return (_Try_emplace(_STD move(_Keyval),

	lea	eax, DWORD PTR $T85[ebp]
	push	eax
	lea	eax, DWORD PTR $T132[ebp]
	push	eax
	movups	XMMWORD PTR $T85[ebp], xmm0
	call	??$_Try_emplace@V?$tuple@HHHW4arch_t@@@std@@$$V@?$map@V?$tuple@HHHW4arch_t@@@std@@P6AIPBEH0H@ZU?$less@V?$tuple@HHHW4arch_t@@@std@@@2@V?$allocator@U?$pair@$$CBV?$tuple@HHHW4arch_t@@@std@@P6AIPBEH0H@Z@std@@@2@@std@@QAE?AU?$pair@V?$_Tree_iterator@V?$_Tree_val@U?$_Tree_simple_types@U?$pair@$$CBV?$tuple@HHHW4arch_t@@@std@@P6AIPBEH0H@Z@std@@@std@@@std@@@std@@_N@1@$$QAV?$tuple@HHHW4arch_t@@@1@@Z ; std::map<std::tuple<int,int,int,enum arch_t>,unsigned int (__cdecl*)(unsigned char const *,int,unsigned char const *,int),std::less<std::tuple<int,int,int,enum arch_t> >,std::allocator<std::pair<std::tuple<int,int,int,enum arch_t> const ,unsigned int (__cdecl*)(unsigned char const *,int,unsigned char const *,int)> > >::_Try_emplace<std::tuple<int,int,int,enum arch_t> >
; File c:\github\mvtools\sources\sadfunctions.cpp

; 190  :     func_sad[make_tuple(16, 16, 2, NO_SIMD)] = Sad_C<16, 16,uint16_t>;

	mov	eax, DWORD PTR $T132[ebp]
; File c:\program files (x86)\microsoft visual studio 14.0\vc\include\map

; 244  : 		return (_Try_emplace(_STD move(_Keyval),

	lea	ecx, DWORD PTR _func_sad$[ebp]
	movaps	xmm0, XMMWORD PTR __xmm@00000010000000080000000200000000
; File c:\github\mvtools\sources\sadfunctions.cpp

; 190  :     func_sad[make_tuple(16, 16, 2, NO_SIMD)] = Sad_C<16, 16,uint16_t>;

	mov	DWORD PTR [eax+32], OFFSET ??$Sad_C@$0BA@$0BA@G@@YAIPBEH0H@Z ; Sad_C<16,16,unsigned short>
; File c:\program files (x86)\microsoft visual studio 14.0\vc\include\map

; 244  : 		return (_Try_emplace(_STD move(_Keyval),

	lea	eax, DWORD PTR $T84[ebp]
	push	eax
	lea	eax, DWORD PTR $T131[ebp]
	push	eax
	movups	XMMWORD PTR $T84[ebp], xmm0
	call	??$_Try_emplace@V?$tuple@HHHW4arch_t@@@std@@$$V@?$map@V?$tuple@HHHW4arch_t@@@std@@P6AIPBEH0H@ZU?$less@V?$tuple@HHHW4arch_t@@@std@@@2@V?$allocator@U?$pair@$$CBV?$tuple@HHHW4arch_t@@@std@@P6AIPBEH0H@Z@std@@@2@@std@@QAE?AU?$pair@V?$_Tree_iterator@V?$_Tree_val@U?$_Tree_simple_types@U?$pair@$$CBV?$tuple@HHHW4arch_t@@@std@@P6AIPBEH0H@Z@std@@@std@@@std@@@std@@_N@1@$$QAV?$tuple@HHHW4arch_t@@@1@@Z ; std::map<std::tuple<int,int,int,enum arch_t>,unsigned int (__cdecl*)(unsigned char const *,int,unsigned char const *,int),std::less<std::tuple<int,int,int,enum arch_t> >,std::allocator<std::pair<std::tuple<int,int,int,enum arch_t> const ,unsigned int (__cdecl*)(unsigned char const *,int,unsigned char const *,int)> > >::_Try_emplace<std::tuple<int,int,int,enum arch_t> >
; File c:\github\mvtools\sources\sadfunctions.cpp

; 191  :     func_sad[make_tuple(16, 8 , 2, NO_SIMD)] = Sad_C<16, 8,uint16_t>;

	mov	eax, DWORD PTR $T131[ebp]
; File c:\program files (x86)\microsoft visual studio 14.0\vc\include\map

; 244  : 		return (_Try_emplace(_STD move(_Keyval),

	lea	ecx, DWORD PTR _func_sad$[ebp]
	movaps	xmm0, XMMWORD PTR __xmm@00000010000000040000000200000000
; File c:\github\mvtools\sources\sadfunctions.cpp

; 191  :     func_sad[make_tuple(16, 8 , 2, NO_SIMD)] = Sad_C<16, 8,uint16_t>;

	mov	DWORD PTR [eax+32], OFFSET ??$Sad_C@$0BA@$07G@@YAIPBEH0H@Z ; Sad_C<16,8,unsigned short>
; File c:\program files (x86)\microsoft visual studio 14.0\vc\include\map

; 244  : 		return (_Try_emplace(_STD move(_Keyval),

	lea	eax, DWORD PTR $T83[ebp]
	push	eax
	lea	eax, DWORD PTR $T130[ebp]
	push	eax
	movups	XMMWORD PTR $T83[ebp], xmm0
	call	??$_Try_emplace@V?$tuple@HHHW4arch_t@@@std@@$$V@?$map@V?$tuple@HHHW4arch_t@@@std@@P6AIPBEH0H@ZU?$less@V?$tuple@HHHW4arch_t@@@std@@@2@V?$allocator@U?$pair@$$CBV?$tuple@HHHW4arch_t@@@std@@P6AIPBEH0H@Z@std@@@2@@std@@QAE?AU?$pair@V?$_Tree_iterator@V?$_Tree_val@U?$_Tree_simple_types@U?$pair@$$CBV?$tuple@HHHW4arch_t@@@std@@P6AIPBEH0H@Z@std@@@std@@@std@@@std@@_N@1@$$QAV?$tuple@HHHW4arch_t@@@1@@Z ; std::map<std::tuple<int,int,int,enum arch_t>,unsigned int (__cdecl*)(unsigned char const *,int,unsigned char const *,int),std::less<std::tuple<int,int,int,enum arch_t> >,std::allocator<std::pair<std::tuple<int,int,int,enum arch_t> const ,unsigned int (__cdecl*)(unsigned char const *,int,unsigned char const *,int)> > >::_Try_emplace<std::tuple<int,int,int,enum arch_t> >
; File c:\github\mvtools\sources\sadfunctions.cpp

; 192  :     func_sad[make_tuple(16, 4 , 2, NO_SIMD)] = Sad_C<16, 4,uint16_t>;

	mov	eax, DWORD PTR $T130[ebp]
; File c:\program files (x86)\microsoft visual studio 14.0\vc\include\map

; 244  : 		return (_Try_emplace(_STD move(_Keyval),

	lea	ecx, DWORD PTR _func_sad$[ebp]
	movaps	xmm0, XMMWORD PTR __xmm@00000010000000020000000200000000
; File c:\github\mvtools\sources\sadfunctions.cpp

; 192  :     func_sad[make_tuple(16, 4 , 2, NO_SIMD)] = Sad_C<16, 4,uint16_t>;

	mov	DWORD PTR [eax+32], OFFSET ??$Sad_C@$0BA@$03G@@YAIPBEH0H@Z ; Sad_C<16,4,unsigned short>
; File c:\program files (x86)\microsoft visual studio 14.0\vc\include\map

; 244  : 		return (_Try_emplace(_STD move(_Keyval),

	lea	eax, DWORD PTR $T82[ebp]
	push	eax
	lea	eax, DWORD PTR $T129[ebp]
	push	eax
	movups	XMMWORD PTR $T82[ebp], xmm0
	call	??$_Try_emplace@V?$tuple@HHHW4arch_t@@@std@@$$V@?$map@V?$tuple@HHHW4arch_t@@@std@@P6AIPBEH0H@ZU?$less@V?$tuple@HHHW4arch_t@@@std@@@2@V?$allocator@U?$pair@$$CBV?$tuple@HHHW4arch_t@@@std@@P6AIPBEH0H@Z@std@@@2@@std@@QAE?AU?$pair@V?$_Tree_iterator@V?$_Tree_val@U?$_Tree_simple_types@U?$pair@$$CBV?$tuple@HHHW4arch_t@@@std@@P6AIPBEH0H@Z@std@@@std@@@std@@@std@@_N@1@$$QAV?$tuple@HHHW4arch_t@@@1@@Z ; std::map<std::tuple<int,int,int,enum arch_t>,unsigned int (__cdecl*)(unsigned char const *,int,unsigned char const *,int),std::less<std::tuple<int,int,int,enum arch_t> >,std::allocator<std::pair<std::tuple<int,int,int,enum arch_t> const ,unsigned int (__cdecl*)(unsigned char const *,int,unsigned char const *,int)> > >::_Try_emplace<std::tuple<int,int,int,enum arch_t> >
; File c:\github\mvtools\sources\sadfunctions.cpp

; 193  :     func_sad[make_tuple(16, 2 , 2, NO_SIMD)] = Sad_C<16, 2,uint16_t>;

	mov	eax, DWORD PTR $T129[ebp]
; File c:\program files (x86)\microsoft visual studio 14.0\vc\include\map

; 244  : 		return (_Try_emplace(_STD move(_Keyval),

	lea	ecx, DWORD PTR _func_sad$[ebp]
	movaps	xmm0, XMMWORD PTR __xmm@00000010000000010000000200000000
; File c:\github\mvtools\sources\sadfunctions.cpp

; 193  :     func_sad[make_tuple(16, 2 , 2, NO_SIMD)] = Sad_C<16, 2,uint16_t>;

	mov	DWORD PTR [eax+32], OFFSET ??$Sad_C@$0BA@$01G@@YAIPBEH0H@Z ; Sad_C<16,2,unsigned short>
; File c:\program files (x86)\microsoft visual studio 14.0\vc\include\map

; 244  : 		return (_Try_emplace(_STD move(_Keyval),

	lea	eax, DWORD PTR $T81[ebp]
	push	eax
	lea	eax, DWORD PTR $T128[ebp]
	push	eax
	movups	XMMWORD PTR $T81[ebp], xmm0
	call	??$_Try_emplace@V?$tuple@HHHW4arch_t@@@std@@$$V@?$map@V?$tuple@HHHW4arch_t@@@std@@P6AIPBEH0H@ZU?$less@V?$tuple@HHHW4arch_t@@@std@@@2@V?$allocator@U?$pair@$$CBV?$tuple@HHHW4arch_t@@@std@@P6AIPBEH0H@Z@std@@@2@@std@@QAE?AU?$pair@V?$_Tree_iterator@V?$_Tree_val@U?$_Tree_simple_types@U?$pair@$$CBV?$tuple@HHHW4arch_t@@@std@@P6AIPBEH0H@Z@std@@@std@@@std@@@std@@_N@1@$$QAV?$tuple@HHHW4arch_t@@@1@@Z ; std::map<std::tuple<int,int,int,enum arch_t>,unsigned int (__cdecl*)(unsigned char const *,int,unsigned char const *,int),std::less<std::tuple<int,int,int,enum arch_t> >,std::allocator<std::pair<std::tuple<int,int,int,enum arch_t> const ,unsigned int (__cdecl*)(unsigned char const *,int,unsigned char const *,int)> > >::_Try_emplace<std::tuple<int,int,int,enum arch_t> >
; File c:\github\mvtools\sources\sadfunctions.cpp

; 194  :     func_sad[make_tuple(16, 1 , 2, NO_SIMD)] = Sad_C<16, 1,uint16_t>;

	mov	eax, DWORD PTR $T128[ebp]
; File c:\program files (x86)\microsoft visual studio 14.0\vc\include\map

; 244  : 		return (_Try_emplace(_STD move(_Keyval),

	lea	ecx, DWORD PTR _func_sad$[ebp]
	movaps	xmm0, XMMWORD PTR __xmm@00000008000000100000000200000000
; File c:\github\mvtools\sources\sadfunctions.cpp

; 194  :     func_sad[make_tuple(16, 1 , 2, NO_SIMD)] = Sad_C<16, 1,uint16_t>;

	mov	DWORD PTR [eax+32], OFFSET ??$Sad_C@$0BA@$00G@@YAIPBEH0H@Z ; Sad_C<16,1,unsigned short>
; File c:\program files (x86)\microsoft visual studio 14.0\vc\include\map

; 244  : 		return (_Try_emplace(_STD move(_Keyval),

	lea	eax, DWORD PTR $T80[ebp]
	push	eax
	lea	eax, DWORD PTR $T127[ebp]
	push	eax
	movups	XMMWORD PTR $T80[ebp], xmm0
	call	??$_Try_emplace@V?$tuple@HHHW4arch_t@@@std@@$$V@?$map@V?$tuple@HHHW4arch_t@@@std@@P6AIPBEH0H@ZU?$less@V?$tuple@HHHW4arch_t@@@std@@@2@V?$allocator@U?$pair@$$CBV?$tuple@HHHW4arch_t@@@std@@P6AIPBEH0H@Z@std@@@2@@std@@QAE?AU?$pair@V?$_Tree_iterator@V?$_Tree_val@U?$_Tree_simple_types@U?$pair@$$CBV?$tuple@HHHW4arch_t@@@std@@P6AIPBEH0H@Z@std@@@std@@@std@@@std@@_N@1@$$QAV?$tuple@HHHW4arch_t@@@1@@Z ; std::map<std::tuple<int,int,int,enum arch_t>,unsigned int (__cdecl*)(unsigned char const *,int,unsigned char const *,int),std::less<std::tuple<int,int,int,enum arch_t> >,std::allocator<std::pair<std::tuple<int,int,int,enum arch_t> const ,unsigned int (__cdecl*)(unsigned char const *,int,unsigned char const *,int)> > >::_Try_emplace<std::tuple<int,int,int,enum arch_t> >
; File c:\github\mvtools\sources\sadfunctions.cpp

; 195  :     func_sad[make_tuple(8 , 16, 2, NO_SIMD)] = Sad_C<8 , 16,uint16_t>;

	mov	eax, DWORD PTR $T127[ebp]
	movaps	xmm0, XMMWORD PTR __xmm@00000008000000080000000200000000
	mov	DWORD PTR [eax+32], OFFSET ??$Sad_C@$07$0BA@G@@YAIPBEH0H@Z ; Sad_C<8,16,unsigned short>
; File c:\program files (x86)\microsoft visual studio 14.0\vc\include\map

; 244  : 		return (_Try_emplace(_STD move(_Keyval),

	lea	eax, DWORD PTR $T79[ebp]
	push	eax
	lea	eax, DWORD PTR $T126[ebp]
	push	eax
	lea	ecx, DWORD PTR _func_sad$[ebp]
	movups	XMMWORD PTR $T79[ebp], xmm0
	call	??$_Try_emplace@V?$tuple@HHHW4arch_t@@@std@@$$V@?$map@V?$tuple@HHHW4arch_t@@@std@@P6AIPBEH0H@ZU?$less@V?$tuple@HHHW4arch_t@@@std@@@2@V?$allocator@U?$pair@$$CBV?$tuple@HHHW4arch_t@@@std@@P6AIPBEH0H@Z@std@@@2@@std@@QAE?AU?$pair@V?$_Tree_iterator@V?$_Tree_val@U?$_Tree_simple_types@U?$pair@$$CBV?$tuple@HHHW4arch_t@@@std@@P6AIPBEH0H@Z@std@@@std@@@std@@@std@@_N@1@$$QAV?$tuple@HHHW4arch_t@@@1@@Z ; std::map<std::tuple<int,int,int,enum arch_t>,unsigned int (__cdecl*)(unsigned char const *,int,unsigned char const *,int),std::less<std::tuple<int,int,int,enum arch_t> >,std::allocator<std::pair<std::tuple<int,int,int,enum arch_t> const ,unsigned int (__cdecl*)(unsigned char const *,int,unsigned char const *,int)> > >::_Try_emplace<std::tuple<int,int,int,enum arch_t> >
; File c:\github\mvtools\sources\sadfunctions.cpp

; 196  :     func_sad[make_tuple(8 , 8 , 2, NO_SIMD)] = Sad_C<8 , 8,uint16_t>;

	mov	eax, DWORD PTR $T126[ebp]
; File c:\program files (x86)\microsoft visual studio 14.0\vc\include\map

; 244  : 		return (_Try_emplace(_STD move(_Keyval),

	lea	ecx, DWORD PTR _func_sad$[ebp]
	movaps	xmm0, XMMWORD PTR __xmm@00000008000000040000000200000000
; File c:\github\mvtools\sources\sadfunctions.cpp

; 196  :     func_sad[make_tuple(8 , 8 , 2, NO_SIMD)] = Sad_C<8 , 8,uint16_t>;

	mov	DWORD PTR [eax+32], OFFSET ??$Sad_C@$07$07G@@YAIPBEH0H@Z ; Sad_C<8,8,unsigned short>
; File c:\program files (x86)\microsoft visual studio 14.0\vc\include\map

; 244  : 		return (_Try_emplace(_STD move(_Keyval),

	lea	eax, DWORD PTR $T78[ebp]
	push	eax
	lea	eax, DWORD PTR $T125[ebp]
	push	eax
	movups	XMMWORD PTR $T78[ebp], xmm0
	call	??$_Try_emplace@V?$tuple@HHHW4arch_t@@@std@@$$V@?$map@V?$tuple@HHHW4arch_t@@@std@@P6AIPBEH0H@ZU?$less@V?$tuple@HHHW4arch_t@@@std@@@2@V?$allocator@U?$pair@$$CBV?$tuple@HHHW4arch_t@@@std@@P6AIPBEH0H@Z@std@@@2@@std@@QAE?AU?$pair@V?$_Tree_iterator@V?$_Tree_val@U?$_Tree_simple_types@U?$pair@$$CBV?$tuple@HHHW4arch_t@@@std@@P6AIPBEH0H@Z@std@@@std@@@std@@@std@@_N@1@$$QAV?$tuple@HHHW4arch_t@@@1@@Z ; std::map<std::tuple<int,int,int,enum arch_t>,unsigned int (__cdecl*)(unsigned char const *,int,unsigned char const *,int),std::less<std::tuple<int,int,int,enum arch_t> >,std::allocator<std::pair<std::tuple<int,int,int,enum arch_t> const ,unsigned int (__cdecl*)(unsigned char const *,int,unsigned char const *,int)> > >::_Try_emplace<std::tuple<int,int,int,enum arch_t> >
; File c:\github\mvtools\sources\sadfunctions.cpp

; 197  :     func_sad[make_tuple(8 , 4 , 2, NO_SIMD)] = Sad_C<8 , 4,uint16_t>;

	mov	eax, DWORD PTR $T125[ebp]
; File c:\program files (x86)\microsoft visual studio 14.0\vc\include\map

; 244  : 		return (_Try_emplace(_STD move(_Keyval),

	lea	ecx, DWORD PTR _func_sad$[ebp]
	movaps	xmm0, XMMWORD PTR __xmm@00000008000000020000000200000000
; File c:\github\mvtools\sources\sadfunctions.cpp

; 197  :     func_sad[make_tuple(8 , 4 , 2, NO_SIMD)] = Sad_C<8 , 4,uint16_t>;

	mov	DWORD PTR [eax+32], OFFSET ??$Sad_C@$07$03G@@YAIPBEH0H@Z ; Sad_C<8,4,unsigned short>
; File c:\program files (x86)\microsoft visual studio 14.0\vc\include\map

; 244  : 		return (_Try_emplace(_STD move(_Keyval),

	lea	eax, DWORD PTR $T77[ebp]
	push	eax
	lea	eax, DWORD PTR $T124[ebp]
	push	eax
	movups	XMMWORD PTR $T77[ebp], xmm0
	call	??$_Try_emplace@V?$tuple@HHHW4arch_t@@@std@@$$V@?$map@V?$tuple@HHHW4arch_t@@@std@@P6AIPBEH0H@ZU?$less@V?$tuple@HHHW4arch_t@@@std@@@2@V?$allocator@U?$pair@$$CBV?$tuple@HHHW4arch_t@@@std@@P6AIPBEH0H@Z@std@@@2@@std@@QAE?AU?$pair@V?$_Tree_iterator@V?$_Tree_val@U?$_Tree_simple_types@U?$pair@$$CBV?$tuple@HHHW4arch_t@@@std@@P6AIPBEH0H@Z@std@@@std@@@std@@@std@@_N@1@$$QAV?$tuple@HHHW4arch_t@@@1@@Z ; std::map<std::tuple<int,int,int,enum arch_t>,unsigned int (__cdecl*)(unsigned char const *,int,unsigned char const *,int),std::less<std::tuple<int,int,int,enum arch_t> >,std::allocator<std::pair<std::tuple<int,int,int,enum arch_t> const ,unsigned int (__cdecl*)(unsigned char const *,int,unsigned char const *,int)> > >::_Try_emplace<std::tuple<int,int,int,enum arch_t> >
; File c:\github\mvtools\sources\sadfunctions.cpp

; 198  :     func_sad[make_tuple(8 , 2 , 2, NO_SIMD)] = Sad_C<8 , 2,uint16_t>;

	mov	eax, DWORD PTR $T124[ebp]
; File c:\program files (x86)\microsoft visual studio 14.0\vc\include\map

; 244  : 		return (_Try_emplace(_STD move(_Keyval),

	lea	ecx, DWORD PTR _func_sad$[ebp]
	movaps	xmm0, XMMWORD PTR __xmm@00000008000000010000000200000000
; File c:\github\mvtools\sources\sadfunctions.cpp

; 198  :     func_sad[make_tuple(8 , 2 , 2, NO_SIMD)] = Sad_C<8 , 2,uint16_t>;

	mov	DWORD PTR [eax+32], OFFSET ??$Sad_C@$07$01G@@YAIPBEH0H@Z ; Sad_C<8,2,unsigned short>
; File c:\program files (x86)\microsoft visual studio 14.0\vc\include\map

; 244  : 		return (_Try_emplace(_STD move(_Keyval),

	lea	eax, DWORD PTR $T76[ebp]
	push	eax
	lea	eax, DWORD PTR $T123[ebp]
	push	eax
	movups	XMMWORD PTR $T76[ebp], xmm0
	call	??$_Try_emplace@V?$tuple@HHHW4arch_t@@@std@@$$V@?$map@V?$tuple@HHHW4arch_t@@@std@@P6AIPBEH0H@ZU?$less@V?$tuple@HHHW4arch_t@@@std@@@2@V?$allocator@U?$pair@$$CBV?$tuple@HHHW4arch_t@@@std@@P6AIPBEH0H@Z@std@@@2@@std@@QAE?AU?$pair@V?$_Tree_iterator@V?$_Tree_val@U?$_Tree_simple_types@U?$pair@$$CBV?$tuple@HHHW4arch_t@@@std@@P6AIPBEH0H@Z@std@@@std@@@std@@@std@@_N@1@$$QAV?$tuple@HHHW4arch_t@@@1@@Z ; std::map<std::tuple<int,int,int,enum arch_t>,unsigned int (__cdecl*)(unsigned char const *,int,unsigned char const *,int),std::less<std::tuple<int,int,int,enum arch_t> >,std::allocator<std::pair<std::tuple<int,int,int,enum arch_t> const ,unsigned int (__cdecl*)(unsigned char const *,int,unsigned char const *,int)> > >::_Try_emplace<std::tuple<int,int,int,enum arch_t> >
; File c:\github\mvtools\sources\sadfunctions.cpp

; 199  :     func_sad[make_tuple(8 , 1 , 2, NO_SIMD)] = Sad_C<8 , 1,uint16_t>;

	mov	eax, DWORD PTR $T123[ebp]
; File c:\program files (x86)\microsoft visual studio 14.0\vc\include\map

; 244  : 		return (_Try_emplace(_STD move(_Keyval),

	lea	ecx, DWORD PTR _func_sad$[ebp]
	movaps	xmm0, XMMWORD PTR __xmm@00000004000000080000000200000000
; File c:\github\mvtools\sources\sadfunctions.cpp

; 199  :     func_sad[make_tuple(8 , 1 , 2, NO_SIMD)] = Sad_C<8 , 1,uint16_t>;

	mov	DWORD PTR [eax+32], OFFSET ??$Sad_C@$07$00G@@YAIPBEH0H@Z ; Sad_C<8,1,unsigned short>
; File c:\program files (x86)\microsoft visual studio 14.0\vc\include\map

; 244  : 		return (_Try_emplace(_STD move(_Keyval),

	lea	eax, DWORD PTR $T75[ebp]
	push	eax
	lea	eax, DWORD PTR $T122[ebp]
	push	eax
	movups	XMMWORD PTR $T75[ebp], xmm0
	call	??$_Try_emplace@V?$tuple@HHHW4arch_t@@@std@@$$V@?$map@V?$tuple@HHHW4arch_t@@@std@@P6AIPBEH0H@ZU?$less@V?$tuple@HHHW4arch_t@@@std@@@2@V?$allocator@U?$pair@$$CBV?$tuple@HHHW4arch_t@@@std@@P6AIPBEH0H@Z@std@@@2@@std@@QAE?AU?$pair@V?$_Tree_iterator@V?$_Tree_val@U?$_Tree_simple_types@U?$pair@$$CBV?$tuple@HHHW4arch_t@@@std@@P6AIPBEH0H@Z@std@@@std@@@std@@@std@@_N@1@$$QAV?$tuple@HHHW4arch_t@@@1@@Z ; std::map<std::tuple<int,int,int,enum arch_t>,unsigned int (__cdecl*)(unsigned char const *,int,unsigned char const *,int),std::less<std::tuple<int,int,int,enum arch_t> >,std::allocator<std::pair<std::tuple<int,int,int,enum arch_t> const ,unsigned int (__cdecl*)(unsigned char const *,int,unsigned char const *,int)> > >::_Try_emplace<std::tuple<int,int,int,enum arch_t> >
; File c:\github\mvtools\sources\sadfunctions.cpp

; 200  :     func_sad[make_tuple(4 , 8 , 2, NO_SIMD)] = Sad_C<4 , 8,uint16_t>;

	mov	eax, DWORD PTR $T122[ebp]
; File c:\program files (x86)\microsoft visual studio 14.0\vc\include\map

; 244  : 		return (_Try_emplace(_STD move(_Keyval),

	lea	ecx, DWORD PTR _func_sad$[ebp]
	movaps	xmm0, XMMWORD PTR __xmm@00000004000000040000000200000000
; File c:\github\mvtools\sources\sadfunctions.cpp

; 200  :     func_sad[make_tuple(4 , 8 , 2, NO_SIMD)] = Sad_C<4 , 8,uint16_t>;

	mov	DWORD PTR [eax+32], OFFSET ??$Sad_C@$03$07G@@YAIPBEH0H@Z ; Sad_C<4,8,unsigned short>
; File c:\program files (x86)\microsoft visual studio 14.0\vc\include\map

; 244  : 		return (_Try_emplace(_STD move(_Keyval),

	lea	eax, DWORD PTR $T74[ebp]
	push	eax
	lea	eax, DWORD PTR $T121[ebp]
	push	eax
	movups	XMMWORD PTR $T74[ebp], xmm0
	call	??$_Try_emplace@V?$tuple@HHHW4arch_t@@@std@@$$V@?$map@V?$tuple@HHHW4arch_t@@@std@@P6AIPBEH0H@ZU?$less@V?$tuple@HHHW4arch_t@@@std@@@2@V?$allocator@U?$pair@$$CBV?$tuple@HHHW4arch_t@@@std@@P6AIPBEH0H@Z@std@@@2@@std@@QAE?AU?$pair@V?$_Tree_iterator@V?$_Tree_val@U?$_Tree_simple_types@U?$pair@$$CBV?$tuple@HHHW4arch_t@@@std@@P6AIPBEH0H@Z@std@@@std@@@std@@@std@@_N@1@$$QAV?$tuple@HHHW4arch_t@@@1@@Z ; std::map<std::tuple<int,int,int,enum arch_t>,unsigned int (__cdecl*)(unsigned char const *,int,unsigned char const *,int),std::less<std::tuple<int,int,int,enum arch_t> >,std::allocator<std::pair<std::tuple<int,int,int,enum arch_t> const ,unsigned int (__cdecl*)(unsigned char const *,int,unsigned char const *,int)> > >::_Try_emplace<std::tuple<int,int,int,enum arch_t> >
; File c:\github\mvtools\sources\sadfunctions.cpp

; 201  :     func_sad[make_tuple(4 , 4 , 2, NO_SIMD)] = Sad_C<4 , 4,uint16_t>;

	mov	eax, DWORD PTR $T121[ebp]
; File c:\program files (x86)\microsoft visual studio 14.0\vc\include\map

; 244  : 		return (_Try_emplace(_STD move(_Keyval),

	lea	ecx, DWORD PTR _func_sad$[ebp]
	movaps	xmm0, XMMWORD PTR __xmm@00000004000000020000000200000000
; File c:\github\mvtools\sources\sadfunctions.cpp

; 201  :     func_sad[make_tuple(4 , 4 , 2, NO_SIMD)] = Sad_C<4 , 4,uint16_t>;

	mov	DWORD PTR [eax+32], OFFSET ??$Sad_C@$03$03G@@YAIPBEH0H@Z ; Sad_C<4,4,unsigned short>
; File c:\program files (x86)\microsoft visual studio 14.0\vc\include\map

; 244  : 		return (_Try_emplace(_STD move(_Keyval),

	lea	eax, DWORD PTR $T73[ebp]
	push	eax
	lea	eax, DWORD PTR $T120[ebp]
	push	eax
	movups	XMMWORD PTR $T73[ebp], xmm0
	call	??$_Try_emplace@V?$tuple@HHHW4arch_t@@@std@@$$V@?$map@V?$tuple@HHHW4arch_t@@@std@@P6AIPBEH0H@ZU?$less@V?$tuple@HHHW4arch_t@@@std@@@2@V?$allocator@U?$pair@$$CBV?$tuple@HHHW4arch_t@@@std@@P6AIPBEH0H@Z@std@@@2@@std@@QAE?AU?$pair@V?$_Tree_iterator@V?$_Tree_val@U?$_Tree_simple_types@U?$pair@$$CBV?$tuple@HHHW4arch_t@@@std@@P6AIPBEH0H@Z@std@@@std@@@std@@@std@@_N@1@$$QAV?$tuple@HHHW4arch_t@@@1@@Z ; std::map<std::tuple<int,int,int,enum arch_t>,unsigned int (__cdecl*)(unsigned char const *,int,unsigned char const *,int),std::less<std::tuple<int,int,int,enum arch_t> >,std::allocator<std::pair<std::tuple<int,int,int,enum arch_t> const ,unsigned int (__cdecl*)(unsigned char const *,int,unsigned char const *,int)> > >::_Try_emplace<std::tuple<int,int,int,enum arch_t> >
; File c:\github\mvtools\sources\sadfunctions.cpp

; 202  :     func_sad[make_tuple(4 , 2 , 2, NO_SIMD)] = Sad_C<4 , 2,uint16_t>;

	mov	eax, DWORD PTR $T120[ebp]
; File c:\program files (x86)\microsoft visual studio 14.0\vc\include\map

; 244  : 		return (_Try_emplace(_STD move(_Keyval),

	lea	ecx, DWORD PTR _func_sad$[ebp]
	movaps	xmm0, XMMWORD PTR __xmm@00000004000000010000000200000000
; File c:\github\mvtools\sources\sadfunctions.cpp

; 202  :     func_sad[make_tuple(4 , 2 , 2, NO_SIMD)] = Sad_C<4 , 2,uint16_t>;

	mov	DWORD PTR [eax+32], OFFSET ??$Sad_C@$03$01G@@YAIPBEH0H@Z ; Sad_C<4,2,unsigned short>
; File c:\program files (x86)\microsoft visual studio 14.0\vc\include\map

; 244  : 		return (_Try_emplace(_STD move(_Keyval),

	lea	eax, DWORD PTR $T72[ebp]
	push	eax
	lea	eax, DWORD PTR $T119[ebp]
	push	eax
	movups	XMMWORD PTR $T72[ebp], xmm0
	call	??$_Try_emplace@V?$tuple@HHHW4arch_t@@@std@@$$V@?$map@V?$tuple@HHHW4arch_t@@@std@@P6AIPBEH0H@ZU?$less@V?$tuple@HHHW4arch_t@@@std@@@2@V?$allocator@U?$pair@$$CBV?$tuple@HHHW4arch_t@@@std@@P6AIPBEH0H@Z@std@@@2@@std@@QAE?AU?$pair@V?$_Tree_iterator@V?$_Tree_val@U?$_Tree_simple_types@U?$pair@$$CBV?$tuple@HHHW4arch_t@@@std@@P6AIPBEH0H@Z@std@@@std@@@std@@@std@@_N@1@$$QAV?$tuple@HHHW4arch_t@@@1@@Z ; std::map<std::tuple<int,int,int,enum arch_t>,unsigned int (__cdecl*)(unsigned char const *,int,unsigned char const *,int),std::less<std::tuple<int,int,int,enum arch_t> >,std::allocator<std::pair<std::tuple<int,int,int,enum arch_t> const ,unsigned int (__cdecl*)(unsigned char const *,int,unsigned char const *,int)> > >::_Try_emplace<std::tuple<int,int,int,enum arch_t> >
; File c:\github\mvtools\sources\sadfunctions.cpp

; 203  :     func_sad[make_tuple(4 , 1 , 2, NO_SIMD)] = Sad_C<4 , 1,uint16_t>;

	mov	eax, DWORD PTR $T119[ebp]
	movaps	xmm0, XMMWORD PTR __xmm@00000002000000040000000200000000
	mov	DWORD PTR [eax+32], OFFSET ??$Sad_C@$03$00G@@YAIPBEH0H@Z ; Sad_C<4,1,unsigned short>
	movups	XMMWORD PTR $T71[ebp], xmm0
; File c:\program files (x86)\microsoft visual studio 14.0\vc\include\map

; 244  : 		return (_Try_emplace(_STD move(_Keyval),

	lea	eax, DWORD PTR $T71[ebp]
	push	eax
	lea	eax, DWORD PTR $T118[ebp]
	push	eax
	lea	ecx, DWORD PTR _func_sad$[ebp]
	call	??$_Try_emplace@V?$tuple@HHHW4arch_t@@@std@@$$V@?$map@V?$tuple@HHHW4arch_t@@@std@@P6AIPBEH0H@ZU?$less@V?$tuple@HHHW4arch_t@@@std@@@2@V?$allocator@U?$pair@$$CBV?$tuple@HHHW4arch_t@@@std@@P6AIPBEH0H@Z@std@@@2@@std@@QAE?AU?$pair@V?$_Tree_iterator@V?$_Tree_val@U?$_Tree_simple_types@U?$pair@$$CBV?$tuple@HHHW4arch_t@@@std@@P6AIPBEH0H@Z@std@@@std@@@std@@@std@@_N@1@$$QAV?$tuple@HHHW4arch_t@@@1@@Z ; std::map<std::tuple<int,int,int,enum arch_t>,unsigned int (__cdecl*)(unsigned char const *,int,unsigned char const *,int),std::less<std::tuple<int,int,int,enum arch_t> >,std::allocator<std::pair<std::tuple<int,int,int,enum arch_t> const ,unsigned int (__cdecl*)(unsigned char const *,int,unsigned char const *,int)> > >::_Try_emplace<std::tuple<int,int,int,enum arch_t> >
; File c:\github\mvtools\sources\sadfunctions.cpp

; 204  :     func_sad[make_tuple(2 , 4 , 2, NO_SIMD)] = Sad_C<2 , 4,uint16_t>;

	mov	eax, DWORD PTR $T118[ebp]
; File c:\program files (x86)\microsoft visual studio 14.0\vc\include\map

; 244  : 		return (_Try_emplace(_STD move(_Keyval),

	lea	ecx, DWORD PTR _func_sad$[ebp]
	movaps	xmm0, XMMWORD PTR __xmm@00000002000000020000000200000000
; File c:\github\mvtools\sources\sadfunctions.cpp

; 204  :     func_sad[make_tuple(2 , 4 , 2, NO_SIMD)] = Sad_C<2 , 4,uint16_t>;

	mov	DWORD PTR [eax+32], OFFSET ??$Sad_C@$01$03G@@YAIPBEH0H@Z ; Sad_C<2,4,unsigned short>
; File c:\program files (x86)\microsoft visual studio 14.0\vc\include\map

; 244  : 		return (_Try_emplace(_STD move(_Keyval),

	lea	eax, DWORD PTR $T70[ebp]
	push	eax
	lea	eax, DWORD PTR $T117[ebp]
	push	eax
	movups	XMMWORD PTR $T70[ebp], xmm0
	call	??$_Try_emplace@V?$tuple@HHHW4arch_t@@@std@@$$V@?$map@V?$tuple@HHHW4arch_t@@@std@@P6AIPBEH0H@ZU?$less@V?$tuple@HHHW4arch_t@@@std@@@2@V?$allocator@U?$pair@$$CBV?$tuple@HHHW4arch_t@@@std@@P6AIPBEH0H@Z@std@@@2@@std@@QAE?AU?$pair@V?$_Tree_iterator@V?$_Tree_val@U?$_Tree_simple_types@U?$pair@$$CBV?$tuple@HHHW4arch_t@@@std@@P6AIPBEH0H@Z@std@@@std@@@std@@@std@@_N@1@$$QAV?$tuple@HHHW4arch_t@@@1@@Z ; std::map<std::tuple<int,int,int,enum arch_t>,unsigned int (__cdecl*)(unsigned char const *,int,unsigned char const *,int),std::less<std::tuple<int,int,int,enum arch_t> >,std::allocator<std::pair<std::tuple<int,int,int,enum arch_t> const ,unsigned int (__cdecl*)(unsigned char const *,int,unsigned char const *,int)> > >::_Try_emplace<std::tuple<int,int,int,enum arch_t> >
; File c:\github\mvtools\sources\sadfunctions.cpp

; 205  :     func_sad[make_tuple(2 , 2 , 2, NO_SIMD)] = Sad_C<2 , 2,uint16_t>;

	mov	eax, DWORD PTR $T117[ebp]
; File c:\program files (x86)\microsoft visual studio 14.0\vc\include\map

; 244  : 		return (_Try_emplace(_STD move(_Keyval),

	lea	ecx, DWORD PTR _func_sad$[ebp]
	movaps	xmm0, XMMWORD PTR __xmm@00000002000000010000000200000000
; File c:\github\mvtools\sources\sadfunctions.cpp

; 205  :     func_sad[make_tuple(2 , 2 , 2, NO_SIMD)] = Sad_C<2 , 2,uint16_t>;

	mov	DWORD PTR [eax+32], OFFSET ??$Sad_C@$01$01G@@YAIPBEH0H@Z ; Sad_C<2,2,unsigned short>
; File c:\program files (x86)\microsoft visual studio 14.0\vc\include\map

; 244  : 		return (_Try_emplace(_STD move(_Keyval),

	lea	eax, DWORD PTR $T69[ebp]
	push	eax
	lea	eax, DWORD PTR $T116[ebp]
	push	eax
	movups	XMMWORD PTR $T69[ebp], xmm0
	call	??$_Try_emplace@V?$tuple@HHHW4arch_t@@@std@@$$V@?$map@V?$tuple@HHHW4arch_t@@@std@@P6AIPBEH0H@ZU?$less@V?$tuple@HHHW4arch_t@@@std@@@2@V?$allocator@U?$pair@$$CBV?$tuple@HHHW4arch_t@@@std@@P6AIPBEH0H@Z@std@@@2@@std@@QAE?AU?$pair@V?$_Tree_iterator@V?$_Tree_val@U?$_Tree_simple_types@U?$pair@$$CBV?$tuple@HHHW4arch_t@@@std@@P6AIPBEH0H@Z@std@@@std@@@std@@@std@@_N@1@$$QAV?$tuple@HHHW4arch_t@@@1@@Z ; std::map<std::tuple<int,int,int,enum arch_t>,unsigned int (__cdecl*)(unsigned char const *,int,unsigned char const *,int),std::less<std::tuple<int,int,int,enum arch_t> >,std::allocator<std::pair<std::tuple<int,int,int,enum arch_t> const ,unsigned int (__cdecl*)(unsigned char const *,int,unsigned char const *,int)> > >::_Try_emplace<std::tuple<int,int,int,enum arch_t> >
; File c:\github\mvtools\sources\sadfunctions.cpp

; 206  :     func_sad[make_tuple(2 , 1 , 2, NO_SIMD)] = Sad_C<2 , 1,uint16_t>;

	mov	eax, DWORD PTR $T116[ebp]
; File c:\program files (x86)\microsoft visual studio 14.0\vc\include\map

; 244  : 		return (_Try_emplace(_STD move(_Keyval),

	lea	ecx, DWORD PTR _func_sad$[ebp]
	movaps	xmm0, XMMWORD PTR __xmm@00000020000000200000000200000005
; File c:\github\mvtools\sources\sadfunctions.cpp

; 206  :     func_sad[make_tuple(2 , 1 , 2, NO_SIMD)] = Sad_C<2 , 1,uint16_t>;

	mov	DWORD PTR [eax+32], OFFSET ??$Sad_C@$01$00G@@YAIPBEH0H@Z ; Sad_C<2,1,unsigned short>
; File c:\program files (x86)\microsoft visual studio 14.0\vc\include\map

; 244  : 		return (_Try_emplace(_STD move(_Keyval),

	lea	eax, DWORD PTR $T68[ebp]
	push	eax
	lea	eax, DWORD PTR $T115[ebp]
	push	eax
	movups	XMMWORD PTR $T68[ebp], xmm0
	call	??$_Try_emplace@V?$tuple@HHHW4arch_t@@@std@@$$V@?$map@V?$tuple@HHHW4arch_t@@@std@@P6AIPBEH0H@ZU?$less@V?$tuple@HHHW4arch_t@@@std@@@2@V?$allocator@U?$pair@$$CBV?$tuple@HHHW4arch_t@@@std@@P6AIPBEH0H@Z@std@@@2@@std@@QAE?AU?$pair@V?$_Tree_iterator@V?$_Tree_val@U?$_Tree_simple_types@U?$pair@$$CBV?$tuple@HHHW4arch_t@@@std@@P6AIPBEH0H@Z@std@@@std@@@std@@@std@@_N@1@$$QAV?$tuple@HHHW4arch_t@@@1@@Z ; std::map<std::tuple<int,int,int,enum arch_t>,unsigned int (__cdecl*)(unsigned char const *,int,unsigned char const *,int),std::less<std::tuple<int,int,int,enum arch_t> >,std::allocator<std::pair<std::tuple<int,int,int,enum arch_t> const ,unsigned int (__cdecl*)(unsigned char const *,int,unsigned char const *,int)> > >::_Try_emplace<std::tuple<int,int,int,enum arch_t> >
; File c:\github\mvtools\sources\sadfunctions.cpp

; 211  :     func_sad[make_tuple(32, 32, 2, USE_AVX)] = Sad16_sse2_avx<32, 32,uint16_t>;

	mov	eax, DWORD PTR $T115[ebp]
; File c:\program files (x86)\microsoft visual studio 14.0\vc\include\map

; 244  : 		return (_Try_emplace(_STD move(_Keyval),

	lea	ecx, DWORD PTR _func_sad$[ebp]
	movaps	xmm0, XMMWORD PTR __xmm@00000020000000100000000200000005
; File c:\github\mvtools\sources\sadfunctions.cpp

; 211  :     func_sad[make_tuple(32, 32, 2, USE_AVX)] = Sad16_sse2_avx<32, 32,uint16_t>;

	mov	DWORD PTR [eax+32], OFFSET ??$Sad16_sse2_avx@$0CA@$0CA@G@@YAIPBEH0H@Z ; Sad16_sse2_avx<32,32,unsigned short>
; File c:\program files (x86)\microsoft visual studio 14.0\vc\include\map

; 244  : 		return (_Try_emplace(_STD move(_Keyval),

	lea	eax, DWORD PTR $T67[ebp]
	push	eax
	lea	eax, DWORD PTR $T114[ebp]
	push	eax
	movups	XMMWORD PTR $T67[ebp], xmm0
	call	??$_Try_emplace@V?$tuple@HHHW4arch_t@@@std@@$$V@?$map@V?$tuple@HHHW4arch_t@@@std@@P6AIPBEH0H@ZU?$less@V?$tuple@HHHW4arch_t@@@std@@@2@V?$allocator@U?$pair@$$CBV?$tuple@HHHW4arch_t@@@std@@P6AIPBEH0H@Z@std@@@2@@std@@QAE?AU?$pair@V?$_Tree_iterator@V?$_Tree_val@U?$_Tree_simple_types@U?$pair@$$CBV?$tuple@HHHW4arch_t@@@std@@P6AIPBEH0H@Z@std@@@std@@@std@@@std@@_N@1@$$QAV?$tuple@HHHW4arch_t@@@1@@Z ; std::map<std::tuple<int,int,int,enum arch_t>,unsigned int (__cdecl*)(unsigned char const *,int,unsigned char const *,int),std::less<std::tuple<int,int,int,enum arch_t> >,std::allocator<std::pair<std::tuple<int,int,int,enum arch_t> const ,unsigned int (__cdecl*)(unsigned char const *,int,unsigned char const *,int)> > >::_Try_emplace<std::tuple<int,int,int,enum arch_t> >
; File c:\github\mvtools\sources\sadfunctions.cpp

; 212  :     func_sad[make_tuple(32, 16, 2, USE_AVX)] = Sad16_sse2_avx<32, 16,uint16_t>;

	mov	eax, DWORD PTR $T114[ebp]
; File c:\program files (x86)\microsoft visual studio 14.0\vc\include\map

; 244  : 		return (_Try_emplace(_STD move(_Keyval),

	lea	ecx, DWORD PTR _func_sad$[ebp]
	movaps	xmm0, XMMWORD PTR __xmm@00000020000000080000000200000005
; File c:\github\mvtools\sources\sadfunctions.cpp

; 212  :     func_sad[make_tuple(32, 16, 2, USE_AVX)] = Sad16_sse2_avx<32, 16,uint16_t>;

	mov	DWORD PTR [eax+32], OFFSET ??$Sad16_sse2_avx@$0CA@$0BA@G@@YAIPBEH0H@Z ; Sad16_sse2_avx<32,16,unsigned short>
; File c:\program files (x86)\microsoft visual studio 14.0\vc\include\map

; 244  : 		return (_Try_emplace(_STD move(_Keyval),

	lea	eax, DWORD PTR $T66[ebp]
	push	eax
	lea	eax, DWORD PTR $T113[ebp]
	push	eax
	movups	XMMWORD PTR $T66[ebp], xmm0
	call	??$_Try_emplace@V?$tuple@HHHW4arch_t@@@std@@$$V@?$map@V?$tuple@HHHW4arch_t@@@std@@P6AIPBEH0H@ZU?$less@V?$tuple@HHHW4arch_t@@@std@@@2@V?$allocator@U?$pair@$$CBV?$tuple@HHHW4arch_t@@@std@@P6AIPBEH0H@Z@std@@@2@@std@@QAE?AU?$pair@V?$_Tree_iterator@V?$_Tree_val@U?$_Tree_simple_types@U?$pair@$$CBV?$tuple@HHHW4arch_t@@@std@@P6AIPBEH0H@Z@std@@@std@@@std@@@std@@_N@1@$$QAV?$tuple@HHHW4arch_t@@@1@@Z ; std::map<std::tuple<int,int,int,enum arch_t>,unsigned int (__cdecl*)(unsigned char const *,int,unsigned char const *,int),std::less<std::tuple<int,int,int,enum arch_t> >,std::allocator<std::pair<std::tuple<int,int,int,enum arch_t> const ,unsigned int (__cdecl*)(unsigned char const *,int,unsigned char const *,int)> > >::_Try_emplace<std::tuple<int,int,int,enum arch_t> >
; File c:\github\mvtools\sources\sadfunctions.cpp

; 213  :     func_sad[make_tuple(32, 8 , 2, USE_AVX)] = Sad16_sse2_avx<32, 8,uint16_t>;

	mov	eax, DWORD PTR $T113[ebp]
; File c:\program files (x86)\microsoft visual studio 14.0\vc\include\map

; 244  : 		return (_Try_emplace(_STD move(_Keyval),

	lea	ecx, DWORD PTR _func_sad$[ebp]
	movaps	xmm0, XMMWORD PTR __xmm@00000010000000200000000200000005
; File c:\github\mvtools\sources\sadfunctions.cpp

; 213  :     func_sad[make_tuple(32, 8 , 2, USE_AVX)] = Sad16_sse2_avx<32, 8,uint16_t>;

	mov	DWORD PTR [eax+32], OFFSET ??$Sad16_sse2_avx@$0CA@$07G@@YAIPBEH0H@Z ; Sad16_sse2_avx<32,8,unsigned short>
; File c:\program files (x86)\microsoft visual studio 14.0\vc\include\map

; 244  : 		return (_Try_emplace(_STD move(_Keyval),

	lea	eax, DWORD PTR $T65[ebp]
	push	eax
	lea	eax, DWORD PTR $T112[ebp]
	push	eax
	movups	XMMWORD PTR $T65[ebp], xmm0
	call	??$_Try_emplace@V?$tuple@HHHW4arch_t@@@std@@$$V@?$map@V?$tuple@HHHW4arch_t@@@std@@P6AIPBEH0H@ZU?$less@V?$tuple@HHHW4arch_t@@@std@@@2@V?$allocator@U?$pair@$$CBV?$tuple@HHHW4arch_t@@@std@@P6AIPBEH0H@Z@std@@@2@@std@@QAE?AU?$pair@V?$_Tree_iterator@V?$_Tree_val@U?$_Tree_simple_types@U?$pair@$$CBV?$tuple@HHHW4arch_t@@@std@@P6AIPBEH0H@Z@std@@@std@@@std@@@std@@_N@1@$$QAV?$tuple@HHHW4arch_t@@@1@@Z ; std::map<std::tuple<int,int,int,enum arch_t>,unsigned int (__cdecl*)(unsigned char const *,int,unsigned char const *,int),std::less<std::tuple<int,int,int,enum arch_t> >,std::allocator<std::pair<std::tuple<int,int,int,enum arch_t> const ,unsigned int (__cdecl*)(unsigned char const *,int,unsigned char const *,int)> > >::_Try_emplace<std::tuple<int,int,int,enum arch_t> >
; File c:\github\mvtools\sources\sadfunctions.cpp

; 214  :     func_sad[make_tuple(16, 32, 2, USE_AVX)] = Sad16_sse2_avx<16, 32,uint16_t>;

	mov	eax, DWORD PTR $T112[ebp]
; File c:\program files (x86)\microsoft visual studio 14.0\vc\include\map

; 244  : 		return (_Try_emplace(_STD move(_Keyval),

	lea	ecx, DWORD PTR _func_sad$[ebp]
	movaps	xmm0, XMMWORD PTR __xmm@00000010000000100000000200000005
; File c:\github\mvtools\sources\sadfunctions.cpp

; 214  :     func_sad[make_tuple(16, 32, 2, USE_AVX)] = Sad16_sse2_avx<16, 32,uint16_t>;

	mov	DWORD PTR [eax+32], OFFSET ??$Sad16_sse2_avx@$0BA@$0CA@G@@YAIPBEH0H@Z ; Sad16_sse2_avx<16,32,unsigned short>
; File c:\program files (x86)\microsoft visual studio 14.0\vc\include\map

; 244  : 		return (_Try_emplace(_STD move(_Keyval),

	lea	eax, DWORD PTR $T64[ebp]
	push	eax
	lea	eax, DWORD PTR $T111[ebp]
	push	eax
	movups	XMMWORD PTR $T64[ebp], xmm0
	call	??$_Try_emplace@V?$tuple@HHHW4arch_t@@@std@@$$V@?$map@V?$tuple@HHHW4arch_t@@@std@@P6AIPBEH0H@ZU?$less@V?$tuple@HHHW4arch_t@@@std@@@2@V?$allocator@U?$pair@$$CBV?$tuple@HHHW4arch_t@@@std@@P6AIPBEH0H@Z@std@@@2@@std@@QAE?AU?$pair@V?$_Tree_iterator@V?$_Tree_val@U?$_Tree_simple_types@U?$pair@$$CBV?$tuple@HHHW4arch_t@@@std@@P6AIPBEH0H@Z@std@@@std@@@std@@@std@@_N@1@$$QAV?$tuple@HHHW4arch_t@@@1@@Z ; std::map<std::tuple<int,int,int,enum arch_t>,unsigned int (__cdecl*)(unsigned char const *,int,unsigned char const *,int),std::less<std::tuple<int,int,int,enum arch_t> >,std::allocator<std::pair<std::tuple<int,int,int,enum arch_t> const ,unsigned int (__cdecl*)(unsigned char const *,int,unsigned char const *,int)> > >::_Try_emplace<std::tuple<int,int,int,enum arch_t> >
; File c:\github\mvtools\sources\sadfunctions.cpp

; 215  :     func_sad[make_tuple(16, 16, 2, USE_AVX)] = Sad16_sse2_avx<16, 16,uint16_t>;

	mov	eax, DWORD PTR $T111[ebp]
	movaps	xmm0, XMMWORD PTR __xmm@00000010000000080000000200000005
	mov	DWORD PTR [eax+32], OFFSET ??$Sad16_sse2_avx@$0BA@$0BA@G@@YAIPBEH0H@Z ; Sad16_sse2_avx<16,16,unsigned short>

; 216  :     func_sad[make_tuple(16, 8 , 2, USE_AVX)] = Sad16_sse2_avx<16, 8,uint16_t>;

	lea	eax, DWORD PTR $T63[ebp]
	movups	XMMWORD PTR $T63[ebp], xmm0
	push	eax
	lea	ecx, DWORD PTR _func_sad$[ebp]
	call	??A?$map@V?$tuple@HHHW4arch_t@@@std@@P6AIPBEH0H@ZU?$less@V?$tuple@HHHW4arch_t@@@std@@@2@V?$allocator@U?$pair@$$CBV?$tuple@HHHW4arch_t@@@std@@P6AIPBEH0H@Z@std@@@2@@std@@QAEAAP6AIPBEH0H@Z$$QAV?$tuple@HHHW4arch_t@@@1@@Z ; std::map<std::tuple<int,int,int,enum arch_t>,unsigned int (__cdecl*)(unsigned char const *,int,unsigned char const *,int),std::less<std::tuple<int,int,int,enum arch_t> >,std::allocator<std::pair<std::tuple<int,int,int,enum arch_t> const ,unsigned int (__cdecl*)(unsigned char const *,int,unsigned char const *,int)> > >::operator[]

; 217  :     func_sad[make_tuple(16, 4 , 2, USE_AVX)] = Sad16_sse2_avx<16, 4,uint16_t>;

	lea	edx, DWORD PTR $T217[ebp]
	mov	DWORD PTR $T395[ebp], 5
	lea	ecx, DWORD PTR $T62[ebp]
	mov	DWORD PTR $T276[ebp], 2
	mov	DWORD PTR $T335[ebp], 4
	mov	DWORD PTR [eax], OFFSET ??$Sad16_sse2_avx@$0BA@$07G@@YAIPBEH0H@Z ; Sad16_sse2_avx<16,8,unsigned short>
	lea	eax, DWORD PTR $T395[ebp]
	push	eax
	lea	eax, DWORD PTR $T276[ebp]
	mov	DWORD PTR $T217[ebp], 16		; 00000010H
	push	eax
	lea	eax, DWORD PTR $T335[ebp]
	push	eax
	call	??$make_tuple@HHHW4arch_t@@@std@@YA?AV?$tuple@HHHW4arch_t@@@0@$$QAH00$$QAW4arch_t@@@Z ; std::make_tuple<int,int,int,enum arch_t>
	add	esp, 12					; 0000000cH
	lea	ecx, DWORD PTR _func_sad$[ebp]
	push	eax
	call	??A?$map@V?$tuple@HHHW4arch_t@@@std@@P6AIPBEH0H@ZU?$less@V?$tuple@HHHW4arch_t@@@std@@@2@V?$allocator@U?$pair@$$CBV?$tuple@HHHW4arch_t@@@std@@P6AIPBEH0H@Z@std@@@2@@std@@QAEAAP6AIPBEH0H@Z$$QAV?$tuple@HHHW4arch_t@@@1@@Z ; std::map<std::tuple<int,int,int,enum arch_t>,unsigned int (__cdecl*)(unsigned char const *,int,unsigned char const *,int),std::less<std::tuple<int,int,int,enum arch_t> >,std::allocator<std::pair<std::tuple<int,int,int,enum arch_t> const ,unsigned int (__cdecl*)(unsigned char const *,int,unsigned char const *,int)> > >::operator[]

; 218  :     func_sad[make_tuple(16, 2 , 2, USE_AVX)] = Sad16_sse2_avx<16, 2,uint16_t>;

	lea	edx, DWORD PTR $T394[ebp]
	mov	DWORD PTR $T216[ebp], 5
	lea	ecx, DWORD PTR $T61[ebp]
	mov	DWORD PTR $T334[ebp], 2
	mov	DWORD PTR $T275[ebp], 2
	mov	DWORD PTR [eax], OFFSET ??$Sad16_sse2_avx@$0BA@$03G@@YAIPBEH0H@Z ; Sad16_sse2_avx<16,4,unsigned short>
	lea	eax, DWORD PTR $T216[ebp]
	push	eax
	lea	eax, DWORD PTR $T334[ebp]
	mov	DWORD PTR $T394[ebp], 16		; 00000010H
	push	eax
	lea	eax, DWORD PTR $T275[ebp]
	push	eax
	call	??$make_tuple@HHHW4arch_t@@@std@@YA?AV?$tuple@HHHW4arch_t@@@0@$$QAH00$$QAW4arch_t@@@Z ; std::make_tuple<int,int,int,enum arch_t>
	add	esp, 12					; 0000000cH
	lea	ecx, DWORD PTR _func_sad$[ebp]
	push	eax
	call	??A?$map@V?$tuple@HHHW4arch_t@@@std@@P6AIPBEH0H@ZU?$less@V?$tuple@HHHW4arch_t@@@std@@@2@V?$allocator@U?$pair@$$CBV?$tuple@HHHW4arch_t@@@std@@P6AIPBEH0H@Z@std@@@2@@std@@QAEAAP6AIPBEH0H@Z$$QAV?$tuple@HHHW4arch_t@@@1@@Z ; std::map<std::tuple<int,int,int,enum arch_t>,unsigned int (__cdecl*)(unsigned char const *,int,unsigned char const *,int),std::less<std::tuple<int,int,int,enum arch_t> >,std::allocator<std::pair<std::tuple<int,int,int,enum arch_t> const ,unsigned int (__cdecl*)(unsigned char const *,int,unsigned char const *,int)> > >::operator[]

; 219  :     func_sad[make_tuple(16, 1 , 2, USE_AVX)] = Sad16_sse2_avx<16, 1,uint16_t>;

	lea	edx, DWORD PTR $T393[ebp]
	mov	DWORD PTR $T215[ebp], 5
	lea	ecx, DWORD PTR $T60[ebp]
	mov	DWORD PTR $T333[ebp], 2
	mov	DWORD PTR $T274[ebp], 1
	mov	DWORD PTR [eax], OFFSET ??$Sad16_sse2_avx@$0BA@$01G@@YAIPBEH0H@Z ; Sad16_sse2_avx<16,2,unsigned short>
	lea	eax, DWORD PTR $T215[ebp]
	push	eax
	lea	eax, DWORD PTR $T333[ebp]
	mov	DWORD PTR $T393[ebp], 16		; 00000010H
	push	eax
	lea	eax, DWORD PTR $T274[ebp]
	push	eax
	call	??$make_tuple@HHHW4arch_t@@@std@@YA?AV?$tuple@HHHW4arch_t@@@0@$$QAH00$$QAW4arch_t@@@Z ; std::make_tuple<int,int,int,enum arch_t>
	add	esp, 12					; 0000000cH
	lea	ecx, DWORD PTR _func_sad$[ebp]
	push	eax
	call	??A?$map@V?$tuple@HHHW4arch_t@@@std@@P6AIPBEH0H@ZU?$less@V?$tuple@HHHW4arch_t@@@std@@@2@V?$allocator@U?$pair@$$CBV?$tuple@HHHW4arch_t@@@std@@P6AIPBEH0H@Z@std@@@2@@std@@QAEAAP6AIPBEH0H@Z$$QAV?$tuple@HHHW4arch_t@@@1@@Z ; std::map<std::tuple<int,int,int,enum arch_t>,unsigned int (__cdecl*)(unsigned char const *,int,unsigned char const *,int),std::less<std::tuple<int,int,int,enum arch_t> >,std::allocator<std::pair<std::tuple<int,int,int,enum arch_t> const ,unsigned int (__cdecl*)(unsigned char const *,int,unsigned char const *,int)> > >::operator[]

; 220  :     func_sad[make_tuple(8 , 16, 2, USE_AVX)] = Sad16_sse2_avx<8 , 16,uint16_t>;

	lea	edx, DWORD PTR $T392[ebp]
	mov	DWORD PTR $T214[ebp], 5
	lea	ecx, DWORD PTR $T59[ebp]
	mov	DWORD PTR $T332[ebp], 2
	mov	DWORD PTR $T273[ebp], 16		; 00000010H
	mov	DWORD PTR [eax], OFFSET ??$Sad16_sse2_avx@$0BA@$00G@@YAIPBEH0H@Z ; Sad16_sse2_avx<16,1,unsigned short>
	lea	eax, DWORD PTR $T214[ebp]
	push	eax
	lea	eax, DWORD PTR $T332[ebp]
	mov	DWORD PTR $T392[ebp], 8
	push	eax
	lea	eax, DWORD PTR $T273[ebp]
	push	eax
	call	??$make_tuple@HHHW4arch_t@@@std@@YA?AV?$tuple@HHHW4arch_t@@@0@$$QAH00$$QAW4arch_t@@@Z ; std::make_tuple<int,int,int,enum arch_t>
	add	esp, 12					; 0000000cH
	lea	ecx, DWORD PTR _func_sad$[ebp]
	push	eax
	call	??A?$map@V?$tuple@HHHW4arch_t@@@std@@P6AIPBEH0H@ZU?$less@V?$tuple@HHHW4arch_t@@@std@@@2@V?$allocator@U?$pair@$$CBV?$tuple@HHHW4arch_t@@@std@@P6AIPBEH0H@Z@std@@@2@@std@@QAEAAP6AIPBEH0H@Z$$QAV?$tuple@HHHW4arch_t@@@1@@Z ; std::map<std::tuple<int,int,int,enum arch_t>,unsigned int (__cdecl*)(unsigned char const *,int,unsigned char const *,int),std::less<std::tuple<int,int,int,enum arch_t> >,std::allocator<std::pair<std::tuple<int,int,int,enum arch_t> const ,unsigned int (__cdecl*)(unsigned char const *,int,unsigned char const *,int)> > >::operator[]

; 221  :     func_sad[make_tuple(8 , 8 , 2, USE_AVX)] = Sad16_sse2_avx<8 , 8,uint16_t>;

	mov	DWORD PTR $T213[ebp], 5
	mov	DWORD PTR $T331[ebp], 2
	mov	DWORD PTR $T272[ebp], 8
	mov	DWORD PTR [eax], OFFSET ??$Sad16_sse2_avx@$07$0BA@G@@YAIPBEH0H@Z ; Sad16_sse2_avx<8,16,unsigned short>
	lea	eax, DWORD PTR $T213[ebp]
	mov	DWORD PTR $T391[ebp], 8
	push	eax
	lea	eax, DWORD PTR $T331[ebp]
	push	eax
	lea	eax, DWORD PTR $T272[ebp]
	push	eax
	lea	edx, DWORD PTR $T391[ebp]
	lea	ecx, DWORD PTR $T58[ebp]
	call	??$make_tuple@HHHW4arch_t@@@std@@YA?AV?$tuple@HHHW4arch_t@@@0@$$QAH00$$QAW4arch_t@@@Z ; std::make_tuple<int,int,int,enum arch_t>
	add	esp, 12					; 0000000cH
	lea	ecx, DWORD PTR _func_sad$[ebp]
	push	eax
	call	??A?$map@V?$tuple@HHHW4arch_t@@@std@@P6AIPBEH0H@ZU?$less@V?$tuple@HHHW4arch_t@@@std@@@2@V?$allocator@U?$pair@$$CBV?$tuple@HHHW4arch_t@@@std@@P6AIPBEH0H@Z@std@@@2@@std@@QAEAAP6AIPBEH0H@Z$$QAV?$tuple@HHHW4arch_t@@@1@@Z ; std::map<std::tuple<int,int,int,enum arch_t>,unsigned int (__cdecl*)(unsigned char const *,int,unsigned char const *,int),std::less<std::tuple<int,int,int,enum arch_t> >,std::allocator<std::pair<std::tuple<int,int,int,enum arch_t> const ,unsigned int (__cdecl*)(unsigned char const *,int,unsigned char const *,int)> > >::operator[]

; 222  :     func_sad[make_tuple(8 , 4 , 2, USE_AVX)] = Sad16_sse2_avx<8 , 4,uint16_t>;

	lea	edx, DWORD PTR $T390[ebp]
	mov	DWORD PTR $T212[ebp], 5
	lea	ecx, DWORD PTR $T57[ebp]
	mov	DWORD PTR $T330[ebp], 2
	mov	DWORD PTR $T271[ebp], 4
	mov	DWORD PTR [eax], OFFSET ??$Sad16_sse2_avx@$07$07G@@YAIPBEH0H@Z ; Sad16_sse2_avx<8,8,unsigned short>
	lea	eax, DWORD PTR $T212[ebp]
	push	eax
	lea	eax, DWORD PTR $T330[ebp]
	mov	DWORD PTR $T390[ebp], 8
	push	eax
	lea	eax, DWORD PTR $T271[ebp]
	push	eax
	call	??$make_tuple@HHHW4arch_t@@@std@@YA?AV?$tuple@HHHW4arch_t@@@0@$$QAH00$$QAW4arch_t@@@Z ; std::make_tuple<int,int,int,enum arch_t>
	add	esp, 12					; 0000000cH
	lea	ecx, DWORD PTR _func_sad$[ebp]
	push	eax
	call	??A?$map@V?$tuple@HHHW4arch_t@@@std@@P6AIPBEH0H@ZU?$less@V?$tuple@HHHW4arch_t@@@std@@@2@V?$allocator@U?$pair@$$CBV?$tuple@HHHW4arch_t@@@std@@P6AIPBEH0H@Z@std@@@2@@std@@QAEAAP6AIPBEH0H@Z$$QAV?$tuple@HHHW4arch_t@@@1@@Z ; std::map<std::tuple<int,int,int,enum arch_t>,unsigned int (__cdecl*)(unsigned char const *,int,unsigned char const *,int),std::less<std::tuple<int,int,int,enum arch_t> >,std::allocator<std::pair<std::tuple<int,int,int,enum arch_t> const ,unsigned int (__cdecl*)(unsigned char const *,int,unsigned char const *,int)> > >::operator[]

; 223  :     func_sad[make_tuple(8 , 2 , 2, USE_AVX)] = Sad16_sse2_avx<8 , 2,uint16_t>;

	lea	edx, DWORD PTR $T389[ebp]
	mov	DWORD PTR $T211[ebp], 5
	lea	ecx, DWORD PTR $T56[ebp]
	mov	DWORD PTR $T329[ebp], 2
	mov	DWORD PTR $T270[ebp], 2
	mov	DWORD PTR [eax], OFFSET ??$Sad16_sse2_avx@$07$03G@@YAIPBEH0H@Z ; Sad16_sse2_avx<8,4,unsigned short>
	lea	eax, DWORD PTR $T211[ebp]
	push	eax
	lea	eax, DWORD PTR $T329[ebp]
	mov	DWORD PTR $T389[ebp], 8
	push	eax
	lea	eax, DWORD PTR $T270[ebp]
	push	eax
	call	??$make_tuple@HHHW4arch_t@@@std@@YA?AV?$tuple@HHHW4arch_t@@@0@$$QAH00$$QAW4arch_t@@@Z ; std::make_tuple<int,int,int,enum arch_t>
	add	esp, 12					; 0000000cH
	lea	ecx, DWORD PTR _func_sad$[ebp]
	push	eax
	call	??A?$map@V?$tuple@HHHW4arch_t@@@std@@P6AIPBEH0H@ZU?$less@V?$tuple@HHHW4arch_t@@@std@@@2@V?$allocator@U?$pair@$$CBV?$tuple@HHHW4arch_t@@@std@@P6AIPBEH0H@Z@std@@@2@@std@@QAEAAP6AIPBEH0H@Z$$QAV?$tuple@HHHW4arch_t@@@1@@Z ; std::map<std::tuple<int,int,int,enum arch_t>,unsigned int (__cdecl*)(unsigned char const *,int,unsigned char const *,int),std::less<std::tuple<int,int,int,enum arch_t> >,std::allocator<std::pair<std::tuple<int,int,int,enum arch_t> const ,unsigned int (__cdecl*)(unsigned char const *,int,unsigned char const *,int)> > >::operator[]

; 224  :     func_sad[make_tuple(8 , 1 , 2, USE_AVX)] = Sad16_sse2_avx<8 , 1,uint16_t>;

	lea	edx, DWORD PTR $T388[ebp]
	mov	DWORD PTR $T210[ebp], 5
	lea	ecx, DWORD PTR $T55[ebp]
	mov	DWORD PTR $T328[ebp], 2
	mov	DWORD PTR $T269[ebp], 1
	mov	DWORD PTR [eax], OFFSET ??$Sad16_sse2_avx@$07$01G@@YAIPBEH0H@Z ; Sad16_sse2_avx<8,2,unsigned short>
	lea	eax, DWORD PTR $T210[ebp]
	push	eax
	lea	eax, DWORD PTR $T328[ebp]
	mov	DWORD PTR $T388[ebp], 8
	push	eax
	lea	eax, DWORD PTR $T269[ebp]
	push	eax
	call	??$make_tuple@HHHW4arch_t@@@std@@YA?AV?$tuple@HHHW4arch_t@@@0@$$QAH00$$QAW4arch_t@@@Z ; std::make_tuple<int,int,int,enum arch_t>
	add	esp, 12					; 0000000cH
	lea	ecx, DWORD PTR _func_sad$[ebp]
	push	eax
	call	??A?$map@V?$tuple@HHHW4arch_t@@@std@@P6AIPBEH0H@ZU?$less@V?$tuple@HHHW4arch_t@@@std@@@2@V?$allocator@U?$pair@$$CBV?$tuple@HHHW4arch_t@@@std@@P6AIPBEH0H@Z@std@@@2@@std@@QAEAAP6AIPBEH0H@Z$$QAV?$tuple@HHHW4arch_t@@@1@@Z ; std::map<std::tuple<int,int,int,enum arch_t>,unsigned int (__cdecl*)(unsigned char const *,int,unsigned char const *,int),std::less<std::tuple<int,int,int,enum arch_t> >,std::allocator<std::pair<std::tuple<int,int,int,enum arch_t> const ,unsigned int (__cdecl*)(unsigned char const *,int,unsigned char const *,int)> > >::operator[]

; 225  :     func_sad[make_tuple(4 , 8 , 2, USE_AVX)] = Sad16_sse2_avx<4 , 8,uint16_t>;

	lea	edx, DWORD PTR $T387[ebp]
	mov	DWORD PTR $T209[ebp], 5
	lea	ecx, DWORD PTR $T54[ebp]
	mov	DWORD PTR $T327[ebp], 2
	mov	DWORD PTR $T268[ebp], 8
	mov	DWORD PTR [eax], OFFSET ??$Sad16_sse2_avx@$07$00G@@YAIPBEH0H@Z ; Sad16_sse2_avx<8,1,unsigned short>
	lea	eax, DWORD PTR $T209[ebp]
	push	eax
	lea	eax, DWORD PTR $T327[ebp]
	mov	DWORD PTR $T387[ebp], 4
	push	eax
	lea	eax, DWORD PTR $T268[ebp]
	push	eax
	call	??$make_tuple@HHHW4arch_t@@@std@@YA?AV?$tuple@HHHW4arch_t@@@0@$$QAH00$$QAW4arch_t@@@Z ; std::make_tuple<int,int,int,enum arch_t>
	add	esp, 12					; 0000000cH
	push	eax
	lea	ecx, DWORD PTR _func_sad$[ebp]
	call	??A?$map@V?$tuple@HHHW4arch_t@@@std@@P6AIPBEH0H@ZU?$less@V?$tuple@HHHW4arch_t@@@std@@@2@V?$allocator@U?$pair@$$CBV?$tuple@HHHW4arch_t@@@std@@P6AIPBEH0H@Z@std@@@2@@std@@QAEAAP6AIPBEH0H@Z$$QAV?$tuple@HHHW4arch_t@@@1@@Z ; std::map<std::tuple<int,int,int,enum arch_t>,unsigned int (__cdecl*)(unsigned char const *,int,unsigned char const *,int),std::less<std::tuple<int,int,int,enum arch_t> >,std::allocator<std::pair<std::tuple<int,int,int,enum arch_t> const ,unsigned int (__cdecl*)(unsigned char const *,int,unsigned char const *,int)> > >::operator[]

; 226  :     func_sad[make_tuple(4 , 4 , 2, USE_AVX)] = Sad16_sse2_avx<4 , 4,uint16_t>;

	lea	edx, DWORD PTR $T386[ebp]
	mov	DWORD PTR $T208[ebp], 5
	lea	ecx, DWORD PTR $T53[ebp]
	mov	DWORD PTR $T326[ebp], 2
	mov	DWORD PTR $T267[ebp], 4
	mov	DWORD PTR [eax], OFFSET ??$Sad16_sse2_avx@$03$07G@@YAIPBEH0H@Z ; Sad16_sse2_avx<4,8,unsigned short>
	lea	eax, DWORD PTR $T208[ebp]
	push	eax
	lea	eax, DWORD PTR $T326[ebp]
	mov	DWORD PTR $T386[ebp], 4
	push	eax
	lea	eax, DWORD PTR $T267[ebp]
	push	eax
	call	??$make_tuple@HHHW4arch_t@@@std@@YA?AV?$tuple@HHHW4arch_t@@@0@$$QAH00$$QAW4arch_t@@@Z ; std::make_tuple<int,int,int,enum arch_t>
	add	esp, 12					; 0000000cH
	lea	ecx, DWORD PTR _func_sad$[ebp]
	push	eax
	call	??A?$map@V?$tuple@HHHW4arch_t@@@std@@P6AIPBEH0H@ZU?$less@V?$tuple@HHHW4arch_t@@@std@@@2@V?$allocator@U?$pair@$$CBV?$tuple@HHHW4arch_t@@@std@@P6AIPBEH0H@Z@std@@@2@@std@@QAEAAP6AIPBEH0H@Z$$QAV?$tuple@HHHW4arch_t@@@1@@Z ; std::map<std::tuple<int,int,int,enum arch_t>,unsigned int (__cdecl*)(unsigned char const *,int,unsigned char const *,int),std::less<std::tuple<int,int,int,enum arch_t> >,std::allocator<std::pair<std::tuple<int,int,int,enum arch_t> const ,unsigned int (__cdecl*)(unsigned char const *,int,unsigned char const *,int)> > >::operator[]

; 227  :     func_sad[make_tuple(4 , 2 , 2, USE_AVX)] = Sad16_sse2_avx<4 , 2,uint16_t>;

	lea	edx, DWORD PTR $T385[ebp]
	mov	DWORD PTR $T207[ebp], 5
	lea	ecx, DWORD PTR $T52[ebp]
	mov	DWORD PTR $T325[ebp], 2
	mov	DWORD PTR $T266[ebp], 2
	mov	DWORD PTR [eax], OFFSET ??$Sad16_sse2_avx@$03$03G@@YAIPBEH0H@Z ; Sad16_sse2_avx<4,4,unsigned short>
	lea	eax, DWORD PTR $T207[ebp]
	push	eax
	lea	eax, DWORD PTR $T325[ebp]
	mov	DWORD PTR $T385[ebp], 4
	push	eax
	lea	eax, DWORD PTR $T266[ebp]
	push	eax
	call	??$make_tuple@HHHW4arch_t@@@std@@YA?AV?$tuple@HHHW4arch_t@@@0@$$QAH00$$QAW4arch_t@@@Z ; std::make_tuple<int,int,int,enum arch_t>
	add	esp, 12					; 0000000cH
	lea	ecx, DWORD PTR _func_sad$[ebp]
	push	eax
	call	??A?$map@V?$tuple@HHHW4arch_t@@@std@@P6AIPBEH0H@ZU?$less@V?$tuple@HHHW4arch_t@@@std@@@2@V?$allocator@U?$pair@$$CBV?$tuple@HHHW4arch_t@@@std@@P6AIPBEH0H@Z@std@@@2@@std@@QAEAAP6AIPBEH0H@Z$$QAV?$tuple@HHHW4arch_t@@@1@@Z ; std::map<std::tuple<int,int,int,enum arch_t>,unsigned int (__cdecl*)(unsigned char const *,int,unsigned char const *,int),std::less<std::tuple<int,int,int,enum arch_t> >,std::allocator<std::pair<std::tuple<int,int,int,enum arch_t> const ,unsigned int (__cdecl*)(unsigned char const *,int,unsigned char const *,int)> > >::operator[]

; 228  :     //func_sad[make_tuple(4 , 1 , 2, USE_AVX)] = Sad16_sse2_avx<4 , 1,uint16_t>; // 8 bytes with height=1 not supported for SSE2
; 229  : 
; 230  :     // PF SAD 16 SIMD intrinsic functions
; 231  :     // only for >=8 bytes widths
; 232  :     func_sad[make_tuple(32, 32, 2, USE_SSE2)] = Sad16_sse2<32, 32,uint16_t>;

	lea	edx, DWORD PTR $T384[ebp]
	mov	DWORD PTR $T206[ebp], 2
	lea	ecx, DWORD PTR $T51[ebp]
	mov	DWORD PTR $T324[ebp], 2
	mov	DWORD PTR $T265[ebp], 32		; 00000020H
	mov	DWORD PTR [eax], OFFSET ??$Sad16_sse2_avx@$03$01G@@YAIPBEH0H@Z ; Sad16_sse2_avx<4,2,unsigned short>
	lea	eax, DWORD PTR $T206[ebp]
	push	eax
	lea	eax, DWORD PTR $T324[ebp]
	mov	DWORD PTR $T384[ebp], 32		; 00000020H
	push	eax
	lea	eax, DWORD PTR $T265[ebp]
	push	eax
	call	??$make_tuple@HHHW4arch_t@@@std@@YA?AV?$tuple@HHHW4arch_t@@@0@$$QAH00$$QAW4arch_t@@@Z ; std::make_tuple<int,int,int,enum arch_t>
	add	esp, 12					; 0000000cH
	lea	ecx, DWORD PTR _func_sad$[ebp]
	push	eax
	call	??A?$map@V?$tuple@HHHW4arch_t@@@std@@P6AIPBEH0H@ZU?$less@V?$tuple@HHHW4arch_t@@@std@@@2@V?$allocator@U?$pair@$$CBV?$tuple@HHHW4arch_t@@@std@@P6AIPBEH0H@Z@std@@@2@@std@@QAEAAP6AIPBEH0H@Z$$QAV?$tuple@HHHW4arch_t@@@1@@Z ; std::map<std::tuple<int,int,int,enum arch_t>,unsigned int (__cdecl*)(unsigned char const *,int,unsigned char const *,int),std::less<std::tuple<int,int,int,enum arch_t> >,std::allocator<std::pair<std::tuple<int,int,int,enum arch_t> const ,unsigned int (__cdecl*)(unsigned char const *,int,unsigned char const *,int)> > >::operator[]

; 233  :     func_sad[make_tuple(32, 16, 2, USE_SSE2)] = Sad16_sse2<32, 16,uint16_t>;

	lea	edx, DWORD PTR $T383[ebp]
	mov	DWORD PTR $T205[ebp], 2
	lea	ecx, DWORD PTR $T50[ebp]
	mov	DWORD PTR $T323[ebp], 2
	mov	DWORD PTR $T264[ebp], 16		; 00000010H
	mov	DWORD PTR [eax], OFFSET ??$Sad16_sse2@$0CA@$0CA@G@@YAIPBEH0H@Z ; Sad16_sse2<32,32,unsigned short>
	lea	eax, DWORD PTR $T205[ebp]
	push	eax
	lea	eax, DWORD PTR $T323[ebp]
	mov	DWORD PTR $T383[ebp], 32		; 00000020H
	push	eax
	lea	eax, DWORD PTR $T264[ebp]
	push	eax
	call	??$make_tuple@HHHW4arch_t@@@std@@YA?AV?$tuple@HHHW4arch_t@@@0@$$QAH00$$QAW4arch_t@@@Z ; std::make_tuple<int,int,int,enum arch_t>
	add	esp, 12					; 0000000cH
	lea	ecx, DWORD PTR _func_sad$[ebp]
	push	eax
	call	??A?$map@V?$tuple@HHHW4arch_t@@@std@@P6AIPBEH0H@ZU?$less@V?$tuple@HHHW4arch_t@@@std@@@2@V?$allocator@U?$pair@$$CBV?$tuple@HHHW4arch_t@@@std@@P6AIPBEH0H@Z@std@@@2@@std@@QAEAAP6AIPBEH0H@Z$$QAV?$tuple@HHHW4arch_t@@@1@@Z ; std::map<std::tuple<int,int,int,enum arch_t>,unsigned int (__cdecl*)(unsigned char const *,int,unsigned char const *,int),std::less<std::tuple<int,int,int,enum arch_t> >,std::allocator<std::pair<std::tuple<int,int,int,enum arch_t> const ,unsigned int (__cdecl*)(unsigned char const *,int,unsigned char const *,int)> > >::operator[]

; 234  :     func_sad[make_tuple(32, 8 , 2, USE_SSE2)] = Sad16_sse2<32, 8,uint16_t>;

	mov	DWORD PTR $T204[ebp], 2
	mov	DWORD PTR $T322[ebp], 2
	mov	DWORD PTR $T263[ebp], 8
	mov	DWORD PTR [eax], OFFSET ??$Sad16_sse2@$0CA@$0BA@G@@YAIPBEH0H@Z ; Sad16_sse2<32,16,unsigned short>
	lea	eax, DWORD PTR $T204[ebp]
	mov	DWORD PTR $T382[ebp], 32		; 00000020H
	push	eax
	lea	eax, DWORD PTR $T322[ebp]
	push	eax
	lea	eax, DWORD PTR $T263[ebp]
	push	eax
	lea	edx, DWORD PTR $T382[ebp]
	lea	ecx, DWORD PTR $T49[ebp]
	call	??$make_tuple@HHHW4arch_t@@@std@@YA?AV?$tuple@HHHW4arch_t@@@0@$$QAH00$$QAW4arch_t@@@Z ; std::make_tuple<int,int,int,enum arch_t>
	add	esp, 12					; 0000000cH
	lea	ecx, DWORD PTR _func_sad$[ebp]
	push	eax
	call	??A?$map@V?$tuple@HHHW4arch_t@@@std@@P6AIPBEH0H@ZU?$less@V?$tuple@HHHW4arch_t@@@std@@@2@V?$allocator@U?$pair@$$CBV?$tuple@HHHW4arch_t@@@std@@P6AIPBEH0H@Z@std@@@2@@std@@QAEAAP6AIPBEH0H@Z$$QAV?$tuple@HHHW4arch_t@@@1@@Z ; std::map<std::tuple<int,int,int,enum arch_t>,unsigned int (__cdecl*)(unsigned char const *,int,unsigned char const *,int),std::less<std::tuple<int,int,int,enum arch_t> >,std::allocator<std::pair<std::tuple<int,int,int,enum arch_t> const ,unsigned int (__cdecl*)(unsigned char const *,int,unsigned char const *,int)> > >::operator[]

; 235  :     func_sad[make_tuple(16, 32, 2, USE_SSE2)] = Sad16_sse2<16, 32,uint16_t>;

	lea	edx, DWORD PTR $T381[ebp]
	mov	DWORD PTR $T203[ebp], 2
	lea	ecx, DWORD PTR $T48[ebp]
	mov	DWORD PTR $T321[ebp], 2
	mov	DWORD PTR $T262[ebp], 32		; 00000020H
	mov	DWORD PTR [eax], OFFSET ??$Sad16_sse2@$0CA@$07G@@YAIPBEH0H@Z ; Sad16_sse2<32,8,unsigned short>
	lea	eax, DWORD PTR $T203[ebp]
	push	eax
	lea	eax, DWORD PTR $T321[ebp]
	mov	DWORD PTR $T381[ebp], 16		; 00000010H
	push	eax
	lea	eax, DWORD PTR $T262[ebp]
	push	eax
	call	??$make_tuple@HHHW4arch_t@@@std@@YA?AV?$tuple@HHHW4arch_t@@@0@$$QAH00$$QAW4arch_t@@@Z ; std::make_tuple<int,int,int,enum arch_t>
	add	esp, 12					; 0000000cH
	lea	ecx, DWORD PTR _func_sad$[ebp]
	push	eax
	call	??A?$map@V?$tuple@HHHW4arch_t@@@std@@P6AIPBEH0H@ZU?$less@V?$tuple@HHHW4arch_t@@@std@@@2@V?$allocator@U?$pair@$$CBV?$tuple@HHHW4arch_t@@@std@@P6AIPBEH0H@Z@std@@@2@@std@@QAEAAP6AIPBEH0H@Z$$QAV?$tuple@HHHW4arch_t@@@1@@Z ; std::map<std::tuple<int,int,int,enum arch_t>,unsigned int (__cdecl*)(unsigned char const *,int,unsigned char const *,int),std::less<std::tuple<int,int,int,enum arch_t> >,std::allocator<std::pair<std::tuple<int,int,int,enum arch_t> const ,unsigned int (__cdecl*)(unsigned char const *,int,unsigned char const *,int)> > >::operator[]

; 236  :     func_sad[make_tuple(16, 16, 2, USE_SSE2)] = Sad16_sse2<16, 16,uint16_t>;

	lea	edx, DWORD PTR $T380[ebp]
	mov	DWORD PTR $T202[ebp], 2
	lea	ecx, DWORD PTR $T47[ebp]
	mov	DWORD PTR $T320[ebp], 2
	mov	DWORD PTR $T261[ebp], 16		; 00000010H
	mov	DWORD PTR [eax], OFFSET ??$Sad16_sse2@$0BA@$0CA@G@@YAIPBEH0H@Z ; Sad16_sse2<16,32,unsigned short>
	lea	eax, DWORD PTR $T202[ebp]
	push	eax
	lea	eax, DWORD PTR $T320[ebp]
	mov	DWORD PTR $T380[ebp], 16		; 00000010H
	push	eax
	lea	eax, DWORD PTR $T261[ebp]
	push	eax
	call	??$make_tuple@HHHW4arch_t@@@std@@YA?AV?$tuple@HHHW4arch_t@@@0@$$QAH00$$QAW4arch_t@@@Z ; std::make_tuple<int,int,int,enum arch_t>
	add	esp, 12					; 0000000cH
	lea	ecx, DWORD PTR _func_sad$[ebp]
	push	eax
	call	??A?$map@V?$tuple@HHHW4arch_t@@@std@@P6AIPBEH0H@ZU?$less@V?$tuple@HHHW4arch_t@@@std@@@2@V?$allocator@U?$pair@$$CBV?$tuple@HHHW4arch_t@@@std@@P6AIPBEH0H@Z@std@@@2@@std@@QAEAAP6AIPBEH0H@Z$$QAV?$tuple@HHHW4arch_t@@@1@@Z ; std::map<std::tuple<int,int,int,enum arch_t>,unsigned int (__cdecl*)(unsigned char const *,int,unsigned char const *,int),std::less<std::tuple<int,int,int,enum arch_t> >,std::allocator<std::pair<std::tuple<int,int,int,enum arch_t> const ,unsigned int (__cdecl*)(unsigned char const *,int,unsigned char const *,int)> > >::operator[]

; 237  :     func_sad[make_tuple(16, 8 , 2, USE_SSE2)] = Sad16_sse2<16, 8,uint16_t>;

	lea	edx, DWORD PTR $T379[ebp]
	mov	DWORD PTR $T201[ebp], 2
	lea	ecx, DWORD PTR $T46[ebp]
	mov	DWORD PTR $T319[ebp], 2
	mov	DWORD PTR $T260[ebp], 8
	mov	DWORD PTR [eax], OFFSET ??$Sad16_sse2@$0BA@$0BA@G@@YAIPBEH0H@Z ; Sad16_sse2<16,16,unsigned short>
	lea	eax, DWORD PTR $T201[ebp]
	push	eax
	lea	eax, DWORD PTR $T319[ebp]
	mov	DWORD PTR $T379[ebp], 16		; 00000010H
	push	eax
	lea	eax, DWORD PTR $T260[ebp]
	push	eax
	call	??$make_tuple@HHHW4arch_t@@@std@@YA?AV?$tuple@HHHW4arch_t@@@0@$$QAH00$$QAW4arch_t@@@Z ; std::make_tuple<int,int,int,enum arch_t>
	add	esp, 12					; 0000000cH
	lea	ecx, DWORD PTR _func_sad$[ebp]
	push	eax
	call	??A?$map@V?$tuple@HHHW4arch_t@@@std@@P6AIPBEH0H@ZU?$less@V?$tuple@HHHW4arch_t@@@std@@@2@V?$allocator@U?$pair@$$CBV?$tuple@HHHW4arch_t@@@std@@P6AIPBEH0H@Z@std@@@2@@std@@QAEAAP6AIPBEH0H@Z$$QAV?$tuple@HHHW4arch_t@@@1@@Z ; std::map<std::tuple<int,int,int,enum arch_t>,unsigned int (__cdecl*)(unsigned char const *,int,unsigned char const *,int),std::less<std::tuple<int,int,int,enum arch_t> >,std::allocator<std::pair<std::tuple<int,int,int,enum arch_t> const ,unsigned int (__cdecl*)(unsigned char const *,int,unsigned char const *,int)> > >::operator[]

; 238  :     func_sad[make_tuple(16, 4 , 2, USE_SSE2)] = Sad16_sse2<16, 4,uint16_t>;

	lea	edx, DWORD PTR $T378[ebp]
	mov	DWORD PTR $T200[ebp], 2
	lea	ecx, DWORD PTR $T45[ebp]
	mov	DWORD PTR $T318[ebp], 2
	mov	DWORD PTR $T259[ebp], 4
	mov	DWORD PTR [eax], OFFSET ??$Sad16_sse2@$0BA@$07G@@YAIPBEH0H@Z ; Sad16_sse2<16,8,unsigned short>
	lea	eax, DWORD PTR $T200[ebp]
	push	eax
	lea	eax, DWORD PTR $T318[ebp]
	mov	DWORD PTR $T378[ebp], 16		; 00000010H
	push	eax
	lea	eax, DWORD PTR $T259[ebp]
	push	eax
	call	??$make_tuple@HHHW4arch_t@@@std@@YA?AV?$tuple@HHHW4arch_t@@@0@$$QAH00$$QAW4arch_t@@@Z ; std::make_tuple<int,int,int,enum arch_t>
	add	esp, 12					; 0000000cH
	push	eax
	lea	ecx, DWORD PTR _func_sad$[ebp]
	call	??A?$map@V?$tuple@HHHW4arch_t@@@std@@P6AIPBEH0H@ZU?$less@V?$tuple@HHHW4arch_t@@@std@@@2@V?$allocator@U?$pair@$$CBV?$tuple@HHHW4arch_t@@@std@@P6AIPBEH0H@Z@std@@@2@@std@@QAEAAP6AIPBEH0H@Z$$QAV?$tuple@HHHW4arch_t@@@1@@Z ; std::map<std::tuple<int,int,int,enum arch_t>,unsigned int (__cdecl*)(unsigned char const *,int,unsigned char const *,int),std::less<std::tuple<int,int,int,enum arch_t> >,std::allocator<std::pair<std::tuple<int,int,int,enum arch_t> const ,unsigned int (__cdecl*)(unsigned char const *,int,unsigned char const *,int)> > >::operator[]

; 239  :     func_sad[make_tuple(16, 2 , 2, USE_SSE2)] = Sad16_sse2<16, 2,uint16_t>;

	lea	edx, DWORD PTR $T377[ebp]
	mov	DWORD PTR $T199[ebp], 2
	lea	ecx, DWORD PTR $T44[ebp]
	mov	DWORD PTR $T317[ebp], 2
	mov	DWORD PTR $T258[ebp], 2
	mov	DWORD PTR [eax], OFFSET ??$Sad16_sse2@$0BA@$03G@@YAIPBEH0H@Z ; Sad16_sse2<16,4,unsigned short>
	lea	eax, DWORD PTR $T199[ebp]
	push	eax
	lea	eax, DWORD PTR $T317[ebp]
	mov	DWORD PTR $T377[ebp], 16		; 00000010H
	push	eax
	lea	eax, DWORD PTR $T258[ebp]
	push	eax
	call	??$make_tuple@HHHW4arch_t@@@std@@YA?AV?$tuple@HHHW4arch_t@@@0@$$QAH00$$QAW4arch_t@@@Z ; std::make_tuple<int,int,int,enum arch_t>
	add	esp, 12					; 0000000cH
	lea	ecx, DWORD PTR _func_sad$[ebp]
	push	eax
	call	??A?$map@V?$tuple@HHHW4arch_t@@@std@@P6AIPBEH0H@ZU?$less@V?$tuple@HHHW4arch_t@@@std@@@2@V?$allocator@U?$pair@$$CBV?$tuple@HHHW4arch_t@@@std@@P6AIPBEH0H@Z@std@@@2@@std@@QAEAAP6AIPBEH0H@Z$$QAV?$tuple@HHHW4arch_t@@@1@@Z ; std::map<std::tuple<int,int,int,enum arch_t>,unsigned int (__cdecl*)(unsigned char const *,int,unsigned char const *,int),std::less<std::tuple<int,int,int,enum arch_t> >,std::allocator<std::pair<std::tuple<int,int,int,enum arch_t> const ,unsigned int (__cdecl*)(unsigned char const *,int,unsigned char const *,int)> > >::operator[]

; 240  :     func_sad[make_tuple(16, 1 , 2, USE_SSE2)] = Sad16_sse2<16, 1,uint16_t>;

	lea	edx, DWORD PTR $T376[ebp]
	mov	DWORD PTR $T198[ebp], 2
	lea	ecx, DWORD PTR $T43[ebp]
	mov	DWORD PTR $T316[ebp], 2
	mov	DWORD PTR $T257[ebp], 1
	mov	DWORD PTR [eax], OFFSET ??$Sad16_sse2@$0BA@$01G@@YAIPBEH0H@Z ; Sad16_sse2<16,2,unsigned short>
	lea	eax, DWORD PTR $T198[ebp]
	push	eax
	lea	eax, DWORD PTR $T316[ebp]
	mov	DWORD PTR $T376[ebp], 16		; 00000010H
	push	eax
	lea	eax, DWORD PTR $T257[ebp]
	push	eax
	call	??$make_tuple@HHHW4arch_t@@@std@@YA?AV?$tuple@HHHW4arch_t@@@0@$$QAH00$$QAW4arch_t@@@Z ; std::make_tuple<int,int,int,enum arch_t>
	add	esp, 12					; 0000000cH
	lea	ecx, DWORD PTR _func_sad$[ebp]
	push	eax
	call	??A?$map@V?$tuple@HHHW4arch_t@@@std@@P6AIPBEH0H@ZU?$less@V?$tuple@HHHW4arch_t@@@std@@@2@V?$allocator@U?$pair@$$CBV?$tuple@HHHW4arch_t@@@std@@P6AIPBEH0H@Z@std@@@2@@std@@QAEAAP6AIPBEH0H@Z$$QAV?$tuple@HHHW4arch_t@@@1@@Z ; std::map<std::tuple<int,int,int,enum arch_t>,unsigned int (__cdecl*)(unsigned char const *,int,unsigned char const *,int),std::less<std::tuple<int,int,int,enum arch_t> >,std::allocator<std::pair<std::tuple<int,int,int,enum arch_t> const ,unsigned int (__cdecl*)(unsigned char const *,int,unsigned char const *,int)> > >::operator[]

; 241  :     func_sad[make_tuple(8 , 16, 2, USE_SSE2)] = Sad16_sse2<8 , 16,uint16_t>;

	lea	edx, DWORD PTR $T375[ebp]
	mov	DWORD PTR $T197[ebp], 2
	lea	ecx, DWORD PTR $T42[ebp]
	mov	DWORD PTR $T315[ebp], 2
	mov	DWORD PTR $T256[ebp], 16		; 00000010H
	mov	DWORD PTR [eax], OFFSET ??$Sad16_sse2@$0BA@$00G@@YAIPBEH0H@Z ; Sad16_sse2<16,1,unsigned short>
	lea	eax, DWORD PTR $T197[ebp]
	push	eax
	lea	eax, DWORD PTR $T315[ebp]
	mov	DWORD PTR $T375[ebp], 8
	push	eax
	lea	eax, DWORD PTR $T256[ebp]
	push	eax
	call	??$make_tuple@HHHW4arch_t@@@std@@YA?AV?$tuple@HHHW4arch_t@@@0@$$QAH00$$QAW4arch_t@@@Z ; std::make_tuple<int,int,int,enum arch_t>
	add	esp, 12					; 0000000cH
	lea	ecx, DWORD PTR _func_sad$[ebp]
	push	eax
	call	??A?$map@V?$tuple@HHHW4arch_t@@@std@@P6AIPBEH0H@ZU?$less@V?$tuple@HHHW4arch_t@@@std@@@2@V?$allocator@U?$pair@$$CBV?$tuple@HHHW4arch_t@@@std@@P6AIPBEH0H@Z@std@@@2@@std@@QAEAAP6AIPBEH0H@Z$$QAV?$tuple@HHHW4arch_t@@@1@@Z ; std::map<std::tuple<int,int,int,enum arch_t>,unsigned int (__cdecl*)(unsigned char const *,int,unsigned char const *,int),std::less<std::tuple<int,int,int,enum arch_t> >,std::allocator<std::pair<std::tuple<int,int,int,enum arch_t> const ,unsigned int (__cdecl*)(unsigned char const *,int,unsigned char const *,int)> > >::operator[]

; 242  :     func_sad[make_tuple(8 , 8 , 2, USE_SSE2)] = Sad16_sse2<8 , 8,uint16_t>;

	lea	edx, DWORD PTR $T374[ebp]
	mov	DWORD PTR $T196[ebp], 2
	lea	ecx, DWORD PTR $T41[ebp]
	mov	DWORD PTR $T314[ebp], 2
	mov	DWORD PTR $T255[ebp], 8
	mov	DWORD PTR [eax], OFFSET ??$Sad16_sse2@$07$0BA@G@@YAIPBEH0H@Z ; Sad16_sse2<8,16,unsigned short>
	lea	eax, DWORD PTR $T196[ebp]
	push	eax
	lea	eax, DWORD PTR $T314[ebp]
	mov	DWORD PTR $T374[ebp], 8
	push	eax
	lea	eax, DWORD PTR $T255[ebp]
	push	eax
	call	??$make_tuple@HHHW4arch_t@@@std@@YA?AV?$tuple@HHHW4arch_t@@@0@$$QAH00$$QAW4arch_t@@@Z ; std::make_tuple<int,int,int,enum arch_t>
	add	esp, 12					; 0000000cH
	lea	ecx, DWORD PTR _func_sad$[ebp]
	push	eax
	call	??A?$map@V?$tuple@HHHW4arch_t@@@std@@P6AIPBEH0H@ZU?$less@V?$tuple@HHHW4arch_t@@@std@@@2@V?$allocator@U?$pair@$$CBV?$tuple@HHHW4arch_t@@@std@@P6AIPBEH0H@Z@std@@@2@@std@@QAEAAP6AIPBEH0H@Z$$QAV?$tuple@HHHW4arch_t@@@1@@Z ; std::map<std::tuple<int,int,int,enum arch_t>,unsigned int (__cdecl*)(unsigned char const *,int,unsigned char const *,int),std::less<std::tuple<int,int,int,enum arch_t> >,std::allocator<std::pair<std::tuple<int,int,int,enum arch_t> const ,unsigned int (__cdecl*)(unsigned char const *,int,unsigned char const *,int)> > >::operator[]

; 243  :     func_sad[make_tuple(8 , 4 , 2, USE_SSE2)] = Sad16_sse2<8 , 4,uint16_t>;

	mov	DWORD PTR $T195[ebp], 2
	mov	DWORD PTR $T313[ebp], 2
	mov	DWORD PTR $T254[ebp], 4
	mov	DWORD PTR [eax], OFFSET ??$Sad16_sse2@$07$07G@@YAIPBEH0H@Z ; Sad16_sse2<8,8,unsigned short>
	lea	eax, DWORD PTR $T195[ebp]
	mov	DWORD PTR $T373[ebp], 8
	push	eax
	lea	eax, DWORD PTR $T313[ebp]
	push	eax
	lea	eax, DWORD PTR $T254[ebp]
	push	eax
	lea	edx, DWORD PTR $T373[ebp]
	lea	ecx, DWORD PTR $T40[ebp]
	call	??$make_tuple@HHHW4arch_t@@@std@@YA?AV?$tuple@HHHW4arch_t@@@0@$$QAH00$$QAW4arch_t@@@Z ; std::make_tuple<int,int,int,enum arch_t>
	add	esp, 12					; 0000000cH
	lea	ecx, DWORD PTR _func_sad$[ebp]
	push	eax
	call	??A?$map@V?$tuple@HHHW4arch_t@@@std@@P6AIPBEH0H@ZU?$less@V?$tuple@HHHW4arch_t@@@std@@@2@V?$allocator@U?$pair@$$CBV?$tuple@HHHW4arch_t@@@std@@P6AIPBEH0H@Z@std@@@2@@std@@QAEAAP6AIPBEH0H@Z$$QAV?$tuple@HHHW4arch_t@@@1@@Z ; std::map<std::tuple<int,int,int,enum arch_t>,unsigned int (__cdecl*)(unsigned char const *,int,unsigned char const *,int),std::less<std::tuple<int,int,int,enum arch_t> >,std::allocator<std::pair<std::tuple<int,int,int,enum arch_t> const ,unsigned int (__cdecl*)(unsigned char const *,int,unsigned char const *,int)> > >::operator[]

; 244  :     func_sad[make_tuple(8 , 2 , 2, USE_SSE2)] = Sad16_sse2<8 , 2,uint16_t>;

	lea	edx, DWORD PTR $T372[ebp]
	mov	DWORD PTR $T194[ebp], 2
	lea	ecx, DWORD PTR $T39[ebp]
	mov	DWORD PTR $T312[ebp], 2
	mov	DWORD PTR $T253[ebp], 2
	mov	DWORD PTR [eax], OFFSET ??$Sad16_sse2@$07$03G@@YAIPBEH0H@Z ; Sad16_sse2<8,4,unsigned short>
	lea	eax, DWORD PTR $T194[ebp]
	push	eax
	lea	eax, DWORD PTR $T312[ebp]
	mov	DWORD PTR $T372[ebp], 8
	push	eax
	lea	eax, DWORD PTR $T253[ebp]
	push	eax
	call	??$make_tuple@HHHW4arch_t@@@std@@YA?AV?$tuple@HHHW4arch_t@@@0@$$QAH00$$QAW4arch_t@@@Z ; std::make_tuple<int,int,int,enum arch_t>
	add	esp, 12					; 0000000cH
	lea	ecx, DWORD PTR _func_sad$[ebp]
	push	eax
	call	??A?$map@V?$tuple@HHHW4arch_t@@@std@@P6AIPBEH0H@ZU?$less@V?$tuple@HHHW4arch_t@@@std@@@2@V?$allocator@U?$pair@$$CBV?$tuple@HHHW4arch_t@@@std@@P6AIPBEH0H@Z@std@@@2@@std@@QAEAAP6AIPBEH0H@Z$$QAV?$tuple@HHHW4arch_t@@@1@@Z ; std::map<std::tuple<int,int,int,enum arch_t>,unsigned int (__cdecl*)(unsigned char const *,int,unsigned char const *,int),std::less<std::tuple<int,int,int,enum arch_t> >,std::allocator<std::pair<std::tuple<int,int,int,enum arch_t> const ,unsigned int (__cdecl*)(unsigned char const *,int,unsigned char const *,int)> > >::operator[]

; 245  :     func_sad[make_tuple(8 , 1 , 2, USE_SSE2)] = Sad16_sse2<8 , 1,uint16_t>;

	lea	edx, DWORD PTR $T371[ebp]
	mov	DWORD PTR $T193[ebp], 2
	lea	ecx, DWORD PTR $T38[ebp]
	mov	DWORD PTR $T311[ebp], 2
	mov	DWORD PTR $T252[ebp], 1
	mov	DWORD PTR [eax], OFFSET ??$Sad16_sse2@$07$01G@@YAIPBEH0H@Z ; Sad16_sse2<8,2,unsigned short>
	lea	eax, DWORD PTR $T193[ebp]
	push	eax
	lea	eax, DWORD PTR $T311[ebp]
	mov	DWORD PTR $T371[ebp], 8
	push	eax
	lea	eax, DWORD PTR $T252[ebp]
	push	eax
	call	??$make_tuple@HHHW4arch_t@@@std@@YA?AV?$tuple@HHHW4arch_t@@@0@$$QAH00$$QAW4arch_t@@@Z ; std::make_tuple<int,int,int,enum arch_t>
	add	esp, 12					; 0000000cH
	lea	ecx, DWORD PTR _func_sad$[ebp]
	push	eax
	call	??A?$map@V?$tuple@HHHW4arch_t@@@std@@P6AIPBEH0H@ZU?$less@V?$tuple@HHHW4arch_t@@@std@@@2@V?$allocator@U?$pair@$$CBV?$tuple@HHHW4arch_t@@@std@@P6AIPBEH0H@Z@std@@@2@@std@@QAEAAP6AIPBEH0H@Z$$QAV?$tuple@HHHW4arch_t@@@1@@Z ; std::map<std::tuple<int,int,int,enum arch_t>,unsigned int (__cdecl*)(unsigned char const *,int,unsigned char const *,int),std::less<std::tuple<int,int,int,enum arch_t> >,std::allocator<std::pair<std::tuple<int,int,int,enum arch_t> const ,unsigned int (__cdecl*)(unsigned char const *,int,unsigned char const *,int)> > >::operator[]

; 246  :     func_sad[make_tuple(4 , 8 , 2, USE_SSE2)] = Sad16_sse2<4 , 8,uint16_t>;

	lea	edx, DWORD PTR $T370[ebp]
	mov	DWORD PTR $T192[ebp], 2
	lea	ecx, DWORD PTR $T37[ebp]
	mov	DWORD PTR $T310[ebp], 2
	mov	DWORD PTR $T251[ebp], 8
	mov	DWORD PTR [eax], OFFSET ??$Sad16_sse2@$07$00G@@YAIPBEH0H@Z ; Sad16_sse2<8,1,unsigned short>
	lea	eax, DWORD PTR $T192[ebp]
	push	eax
	lea	eax, DWORD PTR $T310[ebp]
	mov	DWORD PTR $T370[ebp], 4
	push	eax
	lea	eax, DWORD PTR $T251[ebp]
	push	eax
	call	??$make_tuple@HHHW4arch_t@@@std@@YA?AV?$tuple@HHHW4arch_t@@@0@$$QAH00$$QAW4arch_t@@@Z ; std::make_tuple<int,int,int,enum arch_t>
	add	esp, 12					; 0000000cH
	lea	ecx, DWORD PTR _func_sad$[ebp]
	push	eax
	call	??A?$map@V?$tuple@HHHW4arch_t@@@std@@P6AIPBEH0H@ZU?$less@V?$tuple@HHHW4arch_t@@@std@@@2@V?$allocator@U?$pair@$$CBV?$tuple@HHHW4arch_t@@@std@@P6AIPBEH0H@Z@std@@@2@@std@@QAEAAP6AIPBEH0H@Z$$QAV?$tuple@HHHW4arch_t@@@1@@Z ; std::map<std::tuple<int,int,int,enum arch_t>,unsigned int (__cdecl*)(unsigned char const *,int,unsigned char const *,int),std::less<std::tuple<int,int,int,enum arch_t> >,std::allocator<std::pair<std::tuple<int,int,int,enum arch_t> const ,unsigned int (__cdecl*)(unsigned char const *,int,unsigned char const *,int)> > >::operator[]

; 247  :     func_sad[make_tuple(4 , 4 , 2, USE_SSE2)] = Sad16_sse2<4 , 4,uint16_t>;

	lea	edx, DWORD PTR $T369[ebp]
	mov	DWORD PTR $T191[ebp], 2
	lea	ecx, DWORD PTR $T36[ebp]
	mov	DWORD PTR $T309[ebp], 2
	mov	DWORD PTR $T250[ebp], 4
	mov	DWORD PTR [eax], OFFSET ??$Sad16_sse2@$03$07G@@YAIPBEH0H@Z ; Sad16_sse2<4,8,unsigned short>
	lea	eax, DWORD PTR $T191[ebp]
	push	eax
	lea	eax, DWORD PTR $T309[ebp]
	mov	DWORD PTR $T369[ebp], 4
	push	eax
	lea	eax, DWORD PTR $T250[ebp]
	push	eax
	call	??$make_tuple@HHHW4arch_t@@@std@@YA?AV?$tuple@HHHW4arch_t@@@0@$$QAH00$$QAW4arch_t@@@Z ; std::make_tuple<int,int,int,enum arch_t>
	add	esp, 12					; 0000000cH
	push	eax
	lea	ecx, DWORD PTR _func_sad$[ebp]
	call	??A?$map@V?$tuple@HHHW4arch_t@@@std@@P6AIPBEH0H@ZU?$less@V?$tuple@HHHW4arch_t@@@std@@@2@V?$allocator@U?$pair@$$CBV?$tuple@HHHW4arch_t@@@std@@P6AIPBEH0H@Z@std@@@2@@std@@QAEAAP6AIPBEH0H@Z$$QAV?$tuple@HHHW4arch_t@@@1@@Z ; std::map<std::tuple<int,int,int,enum arch_t>,unsigned int (__cdecl*)(unsigned char const *,int,unsigned char const *,int),std::less<std::tuple<int,int,int,enum arch_t> >,std::allocator<std::pair<std::tuple<int,int,int,enum arch_t> const ,unsigned int (__cdecl*)(unsigned char const *,int,unsigned char const *,int)> > >::operator[]

; 248  :     func_sad[make_tuple(4 , 2 , 2, USE_SSE2)] = Sad16_sse2<4 , 2,uint16_t>;

	lea	edx, DWORD PTR $T368[ebp]
	mov	DWORD PTR $T190[ebp], 2
	lea	ecx, DWORD PTR $T35[ebp]
	mov	DWORD PTR $T308[ebp], 2
	mov	DWORD PTR $T249[ebp], 2
	mov	DWORD PTR [eax], OFFSET ??$Sad16_sse2@$03$03G@@YAIPBEH0H@Z ; Sad16_sse2<4,4,unsigned short>
	lea	eax, DWORD PTR $T190[ebp]
	push	eax
	lea	eax, DWORD PTR $T308[ebp]
	mov	DWORD PTR $T368[ebp], 4
	push	eax
	lea	eax, DWORD PTR $T249[ebp]
	push	eax
	call	??$make_tuple@HHHW4arch_t@@@std@@YA?AV?$tuple@HHHW4arch_t@@@0@$$QAH00$$QAW4arch_t@@@Z ; std::make_tuple<int,int,int,enum arch_t>
	add	esp, 12					; 0000000cH
	lea	ecx, DWORD PTR _func_sad$[ebp]
	push	eax
	call	??A?$map@V?$tuple@HHHW4arch_t@@@std@@P6AIPBEH0H@ZU?$less@V?$tuple@HHHW4arch_t@@@std@@@2@V?$allocator@U?$pair@$$CBV?$tuple@HHHW4arch_t@@@std@@P6AIPBEH0H@Z@std@@@2@@std@@QAEAAP6AIPBEH0H@Z$$QAV?$tuple@HHHW4arch_t@@@1@@Z ; std::map<std::tuple<int,int,int,enum arch_t>,unsigned int (__cdecl*)(unsigned char const *,int,unsigned char const *,int),std::less<std::tuple<int,int,int,enum arch_t> >,std::allocator<std::pair<std::tuple<int,int,int,enum arch_t> const ,unsigned int (__cdecl*)(unsigned char const *,int,unsigned char const *,int)> > >::operator[]

; 249  :     //func_sad[make_tuple(4 , 1 , 2, USE_SSE2)] = Sad16_sse2<4 , 1,uint16_t>; // 8 bytes with height=1 not supported for SSE2
; 250  :     
; 251  :     // PF uint8_t sse2 versions. test. 
; 252  :     // a bit slower than the existing external asm. At least for MSVC
; 253  :     // >=8 bytes
; 254  : #ifdef SAD_8BIT_INSTINSICS
; 255  :     func_sad[make_tuple(32, 32, 1, USE_SSE2)] = Sad16_sse2<32, 32,uint8_t>;
; 256  :     func_sad[make_tuple(32, 16, 1, USE_SSE2)] = Sad16_sse2<32, 16,uint8_t>;
; 257  :     func_sad[make_tuple(32, 8 , 1, USE_SSE2)] = Sad16_sse2<32, 8,uint8_t>;
; 258  :     func_sad[make_tuple(16, 32, 1, USE_SSE2)] = Sad16_sse2<16, 32,uint8_t>;
; 259  :     func_sad[make_tuple(16, 16, 1, USE_SSE2)] = Sad16_sse2<16, 16,uint8_t>;
; 260  :     func_sad[make_tuple(16, 8 , 1, USE_SSE2)] = Sad16_sse2<16, 8,uint8_t>;
; 261  :     func_sad[make_tuple(16, 4 , 1, USE_SSE2)] = Sad16_sse2<16, 4,uint8_t>;
; 262  :     func_sad[make_tuple(16, 2 , 1, USE_SSE2)] = Sad16_sse2<16, 2,uint8_t>;
; 263  :     func_sad[make_tuple(16, 1 , 1, USE_SSE2)] = Sad16_sse2<16, 1,uint8_t>;
; 264  :     func_sad[make_tuple(8 , 16, 1, USE_SSE2)] = Sad16_sse2<8 , 16,uint8_t>;
; 265  :     func_sad[make_tuple(8 , 8 , 1, USE_SSE2)] = Sad16_sse2<8 , 8,uint8_t>;
; 266  :     func_sad[make_tuple(8 , 4 , 1, USE_SSE2)] = Sad16_sse2<8 , 4,uint8_t>;
; 267  :     func_sad[make_tuple(8 , 2 , 1, USE_SSE2)] = Sad16_sse2<8 , 2,uint8_t>;
; 268  :     func_sad[make_tuple(8 , 1 , 1, USE_SSE2)] = Sad16_sse2<8 , 1,uint8_t>;
; 269  : #else
; 270  :     func_sad[make_tuple(32, 32, 1, USE_SSE2)] = Sad32x32_iSSE;

	lea	edx, DWORD PTR $T367[ebp]
	mov	DWORD PTR $T189[ebp], 2
	lea	ecx, DWORD PTR $T34[ebp]
	mov	DWORD PTR $T307[ebp], 1
	mov	DWORD PTR $T248[ebp], 32		; 00000020H
	mov	DWORD PTR [eax], OFFSET ??$Sad16_sse2@$03$01G@@YAIPBEH0H@Z ; Sad16_sse2<4,2,unsigned short>
	lea	eax, DWORD PTR $T189[ebp]
	push	eax
	lea	eax, DWORD PTR $T307[ebp]
	mov	DWORD PTR $T367[ebp], 32		; 00000020H
	push	eax
	lea	eax, DWORD PTR $T248[ebp]
	push	eax
	call	??$make_tuple@HHHW4arch_t@@@std@@YA?AV?$tuple@HHHW4arch_t@@@0@$$QAH00$$QAW4arch_t@@@Z ; std::make_tuple<int,int,int,enum arch_t>
	add	esp, 12					; 0000000cH
	lea	ecx, DWORD PTR _func_sad$[ebp]
	push	eax
	call	??A?$map@V?$tuple@HHHW4arch_t@@@std@@P6AIPBEH0H@ZU?$less@V?$tuple@HHHW4arch_t@@@std@@@2@V?$allocator@U?$pair@$$CBV?$tuple@HHHW4arch_t@@@std@@P6AIPBEH0H@Z@std@@@2@@std@@QAEAAP6AIPBEH0H@Z$$QAV?$tuple@HHHW4arch_t@@@1@@Z ; std::map<std::tuple<int,int,int,enum arch_t>,unsigned int (__cdecl*)(unsigned char const *,int,unsigned char const *,int),std::less<std::tuple<int,int,int,enum arch_t> >,std::allocator<std::pair<std::tuple<int,int,int,enum arch_t> const ,unsigned int (__cdecl*)(unsigned char const *,int,unsigned char const *,int)> > >::operator[]

; 271  :     func_sad[make_tuple(32, 16, 1, USE_SSE2)] = Sad32x16_iSSE;

	lea	edx, DWORD PTR $T366[ebp]
	mov	DWORD PTR $T188[ebp], 2
	lea	ecx, DWORD PTR $T33[ebp]
	mov	DWORD PTR $T306[ebp], 1
	mov	DWORD PTR $T247[ebp], 16		; 00000010H
	mov	DWORD PTR [eax], OFFSET _Sad32x32_iSSE
	lea	eax, DWORD PTR $T188[ebp]
	push	eax
	lea	eax, DWORD PTR $T306[ebp]
	mov	DWORD PTR $T366[ebp], 32		; 00000020H
	push	eax
	lea	eax, DWORD PTR $T247[ebp]
	push	eax
	call	??$make_tuple@HHHW4arch_t@@@std@@YA?AV?$tuple@HHHW4arch_t@@@0@$$QAH00$$QAW4arch_t@@@Z ; std::make_tuple<int,int,int,enum arch_t>
	add	esp, 12					; 0000000cH
	lea	ecx, DWORD PTR _func_sad$[ebp]
	push	eax
	call	??A?$map@V?$tuple@HHHW4arch_t@@@std@@P6AIPBEH0H@ZU?$less@V?$tuple@HHHW4arch_t@@@std@@@2@V?$allocator@U?$pair@$$CBV?$tuple@HHHW4arch_t@@@std@@P6AIPBEH0H@Z@std@@@2@@std@@QAEAAP6AIPBEH0H@Z$$QAV?$tuple@HHHW4arch_t@@@1@@Z ; std::map<std::tuple<int,int,int,enum arch_t>,unsigned int (__cdecl*)(unsigned char const *,int,unsigned char const *,int),std::less<std::tuple<int,int,int,enum arch_t> >,std::allocator<std::pair<std::tuple<int,int,int,enum arch_t> const ,unsigned int (__cdecl*)(unsigned char const *,int,unsigned char const *,int)> > >::operator[]

; 272  :     func_sad[make_tuple(32, 8 , 1, USE_SSE2)] = Sad32x8_iSSE;

	lea	edx, DWORD PTR $T365[ebp]
	mov	DWORD PTR $T187[ebp], 2
	lea	ecx, DWORD PTR $T32[ebp]
	mov	DWORD PTR $T305[ebp], 1
	mov	DWORD PTR $T246[ebp], 8
	mov	DWORD PTR [eax], OFFSET _Sad32x16_iSSE
	lea	eax, DWORD PTR $T187[ebp]
	push	eax
	lea	eax, DWORD PTR $T305[ebp]
	mov	DWORD PTR $T365[ebp], 32		; 00000020H
	push	eax
	lea	eax, DWORD PTR $T246[ebp]
	push	eax
	call	??$make_tuple@HHHW4arch_t@@@std@@YA?AV?$tuple@HHHW4arch_t@@@0@$$QAH00$$QAW4arch_t@@@Z ; std::make_tuple<int,int,int,enum arch_t>
	add	esp, 12					; 0000000cH
	lea	ecx, DWORD PTR _func_sad$[ebp]
	push	eax
	call	??A?$map@V?$tuple@HHHW4arch_t@@@std@@P6AIPBEH0H@ZU?$less@V?$tuple@HHHW4arch_t@@@std@@@2@V?$allocator@U?$pair@$$CBV?$tuple@HHHW4arch_t@@@std@@P6AIPBEH0H@Z@std@@@2@@std@@QAEAAP6AIPBEH0H@Z$$QAV?$tuple@HHHW4arch_t@@@1@@Z ; std::map<std::tuple<int,int,int,enum arch_t>,unsigned int (__cdecl*)(unsigned char const *,int,unsigned char const *,int),std::less<std::tuple<int,int,int,enum arch_t> >,std::allocator<std::pair<std::tuple<int,int,int,enum arch_t> const ,unsigned int (__cdecl*)(unsigned char const *,int,unsigned char const *,int)> > >::operator[]

; 273  :     func_sad[make_tuple(16, 32, 1, USE_SSE2)] = Sad16x32_iSSE;

	mov	DWORD PTR $T186[ebp], 2
	mov	DWORD PTR $T304[ebp], 1
	mov	DWORD PTR $T245[ebp], 32		; 00000020H
	mov	DWORD PTR [eax], OFFSET _Sad32x8_iSSE
	lea	eax, DWORD PTR $T186[ebp]
	mov	DWORD PTR $T364[ebp], 16		; 00000010H
	push	eax
	lea	eax, DWORD PTR $T304[ebp]
	push	eax
	lea	eax, DWORD PTR $T245[ebp]
	push	eax
	lea	edx, DWORD PTR $T364[ebp]
	lea	ecx, DWORD PTR $T31[ebp]
	call	??$make_tuple@HHHW4arch_t@@@std@@YA?AV?$tuple@HHHW4arch_t@@@0@$$QAH00$$QAW4arch_t@@@Z ; std::make_tuple<int,int,int,enum arch_t>
	add	esp, 12					; 0000000cH
	lea	ecx, DWORD PTR _func_sad$[ebp]
	push	eax
	call	??A?$map@V?$tuple@HHHW4arch_t@@@std@@P6AIPBEH0H@ZU?$less@V?$tuple@HHHW4arch_t@@@std@@@2@V?$allocator@U?$pair@$$CBV?$tuple@HHHW4arch_t@@@std@@P6AIPBEH0H@Z@std@@@2@@std@@QAEAAP6AIPBEH0H@Z$$QAV?$tuple@HHHW4arch_t@@@1@@Z ; std::map<std::tuple<int,int,int,enum arch_t>,unsigned int (__cdecl*)(unsigned char const *,int,unsigned char const *,int),std::less<std::tuple<int,int,int,enum arch_t> >,std::allocator<std::pair<std::tuple<int,int,int,enum arch_t> const ,unsigned int (__cdecl*)(unsigned char const *,int,unsigned char const *,int)> > >::operator[]

; 274  :     func_sad[make_tuple(16, 16, 1, USE_SSE2)] = x264_pixel_sad_16x16_sse2;

	lea	edx, DWORD PTR $T363[ebp]
	mov	DWORD PTR $T185[ebp], 2
	lea	ecx, DWORD PTR $T30[ebp]
	mov	DWORD PTR $T303[ebp], 1
	mov	DWORD PTR $T244[ebp], 16		; 00000010H
	mov	DWORD PTR [eax], OFFSET _Sad16x32_iSSE
	lea	eax, DWORD PTR $T185[ebp]
	push	eax
	lea	eax, DWORD PTR $T303[ebp]
	mov	DWORD PTR $T363[ebp], 16		; 00000010H
	push	eax
	lea	eax, DWORD PTR $T244[ebp]
	push	eax
	call	??$make_tuple@HHHW4arch_t@@@std@@YA?AV?$tuple@HHHW4arch_t@@@0@$$QAH00$$QAW4arch_t@@@Z ; std::make_tuple<int,int,int,enum arch_t>
	add	esp, 12					; 0000000cH
	lea	ecx, DWORD PTR _func_sad$[ebp]
	push	eax
	call	??A?$map@V?$tuple@HHHW4arch_t@@@std@@P6AIPBEH0H@ZU?$less@V?$tuple@HHHW4arch_t@@@std@@@2@V?$allocator@U?$pair@$$CBV?$tuple@HHHW4arch_t@@@std@@P6AIPBEH0H@Z@std@@@2@@std@@QAEAAP6AIPBEH0H@Z$$QAV?$tuple@HHHW4arch_t@@@1@@Z ; std::map<std::tuple<int,int,int,enum arch_t>,unsigned int (__cdecl*)(unsigned char const *,int,unsigned char const *,int),std::less<std::tuple<int,int,int,enum arch_t> >,std::allocator<std::pair<std::tuple<int,int,int,enum arch_t> const ,unsigned int (__cdecl*)(unsigned char const *,int,unsigned char const *,int)> > >::operator[]

; 275  :     func_sad[make_tuple(16, 8 , 1, USE_SSE2)] = x264_pixel_sad_16x8_sse2;

	lea	edx, DWORD PTR $T362[ebp]
	mov	DWORD PTR $T184[ebp], 2
	lea	ecx, DWORD PTR $T29[ebp]
	mov	DWORD PTR $T302[ebp], 1
	mov	DWORD PTR $T243[ebp], 8
	mov	DWORD PTR [eax], OFFSET _x264_pixel_sad_16x16_sse2
	lea	eax, DWORD PTR $T184[ebp]
	push	eax
	lea	eax, DWORD PTR $T302[ebp]
	mov	DWORD PTR $T362[ebp], 16		; 00000010H
	push	eax
	lea	eax, DWORD PTR $T243[ebp]
	push	eax
	call	??$make_tuple@HHHW4arch_t@@@std@@YA?AV?$tuple@HHHW4arch_t@@@0@$$QAH00$$QAW4arch_t@@@Z ; std::make_tuple<int,int,int,enum arch_t>
	add	esp, 12					; 0000000cH
	lea	ecx, DWORD PTR _func_sad$[ebp]
	push	eax
	call	??A?$map@V?$tuple@HHHW4arch_t@@@std@@P6AIPBEH0H@ZU?$less@V?$tuple@HHHW4arch_t@@@std@@@2@V?$allocator@U?$pair@$$CBV?$tuple@HHHW4arch_t@@@std@@P6AIPBEH0H@Z@std@@@2@@std@@QAEAAP6AIPBEH0H@Z$$QAV?$tuple@HHHW4arch_t@@@1@@Z ; std::map<std::tuple<int,int,int,enum arch_t>,unsigned int (__cdecl*)(unsigned char const *,int,unsigned char const *,int),std::less<std::tuple<int,int,int,enum arch_t> >,std::allocator<std::pair<std::tuple<int,int,int,enum arch_t> const ,unsigned int (__cdecl*)(unsigned char const *,int,unsigned char const *,int)> > >::operator[]

; 276  :     func_sad[make_tuple(16, 4 , 1, USE_SSE2)] = x264_pixel_sad_16x4_mmx2;

	lea	edx, DWORD PTR $T361[ebp]
	mov	DWORD PTR $T183[ebp], 2
	lea	ecx, DWORD PTR $T28[ebp]
	mov	DWORD PTR $T301[ebp], 1
	mov	DWORD PTR $T242[ebp], 4
	mov	DWORD PTR [eax], OFFSET _x264_pixel_sad_16x8_sse2
	lea	eax, DWORD PTR $T183[ebp]
	push	eax
	lea	eax, DWORD PTR $T301[ebp]
	mov	DWORD PTR $T361[ebp], 16		; 00000010H
	push	eax
	lea	eax, DWORD PTR $T242[ebp]
	push	eax
	call	??$make_tuple@HHHW4arch_t@@@std@@YA?AV?$tuple@HHHW4arch_t@@@0@$$QAH00$$QAW4arch_t@@@Z ; std::make_tuple<int,int,int,enum arch_t>
	add	esp, 12					; 0000000cH
	lea	ecx, DWORD PTR _func_sad$[ebp]
	push	eax
	call	??A?$map@V?$tuple@HHHW4arch_t@@@std@@P6AIPBEH0H@ZU?$less@V?$tuple@HHHW4arch_t@@@std@@@2@V?$allocator@U?$pair@$$CBV?$tuple@HHHW4arch_t@@@std@@P6AIPBEH0H@Z@std@@@2@@std@@QAEAAP6AIPBEH0H@Z$$QAV?$tuple@HHHW4arch_t@@@1@@Z ; std::map<std::tuple<int,int,int,enum arch_t>,unsigned int (__cdecl*)(unsigned char const *,int,unsigned char const *,int),std::less<std::tuple<int,int,int,enum arch_t> >,std::allocator<std::pair<std::tuple<int,int,int,enum arch_t> const ,unsigned int (__cdecl*)(unsigned char const *,int,unsigned char const *,int)> > >::operator[]

; 277  :     func_sad[make_tuple(16, 2 , 1, USE_SSE2)] = x264_pixel_sad_16x2_mmx2;

	lea	edx, DWORD PTR $T360[ebp]
	mov	DWORD PTR $T182[ebp], 2
	lea	ecx, DWORD PTR $T27[ebp]
	mov	DWORD PTR $T300[ebp], 1
	mov	DWORD PTR $T241[ebp], 2
	mov	DWORD PTR [eax], OFFSET _x264_pixel_sad_16x4_mmx2
	lea	eax, DWORD PTR $T182[ebp]
	push	eax
	lea	eax, DWORD PTR $T300[ebp]
	mov	DWORD PTR $T360[ebp], 16		; 00000010H
	push	eax
	lea	eax, DWORD PTR $T241[ebp]
	push	eax
	call	??$make_tuple@HHHW4arch_t@@@std@@YA?AV?$tuple@HHHW4arch_t@@@0@$$QAH00$$QAW4arch_t@@@Z ; std::make_tuple<int,int,int,enum arch_t>
	add	esp, 12					; 0000000cH
	push	eax
	lea	ecx, DWORD PTR _func_sad$[ebp]
	call	??A?$map@V?$tuple@HHHW4arch_t@@@std@@P6AIPBEH0H@ZU?$less@V?$tuple@HHHW4arch_t@@@std@@@2@V?$allocator@U?$pair@$$CBV?$tuple@HHHW4arch_t@@@std@@P6AIPBEH0H@Z@std@@@2@@std@@QAEAAP6AIPBEH0H@Z$$QAV?$tuple@HHHW4arch_t@@@1@@Z ; std::map<std::tuple<int,int,int,enum arch_t>,unsigned int (__cdecl*)(unsigned char const *,int,unsigned char const *,int),std::less<std::tuple<int,int,int,enum arch_t> >,std::allocator<std::pair<std::tuple<int,int,int,enum arch_t> const ,unsigned int (__cdecl*)(unsigned char const *,int,unsigned char const *,int)> > >::operator[]

; 278  :     func_sad[make_tuple(8,  16, 1, USE_SSE2)] = x264_pixel_sad_8x16_mmx2;

	lea	edx, DWORD PTR $T359[ebp]
	mov	DWORD PTR $T181[ebp], 2
	lea	ecx, DWORD PTR $T26[ebp]
	mov	DWORD PTR $T299[ebp], 1
	mov	DWORD PTR $T240[ebp], 16		; 00000010H
	mov	DWORD PTR [eax], OFFSET _x264_pixel_sad_16x2_mmx2
	lea	eax, DWORD PTR $T181[ebp]
	push	eax
	lea	eax, DWORD PTR $T299[ebp]
	mov	DWORD PTR $T359[ebp], 8
	push	eax
	lea	eax, DWORD PTR $T240[ebp]
	push	eax
	call	??$make_tuple@HHHW4arch_t@@@std@@YA?AV?$tuple@HHHW4arch_t@@@0@$$QAH00$$QAW4arch_t@@@Z ; std::make_tuple<int,int,int,enum arch_t>
	add	esp, 12					; 0000000cH
	lea	ecx, DWORD PTR _func_sad$[ebp]
	push	eax
