; Listing generated by Microsoft (R) Optimizing Compiler Version 19.00.24215.1 

	TITLE	c:\github\mvtools\sources\sadfunctions_avx.cpp
	.686P
	.XMM
	include listing.inc
	.model	flat

INCLUDELIB OLDNAMES

?piecewise_construct@std@@3Upiecewise_construct_t@1@B	ORG $+1 ; std::piecewise_construct
PUBLIC	?get_sad_avx_C_function@@YAP6AIPBEH0H@ZHHHW4arch_t@@@Z ; get_sad_avx_C_function
PUBLIC	??$Sad16_sse2_avx@$03$01G@@YAIPBEH0H@Z		; Sad16_sse2_avx<4,2,unsigned short>
PUBLIC	??$Sad16_sse2_avx@$03$03G@@YAIPBEH0H@Z		; Sad16_sse2_avx<4,4,unsigned short>
PUBLIC	??$Sad16_sse2_avx@$03$07G@@YAIPBEH0H@Z		; Sad16_sse2_avx<4,8,unsigned short>
PUBLIC	??$Sad16_sse2_avx@$07$00G@@YAIPBEH0H@Z		; Sad16_sse2_avx<8,1,unsigned short>
PUBLIC	??$Sad16_sse2_avx@$07$01G@@YAIPBEH0H@Z		; Sad16_sse2_avx<8,2,unsigned short>
PUBLIC	??$Sad16_sse2_avx@$07$03G@@YAIPBEH0H@Z		; Sad16_sse2_avx<8,4,unsigned short>
PUBLIC	??$Sad16_sse2_avx@$07$07G@@YAIPBEH0H@Z		; Sad16_sse2_avx<8,8,unsigned short>
PUBLIC	??$Sad16_sse2_avx@$07$0BA@G@@YAIPBEH0H@Z	; Sad16_sse2_avx<8,16,unsigned short>
PUBLIC	??$Sad16_sse2_avx@$0BA@$00G@@YAIPBEH0H@Z	; Sad16_sse2_avx<16,1,unsigned short>
PUBLIC	??$Sad16_sse2_avx@$0BA@$01G@@YAIPBEH0H@Z	; Sad16_sse2_avx<16,2,unsigned short>
PUBLIC	??$Sad16_sse2_avx@$0BA@$03G@@YAIPBEH0H@Z	; Sad16_sse2_avx<16,4,unsigned short>
PUBLIC	??$Sad16_sse2_avx@$0BA@$07G@@YAIPBEH0H@Z	; Sad16_sse2_avx<16,8,unsigned short>
PUBLIC	??$Sad16_sse2_avx@$0BA@$0BA@G@@YAIPBEH0H@Z	; Sad16_sse2_avx<16,16,unsigned short>
PUBLIC	??$Sad16_sse2_avx@$0BA@$0CA@G@@YAIPBEH0H@Z	; Sad16_sse2_avx<16,32,unsigned short>
PUBLIC	??$Sad16_sse2_avx@$0CA@$07G@@YAIPBEH0H@Z	; Sad16_sse2_avx<32,8,unsigned short>
PUBLIC	??$Sad16_sse2_avx@$0CA@$0BA@G@@YAIPBEH0H@Z	; Sad16_sse2_avx<32,16,unsigned short>
PUBLIC	??$Sad16_sse2_avx@$0CA@$0CA@G@@YAIPBEH0H@Z	; Sad16_sse2_avx<32,32,unsigned short>
;	COMDAT xdata$x
xdata$x	SEGMENT
__ehfuncinfo$?get_sad_avx_C_function@@YAP6AIPBEH0H@ZHHHW4arch_t@@@Z DD 019930522H
	DD	01H
	DD	FLAT:__unwindtable$?get_sad_avx_C_function@@YAP6AIPBEH0H@ZHHHW4arch_t@@@Z
	DD	2 DUP(00H)
	DD	2 DUP(00H)
	DD	00H
	DD	01H
__unwindtable$?get_sad_avx_C_function@@YAP6AIPBEH0H@ZHHHW4arch_t@@@Z DD 0ffffffffH
	DD	FLAT:__unwindfunclet$?get_sad_avx_C_function@@YAP6AIPBEH0H@ZHHHW4arch_t@@@Z$0
; Function compile flags: /Ogtpy
; File c:\github\mvtools\sources\sadfunctions_avx.cpp
;	COMDAT ??$Sad16_sse2_avx@$0CA@$0CA@G@@YAIPBEH0H@Z
_TEXT	SEGMENT
tv567 = -12						; size = 4
tv564 = -8						; size = 4
tv563 = -4						; size = 4
_pSrc$ = 8						; size = 4
_nSrcPitch$ = 12					; size = 4
_pRef$ = 16						; size = 4
_nRefPitch$ = 20					; size = 4
??$Sad16_sse2_avx@$0CA@$0CA@G@@YAIPBEH0H@Z PROC		; Sad16_sse2_avx<32,32,unsigned short>, COMDAT

; 88   : {

	push	ebp
	mov	ebp, esp
	and	esp, -8					; fffffff8H
	sub	esp, 16					; 00000010H
	mov	eax, DWORD PTR _nSrcPitch$[ebp]
	add	eax, eax

; 89   : #if 0
; 90   :   // check result against C
; 91   :   unsigned int result2 = Sad_AVX_C<nBlkWidth, nBlkHeight, pixel_t>(pSrc, nSrcPitch, pRef, nRefPitch);
; 92   : #endif
; 93   :   _mm256_zeroupper(); // diff from main sse2

	mov	DWORD PTR tv567[esp+16], 16		; 00000010H
	mov	DWORD PTR tv564[esp+16], eax
	mov	eax, DWORD PTR _nRefPitch$[ebp]
	add	eax, eax
	push	esi
	vpxor	xmm4, xmm4, xmm4
	push	edi
	mov	edi, DWORD PTR _pSrc$[ebp]
	mov	DWORD PTR tv563[esp+24], eax
	mov	eax, DWORD PTR _pRef$[ebp]

; 94   :   __m128i zero = _mm_setzero_si128();
; 95   :   __m128i sum = _mm_setzero_si128(); // 2x or 4x int is probably enough for 32x32

	vmovdqa	xmm5, xmm4
$LL4@Sad16_sse2:

; 96   : 
; 97   :   const bool two_8byte_rows = (sizeof(pixel_t) == 2 && nBlkWidth <= 4) || (sizeof(pixel_t) == 1 && nBlkWidth <= 8);
; 98   :   const bool one_cycle = (sizeof(pixel_t) * nBlkWidth) == 16;
; 99   :   const bool unroll_by2 = !two_8byte_rows && nBlkHeight>=2; // unroll by 4: slower
; 100  : 
; 101  :   bool unaligned = true;
; 102  :   if (!two_8byte_rows) {
; 103  :     // test. not faster. Checking overhead?
; 104  :     unaligned = true; // ((reinterpret_cast <ptrdiff_t> (pSrc) & 0x0F) || ((reinterpret_cast <ptrdiff_t>(pRef)) & 0x0F) || ((nRefPitch | nSrcPitch) & 0x0F));
; 105  :   }
; 106  : 
; 107  :   if (unaligned) {
; 108  :     for (int y = 0; y < nBlkHeight; y += (two_8byte_rows || unroll_by2) ? 2 : 1)
; 109  :     {
; 110  :       if (two_8byte_rows) { // no x cycle
; 111  :         __m128i src1, src2;
; 112  :         // (8 bytes or 4 words) * 2 rows
; 113  : #if 0
; 114  :         src1 = _mm_or_si128(_mm_loadl_epi64((__m128i *) (pSrc)), _mm_slli_si128(_mm_loadl_epi64((__m128i *) (pSrc + nSrcPitch)), 8));
; 115  :         src2 = _mm_or_si128(_mm_loadl_epi64((__m128i *) (pRef)), _mm_slli_si128(_mm_loadl_epi64((__m128i *) (pRef + nRefPitch)), 8));
; 116  : #else
; 117  :         // 16.12.01 unpack
; 118  :         if (sizeof(pixel_t) == 1) {
; 119  :           src1 = _mm_unpacklo_epi8(_mm_loadl_epi64((__m128i *) (pSrc)), _mm_loadl_epi64((__m128i *) (pSrc + nSrcPitch)));
; 120  :           src2 = _mm_unpacklo_epi8(_mm_loadl_epi64((__m128i *) (pRef)), _mm_loadl_epi64((__m128i *) (pRef + nRefPitch)));
; 121  :         }
; 122  :         else if (sizeof(pixel_t) == 2) {
; 123  :           src1 = _mm_unpacklo_epi16(_mm_loadl_epi64((__m128i *) (pSrc)), _mm_loadl_epi64((__m128i *) (pSrc + nSrcPitch)));
; 124  :           src2 = _mm_unpacklo_epi16(_mm_loadl_epi64((__m128i *) (pRef)), _mm_loadl_epi64((__m128i *) (pRef + nRefPitch)));
; 125  :         }
; 126  : #endif
; 127  :         if (sizeof(pixel_t) == 1) {
; 128  :           // this is uint_16 specific, but will test on uint8_t against external .asm SAD functions)
; 129  :           sum = _mm_add_epi32(sum, _mm_sad_epu8(src1, src2)); // yihhaaa, existing SIMD   sum1_32, 0, sum2_32, 0
; 130  :                                                               // result in two 32 bit areas at the upper and lower 64 bytes
; 131  :         }
; 132  :         else {
; 133  :           __m128i greater_t = _mm_subs_epu16(src1, src2); // unsigned sub with saturation
; 134  :           __m128i smaller_t = _mm_subs_epu16(src2, src1);
; 135  :           __m128i absdiff = _mm_or_si128(greater_t, smaller_t); //abs(s1-s2)  == (satsub(s1,s2) | satsub(s2,s1))
; 136  :           // 8 x uint16 absolute differences
; 137  :           sum = _mm_add_epi32(sum, _mm_unpacklo_epi16(absdiff, zero));
; 138  :           sum = _mm_add_epi32(sum, _mm_unpackhi_epi16(absdiff, zero));
; 139  :           // sum1_32, sum2_32, sum3_32, sum4_32
; 140  :         }
; 141  :       }
; 142  :       else if (one_cycle)
; 143  :       {
; 144  :         __m128i src1, src2;
; 145  :         src1 = _mm_loadu_si128((__m128i *) (pSrc)); // no x
; 146  :         src2 = _mm_loadu_si128((__m128i *) (pRef));
; 147  :         if (sizeof(pixel_t) == 1) {
; 148  :           // this is uint_16 specific, but will test on uint8_t against external .asm SAD functions)
; 149  :           sum = _mm_add_epi32(sum, _mm_sad_epu8(src1, src2)); // yihhaaa, existing SIMD   sum1_32, 0, sum2_32, 0
; 150  :                                                               // result in two 32 bit areas at the upper and lower 64 bytes
; 151  :         }
; 152  :         else {
; 153  :           __m128i greater_t = _mm_subs_epu16(src1, src2); // unsigned sub with saturation
; 154  :           __m128i smaller_t = _mm_subs_epu16(src2, src1);
; 155  :           __m128i absdiff = _mm_or_si128(greater_t, smaller_t); //abs(s1-s2)  == (satsub(s1,s2) | satsub(s2,s1))
; 156  :                                                                 // 8 x uint16 absolute differences
; 157  :           sum = _mm_add_epi32(sum, _mm_unpacklo_epi16(absdiff, zero));
; 158  :           sum = _mm_add_epi32(sum, _mm_unpackhi_epi16(absdiff, zero));
; 159  :           // sum1_32, sum2_32, sum3_32, sum4_32
; 160  :         }
; 161  :         if (unroll_by2) {
; 162  :           // unroll#2
; 163  :           src1 = _mm_loadu_si128((__m128i *) (pSrc+nSrcPitch)); // no x
; 164  :           src2 = _mm_loadu_si128((__m128i *) (pRef+nRefPitch));
; 165  :           if (sizeof(pixel_t) == 1) {
; 166  :             // this is uint_16 specific, but will test on uint8_t against external .asm SAD functions)
; 167  :             sum = _mm_add_epi32(sum, _mm_sad_epu8(src1, src2)); // yihhaaa, existing SIMD   sum1_32, 0, sum2_32, 0
; 168  :                                                                 // result in two 32 bit areas at the upper and lower 64 bytes
; 169  :           }
; 170  :           else {
; 171  :             __m128i greater_t = _mm_subs_epu16(src1, src2); // unsigned sub with saturation
; 172  :             __m128i smaller_t = _mm_subs_epu16(src2, src1);
; 173  :             __m128i absdiff = _mm_or_si128(greater_t, smaller_t); //abs(s1-s2)  == (satsub(s1,s2) | satsub(s2,s1))
; 174  :                                                                   // 8 x uint16 absolute differences
; 175  :             sum = _mm_add_epi32(sum, _mm_unpacklo_epi16(absdiff, zero));
; 176  :             sum = _mm_add_epi32(sum, _mm_unpackhi_epi16(absdiff, zero));
; 177  :             // sum1_32, sum2_32, sum3_32, sum4_32
; 178  :           }
; 179  :         }
; 180  :       }
; 181  :       else {
; 182  :         for (int x = 0; x < nBlkWidth * sizeof(pixel_t); x += 16)

	mov	edx, edi
	mov	esi, eax
	mov	edi, DWORD PTR _nSrcPitch$[ebp]
	sub	edx, eax
	mov	eax, 4
$LL7@Sad16_sse2:

; 183  :         {
; 184  :           __m128i src1, src2;
; 185  :           src1 = _mm_loadu_si128((__m128i *) (pSrc + x));

	lea	ecx, DWORD PTR [edx+esi]
	lea	esi, DWORD PTR [esi+16]
	vmovdqu	xmm2, XMMWORD PTR [ecx]

; 186  :           src2 = _mm_loadu_si128((__m128i *) (pRef + x));

	vmovdqu	xmm0, XMMWORD PTR [esi-16]

; 187  :           if (sizeof(pixel_t) == 1) {
; 188  :             // this is uint_16 specific, but will test on uint8_t against external .asm SAD functions)
; 189  :             sum = _mm_add_epi32(sum, _mm_sad_epu8(src1, src2)); // yihhaaa, existing SIMD   sum1_32, 0, sum2_32, 0
; 190  :             // result in two 32 bit areas at the upper and lower 64 bytes
; 191  :           }
; 192  :           else {
; 193  :             __m128i greater_t = _mm_subs_epu16(src1, src2); // unsigned sub with saturation

	vpsubusw xmm1, xmm2, xmm0

; 194  :             __m128i smaller_t = _mm_subs_epu16(src2, src1);

	vpsubusw xmm0, xmm0, xmm2

; 195  :             __m128i absdiff = _mm_or_si128(greater_t, smaller_t); //abs(s1-s2)  == (satsub(s1,s2) | satsub(s2,s1))
; 196  :             // 8 x uint16 absolute differences
; 197  :             sum = _mm_add_epi32(sum, _mm_unpacklo_epi16(absdiff, zero));
; 198  :             sum = _mm_add_epi32(sum, _mm_unpackhi_epi16(absdiff, zero));
; 199  :             // sum1_32, sum2_32, sum3_32, sum4_32
; 200  :           }
; 201  :           // sum += SADABS(reinterpret_cast<const pixel_t *>(pSrc)[x] - reinterpret_cast<const pixel_t *>(pRef)[x]);
; 202  :           if (unroll_by2)
; 203  :           {
; 204  :             // unroll#2
; 205  :             src1 = _mm_loadu_si128((__m128i *) (pSrc + nSrcPitch + x));

	vmovdqu	xmm2, XMMWORD PTR [ecx+edi]

; 206  :             src2 = _mm_loadu_si128((__m128i *) (pRef + nRefPitch + x));

	mov	ecx, DWORD PTR _nRefPitch$[ebp]
	vpor	xmm3, xmm1, xmm0
	vmovdqu	xmm0, XMMWORD PTR [esi+ecx-16]

; 207  :             if (sizeof(pixel_t) == 1) {
; 208  :               // this is uint_16 specific, but will test on uint8_t against external .asm SAD functions)
; 209  :               sum = _mm_add_epi32(sum, _mm_sad_epu8(src1, src2)); // yihhaaa, existing SIMD   sum1_32, 0, sum2_32, 0
; 210  :                                                                   // result in two 32 bit areas at the upper and lower 64 bytes
; 211  :             }
; 212  :             else {
; 213  :               __m128i greater_t = _mm_subs_epu16(src1, src2); // unsigned sub with saturation

	vpsubusw xmm1, xmm2, xmm0

; 214  :               __m128i smaller_t = _mm_subs_epu16(src2, src1);

	vpsubusw xmm0, xmm0, xmm2

; 215  :               __m128i absdiff = _mm_or_si128(greater_t, smaller_t); //abs(s1-s2)  == (satsub(s1,s2) | satsub(s2,s1))

	vpor	xmm2, xmm1, xmm0
	vpunpcklwd xmm0, xmm3, xmm4
	vpaddd	xmm1, xmm0, xmm5
	vpunpckhwd xmm0, xmm3, xmm4
	vpaddd	xmm1, xmm1, xmm0

; 216  :                                                                     // 8 x uint16 absolute differences
; 217  :               sum = _mm_add_epi32(sum, _mm_unpacklo_epi16(absdiff, zero));

	vpunpcklwd xmm0, xmm2, xmm4
	vpaddd	xmm1, xmm1, xmm0

; 218  :               sum = _mm_add_epi32(sum, _mm_unpackhi_epi16(absdiff, zero));

	vpunpckhwd xmm0, xmm2, xmm4
	vpaddd	xmm5, xmm1, xmm0
	sub	eax, 1
	jne	SHORT $LL7@Sad16_sse2

; 219  :               // sum1_32, sum2_32, sum3_32, sum4_32
; 220  :             }
; 221  :           }
; 222  :         }
; 223  :       }
; 224  :       if (two_8byte_rows || unroll_by2) {
; 225  :         pSrc += nSrcPitch * 2;

	mov	edi, DWORD PTR _pSrc$[ebp]

; 226  :         pRef += nRefPitch * 2;

	mov	eax, DWORD PTR _pRef$[ebp]
	add	edi, DWORD PTR tv564[esp+24]
	add	eax, DWORD PTR tv563[esp+24]
	sub	DWORD PTR tv567[esp+24], 1
	mov	DWORD PTR _pSrc$[ebp], edi
	mov	DWORD PTR _pRef$[ebp], eax
	jne	$LL4@Sad16_sse2

; 227  :       }
; 228  :       else {
; 229  :         pSrc += nSrcPitch;
; 230  :         pRef += nRefPitch;
; 231  :       }
; 232  :     }
; 233  :   }
; 234  : #if 0
; 235  :   else { // aligned, experimental. With the in-function alignment check overhead it is slower
; 236  :     for (int y = 0; y < nBlkHeight; y += (two_8byte_rows ? 2 : 1))
; 237  :     {
; 238  :       if (one_cycle)
; 239  :       {
; 240  :         __m128i src1, src2;
; 241  :         src1 = _mm_load_si128((__m128i *) (pSrc)); // no x
; 242  :         src2 = _mm_load_si128((__m128i *) (pRef));
; 243  :         if (sizeof(pixel_t) == 1) {
; 244  :           // this is uint_16 specific, but will test on uint8_t against external .asm SAD functions)
; 245  :           sum = _mm_add_epi32(sum, _mm_sad_epu8(src1, src2)); // yihhaaa, existing SIMD   sum1_32, 0, sum2_32, 0
; 246  :                                                               // result in two 32 bit areas at the upper and lower 64 bytes
; 247  :         }
; 248  :         else {
; 249  :           __m128i greater_t = _mm_subs_epu16(src1, src2); // unsigned sub with saturation
; 250  :           __m128i smaller_t = _mm_subs_epu16(src2, src1);
; 251  :           __m128i absdiff = _mm_or_si128(greater_t, smaller_t); //abs(s1-s2)  == (satsub(s1,s2) | satsub(s2,s1))
; 252  :                                                                 // 8 x uint16 absolute differences
; 253  :           sum = _mm_add_epi32(sum, _mm_unpacklo_epi16(absdiff, zero));
; 254  :           sum = _mm_add_epi32(sum, _mm_unpackhi_epi16(absdiff, zero));
; 255  :           // sum1_32, sum2_32, sum3_32, sum4_32
; 256  :         }
; 257  :       }
; 258  :       else {
; 259  :         for (int x = 0; x < nBlkWidth * sizeof(pixel_t); x += 16)
; 260  :         {
; 261  :           __m128i src1, src2;
; 262  :           src1 = _mm_load_si128((__m128i *) (pSrc + x));
; 263  :           src2 = _mm_load_si128((__m128i *) (pRef + x));
; 264  :           if (sizeof(pixel_t) == 1) {
; 265  :             // this is uint_16 specific, but will test on uint8_t against external .asm SAD functions)
; 266  :             sum = _mm_add_epi32(sum, _mm_sad_epu8(src1, src2)); // yihhaaa, existing SIMD   sum1_32, 0, sum2_32, 0
; 267  :                                                                 // result in two 32 bit areas at the upper and lower 64 bytes
; 268  :           }
; 269  :           else {
; 270  :             __m128i greater_t = _mm_subs_epu16(src1, src2); // unsigned sub with saturation
; 271  :             __m128i smaller_t = _mm_subs_epu16(src2, src1);
; 272  :             __m128i absdiff = _mm_or_si128(greater_t, smaller_t); //abs(s1-s2)  == (satsub(s1,s2) | satsub(s2,s1))
; 273  :                                                                   // 8 x uint16 absolute differences
; 274  :             sum = _mm_add_epi32(sum, _mm_unpacklo_epi16(absdiff, zero));
; 275  :             sum = _mm_add_epi32(sum, _mm_unpackhi_epi16(absdiff, zero));
; 276  :             // sum1_32, sum2_32, sum3_32, sum4_32
; 277  :           }
; 278  :           // sum += SADABS(reinterpret_cast<const pixel_t *>(pSrc)[x] - reinterpret_cast<const pixel_t *>(pRef)[x]);
; 279  :         }
; 280  :       }
; 281  :       if (two_8byte_rows) {
; 282  :         pSrc += nSrcPitch * 2;
; 283  :         pRef += nRefPitch * 2;
; 284  :       }
; 285  :       else {
; 286  :         pSrc += nSrcPitch;
; 287  :         pRef += nRefPitch;
; 288  :       }
; 289  :     }
; 290  : 
; 291  :   }
; 292  : #endif
; 293  :   /*
; 294  :   [Low64, Hi64]
; 295  :   _mm_unpacklo_epi64(_mm_setzero_si128(), x)  [0, x0]
; 296  :   _mm_unpackhi_epi64(_mm_setzero_si128(), x)  [0, x1]
; 297  :   _mm_move_epi64(x)                           [x0, 0]
; 298  :   _mm_unpackhi_epi64(x, _mm_setzero_si128())  [x1, 0]
; 299  :   */
; 300  : #if 1
; 301  :   if(sizeof(pixel_t) == 2) {
; 302  :     // at 16 bits: we have 4 integers for sum: a0 a1 a2 a3
; 303  :     __m128i a0_a1 = _mm_unpacklo_epi32(sum, zero); // a0 0 a1 0

	vpunpckldq xmm0, xmm5, xmm4

; 304  :     __m128i a2_a3 = _mm_unpackhi_epi32(sum, zero); // a2 0 a3 0

	vpunpckhdq xmm1, xmm5, xmm4

; 305  :     sum = _mm_add_epi32( a0_a1, a2_a3 ); // a0+a2, 0, a1+a3, 0

	vpaddd	xmm1, xmm1, xmm0

; 306  :     // hadd: shower
; 307  :   }
; 308  :   // sum here: two 32 bit partial result: sum1 0 sum2 0
; 309  :   __m128i sum_hi = _mm_unpackhi_epi64(sum, zero); // a1 + a3. 2 dwords right 

	vpunpckhqdq xmm0, xmm1, xmm4

; 310  :   sum = _mm_add_epi32(sum, sum_hi);  // a0 + a2 + a1 + a3

	vpaddd	xmm0, xmm0, xmm1

; 311  : #else
; 312  :   // this hadd path is slower on Ivy bridge
; 313  :   if (sizeof(pixel_t) == 2) {
; 314  :     sum = _mm_hadd_epi32(sum, zero); // a0_a = a0 + a1, a1_a = a2 + a3
; 315  :     sum = _mm_hadd_epi32(sum, zero); // a0 = a0_a + a1_a ( = a0+a1+a2+a3)
; 316  :   }
; 317  :   else { // uint8_t
; 318  :     // sum here: two 32 bit partial result: sum1 0 sum2 0
; 319  :     __m128i sum_hi = _mm_unpackhi_epi64(sum, zero); // a1 + a3. 2 dwords right 
; 320  :     sum = _mm_add_epi32(sum, sum_hi);  // a0 + a2 + a1 + a3
; 321  : 
; 322  :   }
; 323  : #endif
; 324  : 
; 325  :   unsigned int result = _mm_cvtsi128_si32(sum);
; 326  : 
; 327  : #if 0
; 328  :   // check result against C
; 329  :   if (result != result2) {
; 330  :     result = result2;
; 331  :   }
; 332  : #endif
; 333  :   _mm256_zeroupper(); // diff from main sse2
; 334  : 
; 335  :   return result;
; 336  : }  // end of SSE2 with AVX commandset Sad16

	pop	edi
	vmovd	eax, xmm0
	pop	esi
	mov	esp, ebp
	pop	ebp
	ret	0
??$Sad16_sse2_avx@$0CA@$0CA@G@@YAIPBEH0H@Z ENDP		; Sad16_sse2_avx<32,32,unsigned short>
_TEXT	ENDS
; Function compile flags: /Ogtpy
; File c:\github\mvtools\sources\sadfunctions_avx.cpp
;	COMDAT ??$Sad16_sse2_avx@$0CA@$0BA@G@@YAIPBEH0H@Z
_TEXT	SEGMENT
tv567 = -12						; size = 4
tv564 = -8						; size = 4
tv563 = -4						; size = 4
_pSrc$ = 8						; size = 4
_nSrcPitch$ = 12					; size = 4
_pRef$ = 16						; size = 4
_nRefPitch$ = 20					; size = 4
??$Sad16_sse2_avx@$0CA@$0BA@G@@YAIPBEH0H@Z PROC		; Sad16_sse2_avx<32,16,unsigned short>, COMDAT

; 88   : {

	push	ebp
	mov	ebp, esp
	and	esp, -8					; fffffff8H
	sub	esp, 16					; 00000010H
	mov	eax, DWORD PTR _nSrcPitch$[ebp]
	add	eax, eax

; 89   : #if 0
; 90   :   // check result against C
; 91   :   unsigned int result2 = Sad_AVX_C<nBlkWidth, nBlkHeight, pixel_t>(pSrc, nSrcPitch, pRef, nRefPitch);
; 92   : #endif
; 93   :   _mm256_zeroupper(); // diff from main sse2

	mov	DWORD PTR tv567[esp+16], 8
	mov	DWORD PTR tv564[esp+16], eax
	mov	eax, DWORD PTR _nRefPitch$[ebp]
	add	eax, eax
	push	esi
	vpxor	xmm4, xmm4, xmm4
	push	edi
	mov	edi, DWORD PTR _pSrc$[ebp]
	mov	DWORD PTR tv563[esp+24], eax
	mov	eax, DWORD PTR _pRef$[ebp]

; 94   :   __m128i zero = _mm_setzero_si128();
; 95   :   __m128i sum = _mm_setzero_si128(); // 2x or 4x int is probably enough for 32x32

	vmovdqa	xmm5, xmm4
$LL4@Sad16_sse2:

; 96   : 
; 97   :   const bool two_8byte_rows = (sizeof(pixel_t) == 2 && nBlkWidth <= 4) || (sizeof(pixel_t) == 1 && nBlkWidth <= 8);
; 98   :   const bool one_cycle = (sizeof(pixel_t) * nBlkWidth) == 16;
; 99   :   const bool unroll_by2 = !two_8byte_rows && nBlkHeight>=2; // unroll by 4: slower
; 100  : 
; 101  :   bool unaligned = true;
; 102  :   if (!two_8byte_rows) {
; 103  :     // test. not faster. Checking overhead?
; 104  :     unaligned = true; // ((reinterpret_cast <ptrdiff_t> (pSrc) & 0x0F) || ((reinterpret_cast <ptrdiff_t>(pRef)) & 0x0F) || ((nRefPitch | nSrcPitch) & 0x0F));
; 105  :   }
; 106  : 
; 107  :   if (unaligned) {
; 108  :     for (int y = 0; y < nBlkHeight; y += (two_8byte_rows || unroll_by2) ? 2 : 1)
; 109  :     {
; 110  :       if (two_8byte_rows) { // no x cycle
; 111  :         __m128i src1, src2;
; 112  :         // (8 bytes or 4 words) * 2 rows
; 113  : #if 0
; 114  :         src1 = _mm_or_si128(_mm_loadl_epi64((__m128i *) (pSrc)), _mm_slli_si128(_mm_loadl_epi64((__m128i *) (pSrc + nSrcPitch)), 8));
; 115  :         src2 = _mm_or_si128(_mm_loadl_epi64((__m128i *) (pRef)), _mm_slli_si128(_mm_loadl_epi64((__m128i *) (pRef + nRefPitch)), 8));
; 116  : #else
; 117  :         // 16.12.01 unpack
; 118  :         if (sizeof(pixel_t) == 1) {
; 119  :           src1 = _mm_unpacklo_epi8(_mm_loadl_epi64((__m128i *) (pSrc)), _mm_loadl_epi64((__m128i *) (pSrc + nSrcPitch)));
; 120  :           src2 = _mm_unpacklo_epi8(_mm_loadl_epi64((__m128i *) (pRef)), _mm_loadl_epi64((__m128i *) (pRef + nRefPitch)));
; 121  :         }
; 122  :         else if (sizeof(pixel_t) == 2) {
; 123  :           src1 = _mm_unpacklo_epi16(_mm_loadl_epi64((__m128i *) (pSrc)), _mm_loadl_epi64((__m128i *) (pSrc + nSrcPitch)));
; 124  :           src2 = _mm_unpacklo_epi16(_mm_loadl_epi64((__m128i *) (pRef)), _mm_loadl_epi64((__m128i *) (pRef + nRefPitch)));
; 125  :         }
; 126  : #endif
; 127  :         if (sizeof(pixel_t) == 1) {
; 128  :           // this is uint_16 specific, but will test on uint8_t against external .asm SAD functions)
; 129  :           sum = _mm_add_epi32(sum, _mm_sad_epu8(src1, src2)); // yihhaaa, existing SIMD   sum1_32, 0, sum2_32, 0
; 130  :                                                               // result in two 32 bit areas at the upper and lower 64 bytes
; 131  :         }
; 132  :         else {
; 133  :           __m128i greater_t = _mm_subs_epu16(src1, src2); // unsigned sub with saturation
; 134  :           __m128i smaller_t = _mm_subs_epu16(src2, src1);
; 135  :           __m128i absdiff = _mm_or_si128(greater_t, smaller_t); //abs(s1-s2)  == (satsub(s1,s2) | satsub(s2,s1))
; 136  :           // 8 x uint16 absolute differences
; 137  :           sum = _mm_add_epi32(sum, _mm_unpacklo_epi16(absdiff, zero));
; 138  :           sum = _mm_add_epi32(sum, _mm_unpackhi_epi16(absdiff, zero));
; 139  :           // sum1_32, sum2_32, sum3_32, sum4_32
; 140  :         }
; 141  :       }
; 142  :       else if (one_cycle)
; 143  :       {
; 144  :         __m128i src1, src2;
; 145  :         src1 = _mm_loadu_si128((__m128i *) (pSrc)); // no x
; 146  :         src2 = _mm_loadu_si128((__m128i *) (pRef));
; 147  :         if (sizeof(pixel_t) == 1) {
; 148  :           // this is uint_16 specific, but will test on uint8_t against external .asm SAD functions)
; 149  :           sum = _mm_add_epi32(sum, _mm_sad_epu8(src1, src2)); // yihhaaa, existing SIMD   sum1_32, 0, sum2_32, 0
; 150  :                                                               // result in two 32 bit areas at the upper and lower 64 bytes
; 151  :         }
; 152  :         else {
; 153  :           __m128i greater_t = _mm_subs_epu16(src1, src2); // unsigned sub with saturation
; 154  :           __m128i smaller_t = _mm_subs_epu16(src2, src1);
; 155  :           __m128i absdiff = _mm_or_si128(greater_t, smaller_t); //abs(s1-s2)  == (satsub(s1,s2) | satsub(s2,s1))
; 156  :                                                                 // 8 x uint16 absolute differences
; 157  :           sum = _mm_add_epi32(sum, _mm_unpacklo_epi16(absdiff, zero));
; 158  :           sum = _mm_add_epi32(sum, _mm_unpackhi_epi16(absdiff, zero));
; 159  :           // sum1_32, sum2_32, sum3_32, sum4_32
; 160  :         }
; 161  :         if (unroll_by2) {
; 162  :           // unroll#2
; 163  :           src1 = _mm_loadu_si128((__m128i *) (pSrc+nSrcPitch)); // no x
; 164  :           src2 = _mm_loadu_si128((__m128i *) (pRef+nRefPitch));
; 165  :           if (sizeof(pixel_t) == 1) {
; 166  :             // this is uint_16 specific, but will test on uint8_t against external .asm SAD functions)
; 167  :             sum = _mm_add_epi32(sum, _mm_sad_epu8(src1, src2)); // yihhaaa, existing SIMD   sum1_32, 0, sum2_32, 0
; 168  :                                                                 // result in two 32 bit areas at the upper and lower 64 bytes
; 169  :           }
; 170  :           else {
; 171  :             __m128i greater_t = _mm_subs_epu16(src1, src2); // unsigned sub with saturation
; 172  :             __m128i smaller_t = _mm_subs_epu16(src2, src1);
; 173  :             __m128i absdiff = _mm_or_si128(greater_t, smaller_t); //abs(s1-s2)  == (satsub(s1,s2) | satsub(s2,s1))
; 174  :                                                                   // 8 x uint16 absolute differences
; 175  :             sum = _mm_add_epi32(sum, _mm_unpacklo_epi16(absdiff, zero));
; 176  :             sum = _mm_add_epi32(sum, _mm_unpackhi_epi16(absdiff, zero));
; 177  :             // sum1_32, sum2_32, sum3_32, sum4_32
; 178  :           }
; 179  :         }
; 180  :       }
; 181  :       else {
; 182  :         for (int x = 0; x < nBlkWidth * sizeof(pixel_t); x += 16)

	mov	edx, edi
	mov	esi, eax
	mov	edi, DWORD PTR _nSrcPitch$[ebp]
	sub	edx, eax
	mov	eax, 4
$LL7@Sad16_sse2:

; 183  :         {
; 184  :           __m128i src1, src2;
; 185  :           src1 = _mm_loadu_si128((__m128i *) (pSrc + x));

	lea	ecx, DWORD PTR [edx+esi]
	lea	esi, DWORD PTR [esi+16]
	vmovdqu	xmm2, XMMWORD PTR [ecx]

; 186  :           src2 = _mm_loadu_si128((__m128i *) (pRef + x));

	vmovdqu	xmm0, XMMWORD PTR [esi-16]

; 187  :           if (sizeof(pixel_t) == 1) {
; 188  :             // this is uint_16 specific, but will test on uint8_t against external .asm SAD functions)
; 189  :             sum = _mm_add_epi32(sum, _mm_sad_epu8(src1, src2)); // yihhaaa, existing SIMD   sum1_32, 0, sum2_32, 0
; 190  :             // result in two 32 bit areas at the upper and lower 64 bytes
; 191  :           }
; 192  :           else {
; 193  :             __m128i greater_t = _mm_subs_epu16(src1, src2); // unsigned sub with saturation

	vpsubusw xmm1, xmm2, xmm0

; 194  :             __m128i smaller_t = _mm_subs_epu16(src2, src1);

	vpsubusw xmm0, xmm0, xmm2

; 195  :             __m128i absdiff = _mm_or_si128(greater_t, smaller_t); //abs(s1-s2)  == (satsub(s1,s2) | satsub(s2,s1))
; 196  :             // 8 x uint16 absolute differences
; 197  :             sum = _mm_add_epi32(sum, _mm_unpacklo_epi16(absdiff, zero));
; 198  :             sum = _mm_add_epi32(sum, _mm_unpackhi_epi16(absdiff, zero));
; 199  :             // sum1_32, sum2_32, sum3_32, sum4_32
; 200  :           }
; 201  :           // sum += SADABS(reinterpret_cast<const pixel_t *>(pSrc)[x] - reinterpret_cast<const pixel_t *>(pRef)[x]);
; 202  :           if (unroll_by2)
; 203  :           {
; 204  :             // unroll#2
; 205  :             src1 = _mm_loadu_si128((__m128i *) (pSrc + nSrcPitch + x));

	vmovdqu	xmm2, XMMWORD PTR [ecx+edi]

; 206  :             src2 = _mm_loadu_si128((__m128i *) (pRef + nRefPitch + x));

	mov	ecx, DWORD PTR _nRefPitch$[ebp]
	vpor	xmm3, xmm1, xmm0
	vmovdqu	xmm0, XMMWORD PTR [esi+ecx-16]

; 207  :             if (sizeof(pixel_t) == 1) {
; 208  :               // this is uint_16 specific, but will test on uint8_t against external .asm SAD functions)
; 209  :               sum = _mm_add_epi32(sum, _mm_sad_epu8(src1, src2)); // yihhaaa, existing SIMD   sum1_32, 0, sum2_32, 0
; 210  :                                                                   // result in two 32 bit areas at the upper and lower 64 bytes
; 211  :             }
; 212  :             else {
; 213  :               __m128i greater_t = _mm_subs_epu16(src1, src2); // unsigned sub with saturation

	vpsubusw xmm1, xmm2, xmm0

; 214  :               __m128i smaller_t = _mm_subs_epu16(src2, src1);

	vpsubusw xmm0, xmm0, xmm2

; 215  :               __m128i absdiff = _mm_or_si128(greater_t, smaller_t); //abs(s1-s2)  == (satsub(s1,s2) | satsub(s2,s1))

	vpor	xmm2, xmm1, xmm0
	vpunpcklwd xmm0, xmm3, xmm4
	vpaddd	xmm1, xmm0, xmm5
	vpunpckhwd xmm0, xmm3, xmm4
	vpaddd	xmm1, xmm1, xmm0

; 216  :                                                                     // 8 x uint16 absolute differences
; 217  :               sum = _mm_add_epi32(sum, _mm_unpacklo_epi16(absdiff, zero));

	vpunpcklwd xmm0, xmm2, xmm4
	vpaddd	xmm1, xmm1, xmm0

; 218  :               sum = _mm_add_epi32(sum, _mm_unpackhi_epi16(absdiff, zero));

	vpunpckhwd xmm0, xmm2, xmm4
	vpaddd	xmm5, xmm1, xmm0
	sub	eax, 1
	jne	SHORT $LL7@Sad16_sse2

; 219  :               // sum1_32, sum2_32, sum3_32, sum4_32
; 220  :             }
; 221  :           }
; 222  :         }
; 223  :       }
; 224  :       if (two_8byte_rows || unroll_by2) {
; 225  :         pSrc += nSrcPitch * 2;

	mov	edi, DWORD PTR _pSrc$[ebp]

; 226  :         pRef += nRefPitch * 2;

	mov	eax, DWORD PTR _pRef$[ebp]
	add	edi, DWORD PTR tv564[esp+24]
	add	eax, DWORD PTR tv563[esp+24]
	sub	DWORD PTR tv567[esp+24], 1
	mov	DWORD PTR _pSrc$[ebp], edi
	mov	DWORD PTR _pRef$[ebp], eax
	jne	$LL4@Sad16_sse2

; 227  :       }
; 228  :       else {
; 229  :         pSrc += nSrcPitch;
; 230  :         pRef += nRefPitch;
; 231  :       }
; 232  :     }
; 233  :   }
; 234  : #if 0
; 235  :   else { // aligned, experimental. With the in-function alignment check overhead it is slower
; 236  :     for (int y = 0; y < nBlkHeight; y += (two_8byte_rows ? 2 : 1))
; 237  :     {
; 238  :       if (one_cycle)
; 239  :       {
; 240  :         __m128i src1, src2;
; 241  :         src1 = _mm_load_si128((__m128i *) (pSrc)); // no x
; 242  :         src2 = _mm_load_si128((__m128i *) (pRef));
; 243  :         if (sizeof(pixel_t) == 1) {
; 244  :           // this is uint_16 specific, but will test on uint8_t against external .asm SAD functions)
; 245  :           sum = _mm_add_epi32(sum, _mm_sad_epu8(src1, src2)); // yihhaaa, existing SIMD   sum1_32, 0, sum2_32, 0
; 246  :                                                               // result in two 32 bit areas at the upper and lower 64 bytes
; 247  :         }
; 248  :         else {
; 249  :           __m128i greater_t = _mm_subs_epu16(src1, src2); // unsigned sub with saturation
; 250  :           __m128i smaller_t = _mm_subs_epu16(src2, src1);
; 251  :           __m128i absdiff = _mm_or_si128(greater_t, smaller_t); //abs(s1-s2)  == (satsub(s1,s2) | satsub(s2,s1))
; 252  :                                                                 // 8 x uint16 absolute differences
; 253  :           sum = _mm_add_epi32(sum, _mm_unpacklo_epi16(absdiff, zero));
; 254  :           sum = _mm_add_epi32(sum, _mm_unpackhi_epi16(absdiff, zero));
; 255  :           // sum1_32, sum2_32, sum3_32, sum4_32
; 256  :         }
; 257  :       }
; 258  :       else {
; 259  :         for (int x = 0; x < nBlkWidth * sizeof(pixel_t); x += 16)
; 260  :         {
; 261  :           __m128i src1, src2;
; 262  :           src1 = _mm_load_si128((__m128i *) (pSrc + x));
; 263  :           src2 = _mm_load_si128((__m128i *) (pRef + x));
; 264  :           if (sizeof(pixel_t) == 1) {
; 265  :             // this is uint_16 specific, but will test on uint8_t against external .asm SAD functions)
; 266  :             sum = _mm_add_epi32(sum, _mm_sad_epu8(src1, src2)); // yihhaaa, existing SIMD   sum1_32, 0, sum2_32, 0
; 267  :                                                                 // result in two 32 bit areas at the upper and lower 64 bytes
; 268  :           }
; 269  :           else {
; 270  :             __m128i greater_t = _mm_subs_epu16(src1, src2); // unsigned sub with saturation
; 271  :             __m128i smaller_t = _mm_subs_epu16(src2, src1);
; 272  :             __m128i absdiff = _mm_or_si128(greater_t, smaller_t); //abs(s1-s2)  == (satsub(s1,s2) | satsub(s2,s1))
; 273  :                                                                   // 8 x uint16 absolute differences
; 274  :             sum = _mm_add_epi32(sum, _mm_unpacklo_epi16(absdiff, zero));
; 275  :             sum = _mm_add_epi32(sum, _mm_unpackhi_epi16(absdiff, zero));
; 276  :             // sum1_32, sum2_32, sum3_32, sum4_32
; 277  :           }
; 278  :           // sum += SADABS(reinterpret_cast<const pixel_t *>(pSrc)[x] - reinterpret_cast<const pixel_t *>(pRef)[x]);
; 279  :         }
; 280  :       }
; 281  :       if (two_8byte_rows) {
; 282  :         pSrc += nSrcPitch * 2;
; 283  :         pRef += nRefPitch * 2;
; 284  :       }
; 285  :       else {
; 286  :         pSrc += nSrcPitch;
; 287  :         pRef += nRefPitch;
; 288  :       }
; 289  :     }
; 290  : 
; 291  :   }
; 292  : #endif
; 293  :   /*
; 294  :   [Low64, Hi64]
; 295  :   _mm_unpacklo_epi64(_mm_setzero_si128(), x)  [0, x0]
; 296  :   _mm_unpackhi_epi64(_mm_setzero_si128(), x)  [0, x1]
; 297  :   _mm_move_epi64(x)                           [x0, 0]
; 298  :   _mm_unpackhi_epi64(x, _mm_setzero_si128())  [x1, 0]
; 299  :   */
; 300  : #if 1
; 301  :   if(sizeof(pixel_t) == 2) {
; 302  :     // at 16 bits: we have 4 integers for sum: a0 a1 a2 a3
; 303  :     __m128i a0_a1 = _mm_unpacklo_epi32(sum, zero); // a0 0 a1 0

	vpunpckldq xmm0, xmm5, xmm4

; 304  :     __m128i a2_a3 = _mm_unpackhi_epi32(sum, zero); // a2 0 a3 0

	vpunpckhdq xmm1, xmm5, xmm4

; 305  :     sum = _mm_add_epi32( a0_a1, a2_a3 ); // a0+a2, 0, a1+a3, 0

	vpaddd	xmm1, xmm1, xmm0

; 306  :     // hadd: shower
; 307  :   }
; 308  :   // sum here: two 32 bit partial result: sum1 0 sum2 0
; 309  :   __m128i sum_hi = _mm_unpackhi_epi64(sum, zero); // a1 + a3. 2 dwords right 

	vpunpckhqdq xmm0, xmm1, xmm4

; 310  :   sum = _mm_add_epi32(sum, sum_hi);  // a0 + a2 + a1 + a3

	vpaddd	xmm0, xmm0, xmm1

; 311  : #else
; 312  :   // this hadd path is slower on Ivy bridge
; 313  :   if (sizeof(pixel_t) == 2) {
; 314  :     sum = _mm_hadd_epi32(sum, zero); // a0_a = a0 + a1, a1_a = a2 + a3
; 315  :     sum = _mm_hadd_epi32(sum, zero); // a0 = a0_a + a1_a ( = a0+a1+a2+a3)
; 316  :   }
; 317  :   else { // uint8_t
; 318  :     // sum here: two 32 bit partial result: sum1 0 sum2 0
; 319  :     __m128i sum_hi = _mm_unpackhi_epi64(sum, zero); // a1 + a3. 2 dwords right 
; 320  :     sum = _mm_add_epi32(sum, sum_hi);  // a0 + a2 + a1 + a3
; 321  : 
; 322  :   }
; 323  : #endif
; 324  : 
; 325  :   unsigned int result = _mm_cvtsi128_si32(sum);
; 326  : 
; 327  : #if 0
; 328  :   // check result against C
; 329  :   if (result != result2) {
; 330  :     result = result2;
; 331  :   }
; 332  : #endif
; 333  :   _mm256_zeroupper(); // diff from main sse2
; 334  : 
; 335  :   return result;
; 336  : }  // end of SSE2 with AVX commandset Sad16

	pop	edi
	vmovd	eax, xmm0
	pop	esi
	mov	esp, ebp
	pop	ebp
	ret	0
??$Sad16_sse2_avx@$0CA@$0BA@G@@YAIPBEH0H@Z ENDP		; Sad16_sse2_avx<32,16,unsigned short>
_TEXT	ENDS
; Function compile flags: /Ogtpy
; File c:\github\mvtools\sources\sadfunctions_avx.cpp
;	COMDAT ??$Sad16_sse2_avx@$0CA@$07G@@YAIPBEH0H@Z
_TEXT	SEGMENT
tv567 = -12						; size = 4
tv564 = -8						; size = 4
tv563 = -4						; size = 4
_pSrc$ = 8						; size = 4
_nSrcPitch$ = 12					; size = 4
_pRef$ = 16						; size = 4
_nRefPitch$ = 20					; size = 4
??$Sad16_sse2_avx@$0CA@$07G@@YAIPBEH0H@Z PROC		; Sad16_sse2_avx<32,8,unsigned short>, COMDAT

; 88   : {

	push	ebp
	mov	ebp, esp
	and	esp, -8					; fffffff8H
	sub	esp, 16					; 00000010H
	mov	eax, DWORD PTR _nSrcPitch$[ebp]
	add	eax, eax

; 89   : #if 0
; 90   :   // check result against C
; 91   :   unsigned int result2 = Sad_AVX_C<nBlkWidth, nBlkHeight, pixel_t>(pSrc, nSrcPitch, pRef, nRefPitch);
; 92   : #endif
; 93   :   _mm256_zeroupper(); // diff from main sse2

	mov	DWORD PTR tv567[esp+16], 4
	mov	DWORD PTR tv564[esp+16], eax
	mov	eax, DWORD PTR _nRefPitch$[ebp]
	add	eax, eax
	push	esi
	vpxor	xmm4, xmm4, xmm4
	push	edi
	mov	edi, DWORD PTR _pSrc$[ebp]
	mov	DWORD PTR tv563[esp+24], eax
	mov	eax, DWORD PTR _pRef$[ebp]

; 94   :   __m128i zero = _mm_setzero_si128();
; 95   :   __m128i sum = _mm_setzero_si128(); // 2x or 4x int is probably enough for 32x32

	vmovdqa	xmm5, xmm4
$LL4@Sad16_sse2:

; 96   : 
; 97   :   const bool two_8byte_rows = (sizeof(pixel_t) == 2 && nBlkWidth <= 4) || (sizeof(pixel_t) == 1 && nBlkWidth <= 8);
; 98   :   const bool one_cycle = (sizeof(pixel_t) * nBlkWidth) == 16;
; 99   :   const bool unroll_by2 = !two_8byte_rows && nBlkHeight>=2; // unroll by 4: slower
; 100  : 
; 101  :   bool unaligned = true;
; 102  :   if (!two_8byte_rows) {
; 103  :     // test. not faster. Checking overhead?
; 104  :     unaligned = true; // ((reinterpret_cast <ptrdiff_t> (pSrc) & 0x0F) || ((reinterpret_cast <ptrdiff_t>(pRef)) & 0x0F) || ((nRefPitch | nSrcPitch) & 0x0F));
; 105  :   }
; 106  : 
; 107  :   if (unaligned) {
; 108  :     for (int y = 0; y < nBlkHeight; y += (two_8byte_rows || unroll_by2) ? 2 : 1)
; 109  :     {
; 110  :       if (two_8byte_rows) { // no x cycle
; 111  :         __m128i src1, src2;
; 112  :         // (8 bytes or 4 words) * 2 rows
; 113  : #if 0
; 114  :         src1 = _mm_or_si128(_mm_loadl_epi64((__m128i *) (pSrc)), _mm_slli_si128(_mm_loadl_epi64((__m128i *) (pSrc + nSrcPitch)), 8));
; 115  :         src2 = _mm_or_si128(_mm_loadl_epi64((__m128i *) (pRef)), _mm_slli_si128(_mm_loadl_epi64((__m128i *) (pRef + nRefPitch)), 8));
; 116  : #else
; 117  :         // 16.12.01 unpack
; 118  :         if (sizeof(pixel_t) == 1) {
; 119  :           src1 = _mm_unpacklo_epi8(_mm_loadl_epi64((__m128i *) (pSrc)), _mm_loadl_epi64((__m128i *) (pSrc + nSrcPitch)));
; 120  :           src2 = _mm_unpacklo_epi8(_mm_loadl_epi64((__m128i *) (pRef)), _mm_loadl_epi64((__m128i *) (pRef + nRefPitch)));
; 121  :         }
; 122  :         else if (sizeof(pixel_t) == 2) {
; 123  :           src1 = _mm_unpacklo_epi16(_mm_loadl_epi64((__m128i *) (pSrc)), _mm_loadl_epi64((__m128i *) (pSrc + nSrcPitch)));
; 124  :           src2 = _mm_unpacklo_epi16(_mm_loadl_epi64((__m128i *) (pRef)), _mm_loadl_epi64((__m128i *) (pRef + nRefPitch)));
; 125  :         }
; 126  : #endif
; 127  :         if (sizeof(pixel_t) == 1) {
; 128  :           // this is uint_16 specific, but will test on uint8_t against external .asm SAD functions)
; 129  :           sum = _mm_add_epi32(sum, _mm_sad_epu8(src1, src2)); // yihhaaa, existing SIMD   sum1_32, 0, sum2_32, 0
; 130  :                                                               // result in two 32 bit areas at the upper and lower 64 bytes
; 131  :         }
; 132  :         else {
; 133  :           __m128i greater_t = _mm_subs_epu16(src1, src2); // unsigned sub with saturation
; 134  :           __m128i smaller_t = _mm_subs_epu16(src2, src1);
; 135  :           __m128i absdiff = _mm_or_si128(greater_t, smaller_t); //abs(s1-s2)  == (satsub(s1,s2) | satsub(s2,s1))
; 136  :           // 8 x uint16 absolute differences
; 137  :           sum = _mm_add_epi32(sum, _mm_unpacklo_epi16(absdiff, zero));
; 138  :           sum = _mm_add_epi32(sum, _mm_unpackhi_epi16(absdiff, zero));
; 139  :           // sum1_32, sum2_32, sum3_32, sum4_32
; 140  :         }
; 141  :       }
; 142  :       else if (one_cycle)
; 143  :       {
; 144  :         __m128i src1, src2;
; 145  :         src1 = _mm_loadu_si128((__m128i *) (pSrc)); // no x
; 146  :         src2 = _mm_loadu_si128((__m128i *) (pRef));
; 147  :         if (sizeof(pixel_t) == 1) {
; 148  :           // this is uint_16 specific, but will test on uint8_t against external .asm SAD functions)
; 149  :           sum = _mm_add_epi32(sum, _mm_sad_epu8(src1, src2)); // yihhaaa, existing SIMD   sum1_32, 0, sum2_32, 0
; 150  :                                                               // result in two 32 bit areas at the upper and lower 64 bytes
; 151  :         }
; 152  :         else {
; 153  :           __m128i greater_t = _mm_subs_epu16(src1, src2); // unsigned sub with saturation
; 154  :           __m128i smaller_t = _mm_subs_epu16(src2, src1);
; 155  :           __m128i absdiff = _mm_or_si128(greater_t, smaller_t); //abs(s1-s2)  == (satsub(s1,s2) | satsub(s2,s1))
; 156  :                                                                 // 8 x uint16 absolute differences
; 157  :           sum = _mm_add_epi32(sum, _mm_unpacklo_epi16(absdiff, zero));
; 158  :           sum = _mm_add_epi32(sum, _mm_unpackhi_epi16(absdiff, zero));
; 159  :           // sum1_32, sum2_32, sum3_32, sum4_32
; 160  :         }
; 161  :         if (unroll_by2) {
; 162  :           // unroll#2
; 163  :           src1 = _mm_loadu_si128((__m128i *) (pSrc+nSrcPitch)); // no x
; 164  :           src2 = _mm_loadu_si128((__m128i *) (pRef+nRefPitch));
; 165  :           if (sizeof(pixel_t) == 1) {
; 166  :             // this is uint_16 specific, but will test on uint8_t against external .asm SAD functions)
; 167  :             sum = _mm_add_epi32(sum, _mm_sad_epu8(src1, src2)); // yihhaaa, existing SIMD   sum1_32, 0, sum2_32, 0
; 168  :                                                                 // result in two 32 bit areas at the upper and lower 64 bytes
; 169  :           }
; 170  :           else {
; 171  :             __m128i greater_t = _mm_subs_epu16(src1, src2); // unsigned sub with saturation
; 172  :             __m128i smaller_t = _mm_subs_epu16(src2, src1);
; 173  :             __m128i absdiff = _mm_or_si128(greater_t, smaller_t); //abs(s1-s2)  == (satsub(s1,s2) | satsub(s2,s1))
; 174  :                                                                   // 8 x uint16 absolute differences
; 175  :             sum = _mm_add_epi32(sum, _mm_unpacklo_epi16(absdiff, zero));
; 176  :             sum = _mm_add_epi32(sum, _mm_unpackhi_epi16(absdiff, zero));
; 177  :             // sum1_32, sum2_32, sum3_32, sum4_32
; 178  :           }
; 179  :         }
; 180  :       }
; 181  :       else {
; 182  :         for (int x = 0; x < nBlkWidth * sizeof(pixel_t); x += 16)

	mov	edx, edi
	mov	esi, eax
	mov	edi, DWORD PTR _nSrcPitch$[ebp]
	sub	edx, eax
	mov	eax, 4
$LL7@Sad16_sse2:

; 183  :         {
; 184  :           __m128i src1, src2;
; 185  :           src1 = _mm_loadu_si128((__m128i *) (pSrc + x));

	lea	ecx, DWORD PTR [edx+esi]
	lea	esi, DWORD PTR [esi+16]
	vmovdqu	xmm2, XMMWORD PTR [ecx]

; 186  :           src2 = _mm_loadu_si128((__m128i *) (pRef + x));

	vmovdqu	xmm0, XMMWORD PTR [esi-16]

; 187  :           if (sizeof(pixel_t) == 1) {
; 188  :             // this is uint_16 specific, but will test on uint8_t against external .asm SAD functions)
; 189  :             sum = _mm_add_epi32(sum, _mm_sad_epu8(src1, src2)); // yihhaaa, existing SIMD   sum1_32, 0, sum2_32, 0
; 190  :             // result in two 32 bit areas at the upper and lower 64 bytes
; 191  :           }
; 192  :           else {
; 193  :             __m128i greater_t = _mm_subs_epu16(src1, src2); // unsigned sub with saturation

	vpsubusw xmm1, xmm2, xmm0

; 194  :             __m128i smaller_t = _mm_subs_epu16(src2, src1);

	vpsubusw xmm0, xmm0, xmm2

; 195  :             __m128i absdiff = _mm_or_si128(greater_t, smaller_t); //abs(s1-s2)  == (satsub(s1,s2) | satsub(s2,s1))
; 196  :             // 8 x uint16 absolute differences
; 197  :             sum = _mm_add_epi32(sum, _mm_unpacklo_epi16(absdiff, zero));
; 198  :             sum = _mm_add_epi32(sum, _mm_unpackhi_epi16(absdiff, zero));
; 199  :             // sum1_32, sum2_32, sum3_32, sum4_32
; 200  :           }
; 201  :           // sum += SADABS(reinterpret_cast<const pixel_t *>(pSrc)[x] - reinterpret_cast<const pixel_t *>(pRef)[x]);
; 202  :           if (unroll_by2)
; 203  :           {
; 204  :             // unroll#2
; 205  :             src1 = _mm_loadu_si128((__m128i *) (pSrc + nSrcPitch + x));

	vmovdqu	xmm2, XMMWORD PTR [ecx+edi]

; 206  :             src2 = _mm_loadu_si128((__m128i *) (pRef + nRefPitch + x));

	mov	ecx, DWORD PTR _nRefPitch$[ebp]
	vpor	xmm3, xmm1, xmm0
	vmovdqu	xmm0, XMMWORD PTR [esi+ecx-16]

; 207  :             if (sizeof(pixel_t) == 1) {
; 208  :               // this is uint_16 specific, but will test on uint8_t against external .asm SAD functions)
; 209  :               sum = _mm_add_epi32(sum, _mm_sad_epu8(src1, src2)); // yihhaaa, existing SIMD   sum1_32, 0, sum2_32, 0
; 210  :                                                                   // result in two 32 bit areas at the upper and lower 64 bytes
; 211  :             }
; 212  :             else {
; 213  :               __m128i greater_t = _mm_subs_epu16(src1, src2); // unsigned sub with saturation

	vpsubusw xmm1, xmm2, xmm0

; 214  :               __m128i smaller_t = _mm_subs_epu16(src2, src1);

	vpsubusw xmm0, xmm0, xmm2

; 215  :               __m128i absdiff = _mm_or_si128(greater_t, smaller_t); //abs(s1-s2)  == (satsub(s1,s2) | satsub(s2,s1))

	vpor	xmm2, xmm1, xmm0
	vpunpcklwd xmm0, xmm3, xmm4
	vpaddd	xmm1, xmm0, xmm5
	vpunpckhwd xmm0, xmm3, xmm4
	vpaddd	xmm1, xmm1, xmm0

; 216  :                                                                     // 8 x uint16 absolute differences
; 217  :               sum = _mm_add_epi32(sum, _mm_unpacklo_epi16(absdiff, zero));

	vpunpcklwd xmm0, xmm2, xmm4
	vpaddd	xmm1, xmm1, xmm0

; 218  :               sum = _mm_add_epi32(sum, _mm_unpackhi_epi16(absdiff, zero));

	vpunpckhwd xmm0, xmm2, xmm4
	vpaddd	xmm5, xmm1, xmm0
	sub	eax, 1
	jne	SHORT $LL7@Sad16_sse2

; 219  :               // sum1_32, sum2_32, sum3_32, sum4_32
; 220  :             }
; 221  :           }
; 222  :         }
; 223  :       }
; 224  :       if (two_8byte_rows || unroll_by2) {
; 225  :         pSrc += nSrcPitch * 2;

	mov	edi, DWORD PTR _pSrc$[ebp]

; 226  :         pRef += nRefPitch * 2;

	mov	eax, DWORD PTR _pRef$[ebp]
	add	edi, DWORD PTR tv564[esp+24]
	add	eax, DWORD PTR tv563[esp+24]
	sub	DWORD PTR tv567[esp+24], 1
	mov	DWORD PTR _pSrc$[ebp], edi
	mov	DWORD PTR _pRef$[ebp], eax
	jne	$LL4@Sad16_sse2

; 227  :       }
; 228  :       else {
; 229  :         pSrc += nSrcPitch;
; 230  :         pRef += nRefPitch;
; 231  :       }
; 232  :     }
; 233  :   }
; 234  : #if 0
; 235  :   else { // aligned, experimental. With the in-function alignment check overhead it is slower
; 236  :     for (int y = 0; y < nBlkHeight; y += (two_8byte_rows ? 2 : 1))
; 237  :     {
; 238  :       if (one_cycle)
; 239  :       {
; 240  :         __m128i src1, src2;
; 241  :         src1 = _mm_load_si128((__m128i *) (pSrc)); // no x
; 242  :         src2 = _mm_load_si128((__m128i *) (pRef));
; 243  :         if (sizeof(pixel_t) == 1) {
; 244  :           // this is uint_16 specific, but will test on uint8_t against external .asm SAD functions)
; 245  :           sum = _mm_add_epi32(sum, _mm_sad_epu8(src1, src2)); // yihhaaa, existing SIMD   sum1_32, 0, sum2_32, 0
; 246  :                                                               // result in two 32 bit areas at the upper and lower 64 bytes
; 247  :         }
; 248  :         else {
; 249  :           __m128i greater_t = _mm_subs_epu16(src1, src2); // unsigned sub with saturation
; 250  :           __m128i smaller_t = _mm_subs_epu16(src2, src1);
; 251  :           __m128i absdiff = _mm_or_si128(greater_t, smaller_t); //abs(s1-s2)  == (satsub(s1,s2) | satsub(s2,s1))
; 252  :                                                                 // 8 x uint16 absolute differences
; 253  :           sum = _mm_add_epi32(sum, _mm_unpacklo_epi16(absdiff, zero));
; 254  :           sum = _mm_add_epi32(sum, _mm_unpackhi_epi16(absdiff, zero));
; 255  :           // sum1_32, sum2_32, sum3_32, sum4_32
; 256  :         }
; 257  :       }
; 258  :       else {
; 259  :         for (int x = 0; x < nBlkWidth * sizeof(pixel_t); x += 16)
; 260  :         {
; 261  :           __m128i src1, src2;
; 262  :           src1 = _mm_load_si128((__m128i *) (pSrc + x));
; 263  :           src2 = _mm_load_si128((__m128i *) (pRef + x));
; 264  :           if (sizeof(pixel_t) == 1) {
; 265  :             // this is uint_16 specific, but will test on uint8_t against external .asm SAD functions)
; 266  :             sum = _mm_add_epi32(sum, _mm_sad_epu8(src1, src2)); // yihhaaa, existing SIMD   sum1_32, 0, sum2_32, 0
; 267  :                                                                 // result in two 32 bit areas at the upper and lower 64 bytes
; 268  :           }
; 269  :           else {
; 270  :             __m128i greater_t = _mm_subs_epu16(src1, src2); // unsigned sub with saturation
; 271  :             __m128i smaller_t = _mm_subs_epu16(src2, src1);
; 272  :             __m128i absdiff = _mm_or_si128(greater_t, smaller_t); //abs(s1-s2)  == (satsub(s1,s2) | satsub(s2,s1))
; 273  :                                                                   // 8 x uint16 absolute differences
; 274  :             sum = _mm_add_epi32(sum, _mm_unpacklo_epi16(absdiff, zero));
; 275  :             sum = _mm_add_epi32(sum, _mm_unpackhi_epi16(absdiff, zero));
; 276  :             // sum1_32, sum2_32, sum3_32, sum4_32
; 277  :           }
; 278  :           // sum += SADABS(reinterpret_cast<const pixel_t *>(pSrc)[x] - reinterpret_cast<const pixel_t *>(pRef)[x]);
; 279  :         }
; 280  :       }
; 281  :       if (two_8byte_rows) {
; 282  :         pSrc += nSrcPitch * 2;
; 283  :         pRef += nRefPitch * 2;
; 284  :       }
; 285  :       else {
; 286  :         pSrc += nSrcPitch;
; 287  :         pRef += nRefPitch;
; 288  :       }
; 289  :     }
; 290  : 
; 291  :   }
; 292  : #endif
; 293  :   /*
; 294  :   [Low64, Hi64]
; 295  :   _mm_unpacklo_epi64(_mm_setzero_si128(), x)  [0, x0]
; 296  :   _mm_unpackhi_epi64(_mm_setzero_si128(), x)  [0, x1]
; 297  :   _mm_move_epi64(x)                           [x0, 0]
; 298  :   _mm_unpackhi_epi64(x, _mm_setzero_si128())  [x1, 0]
; 299  :   */
; 300  : #if 1
; 301  :   if(sizeof(pixel_t) == 2) {
; 302  :     // at 16 bits: we have 4 integers for sum: a0 a1 a2 a3
; 303  :     __m128i a0_a1 = _mm_unpacklo_epi32(sum, zero); // a0 0 a1 0

	vpunpckldq xmm0, xmm5, xmm4

; 304  :     __m128i a2_a3 = _mm_unpackhi_epi32(sum, zero); // a2 0 a3 0

	vpunpckhdq xmm1, xmm5, xmm4

; 305  :     sum = _mm_add_epi32( a0_a1, a2_a3 ); // a0+a2, 0, a1+a3, 0

	vpaddd	xmm1, xmm1, xmm0

; 306  :     // hadd: shower
; 307  :   }
; 308  :   // sum here: two 32 bit partial result: sum1 0 sum2 0
; 309  :   __m128i sum_hi = _mm_unpackhi_epi64(sum, zero); // a1 + a3. 2 dwords right 

	vpunpckhqdq xmm0, xmm1, xmm4

; 310  :   sum = _mm_add_epi32(sum, sum_hi);  // a0 + a2 + a1 + a3

	vpaddd	xmm0, xmm0, xmm1

; 311  : #else
; 312  :   // this hadd path is slower on Ivy bridge
; 313  :   if (sizeof(pixel_t) == 2) {
; 314  :     sum = _mm_hadd_epi32(sum, zero); // a0_a = a0 + a1, a1_a = a2 + a3
; 315  :     sum = _mm_hadd_epi32(sum, zero); // a0 = a0_a + a1_a ( = a0+a1+a2+a3)
; 316  :   }
; 317  :   else { // uint8_t
; 318  :     // sum here: two 32 bit partial result: sum1 0 sum2 0
; 319  :     __m128i sum_hi = _mm_unpackhi_epi64(sum, zero); // a1 + a3. 2 dwords right 
; 320  :     sum = _mm_add_epi32(sum, sum_hi);  // a0 + a2 + a1 + a3
; 321  : 
; 322  :   }
; 323  : #endif
; 324  : 
; 325  :   unsigned int result = _mm_cvtsi128_si32(sum);
; 326  : 
; 327  : #if 0
; 328  :   // check result against C
; 329  :   if (result != result2) {
; 330  :     result = result2;
; 331  :   }
; 332  : #endif
; 333  :   _mm256_zeroupper(); // diff from main sse2
; 334  : 
; 335  :   return result;
; 336  : }  // end of SSE2 with AVX commandset Sad16

	pop	edi
	vmovd	eax, xmm0
	pop	esi
	mov	esp, ebp
	pop	ebp
	ret	0
??$Sad16_sse2_avx@$0CA@$07G@@YAIPBEH0H@Z ENDP		; Sad16_sse2_avx<32,8,unsigned short>
_TEXT	ENDS
; Function compile flags: /Ogtpy
; File c:\github\mvtools\sources\sadfunctions_avx.cpp
;	COMDAT ??$Sad16_sse2_avx@$0BA@$0CA@G@@YAIPBEH0H@Z
_TEXT	SEGMENT
tv567 = -12						; size = 4
tv564 = -8						; size = 4
tv563 = -4						; size = 4
_pSrc$ = 8						; size = 4
_nSrcPitch$ = 12					; size = 4
_pRef$ = 16						; size = 4
_nRefPitch$ = 20					; size = 4
??$Sad16_sse2_avx@$0BA@$0CA@G@@YAIPBEH0H@Z PROC		; Sad16_sse2_avx<16,32,unsigned short>, COMDAT

; 88   : {

	push	ebp
	mov	ebp, esp
	and	esp, -8					; fffffff8H
	sub	esp, 16					; 00000010H
	mov	eax, DWORD PTR _nSrcPitch$[ebp]
	add	eax, eax

; 89   : #if 0
; 90   :   // check result against C
; 91   :   unsigned int result2 = Sad_AVX_C<nBlkWidth, nBlkHeight, pixel_t>(pSrc, nSrcPitch, pRef, nRefPitch);
; 92   : #endif
; 93   :   _mm256_zeroupper(); // diff from main sse2

	mov	DWORD PTR tv567[esp+16], 16		; 00000010H
	mov	DWORD PTR tv564[esp+16], eax
	mov	eax, DWORD PTR _nRefPitch$[ebp]
	add	eax, eax
	push	esi
	vpxor	xmm4, xmm4, xmm4
	push	edi
	mov	edi, DWORD PTR _pSrc$[ebp]
	mov	DWORD PTR tv563[esp+24], eax
	mov	eax, DWORD PTR _pRef$[ebp]

; 94   :   __m128i zero = _mm_setzero_si128();
; 95   :   __m128i sum = _mm_setzero_si128(); // 2x or 4x int is probably enough for 32x32

	vmovdqa	xmm5, xmm4
$LL4@Sad16_sse2:

; 96   : 
; 97   :   const bool two_8byte_rows = (sizeof(pixel_t) == 2 && nBlkWidth <= 4) || (sizeof(pixel_t) == 1 && nBlkWidth <= 8);
; 98   :   const bool one_cycle = (sizeof(pixel_t) * nBlkWidth) == 16;
; 99   :   const bool unroll_by2 = !two_8byte_rows && nBlkHeight>=2; // unroll by 4: slower
; 100  : 
; 101  :   bool unaligned = true;
; 102  :   if (!two_8byte_rows) {
; 103  :     // test. not faster. Checking overhead?
; 104  :     unaligned = true; // ((reinterpret_cast <ptrdiff_t> (pSrc) & 0x0F) || ((reinterpret_cast <ptrdiff_t>(pRef)) & 0x0F) || ((nRefPitch | nSrcPitch) & 0x0F));
; 105  :   }
; 106  : 
; 107  :   if (unaligned) {
; 108  :     for (int y = 0; y < nBlkHeight; y += (two_8byte_rows || unroll_by2) ? 2 : 1)
; 109  :     {
; 110  :       if (two_8byte_rows) { // no x cycle
; 111  :         __m128i src1, src2;
; 112  :         // (8 bytes or 4 words) * 2 rows
; 113  : #if 0
; 114  :         src1 = _mm_or_si128(_mm_loadl_epi64((__m128i *) (pSrc)), _mm_slli_si128(_mm_loadl_epi64((__m128i *) (pSrc + nSrcPitch)), 8));
; 115  :         src2 = _mm_or_si128(_mm_loadl_epi64((__m128i *) (pRef)), _mm_slli_si128(_mm_loadl_epi64((__m128i *) (pRef + nRefPitch)), 8));
; 116  : #else
; 117  :         // 16.12.01 unpack
; 118  :         if (sizeof(pixel_t) == 1) {
; 119  :           src1 = _mm_unpacklo_epi8(_mm_loadl_epi64((__m128i *) (pSrc)), _mm_loadl_epi64((__m128i *) (pSrc + nSrcPitch)));
; 120  :           src2 = _mm_unpacklo_epi8(_mm_loadl_epi64((__m128i *) (pRef)), _mm_loadl_epi64((__m128i *) (pRef + nRefPitch)));
; 121  :         }
; 122  :         else if (sizeof(pixel_t) == 2) {
; 123  :           src1 = _mm_unpacklo_epi16(_mm_loadl_epi64((__m128i *) (pSrc)), _mm_loadl_epi64((__m128i *) (pSrc + nSrcPitch)));
; 124  :           src2 = _mm_unpacklo_epi16(_mm_loadl_epi64((__m128i *) (pRef)), _mm_loadl_epi64((__m128i *) (pRef + nRefPitch)));
; 125  :         }
; 126  : #endif
; 127  :         if (sizeof(pixel_t) == 1) {
; 128  :           // this is uint_16 specific, but will test on uint8_t against external .asm SAD functions)
; 129  :           sum = _mm_add_epi32(sum, _mm_sad_epu8(src1, src2)); // yihhaaa, existing SIMD   sum1_32, 0, sum2_32, 0
; 130  :                                                               // result in two 32 bit areas at the upper and lower 64 bytes
; 131  :         }
; 132  :         else {
; 133  :           __m128i greater_t = _mm_subs_epu16(src1, src2); // unsigned sub with saturation
; 134  :           __m128i smaller_t = _mm_subs_epu16(src2, src1);
; 135  :           __m128i absdiff = _mm_or_si128(greater_t, smaller_t); //abs(s1-s2)  == (satsub(s1,s2) | satsub(s2,s1))
; 136  :           // 8 x uint16 absolute differences
; 137  :           sum = _mm_add_epi32(sum, _mm_unpacklo_epi16(absdiff, zero));
; 138  :           sum = _mm_add_epi32(sum, _mm_unpackhi_epi16(absdiff, zero));
; 139  :           // sum1_32, sum2_32, sum3_32, sum4_32
; 140  :         }
; 141  :       }
; 142  :       else if (one_cycle)
; 143  :       {
; 144  :         __m128i src1, src2;
; 145  :         src1 = _mm_loadu_si128((__m128i *) (pSrc)); // no x
; 146  :         src2 = _mm_loadu_si128((__m128i *) (pRef));
; 147  :         if (sizeof(pixel_t) == 1) {
; 148  :           // this is uint_16 specific, but will test on uint8_t against external .asm SAD functions)
; 149  :           sum = _mm_add_epi32(sum, _mm_sad_epu8(src1, src2)); // yihhaaa, existing SIMD   sum1_32, 0, sum2_32, 0
; 150  :                                                               // result in two 32 bit areas at the upper and lower 64 bytes
; 151  :         }
; 152  :         else {
; 153  :           __m128i greater_t = _mm_subs_epu16(src1, src2); // unsigned sub with saturation
; 154  :           __m128i smaller_t = _mm_subs_epu16(src2, src1);
; 155  :           __m128i absdiff = _mm_or_si128(greater_t, smaller_t); //abs(s1-s2)  == (satsub(s1,s2) | satsub(s2,s1))
; 156  :                                                                 // 8 x uint16 absolute differences
; 157  :           sum = _mm_add_epi32(sum, _mm_unpacklo_epi16(absdiff, zero));
; 158  :           sum = _mm_add_epi32(sum, _mm_unpackhi_epi16(absdiff, zero));
; 159  :           // sum1_32, sum2_32, sum3_32, sum4_32
; 160  :         }
; 161  :         if (unroll_by2) {
; 162  :           // unroll#2
; 163  :           src1 = _mm_loadu_si128((__m128i *) (pSrc+nSrcPitch)); // no x
; 164  :           src2 = _mm_loadu_si128((__m128i *) (pRef+nRefPitch));
; 165  :           if (sizeof(pixel_t) == 1) {
; 166  :             // this is uint_16 specific, but will test on uint8_t against external .asm SAD functions)
; 167  :             sum = _mm_add_epi32(sum, _mm_sad_epu8(src1, src2)); // yihhaaa, existing SIMD   sum1_32, 0, sum2_32, 0
; 168  :                                                                 // result in two 32 bit areas at the upper and lower 64 bytes
; 169  :           }
; 170  :           else {
; 171  :             __m128i greater_t = _mm_subs_epu16(src1, src2); // unsigned sub with saturation
; 172  :             __m128i smaller_t = _mm_subs_epu16(src2, src1);
; 173  :             __m128i absdiff = _mm_or_si128(greater_t, smaller_t); //abs(s1-s2)  == (satsub(s1,s2) | satsub(s2,s1))
; 174  :                                                                   // 8 x uint16 absolute differences
; 175  :             sum = _mm_add_epi32(sum, _mm_unpacklo_epi16(absdiff, zero));
; 176  :             sum = _mm_add_epi32(sum, _mm_unpackhi_epi16(absdiff, zero));
; 177  :             // sum1_32, sum2_32, sum3_32, sum4_32
; 178  :           }
; 179  :         }
; 180  :       }
; 181  :       else {
; 182  :         for (int x = 0; x < nBlkWidth * sizeof(pixel_t); x += 16)

	mov	edx, edi
	mov	esi, eax
	mov	edi, DWORD PTR _nSrcPitch$[ebp]
	sub	edx, eax
	mov	eax, 2
$LL7@Sad16_sse2:

; 183  :         {
; 184  :           __m128i src1, src2;
; 185  :           src1 = _mm_loadu_si128((__m128i *) (pSrc + x));

	lea	ecx, DWORD PTR [edx+esi]
	lea	esi, DWORD PTR [esi+16]
	vmovdqu	xmm2, XMMWORD PTR [ecx]

; 186  :           src2 = _mm_loadu_si128((__m128i *) (pRef + x));

	vmovdqu	xmm0, XMMWORD PTR [esi-16]

; 187  :           if (sizeof(pixel_t) == 1) {
; 188  :             // this is uint_16 specific, but will test on uint8_t against external .asm SAD functions)
; 189  :             sum = _mm_add_epi32(sum, _mm_sad_epu8(src1, src2)); // yihhaaa, existing SIMD   sum1_32, 0, sum2_32, 0
; 190  :             // result in two 32 bit areas at the upper and lower 64 bytes
; 191  :           }
; 192  :           else {
; 193  :             __m128i greater_t = _mm_subs_epu16(src1, src2); // unsigned sub with saturation

	vpsubusw xmm1, xmm2, xmm0

; 194  :             __m128i smaller_t = _mm_subs_epu16(src2, src1);

	vpsubusw xmm0, xmm0, xmm2

; 195  :             __m128i absdiff = _mm_or_si128(greater_t, smaller_t); //abs(s1-s2)  == (satsub(s1,s2) | satsub(s2,s1))
; 196  :             // 8 x uint16 absolute differences
; 197  :             sum = _mm_add_epi32(sum, _mm_unpacklo_epi16(absdiff, zero));
; 198  :             sum = _mm_add_epi32(sum, _mm_unpackhi_epi16(absdiff, zero));
; 199  :             // sum1_32, sum2_32, sum3_32, sum4_32
; 200  :           }
; 201  :           // sum += SADABS(reinterpret_cast<const pixel_t *>(pSrc)[x] - reinterpret_cast<const pixel_t *>(pRef)[x]);
; 202  :           if (unroll_by2)
; 203  :           {
; 204  :             // unroll#2
; 205  :             src1 = _mm_loadu_si128((__m128i *) (pSrc + nSrcPitch + x));

	vmovdqu	xmm2, XMMWORD PTR [ecx+edi]

; 206  :             src2 = _mm_loadu_si128((__m128i *) (pRef + nRefPitch + x));

	mov	ecx, DWORD PTR _nRefPitch$[ebp]
	vpor	xmm3, xmm1, xmm0
	vmovdqu	xmm0, XMMWORD PTR [esi+ecx-16]

; 207  :             if (sizeof(pixel_t) == 1) {
; 208  :               // this is uint_16 specific, but will test on uint8_t against external .asm SAD functions)
; 209  :               sum = _mm_add_epi32(sum, _mm_sad_epu8(src1, src2)); // yihhaaa, existing SIMD   sum1_32, 0, sum2_32, 0
; 210  :                                                                   // result in two 32 bit areas at the upper and lower 64 bytes
; 211  :             }
; 212  :             else {
; 213  :               __m128i greater_t = _mm_subs_epu16(src1, src2); // unsigned sub with saturation

	vpsubusw xmm1, xmm2, xmm0

; 214  :               __m128i smaller_t = _mm_subs_epu16(src2, src1);

	vpsubusw xmm0, xmm0, xmm2

; 215  :               __m128i absdiff = _mm_or_si128(greater_t, smaller_t); //abs(s1-s2)  == (satsub(s1,s2) | satsub(s2,s1))

	vpor	xmm2, xmm1, xmm0
	vpunpcklwd xmm0, xmm3, xmm4
	vpaddd	xmm1, xmm0, xmm5
	vpunpckhwd xmm0, xmm3, xmm4
	vpaddd	xmm1, xmm1, xmm0

; 216  :                                                                     // 8 x uint16 absolute differences
; 217  :               sum = _mm_add_epi32(sum, _mm_unpacklo_epi16(absdiff, zero));

	vpunpcklwd xmm0, xmm2, xmm4
	vpaddd	xmm1, xmm1, xmm0

; 218  :               sum = _mm_add_epi32(sum, _mm_unpackhi_epi16(absdiff, zero));

	vpunpckhwd xmm0, xmm2, xmm4
	vpaddd	xmm5, xmm1, xmm0
	sub	eax, 1
	jne	SHORT $LL7@Sad16_sse2

; 219  :               // sum1_32, sum2_32, sum3_32, sum4_32
; 220  :             }
; 221  :           }
; 222  :         }
; 223  :       }
; 224  :       if (two_8byte_rows || unroll_by2) {
; 225  :         pSrc += nSrcPitch * 2;

	mov	edi, DWORD PTR _pSrc$[ebp]

; 226  :         pRef += nRefPitch * 2;

	mov	eax, DWORD PTR _pRef$[ebp]
	add	edi, DWORD PTR tv564[esp+24]
	add	eax, DWORD PTR tv563[esp+24]
	sub	DWORD PTR tv567[esp+24], 1
	mov	DWORD PTR _pSrc$[ebp], edi
	mov	DWORD PTR _pRef$[ebp], eax
	jne	$LL4@Sad16_sse2

; 227  :       }
; 228  :       else {
; 229  :         pSrc += nSrcPitch;
; 230  :         pRef += nRefPitch;
; 231  :       }
; 232  :     }
; 233  :   }
; 234  : #if 0
; 235  :   else { // aligned, experimental. With the in-function alignment check overhead it is slower
; 236  :     for (int y = 0; y < nBlkHeight; y += (two_8byte_rows ? 2 : 1))
; 237  :     {
; 238  :       if (one_cycle)
; 239  :       {
; 240  :         __m128i src1, src2;
; 241  :         src1 = _mm_load_si128((__m128i *) (pSrc)); // no x
; 242  :         src2 = _mm_load_si128((__m128i *) (pRef));
; 243  :         if (sizeof(pixel_t) == 1) {
; 244  :           // this is uint_16 specific, but will test on uint8_t against external .asm SAD functions)
; 245  :           sum = _mm_add_epi32(sum, _mm_sad_epu8(src1, src2)); // yihhaaa, existing SIMD   sum1_32, 0, sum2_32, 0
; 246  :                                                               // result in two 32 bit areas at the upper and lower 64 bytes
; 247  :         }
; 248  :         else {
; 249  :           __m128i greater_t = _mm_subs_epu16(src1, src2); // unsigned sub with saturation
; 250  :           __m128i smaller_t = _mm_subs_epu16(src2, src1);
; 251  :           __m128i absdiff = _mm_or_si128(greater_t, smaller_t); //abs(s1-s2)  == (satsub(s1,s2) | satsub(s2,s1))
; 252  :                                                                 // 8 x uint16 absolute differences
; 253  :           sum = _mm_add_epi32(sum, _mm_unpacklo_epi16(absdiff, zero));
; 254  :           sum = _mm_add_epi32(sum, _mm_unpackhi_epi16(absdiff, zero));
; 255  :           // sum1_32, sum2_32, sum3_32, sum4_32
; 256  :         }
; 257  :       }
; 258  :       else {
; 259  :         for (int x = 0; x < nBlkWidth * sizeof(pixel_t); x += 16)
; 260  :         {
; 261  :           __m128i src1, src2;
; 262  :           src1 = _mm_load_si128((__m128i *) (pSrc + x));
; 263  :           src2 = _mm_load_si128((__m128i *) (pRef + x));
; 264  :           if (sizeof(pixel_t) == 1) {
; 265  :             // this is uint_16 specific, but will test on uint8_t against external .asm SAD functions)
; 266  :             sum = _mm_add_epi32(sum, _mm_sad_epu8(src1, src2)); // yihhaaa, existing SIMD   sum1_32, 0, sum2_32, 0
; 267  :                                                                 // result in two 32 bit areas at the upper and lower 64 bytes
; 268  :           }
; 269  :           else {
; 270  :             __m128i greater_t = _mm_subs_epu16(src1, src2); // unsigned sub with saturation
; 271  :             __m128i smaller_t = _mm_subs_epu16(src2, src1);
; 272  :             __m128i absdiff = _mm_or_si128(greater_t, smaller_t); //abs(s1-s2)  == (satsub(s1,s2) | satsub(s2,s1))
; 273  :                                                                   // 8 x uint16 absolute differences
; 274  :             sum = _mm_add_epi32(sum, _mm_unpacklo_epi16(absdiff, zero));
; 275  :             sum = _mm_add_epi32(sum, _mm_unpackhi_epi16(absdiff, zero));
; 276  :             // sum1_32, sum2_32, sum3_32, sum4_32
; 277  :           }
; 278  :           // sum += SADABS(reinterpret_cast<const pixel_t *>(pSrc)[x] - reinterpret_cast<const pixel_t *>(pRef)[x]);
; 279  :         }
; 280  :       }
; 281  :       if (two_8byte_rows) {
; 282  :         pSrc += nSrcPitch * 2;
; 283  :         pRef += nRefPitch * 2;
; 284  :       }
; 285  :       else {
; 286  :         pSrc += nSrcPitch;
; 287  :         pRef += nRefPitch;
; 288  :       }
; 289  :     }
; 290  : 
; 291  :   }
; 292  : #endif
; 293  :   /*
; 294  :   [Low64, Hi64]
; 295  :   _mm_unpacklo_epi64(_mm_setzero_si128(), x)  [0, x0]
; 296  :   _mm_unpackhi_epi64(_mm_setzero_si128(), x)  [0, x1]
; 297  :   _mm_move_epi64(x)                           [x0, 0]
; 298  :   _mm_unpackhi_epi64(x, _mm_setzero_si128())  [x1, 0]
; 299  :   */
; 300  : #if 1
; 301  :   if(sizeof(pixel_t) == 2) {
; 302  :     // at 16 bits: we have 4 integers for sum: a0 a1 a2 a3
; 303  :     __m128i a0_a1 = _mm_unpacklo_epi32(sum, zero); // a0 0 a1 0

	vpunpckldq xmm0, xmm5, xmm4

; 304  :     __m128i a2_a3 = _mm_unpackhi_epi32(sum, zero); // a2 0 a3 0

	vpunpckhdq xmm1, xmm5, xmm4

; 305  :     sum = _mm_add_epi32( a0_a1, a2_a3 ); // a0+a2, 0, a1+a3, 0

	vpaddd	xmm1, xmm1, xmm0

; 306  :     // hadd: shower
; 307  :   }
; 308  :   // sum here: two 32 bit partial result: sum1 0 sum2 0
; 309  :   __m128i sum_hi = _mm_unpackhi_epi64(sum, zero); // a1 + a3. 2 dwords right 

	vpunpckhqdq xmm0, xmm1, xmm4

; 310  :   sum = _mm_add_epi32(sum, sum_hi);  // a0 + a2 + a1 + a3

	vpaddd	xmm0, xmm0, xmm1

; 311  : #else
; 312  :   // this hadd path is slower on Ivy bridge
; 313  :   if (sizeof(pixel_t) == 2) {
; 314  :     sum = _mm_hadd_epi32(sum, zero); // a0_a = a0 + a1, a1_a = a2 + a3
; 315  :     sum = _mm_hadd_epi32(sum, zero); // a0 = a0_a + a1_a ( = a0+a1+a2+a3)
; 316  :   }
; 317  :   else { // uint8_t
; 318  :     // sum here: two 32 bit partial result: sum1 0 sum2 0
; 319  :     __m128i sum_hi = _mm_unpackhi_epi64(sum, zero); // a1 + a3. 2 dwords right 
; 320  :     sum = _mm_add_epi32(sum, sum_hi);  // a0 + a2 + a1 + a3
; 321  : 
; 322  :   }
; 323  : #endif
; 324  : 
; 325  :   unsigned int result = _mm_cvtsi128_si32(sum);
; 326  : 
; 327  : #if 0
; 328  :   // check result against C
; 329  :   if (result != result2) {
; 330  :     result = result2;
; 331  :   }
; 332  : #endif
; 333  :   _mm256_zeroupper(); // diff from main sse2
; 334  : 
; 335  :   return result;
; 336  : }  // end of SSE2 with AVX commandset Sad16

	pop	edi
	vmovd	eax, xmm0
	pop	esi
	mov	esp, ebp
	pop	ebp
	ret	0
??$Sad16_sse2_avx@$0BA@$0CA@G@@YAIPBEH0H@Z ENDP		; Sad16_sse2_avx<16,32,unsigned short>
_TEXT	ENDS
; Function compile flags: /Ogtpy
; File c:\github\mvtools\sources\sadfunctions_avx.cpp
;	COMDAT ??$Sad16_sse2_avx@$0BA@$0BA@G@@YAIPBEH0H@Z
_TEXT	SEGMENT
tv567 = -12						; size = 4
tv564 = -8						; size = 4
tv563 = -4						; size = 4
_pSrc$ = 8						; size = 4
_nSrcPitch$ = 12					; size = 4
_pRef$ = 16						; size = 4
_nRefPitch$ = 20					; size = 4
??$Sad16_sse2_avx@$0BA@$0BA@G@@YAIPBEH0H@Z PROC		; Sad16_sse2_avx<16,16,unsigned short>, COMDAT

; 88   : {

	push	ebp
	mov	ebp, esp
	and	esp, -8					; fffffff8H
	sub	esp, 16					; 00000010H
	mov	eax, DWORD PTR _nSrcPitch$[ebp]
	add	eax, eax

; 89   : #if 0
; 90   :   // check result against C
; 91   :   unsigned int result2 = Sad_AVX_C<nBlkWidth, nBlkHeight, pixel_t>(pSrc, nSrcPitch, pRef, nRefPitch);
; 92   : #endif
; 93   :   _mm256_zeroupper(); // diff from main sse2

	mov	DWORD PTR tv567[esp+16], 8
	mov	DWORD PTR tv564[esp+16], eax
	mov	eax, DWORD PTR _nRefPitch$[ebp]
	add	eax, eax
	push	esi
	vpxor	xmm4, xmm4, xmm4
	push	edi
	mov	edi, DWORD PTR _pSrc$[ebp]
	mov	DWORD PTR tv563[esp+24], eax
	mov	eax, DWORD PTR _pRef$[ebp]

; 94   :   __m128i zero = _mm_setzero_si128();
; 95   :   __m128i sum = _mm_setzero_si128(); // 2x or 4x int is probably enough for 32x32

	vmovdqa	xmm5, xmm4
$LL4@Sad16_sse2:

; 96   : 
; 97   :   const bool two_8byte_rows = (sizeof(pixel_t) == 2 && nBlkWidth <= 4) || (sizeof(pixel_t) == 1 && nBlkWidth <= 8);
; 98   :   const bool one_cycle = (sizeof(pixel_t) * nBlkWidth) == 16;
; 99   :   const bool unroll_by2 = !two_8byte_rows && nBlkHeight>=2; // unroll by 4: slower
; 100  : 
; 101  :   bool unaligned = true;
; 102  :   if (!two_8byte_rows) {
; 103  :     // test. not faster. Checking overhead?
; 104  :     unaligned = true; // ((reinterpret_cast <ptrdiff_t> (pSrc) & 0x0F) || ((reinterpret_cast <ptrdiff_t>(pRef)) & 0x0F) || ((nRefPitch | nSrcPitch) & 0x0F));
; 105  :   }
; 106  : 
; 107  :   if (unaligned) {
; 108  :     for (int y = 0; y < nBlkHeight; y += (two_8byte_rows || unroll_by2) ? 2 : 1)
; 109  :     {
; 110  :       if (two_8byte_rows) { // no x cycle
; 111  :         __m128i src1, src2;
; 112  :         // (8 bytes or 4 words) * 2 rows
; 113  : #if 0
; 114  :         src1 = _mm_or_si128(_mm_loadl_epi64((__m128i *) (pSrc)), _mm_slli_si128(_mm_loadl_epi64((__m128i *) (pSrc + nSrcPitch)), 8));
; 115  :         src2 = _mm_or_si128(_mm_loadl_epi64((__m128i *) (pRef)), _mm_slli_si128(_mm_loadl_epi64((__m128i *) (pRef + nRefPitch)), 8));
; 116  : #else
; 117  :         // 16.12.01 unpack
; 118  :         if (sizeof(pixel_t) == 1) {
; 119  :           src1 = _mm_unpacklo_epi8(_mm_loadl_epi64((__m128i *) (pSrc)), _mm_loadl_epi64((__m128i *) (pSrc + nSrcPitch)));
; 120  :           src2 = _mm_unpacklo_epi8(_mm_loadl_epi64((__m128i *) (pRef)), _mm_loadl_epi64((__m128i *) (pRef + nRefPitch)));
; 121  :         }
; 122  :         else if (sizeof(pixel_t) == 2) {
; 123  :           src1 = _mm_unpacklo_epi16(_mm_loadl_epi64((__m128i *) (pSrc)), _mm_loadl_epi64((__m128i *) (pSrc + nSrcPitch)));
; 124  :           src2 = _mm_unpacklo_epi16(_mm_loadl_epi64((__m128i *) (pRef)), _mm_loadl_epi64((__m128i *) (pRef + nRefPitch)));
; 125  :         }
; 126  : #endif
; 127  :         if (sizeof(pixel_t) == 1) {
; 128  :           // this is uint_16 specific, but will test on uint8_t against external .asm SAD functions)
; 129  :           sum = _mm_add_epi32(sum, _mm_sad_epu8(src1, src2)); // yihhaaa, existing SIMD   sum1_32, 0, sum2_32, 0
; 130  :                                                               // result in two 32 bit areas at the upper and lower 64 bytes
; 131  :         }
; 132  :         else {
; 133  :           __m128i greater_t = _mm_subs_epu16(src1, src2); // unsigned sub with saturation
; 134  :           __m128i smaller_t = _mm_subs_epu16(src2, src1);
; 135  :           __m128i absdiff = _mm_or_si128(greater_t, smaller_t); //abs(s1-s2)  == (satsub(s1,s2) | satsub(s2,s1))
; 136  :           // 8 x uint16 absolute differences
; 137  :           sum = _mm_add_epi32(sum, _mm_unpacklo_epi16(absdiff, zero));
; 138  :           sum = _mm_add_epi32(sum, _mm_unpackhi_epi16(absdiff, zero));
; 139  :           // sum1_32, sum2_32, sum3_32, sum4_32
; 140  :         }
; 141  :       }
; 142  :       else if (one_cycle)
; 143  :       {
; 144  :         __m128i src1, src2;
; 145  :         src1 = _mm_loadu_si128((__m128i *) (pSrc)); // no x
; 146  :         src2 = _mm_loadu_si128((__m128i *) (pRef));
; 147  :         if (sizeof(pixel_t) == 1) {
; 148  :           // this is uint_16 specific, but will test on uint8_t against external .asm SAD functions)
; 149  :           sum = _mm_add_epi32(sum, _mm_sad_epu8(src1, src2)); // yihhaaa, existing SIMD   sum1_32, 0, sum2_32, 0
; 150  :                                                               // result in two 32 bit areas at the upper and lower 64 bytes
; 151  :         }
; 152  :         else {
; 153  :           __m128i greater_t = _mm_subs_epu16(src1, src2); // unsigned sub with saturation
; 154  :           __m128i smaller_t = _mm_subs_epu16(src2, src1);
; 155  :           __m128i absdiff = _mm_or_si128(greater_t, smaller_t); //abs(s1-s2)  == (satsub(s1,s2) | satsub(s2,s1))
; 156  :                                                                 // 8 x uint16 absolute differences
; 157  :           sum = _mm_add_epi32(sum, _mm_unpacklo_epi16(absdiff, zero));
; 158  :           sum = _mm_add_epi32(sum, _mm_unpackhi_epi16(absdiff, zero));
; 159  :           // sum1_32, sum2_32, sum3_32, sum4_32
; 160  :         }
; 161  :         if (unroll_by2) {
; 162  :           // unroll#2
; 163  :           src1 = _mm_loadu_si128((__m128i *) (pSrc+nSrcPitch)); // no x
; 164  :           src2 = _mm_loadu_si128((__m128i *) (pRef+nRefPitch));
; 165  :           if (sizeof(pixel_t) == 1) {
; 166  :             // this is uint_16 specific, but will test on uint8_t against external .asm SAD functions)
; 167  :             sum = _mm_add_epi32(sum, _mm_sad_epu8(src1, src2)); // yihhaaa, existing SIMD   sum1_32, 0, sum2_32, 0
; 168  :                                                                 // result in two 32 bit areas at the upper and lower 64 bytes
; 169  :           }
; 170  :           else {
; 171  :             __m128i greater_t = _mm_subs_epu16(src1, src2); // unsigned sub with saturation
; 172  :             __m128i smaller_t = _mm_subs_epu16(src2, src1);
; 173  :             __m128i absdiff = _mm_or_si128(greater_t, smaller_t); //abs(s1-s2)  == (satsub(s1,s2) | satsub(s2,s1))
; 174  :                                                                   // 8 x uint16 absolute differences
; 175  :             sum = _mm_add_epi32(sum, _mm_unpacklo_epi16(absdiff, zero));
; 176  :             sum = _mm_add_epi32(sum, _mm_unpackhi_epi16(absdiff, zero));
; 177  :             // sum1_32, sum2_32, sum3_32, sum4_32
; 178  :           }
; 179  :         }
; 180  :       }
; 181  :       else {
; 182  :         for (int x = 0; x < nBlkWidth * sizeof(pixel_t); x += 16)

	mov	edx, edi
	mov	esi, eax
	mov	edi, DWORD PTR _nSrcPitch$[ebp]
	sub	edx, eax
	mov	eax, 2
$LL7@Sad16_sse2:

; 183  :         {
; 184  :           __m128i src1, src2;
; 185  :           src1 = _mm_loadu_si128((__m128i *) (pSrc + x));

	lea	ecx, DWORD PTR [edx+esi]
	lea	esi, DWORD PTR [esi+16]
	vmovdqu	xmm2, XMMWORD PTR [ecx]

; 186  :           src2 = _mm_loadu_si128((__m128i *) (pRef + x));

	vmovdqu	xmm0, XMMWORD PTR [esi-16]

; 187  :           if (sizeof(pixel_t) == 1) {
; 188  :             // this is uint_16 specific, but will test on uint8_t against external .asm SAD functions)
; 189  :             sum = _mm_add_epi32(sum, _mm_sad_epu8(src1, src2)); // yihhaaa, existing SIMD   sum1_32, 0, sum2_32, 0
; 190  :             // result in two 32 bit areas at the upper and lower 64 bytes
; 191  :           }
; 192  :           else {
; 193  :             __m128i greater_t = _mm_subs_epu16(src1, src2); // unsigned sub with saturation

	vpsubusw xmm1, xmm2, xmm0

; 194  :             __m128i smaller_t = _mm_subs_epu16(src2, src1);

	vpsubusw xmm0, xmm0, xmm2

; 195  :             __m128i absdiff = _mm_or_si128(greater_t, smaller_t); //abs(s1-s2)  == (satsub(s1,s2) | satsub(s2,s1))
; 196  :             // 8 x uint16 absolute differences
; 197  :             sum = _mm_add_epi32(sum, _mm_unpacklo_epi16(absdiff, zero));
; 198  :             sum = _mm_add_epi32(sum, _mm_unpackhi_epi16(absdiff, zero));
; 199  :             // sum1_32, sum2_32, sum3_32, sum4_32
; 200  :           }
; 201  :           // sum += SADABS(reinterpret_cast<const pixel_t *>(pSrc)[x] - reinterpret_cast<const pixel_t *>(pRef)[x]);
; 202  :           if (unroll_by2)
; 203  :           {
; 204  :             // unroll#2
; 205  :             src1 = _mm_loadu_si128((__m128i *) (pSrc + nSrcPitch + x));

	vmovdqu	xmm2, XMMWORD PTR [ecx+edi]

; 206  :             src2 = _mm_loadu_si128((__m128i *) (pRef + nRefPitch + x));

	mov	ecx, DWORD PTR _nRefPitch$[ebp]
	vpor	xmm3, xmm1, xmm0
	vmovdqu	xmm0, XMMWORD PTR [esi+ecx-16]

; 207  :             if (sizeof(pixel_t) == 1) {
; 208  :               // this is uint_16 specific, but will test on uint8_t against external .asm SAD functions)
; 209  :               sum = _mm_add_epi32(sum, _mm_sad_epu8(src1, src2)); // yihhaaa, existing SIMD   sum1_32, 0, sum2_32, 0
; 210  :                                                                   // result in two 32 bit areas at the upper and lower 64 bytes
; 211  :             }
; 212  :             else {
; 213  :               __m128i greater_t = _mm_subs_epu16(src1, src2); // unsigned sub with saturation

	vpsubusw xmm1, xmm2, xmm0

; 214  :               __m128i smaller_t = _mm_subs_epu16(src2, src1);

	vpsubusw xmm0, xmm0, xmm2

; 215  :               __m128i absdiff = _mm_or_si128(greater_t, smaller_t); //abs(s1-s2)  == (satsub(s1,s2) | satsub(s2,s1))

	vpor	xmm2, xmm1, xmm0
	vpunpcklwd xmm0, xmm3, xmm4
	vpaddd	xmm1, xmm0, xmm5
	vpunpckhwd xmm0, xmm3, xmm4
	vpaddd	xmm1, xmm1, xmm0

; 216  :                                                                     // 8 x uint16 absolute differences
; 217  :               sum = _mm_add_epi32(sum, _mm_unpacklo_epi16(absdiff, zero));

	vpunpcklwd xmm0, xmm2, xmm4
	vpaddd	xmm1, xmm1, xmm0

; 218  :               sum = _mm_add_epi32(sum, _mm_unpackhi_epi16(absdiff, zero));

	vpunpckhwd xmm0, xmm2, xmm4
	vpaddd	xmm5, xmm1, xmm0
	sub	eax, 1
	jne	SHORT $LL7@Sad16_sse2

; 219  :               // sum1_32, sum2_32, sum3_32, sum4_32
; 220  :             }
; 221  :           }
; 222  :         }
; 223  :       }
; 224  :       if (two_8byte_rows || unroll_by2) {
; 225  :         pSrc += nSrcPitch * 2;

	mov	edi, DWORD PTR _pSrc$[ebp]

; 226  :         pRef += nRefPitch * 2;

	mov	eax, DWORD PTR _pRef$[ebp]
	add	edi, DWORD PTR tv564[esp+24]
	add	eax, DWORD PTR tv563[esp+24]
	sub	DWORD PTR tv567[esp+24], 1
	mov	DWORD PTR _pSrc$[ebp], edi
	mov	DWORD PTR _pRef$[ebp], eax
	jne	$LL4@Sad16_sse2

; 227  :       }
; 228  :       else {
; 229  :         pSrc += nSrcPitch;
; 230  :         pRef += nRefPitch;
; 231  :       }
; 232  :     }
; 233  :   }
; 234  : #if 0
; 235  :   else { // aligned, experimental. With the in-function alignment check overhead it is slower
; 236  :     for (int y = 0; y < nBlkHeight; y += (two_8byte_rows ? 2 : 1))
; 237  :     {
; 238  :       if (one_cycle)
; 239  :       {
; 240  :         __m128i src1, src2;
; 241  :         src1 = _mm_load_si128((__m128i *) (pSrc)); // no x
; 242  :         src2 = _mm_load_si128((__m128i *) (pRef));
; 243  :         if (sizeof(pixel_t) == 1) {
; 244  :           // this is uint_16 specific, but will test on uint8_t against external .asm SAD functions)
; 245  :           sum = _mm_add_epi32(sum, _mm_sad_epu8(src1, src2)); // yihhaaa, existing SIMD   sum1_32, 0, sum2_32, 0
; 246  :                                                               // result in two 32 bit areas at the upper and lower 64 bytes
; 247  :         }
; 248  :         else {
; 249  :           __m128i greater_t = _mm_subs_epu16(src1, src2); // unsigned sub with saturation
; 250  :           __m128i smaller_t = _mm_subs_epu16(src2, src1);
; 251  :           __m128i absdiff = _mm_or_si128(greater_t, smaller_t); //abs(s1-s2)  == (satsub(s1,s2) | satsub(s2,s1))
; 252  :                                                                 // 8 x uint16 absolute differences
; 253  :           sum = _mm_add_epi32(sum, _mm_unpacklo_epi16(absdiff, zero));
; 254  :           sum = _mm_add_epi32(sum, _mm_unpackhi_epi16(absdiff, zero));
; 255  :           // sum1_32, sum2_32, sum3_32, sum4_32
; 256  :         }
; 257  :       }
; 258  :       else {
; 259  :         for (int x = 0; x < nBlkWidth * sizeof(pixel_t); x += 16)
; 260  :         {
; 261  :           __m128i src1, src2;
; 262  :           src1 = _mm_load_si128((__m128i *) (pSrc + x));
; 263  :           src2 = _mm_load_si128((__m128i *) (pRef + x));
; 264  :           if (sizeof(pixel_t) == 1) {
; 265  :             // this is uint_16 specific, but will test on uint8_t against external .asm SAD functions)
; 266  :             sum = _mm_add_epi32(sum, _mm_sad_epu8(src1, src2)); // yihhaaa, existing SIMD   sum1_32, 0, sum2_32, 0
; 267  :                                                                 // result in two 32 bit areas at the upper and lower 64 bytes
; 268  :           }
; 269  :           else {
; 270  :             __m128i greater_t = _mm_subs_epu16(src1, src2); // unsigned sub with saturation
; 271  :             __m128i smaller_t = _mm_subs_epu16(src2, src1);
; 272  :             __m128i absdiff = _mm_or_si128(greater_t, smaller_t); //abs(s1-s2)  == (satsub(s1,s2) | satsub(s2,s1))
; 273  :                                                                   // 8 x uint16 absolute differences
; 274  :             sum = _mm_add_epi32(sum, _mm_unpacklo_epi16(absdiff, zero));
; 275  :             sum = _mm_add_epi32(sum, _mm_unpackhi_epi16(absdiff, zero));
; 276  :             // sum1_32, sum2_32, sum3_32, sum4_32
; 277  :           }
; 278  :           // sum += SADABS(reinterpret_cast<const pixel_t *>(pSrc)[x] - reinterpret_cast<const pixel_t *>(pRef)[x]);
; 279  :         }
; 280  :       }
; 281  :       if (two_8byte_rows) {
; 282  :         pSrc += nSrcPitch * 2;
; 283  :         pRef += nRefPitch * 2;
; 284  :       }
; 285  :       else {
; 286  :         pSrc += nSrcPitch;
; 287  :         pRef += nRefPitch;
; 288  :       }
; 289  :     }
; 290  : 
; 291  :   }
; 292  : #endif
; 293  :   /*
; 294  :   [Low64, Hi64]
; 295  :   _mm_unpacklo_epi64(_mm_setzero_si128(), x)  [0, x0]
; 296  :   _mm_unpackhi_epi64(_mm_setzero_si128(), x)  [0, x1]
; 297  :   _mm_move_epi64(x)                           [x0, 0]
; 298  :   _mm_unpackhi_epi64(x, _mm_setzero_si128())  [x1, 0]
; 299  :   */
; 300  : #if 1
; 301  :   if(sizeof(pixel_t) == 2) {
; 302  :     // at 16 bits: we have 4 integers for sum: a0 a1 a2 a3
; 303  :     __m128i a0_a1 = _mm_unpacklo_epi32(sum, zero); // a0 0 a1 0

	vpunpckldq xmm0, xmm5, xmm4

; 304  :     __m128i a2_a3 = _mm_unpackhi_epi32(sum, zero); // a2 0 a3 0

	vpunpckhdq xmm1, xmm5, xmm4

; 305  :     sum = _mm_add_epi32( a0_a1, a2_a3 ); // a0+a2, 0, a1+a3, 0

	vpaddd	xmm1, xmm1, xmm0

; 306  :     // hadd: shower
; 307  :   }
; 308  :   // sum here: two 32 bit partial result: sum1 0 sum2 0
; 309  :   __m128i sum_hi = _mm_unpackhi_epi64(sum, zero); // a1 + a3. 2 dwords right 

	vpunpckhqdq xmm0, xmm1, xmm4

; 310  :   sum = _mm_add_epi32(sum, sum_hi);  // a0 + a2 + a1 + a3

	vpaddd	xmm0, xmm0, xmm1

; 311  : #else
; 312  :   // this hadd path is slower on Ivy bridge
; 313  :   if (sizeof(pixel_t) == 2) {
; 314  :     sum = _mm_hadd_epi32(sum, zero); // a0_a = a0 + a1, a1_a = a2 + a3
; 315  :     sum = _mm_hadd_epi32(sum, zero); // a0 = a0_a + a1_a ( = a0+a1+a2+a3)
; 316  :   }
; 317  :   else { // uint8_t
; 318  :     // sum here: two 32 bit partial result: sum1 0 sum2 0
; 319  :     __m128i sum_hi = _mm_unpackhi_epi64(sum, zero); // a1 + a3. 2 dwords right 
; 320  :     sum = _mm_add_epi32(sum, sum_hi);  // a0 + a2 + a1 + a3
; 321  : 
; 322  :   }
; 323  : #endif
; 324  : 
; 325  :   unsigned int result = _mm_cvtsi128_si32(sum);
; 326  : 
; 327  : #if 0
; 328  :   // check result against C
; 329  :   if (result != result2) {
; 330  :     result = result2;
; 331  :   }
; 332  : #endif
; 333  :   _mm256_zeroupper(); // diff from main sse2
; 334  : 
; 335  :   return result;
; 336  : }  // end of SSE2 with AVX commandset Sad16

	pop	edi
	vmovd	eax, xmm0
	pop	esi
	mov	esp, ebp
	pop	ebp
	ret	0
??$Sad16_sse2_avx@$0BA@$0BA@G@@YAIPBEH0H@Z ENDP		; Sad16_sse2_avx<16,16,unsigned short>
_TEXT	ENDS
; Function compile flags: /Ogtpy
; File c:\github\mvtools\sources\sadfunctions_avx.cpp
;	COMDAT ??$Sad16_sse2_avx@$0BA@$07G@@YAIPBEH0H@Z
_TEXT	SEGMENT
tv567 = -12						; size = 4
tv564 = -8						; size = 4
tv563 = -4						; size = 4
_pSrc$ = 8						; size = 4
_nSrcPitch$ = 12					; size = 4
_pRef$ = 16						; size = 4
_nRefPitch$ = 20					; size = 4
??$Sad16_sse2_avx@$0BA@$07G@@YAIPBEH0H@Z PROC		; Sad16_sse2_avx<16,8,unsigned short>, COMDAT

; 88   : {

	push	ebp
	mov	ebp, esp
	and	esp, -8					; fffffff8H
	sub	esp, 16					; 00000010H
	mov	eax, DWORD PTR _nSrcPitch$[ebp]
	add	eax, eax

; 89   : #if 0
; 90   :   // check result against C
; 91   :   unsigned int result2 = Sad_AVX_C<nBlkWidth, nBlkHeight, pixel_t>(pSrc, nSrcPitch, pRef, nRefPitch);
; 92   : #endif
; 93   :   _mm256_zeroupper(); // diff from main sse2

	mov	DWORD PTR tv567[esp+16], 4
	mov	DWORD PTR tv564[esp+16], eax
	mov	eax, DWORD PTR _nRefPitch$[ebp]
	add	eax, eax
	push	esi
	vpxor	xmm4, xmm4, xmm4
	push	edi
	mov	edi, DWORD PTR _pSrc$[ebp]
	mov	DWORD PTR tv563[esp+24], eax
	mov	eax, DWORD PTR _pRef$[ebp]

; 94   :   __m128i zero = _mm_setzero_si128();
; 95   :   __m128i sum = _mm_setzero_si128(); // 2x or 4x int is probably enough for 32x32

	vmovdqa	xmm5, xmm4
$LL4@Sad16_sse2:

; 96   : 
; 97   :   const bool two_8byte_rows = (sizeof(pixel_t) == 2 && nBlkWidth <= 4) || (sizeof(pixel_t) == 1 && nBlkWidth <= 8);
; 98   :   const bool one_cycle = (sizeof(pixel_t) * nBlkWidth) == 16;
; 99   :   const bool unroll_by2 = !two_8byte_rows && nBlkHeight>=2; // unroll by 4: slower
; 100  : 
; 101  :   bool unaligned = true;
; 102  :   if (!two_8byte_rows) {
; 103  :     // test. not faster. Checking overhead?
; 104  :     unaligned = true; // ((reinterpret_cast <ptrdiff_t> (pSrc) & 0x0F) || ((reinterpret_cast <ptrdiff_t>(pRef)) & 0x0F) || ((nRefPitch | nSrcPitch) & 0x0F));
; 105  :   }
; 106  : 
; 107  :   if (unaligned) {
; 108  :     for (int y = 0; y < nBlkHeight; y += (two_8byte_rows || unroll_by2) ? 2 : 1)
; 109  :     {
; 110  :       if (two_8byte_rows) { // no x cycle
; 111  :         __m128i src1, src2;
; 112  :         // (8 bytes or 4 words) * 2 rows
; 113  : #if 0
; 114  :         src1 = _mm_or_si128(_mm_loadl_epi64((__m128i *) (pSrc)), _mm_slli_si128(_mm_loadl_epi64((__m128i *) (pSrc + nSrcPitch)), 8));
; 115  :         src2 = _mm_or_si128(_mm_loadl_epi64((__m128i *) (pRef)), _mm_slli_si128(_mm_loadl_epi64((__m128i *) (pRef + nRefPitch)), 8));
; 116  : #else
; 117  :         // 16.12.01 unpack
; 118  :         if (sizeof(pixel_t) == 1) {
; 119  :           src1 = _mm_unpacklo_epi8(_mm_loadl_epi64((__m128i *) (pSrc)), _mm_loadl_epi64((__m128i *) (pSrc + nSrcPitch)));
; 120  :           src2 = _mm_unpacklo_epi8(_mm_loadl_epi64((__m128i *) (pRef)), _mm_loadl_epi64((__m128i *) (pRef + nRefPitch)));
; 121  :         }
; 122  :         else if (sizeof(pixel_t) == 2) {
; 123  :           src1 = _mm_unpacklo_epi16(_mm_loadl_epi64((__m128i *) (pSrc)), _mm_loadl_epi64((__m128i *) (pSrc + nSrcPitch)));
; 124  :           src2 = _mm_unpacklo_epi16(_mm_loadl_epi64((__m128i *) (pRef)), _mm_loadl_epi64((__m128i *) (pRef + nRefPitch)));
; 125  :         }
; 126  : #endif
; 127  :         if (sizeof(pixel_t) == 1) {
; 128  :           // this is uint_16 specific, but will test on uint8_t against external .asm SAD functions)
; 129  :           sum = _mm_add_epi32(sum, _mm_sad_epu8(src1, src2)); // yihhaaa, existing SIMD   sum1_32, 0, sum2_32, 0
; 130  :                                                               // result in two 32 bit areas at the upper and lower 64 bytes
; 131  :         }
; 132  :         else {
; 133  :           __m128i greater_t = _mm_subs_epu16(src1, src2); // unsigned sub with saturation
; 134  :           __m128i smaller_t = _mm_subs_epu16(src2, src1);
; 135  :           __m128i absdiff = _mm_or_si128(greater_t, smaller_t); //abs(s1-s2)  == (satsub(s1,s2) | satsub(s2,s1))
; 136  :           // 8 x uint16 absolute differences
; 137  :           sum = _mm_add_epi32(sum, _mm_unpacklo_epi16(absdiff, zero));
; 138  :           sum = _mm_add_epi32(sum, _mm_unpackhi_epi16(absdiff, zero));
; 139  :           // sum1_32, sum2_32, sum3_32, sum4_32
; 140  :         }
; 141  :       }
; 142  :       else if (one_cycle)
; 143  :       {
; 144  :         __m128i src1, src2;
; 145  :         src1 = _mm_loadu_si128((__m128i *) (pSrc)); // no x
; 146  :         src2 = _mm_loadu_si128((__m128i *) (pRef));
; 147  :         if (sizeof(pixel_t) == 1) {
; 148  :           // this is uint_16 specific, but will test on uint8_t against external .asm SAD functions)
; 149  :           sum = _mm_add_epi32(sum, _mm_sad_epu8(src1, src2)); // yihhaaa, existing SIMD   sum1_32, 0, sum2_32, 0
; 150  :                                                               // result in two 32 bit areas at the upper and lower 64 bytes
; 151  :         }
; 152  :         else {
; 153  :           __m128i greater_t = _mm_subs_epu16(src1, src2); // unsigned sub with saturation
; 154  :           __m128i smaller_t = _mm_subs_epu16(src2, src1);
; 155  :           __m128i absdiff = _mm_or_si128(greater_t, smaller_t); //abs(s1-s2)  == (satsub(s1,s2) | satsub(s2,s1))
; 156  :                                                                 // 8 x uint16 absolute differences
; 157  :           sum = _mm_add_epi32(sum, _mm_unpacklo_epi16(absdiff, zero));
; 158  :           sum = _mm_add_epi32(sum, _mm_unpackhi_epi16(absdiff, zero));
; 159  :           // sum1_32, sum2_32, sum3_32, sum4_32
; 160  :         }
; 161  :         if (unroll_by2) {
; 162  :           // unroll#2
; 163  :           src1 = _mm_loadu_si128((__m128i *) (pSrc+nSrcPitch)); // no x
; 164  :           src2 = _mm_loadu_si128((__m128i *) (pRef+nRefPitch));
; 165  :           if (sizeof(pixel_t) == 1) {
; 166  :             // this is uint_16 specific, but will test on uint8_t against external .asm SAD functions)
; 167  :             sum = _mm_add_epi32(sum, _mm_sad_epu8(src1, src2)); // yihhaaa, existing SIMD   sum1_32, 0, sum2_32, 0
; 168  :                                                                 // result in two 32 bit areas at the upper and lower 64 bytes
; 169  :           }
; 170  :           else {
; 171  :             __m128i greater_t = _mm_subs_epu16(src1, src2); // unsigned sub with saturation
; 172  :             __m128i smaller_t = _mm_subs_epu16(src2, src1);
; 173  :             __m128i absdiff = _mm_or_si128(greater_t, smaller_t); //abs(s1-s2)  == (satsub(s1,s2) | satsub(s2,s1))
; 174  :                                                                   // 8 x uint16 absolute differences
; 175  :             sum = _mm_add_epi32(sum, _mm_unpacklo_epi16(absdiff, zero));
; 176  :             sum = _mm_add_epi32(sum, _mm_unpackhi_epi16(absdiff, zero));
; 177  :             // sum1_32, sum2_32, sum3_32, sum4_32
; 178  :           }
; 179  :         }
; 180  :       }
; 181  :       else {
; 182  :         for (int x = 0; x < nBlkWidth * sizeof(pixel_t); x += 16)

	mov	edx, edi
	mov	esi, eax
	mov	edi, DWORD PTR _nSrcPitch$[ebp]
	sub	edx, eax
	mov	eax, 2
$LL7@Sad16_sse2:

; 183  :         {
; 184  :           __m128i src1, src2;
; 185  :           src1 = _mm_loadu_si128((__m128i *) (pSrc + x));

	lea	ecx, DWORD PTR [edx+esi]
	lea	esi, DWORD PTR [esi+16]
	vmovdqu	xmm2, XMMWORD PTR [ecx]

; 186  :           src2 = _mm_loadu_si128((__m128i *) (pRef + x));

	vmovdqu	xmm0, XMMWORD PTR [esi-16]

; 187  :           if (sizeof(pixel_t) == 1) {
; 188  :             // this is uint_16 specific, but will test on uint8_t against external .asm SAD functions)
; 189  :             sum = _mm_add_epi32(sum, _mm_sad_epu8(src1, src2)); // yihhaaa, existing SIMD   sum1_32, 0, sum2_32, 0
; 190  :             // result in two 32 bit areas at the upper and lower 64 bytes
; 191  :           }
; 192  :           else {
; 193  :             __m128i greater_t = _mm_subs_epu16(src1, src2); // unsigned sub with saturation

	vpsubusw xmm1, xmm2, xmm0

; 194  :             __m128i smaller_t = _mm_subs_epu16(src2, src1);

	vpsubusw xmm0, xmm0, xmm2

; 195  :             __m128i absdiff = _mm_or_si128(greater_t, smaller_t); //abs(s1-s2)  == (satsub(s1,s2) | satsub(s2,s1))
; 196  :             // 8 x uint16 absolute differences
; 197  :             sum = _mm_add_epi32(sum, _mm_unpacklo_epi16(absdiff, zero));
; 198  :             sum = _mm_add_epi32(sum, _mm_unpackhi_epi16(absdiff, zero));
; 199  :             // sum1_32, sum2_32, sum3_32, sum4_32
; 200  :           }
; 201  :           // sum += SADABS(reinterpret_cast<const pixel_t *>(pSrc)[x] - reinterpret_cast<const pixel_t *>(pRef)[x]);
; 202  :           if (unroll_by2)
; 203  :           {
; 204  :             // unroll#2
; 205  :             src1 = _mm_loadu_si128((__m128i *) (pSrc + nSrcPitch + x));

	vmovdqu	xmm2, XMMWORD PTR [ecx+edi]

; 206  :             src2 = _mm_loadu_si128((__m128i *) (pRef + nRefPitch + x));

	mov	ecx, DWORD PTR _nRefPitch$[ebp]
	vpor	xmm3, xmm1, xmm0
	vmovdqu	xmm0, XMMWORD PTR [esi+ecx-16]

; 207  :             if (sizeof(pixel_t) == 1) {
; 208  :               // this is uint_16 specific, but will test on uint8_t against external .asm SAD functions)
; 209  :               sum = _mm_add_epi32(sum, _mm_sad_epu8(src1, src2)); // yihhaaa, existing SIMD   sum1_32, 0, sum2_32, 0
; 210  :                                                                   // result in two 32 bit areas at the upper and lower 64 bytes
; 211  :             }
; 212  :             else {
; 213  :               __m128i greater_t = _mm_subs_epu16(src1, src2); // unsigned sub with saturation

	vpsubusw xmm1, xmm2, xmm0

; 214  :               __m128i smaller_t = _mm_subs_epu16(src2, src1);

	vpsubusw xmm0, xmm0, xmm2

; 215  :               __m128i absdiff = _mm_or_si128(greater_t, smaller_t); //abs(s1-s2)  == (satsub(s1,s2) | satsub(s2,s1))

	vpor	xmm2, xmm1, xmm0
	vpunpcklwd xmm0, xmm3, xmm4
	vpaddd	xmm1, xmm0, xmm5
	vpunpckhwd xmm0, xmm3, xmm4
	vpaddd	xmm1, xmm1, xmm0

; 216  :                                                                     // 8 x uint16 absolute differences
; 217  :               sum = _mm_add_epi32(sum, _mm_unpacklo_epi16(absdiff, zero));

	vpunpcklwd xmm0, xmm2, xmm4
	vpaddd	xmm1, xmm1, xmm0

; 218  :               sum = _mm_add_epi32(sum, _mm_unpackhi_epi16(absdiff, zero));

	vpunpckhwd xmm0, xmm2, xmm4
	vpaddd	xmm5, xmm1, xmm0
	sub	eax, 1
	jne	SHORT $LL7@Sad16_sse2

; 219  :               // sum1_32, sum2_32, sum3_32, sum4_32
; 220  :             }
; 221  :           }
; 222  :         }
; 223  :       }
; 224  :       if (two_8byte_rows || unroll_by2) {
; 225  :         pSrc += nSrcPitch * 2;

	mov	edi, DWORD PTR _pSrc$[ebp]

; 226  :         pRef += nRefPitch * 2;

	mov	eax, DWORD PTR _pRef$[ebp]
	add	edi, DWORD PTR tv564[esp+24]
	add	eax, DWORD PTR tv563[esp+24]
	sub	DWORD PTR tv567[esp+24], 1
	mov	DWORD PTR _pSrc$[ebp], edi
	mov	DWORD PTR _pRef$[ebp], eax
	jne	$LL4@Sad16_sse2

; 227  :       }
; 228  :       else {
; 229  :         pSrc += nSrcPitch;
; 230  :         pRef += nRefPitch;
; 231  :       }
; 232  :     }
; 233  :   }
; 234  : #if 0
; 235  :   else { // aligned, experimental. With the in-function alignment check overhead it is slower
; 236  :     for (int y = 0; y < nBlkHeight; y += (two_8byte_rows ? 2 : 1))
; 237  :     {
; 238  :       if (one_cycle)
; 239  :       {
; 240  :         __m128i src1, src2;
; 241  :         src1 = _mm_load_si128((__m128i *) (pSrc)); // no x
; 242  :         src2 = _mm_load_si128((__m128i *) (pRef));
; 243  :         if (sizeof(pixel_t) == 1) {
; 244  :           // this is uint_16 specific, but will test on uint8_t against external .asm SAD functions)
; 245  :           sum = _mm_add_epi32(sum, _mm_sad_epu8(src1, src2)); // yihhaaa, existing SIMD   sum1_32, 0, sum2_32, 0
; 246  :                                                               // result in two 32 bit areas at the upper and lower 64 bytes
; 247  :         }
; 248  :         else {
; 249  :           __m128i greater_t = _mm_subs_epu16(src1, src2); // unsigned sub with saturation
; 250  :           __m128i smaller_t = _mm_subs_epu16(src2, src1);
; 251  :           __m128i absdiff = _mm_or_si128(greater_t, smaller_t); //abs(s1-s2)  == (satsub(s1,s2) | satsub(s2,s1))
; 252  :                                                                 // 8 x uint16 absolute differences
; 253  :           sum = _mm_add_epi32(sum, _mm_unpacklo_epi16(absdiff, zero));
; 254  :           sum = _mm_add_epi32(sum, _mm_unpackhi_epi16(absdiff, zero));
; 255  :           // sum1_32, sum2_32, sum3_32, sum4_32
; 256  :         }
; 257  :       }
; 258  :       else {
; 259  :         for (int x = 0; x < nBlkWidth * sizeof(pixel_t); x += 16)
; 260  :         {
; 261  :           __m128i src1, src2;
; 262  :           src1 = _mm_load_si128((__m128i *) (pSrc + x));
; 263  :           src2 = _mm_load_si128((__m128i *) (pRef + x));
; 264  :           if (sizeof(pixel_t) == 1) {
; 265  :             // this is uint_16 specific, but will test on uint8_t against external .asm SAD functions)
; 266  :             sum = _mm_add_epi32(sum, _mm_sad_epu8(src1, src2)); // yihhaaa, existing SIMD   sum1_32, 0, sum2_32, 0
; 267  :                                                                 // result in two 32 bit areas at the upper and lower 64 bytes
; 268  :           }
; 269  :           else {
; 270  :             __m128i greater_t = _mm_subs_epu16(src1, src2); // unsigned sub with saturation
; 271  :             __m128i smaller_t = _mm_subs_epu16(src2, src1);
; 272  :             __m128i absdiff = _mm_or_si128(greater_t, smaller_t); //abs(s1-s2)  == (satsub(s1,s2) | satsub(s2,s1))
; 273  :                                                                   // 8 x uint16 absolute differences
; 274  :             sum = _mm_add_epi32(sum, _mm_unpacklo_epi16(absdiff, zero));
; 275  :             sum = _mm_add_epi32(sum, _mm_unpackhi_epi16(absdiff, zero));
; 276  :             // sum1_32, sum2_32, sum3_32, sum4_32
; 277  :           }
; 278  :           // sum += SADABS(reinterpret_cast<const pixel_t *>(pSrc)[x] - reinterpret_cast<const pixel_t *>(pRef)[x]);
; 279  :         }
; 280  :       }
; 281  :       if (two_8byte_rows) {
; 282  :         pSrc += nSrcPitch * 2;
; 283  :         pRef += nRefPitch * 2;
; 284  :       }
; 285  :       else {
; 286  :         pSrc += nSrcPitch;
; 287  :         pRef += nRefPitch;
; 288  :       }
; 289  :     }
; 290  : 
; 291  :   }
; 292  : #endif
; 293  :   /*
; 294  :   [Low64, Hi64]
; 295  :   _mm_unpacklo_epi64(_mm_setzero_si128(), x)  [0, x0]
; 296  :   _mm_unpackhi_epi64(_mm_setzero_si128(), x)  [0, x1]
; 297  :   _mm_move_epi64(x)                           [x0, 0]
; 298  :   _mm_unpackhi_epi64(x, _mm_setzero_si128())  [x1, 0]
; 299  :   */
; 300  : #if 1
; 301  :   if(sizeof(pixel_t) == 2) {
; 302  :     // at 16 bits: we have 4 integers for sum: a0 a1 a2 a3
; 303  :     __m128i a0_a1 = _mm_unpacklo_epi32(sum, zero); // a0 0 a1 0

	vpunpckldq xmm0, xmm5, xmm4

; 304  :     __m128i a2_a3 = _mm_unpackhi_epi32(sum, zero); // a2 0 a3 0

	vpunpckhdq xmm1, xmm5, xmm4

; 305  :     sum = _mm_add_epi32( a0_a1, a2_a3 ); // a0+a2, 0, a1+a3, 0

	vpaddd	xmm1, xmm1, xmm0

; 306  :     // hadd: shower
; 307  :   }
; 308  :   // sum here: two 32 bit partial result: sum1 0 sum2 0
; 309  :   __m128i sum_hi = _mm_unpackhi_epi64(sum, zero); // a1 + a3. 2 dwords right 

	vpunpckhqdq xmm0, xmm1, xmm4

; 310  :   sum = _mm_add_epi32(sum, sum_hi);  // a0 + a2 + a1 + a3

	vpaddd	xmm0, xmm0, xmm1

; 311  : #else
; 312  :   // this hadd path is slower on Ivy bridge
; 313  :   if (sizeof(pixel_t) == 2) {
; 314  :     sum = _mm_hadd_epi32(sum, zero); // a0_a = a0 + a1, a1_a = a2 + a3
; 315  :     sum = _mm_hadd_epi32(sum, zero); // a0 = a0_a + a1_a ( = a0+a1+a2+a3)
; 316  :   }
; 317  :   else { // uint8_t
; 318  :     // sum here: two 32 bit partial result: sum1 0 sum2 0
; 319  :     __m128i sum_hi = _mm_unpackhi_epi64(sum, zero); // a1 + a3. 2 dwords right 
; 320  :     sum = _mm_add_epi32(sum, sum_hi);  // a0 + a2 + a1 + a3
; 321  : 
; 322  :   }
; 323  : #endif
; 324  : 
; 325  :   unsigned int result = _mm_cvtsi128_si32(sum);
; 326  : 
; 327  : #if 0
; 328  :   // check result against C
; 329  :   if (result != result2) {
; 330  :     result = result2;
; 331  :   }
; 332  : #endif
; 333  :   _mm256_zeroupper(); // diff from main sse2
; 334  : 
; 335  :   return result;
; 336  : }  // end of SSE2 with AVX commandset Sad16

	pop	edi
	vmovd	eax, xmm0
	pop	esi
	mov	esp, ebp
	pop	ebp
	ret	0
??$Sad16_sse2_avx@$0BA@$07G@@YAIPBEH0H@Z ENDP		; Sad16_sse2_avx<16,8,unsigned short>
_TEXT	ENDS
; Function compile flags: /Ogtpy
; File c:\github\mvtools\sources\sadfunctions_avx.cpp
;	COMDAT ??$Sad16_sse2_avx@$0BA@$03G@@YAIPBEH0H@Z
_TEXT	SEGMENT
tv567 = -12						; size = 4
tv564 = -8						; size = 4
tv563 = -4						; size = 4
_pSrc$ = 8						; size = 4
_nSrcPitch$ = 12					; size = 4
_pRef$ = 16						; size = 4
_nRefPitch$ = 20					; size = 4
??$Sad16_sse2_avx@$0BA@$03G@@YAIPBEH0H@Z PROC		; Sad16_sse2_avx<16,4,unsigned short>, COMDAT

; 88   : {

	push	ebp
	mov	ebp, esp
	and	esp, -8					; fffffff8H
	sub	esp, 16					; 00000010H
	mov	eax, DWORD PTR _nSrcPitch$[ebp]
	add	eax, eax

; 89   : #if 0
; 90   :   // check result against C
; 91   :   unsigned int result2 = Sad_AVX_C<nBlkWidth, nBlkHeight, pixel_t>(pSrc, nSrcPitch, pRef, nRefPitch);
; 92   : #endif
; 93   :   _mm256_zeroupper(); // diff from main sse2

	mov	DWORD PTR tv567[esp+16], 2
	mov	DWORD PTR tv564[esp+16], eax
	mov	eax, DWORD PTR _nRefPitch$[ebp]
	add	eax, eax
	push	esi
	vpxor	xmm4, xmm4, xmm4
	push	edi
	mov	edi, DWORD PTR _pSrc$[ebp]
	mov	DWORD PTR tv563[esp+24], eax
	mov	eax, DWORD PTR _pRef$[ebp]

; 94   :   __m128i zero = _mm_setzero_si128();
; 95   :   __m128i sum = _mm_setzero_si128(); // 2x or 4x int is probably enough for 32x32

	vmovdqa	xmm5, xmm4
$LL4@Sad16_sse2:

; 96   : 
; 97   :   const bool two_8byte_rows = (sizeof(pixel_t) == 2 && nBlkWidth <= 4) || (sizeof(pixel_t) == 1 && nBlkWidth <= 8);
; 98   :   const bool one_cycle = (sizeof(pixel_t) * nBlkWidth) == 16;
; 99   :   const bool unroll_by2 = !two_8byte_rows && nBlkHeight>=2; // unroll by 4: slower
; 100  : 
; 101  :   bool unaligned = true;
; 102  :   if (!two_8byte_rows) {
; 103  :     // test. not faster. Checking overhead?
; 104  :     unaligned = true; // ((reinterpret_cast <ptrdiff_t> (pSrc) & 0x0F) || ((reinterpret_cast <ptrdiff_t>(pRef)) & 0x0F) || ((nRefPitch | nSrcPitch) & 0x0F));
; 105  :   }
; 106  : 
; 107  :   if (unaligned) {
; 108  :     for (int y = 0; y < nBlkHeight; y += (two_8byte_rows || unroll_by2) ? 2 : 1)
; 109  :     {
; 110  :       if (two_8byte_rows) { // no x cycle
; 111  :         __m128i src1, src2;
; 112  :         // (8 bytes or 4 words) * 2 rows
; 113  : #if 0
; 114  :         src1 = _mm_or_si128(_mm_loadl_epi64((__m128i *) (pSrc)), _mm_slli_si128(_mm_loadl_epi64((__m128i *) (pSrc + nSrcPitch)), 8));
; 115  :         src2 = _mm_or_si128(_mm_loadl_epi64((__m128i *) (pRef)), _mm_slli_si128(_mm_loadl_epi64((__m128i *) (pRef + nRefPitch)), 8));
; 116  : #else
; 117  :         // 16.12.01 unpack
; 118  :         if (sizeof(pixel_t) == 1) {
; 119  :           src1 = _mm_unpacklo_epi8(_mm_loadl_epi64((__m128i *) (pSrc)), _mm_loadl_epi64((__m128i *) (pSrc + nSrcPitch)));
; 120  :           src2 = _mm_unpacklo_epi8(_mm_loadl_epi64((__m128i *) (pRef)), _mm_loadl_epi64((__m128i *) (pRef + nRefPitch)));
; 121  :         }
; 122  :         else if (sizeof(pixel_t) == 2) {
; 123  :           src1 = _mm_unpacklo_epi16(_mm_loadl_epi64((__m128i *) (pSrc)), _mm_loadl_epi64((__m128i *) (pSrc + nSrcPitch)));
; 124  :           src2 = _mm_unpacklo_epi16(_mm_loadl_epi64((__m128i *) (pRef)), _mm_loadl_epi64((__m128i *) (pRef + nRefPitch)));
; 125  :         }
; 126  : #endif
; 127  :         if (sizeof(pixel_t) == 1) {
; 128  :           // this is uint_16 specific, but will test on uint8_t against external .asm SAD functions)
; 129  :           sum = _mm_add_epi32(sum, _mm_sad_epu8(src1, src2)); // yihhaaa, existing SIMD   sum1_32, 0, sum2_32, 0
; 130  :                                                               // result in two 32 bit areas at the upper and lower 64 bytes
; 131  :         }
; 132  :         else {
; 133  :           __m128i greater_t = _mm_subs_epu16(src1, src2); // unsigned sub with saturation
; 134  :           __m128i smaller_t = _mm_subs_epu16(src2, src1);
; 135  :           __m128i absdiff = _mm_or_si128(greater_t, smaller_t); //abs(s1-s2)  == (satsub(s1,s2) | satsub(s2,s1))
; 136  :           // 8 x uint16 absolute differences
; 137  :           sum = _mm_add_epi32(sum, _mm_unpacklo_epi16(absdiff, zero));
; 138  :           sum = _mm_add_epi32(sum, _mm_unpackhi_epi16(absdiff, zero));
; 139  :           // sum1_32, sum2_32, sum3_32, sum4_32
; 140  :         }
; 141  :       }
; 142  :       else if (one_cycle)
; 143  :       {
; 144  :         __m128i src1, src2;
; 145  :         src1 = _mm_loadu_si128((__m128i *) (pSrc)); // no x
; 146  :         src2 = _mm_loadu_si128((__m128i *) (pRef));
; 147  :         if (sizeof(pixel_t) == 1) {
; 148  :           // this is uint_16 specific, but will test on uint8_t against external .asm SAD functions)
; 149  :           sum = _mm_add_epi32(sum, _mm_sad_epu8(src1, src2)); // yihhaaa, existing SIMD   sum1_32, 0, sum2_32, 0
; 150  :                                                               // result in two 32 bit areas at the upper and lower 64 bytes
; 151  :         }
; 152  :         else {
; 153  :           __m128i greater_t = _mm_subs_epu16(src1, src2); // unsigned sub with saturation
; 154  :           __m128i smaller_t = _mm_subs_epu16(src2, src1);
; 155  :           __m128i absdiff = _mm_or_si128(greater_t, smaller_t); //abs(s1-s2)  == (satsub(s1,s2) | satsub(s2,s1))
; 156  :                                                                 // 8 x uint16 absolute differences
; 157  :           sum = _mm_add_epi32(sum, _mm_unpacklo_epi16(absdiff, zero));
; 158  :           sum = _mm_add_epi32(sum, _mm_unpackhi_epi16(absdiff, zero));
; 159  :           // sum1_32, sum2_32, sum3_32, sum4_32
; 160  :         }
; 161  :         if (unroll_by2) {
; 162  :           // unroll#2
; 163  :           src1 = _mm_loadu_si128((__m128i *) (pSrc+nSrcPitch)); // no x
; 164  :           src2 = _mm_loadu_si128((__m128i *) (pRef+nRefPitch));
; 165  :           if (sizeof(pixel_t) == 1) {
; 166  :             // this is uint_16 specific, but will test on uint8_t against external .asm SAD functions)
; 167  :             sum = _mm_add_epi32(sum, _mm_sad_epu8(src1, src2)); // yihhaaa, existing SIMD   sum1_32, 0, sum2_32, 0
; 168  :                                                                 // result in two 32 bit areas at the upper and lower 64 bytes
; 169  :           }
; 170  :           else {
; 171  :             __m128i greater_t = _mm_subs_epu16(src1, src2); // unsigned sub with saturation
; 172  :             __m128i smaller_t = _mm_subs_epu16(src2, src1);
; 173  :             __m128i absdiff = _mm_or_si128(greater_t, smaller_t); //abs(s1-s2)  == (satsub(s1,s2) | satsub(s2,s1))
; 174  :                                                                   // 8 x uint16 absolute differences
; 175  :             sum = _mm_add_epi32(sum, _mm_unpacklo_epi16(absdiff, zero));
; 176  :             sum = _mm_add_epi32(sum, _mm_unpackhi_epi16(absdiff, zero));
; 177  :             // sum1_32, sum2_32, sum3_32, sum4_32
; 178  :           }
; 179  :         }
; 180  :       }
; 181  :       else {
; 182  :         for (int x = 0; x < nBlkWidth * sizeof(pixel_t); x += 16)

	mov	edx, edi
	mov	esi, eax
	mov	edi, DWORD PTR _nSrcPitch$[ebp]
	sub	edx, eax
	mov	eax, 2
$LL7@Sad16_sse2:

; 183  :         {
; 184  :           __m128i src1, src2;
; 185  :           src1 = _mm_loadu_si128((__m128i *) (pSrc + x));

	lea	ecx, DWORD PTR [edx+esi]
	lea	esi, DWORD PTR [esi+16]
	vmovdqu	xmm2, XMMWORD PTR [ecx]

; 186  :           src2 = _mm_loadu_si128((__m128i *) (pRef + x));

	vmovdqu	xmm0, XMMWORD PTR [esi-16]

; 187  :           if (sizeof(pixel_t) == 1) {
; 188  :             // this is uint_16 specific, but will test on uint8_t against external .asm SAD functions)
; 189  :             sum = _mm_add_epi32(sum, _mm_sad_epu8(src1, src2)); // yihhaaa, existing SIMD   sum1_32, 0, sum2_32, 0
; 190  :             // result in two 32 bit areas at the upper and lower 64 bytes
; 191  :           }
; 192  :           else {
; 193  :             __m128i greater_t = _mm_subs_epu16(src1, src2); // unsigned sub with saturation

	vpsubusw xmm1, xmm2, xmm0

; 194  :             __m128i smaller_t = _mm_subs_epu16(src2, src1);

	vpsubusw xmm0, xmm0, xmm2

; 195  :             __m128i absdiff = _mm_or_si128(greater_t, smaller_t); //abs(s1-s2)  == (satsub(s1,s2) | satsub(s2,s1))
; 196  :             // 8 x uint16 absolute differences
; 197  :             sum = _mm_add_epi32(sum, _mm_unpacklo_epi16(absdiff, zero));
; 198  :             sum = _mm_add_epi32(sum, _mm_unpackhi_epi16(absdiff, zero));
; 199  :             // sum1_32, sum2_32, sum3_32, sum4_32
; 200  :           }
; 201  :           // sum += SADABS(reinterpret_cast<const pixel_t *>(pSrc)[x] - reinterpret_cast<const pixel_t *>(pRef)[x]);
; 202  :           if (unroll_by2)
; 203  :           {
; 204  :             // unroll#2
; 205  :             src1 = _mm_loadu_si128((__m128i *) (pSrc + nSrcPitch + x));

	vmovdqu	xmm2, XMMWORD PTR [ecx+edi]

; 206  :             src2 = _mm_loadu_si128((__m128i *) (pRef + nRefPitch + x));

	mov	ecx, DWORD PTR _nRefPitch$[ebp]
	vpor	xmm3, xmm1, xmm0
	vmovdqu	xmm0, XMMWORD PTR [esi+ecx-16]

; 207  :             if (sizeof(pixel_t) == 1) {
; 208  :               // this is uint_16 specific, but will test on uint8_t against external .asm SAD functions)
; 209  :               sum = _mm_add_epi32(sum, _mm_sad_epu8(src1, src2)); // yihhaaa, existing SIMD   sum1_32, 0, sum2_32, 0
; 210  :                                                                   // result in two 32 bit areas at the upper and lower 64 bytes
; 211  :             }
; 212  :             else {
; 213  :               __m128i greater_t = _mm_subs_epu16(src1, src2); // unsigned sub with saturation

	vpsubusw xmm1, xmm2, xmm0

; 214  :               __m128i smaller_t = _mm_subs_epu16(src2, src1);

	vpsubusw xmm0, xmm0, xmm2

; 215  :               __m128i absdiff = _mm_or_si128(greater_t, smaller_t); //abs(s1-s2)  == (satsub(s1,s2) | satsub(s2,s1))

	vpor	xmm2, xmm1, xmm0
	vpunpcklwd xmm0, xmm3, xmm4
	vpaddd	xmm1, xmm0, xmm5
	vpunpckhwd xmm0, xmm3, xmm4
	vpaddd	xmm1, xmm1, xmm0

; 216  :                                                                     // 8 x uint16 absolute differences
; 217  :               sum = _mm_add_epi32(sum, _mm_unpacklo_epi16(absdiff, zero));

	vpunpcklwd xmm0, xmm2, xmm4
	vpaddd	xmm1, xmm1, xmm0

; 218  :               sum = _mm_add_epi32(sum, _mm_unpackhi_epi16(absdiff, zero));

	vpunpckhwd xmm0, xmm2, xmm4
	vpaddd	xmm5, xmm1, xmm0
	sub	eax, 1
	jne	SHORT $LL7@Sad16_sse2

; 219  :               // sum1_32, sum2_32, sum3_32, sum4_32
; 220  :             }
; 221  :           }
; 222  :         }
; 223  :       }
; 224  :       if (two_8byte_rows || unroll_by2) {
; 225  :         pSrc += nSrcPitch * 2;

	mov	edi, DWORD PTR _pSrc$[ebp]

; 226  :         pRef += nRefPitch * 2;

	mov	eax, DWORD PTR _pRef$[ebp]
	add	edi, DWORD PTR tv564[esp+24]
	add	eax, DWORD PTR tv563[esp+24]
	sub	DWORD PTR tv567[esp+24], 1
	mov	DWORD PTR _pSrc$[ebp], edi
	mov	DWORD PTR _pRef$[ebp], eax
	jne	$LL4@Sad16_sse2

; 227  :       }
; 228  :       else {
; 229  :         pSrc += nSrcPitch;
; 230  :         pRef += nRefPitch;
; 231  :       }
; 232  :     }
; 233  :   }
; 234  : #if 0
; 235  :   else { // aligned, experimental. With the in-function alignment check overhead it is slower
; 236  :     for (int y = 0; y < nBlkHeight; y += (two_8byte_rows ? 2 : 1))
; 237  :     {
; 238  :       if (one_cycle)
; 239  :       {
; 240  :         __m128i src1, src2;
; 241  :         src1 = _mm_load_si128((__m128i *) (pSrc)); // no x
; 242  :         src2 = _mm_load_si128((__m128i *) (pRef));
; 243  :         if (sizeof(pixel_t) == 1) {
; 244  :           // this is uint_16 specific, but will test on uint8_t against external .asm SAD functions)
; 245  :           sum = _mm_add_epi32(sum, _mm_sad_epu8(src1, src2)); // yihhaaa, existing SIMD   sum1_32, 0, sum2_32, 0
; 246  :                                                               // result in two 32 bit areas at the upper and lower 64 bytes
; 247  :         }
; 248  :         else {
; 249  :           __m128i greater_t = _mm_subs_epu16(src1, src2); // unsigned sub with saturation
; 250  :           __m128i smaller_t = _mm_subs_epu16(src2, src1);
; 251  :           __m128i absdiff = _mm_or_si128(greater_t, smaller_t); //abs(s1-s2)  == (satsub(s1,s2) | satsub(s2,s1))
; 252  :                                                                 // 8 x uint16 absolute differences
; 253  :           sum = _mm_add_epi32(sum, _mm_unpacklo_epi16(absdiff, zero));
; 254  :           sum = _mm_add_epi32(sum, _mm_unpackhi_epi16(absdiff, zero));
; 255  :           // sum1_32, sum2_32, sum3_32, sum4_32
; 256  :         }
; 257  :       }
; 258  :       else {
; 259  :         for (int x = 0; x < nBlkWidth * sizeof(pixel_t); x += 16)
; 260  :         {
; 261  :           __m128i src1, src2;
; 262  :           src1 = _mm_load_si128((__m128i *) (pSrc + x));
; 263  :           src2 = _mm_load_si128((__m128i *) (pRef + x));
; 264  :           if (sizeof(pixel_t) == 1) {
; 265  :             // this is uint_16 specific, but will test on uint8_t against external .asm SAD functions)
; 266  :             sum = _mm_add_epi32(sum, _mm_sad_epu8(src1, src2)); // yihhaaa, existing SIMD   sum1_32, 0, sum2_32, 0
; 267  :                                                                 // result in two 32 bit areas at the upper and lower 64 bytes
; 268  :           }
; 269  :           else {
; 270  :             __m128i greater_t = _mm_subs_epu16(src1, src2); // unsigned sub with saturation
; 271  :             __m128i smaller_t = _mm_subs_epu16(src2, src1);
; 272  :             __m128i absdiff = _mm_or_si128(greater_t, smaller_t); //abs(s1-s2)  == (satsub(s1,s2) | satsub(s2,s1))
; 273  :                                                                   // 8 x uint16 absolute differences
; 274  :             sum = _mm_add_epi32(sum, _mm_unpacklo_epi16(absdiff, zero));
; 275  :             sum = _mm_add_epi32(sum, _mm_unpackhi_epi16(absdiff, zero));
; 276  :             // sum1_32, sum2_32, sum3_32, sum4_32
; 277  :           }
; 278  :           // sum += SADABS(reinterpret_cast<const pixel_t *>(pSrc)[x] - reinterpret_cast<const pixel_t *>(pRef)[x]);
; 279  :         }
; 280  :       }
; 281  :       if (two_8byte_rows) {
; 282  :         pSrc += nSrcPitch * 2;
; 283  :         pRef += nRefPitch * 2;
; 284  :       }
; 285  :       else {
; 286  :         pSrc += nSrcPitch;
; 287  :         pRef += nRefPitch;
; 288  :       }
; 289  :     }
; 290  : 
; 291  :   }
; 292  : #endif
; 293  :   /*
; 294  :   [Low64, Hi64]
; 295  :   _mm_unpacklo_epi64(_mm_setzero_si128(), x)  [0, x0]
; 296  :   _mm_unpackhi_epi64(_mm_setzero_si128(), x)  [0, x1]
; 297  :   _mm_move_epi64(x)                           [x0, 0]
; 298  :   _mm_unpackhi_epi64(x, _mm_setzero_si128())  [x1, 0]
; 299  :   */
; 300  : #if 1
; 301  :   if(sizeof(pixel_t) == 2) {
; 302  :     // at 16 bits: we have 4 integers for sum: a0 a1 a2 a3
; 303  :     __m128i a0_a1 = _mm_unpacklo_epi32(sum, zero); // a0 0 a1 0

	vpunpckldq xmm0, xmm5, xmm4

; 304  :     __m128i a2_a3 = _mm_unpackhi_epi32(sum, zero); // a2 0 a3 0

	vpunpckhdq xmm1, xmm5, xmm4

; 305  :     sum = _mm_add_epi32( a0_a1, a2_a3 ); // a0+a2, 0, a1+a3, 0

	vpaddd	xmm1, xmm1, xmm0

; 306  :     // hadd: shower
; 307  :   }
; 308  :   // sum here: two 32 bit partial result: sum1 0 sum2 0
; 309  :   __m128i sum_hi = _mm_unpackhi_epi64(sum, zero); // a1 + a3. 2 dwords right 

	vpunpckhqdq xmm0, xmm1, xmm4

; 310  :   sum = _mm_add_epi32(sum, sum_hi);  // a0 + a2 + a1 + a3

	vpaddd	xmm0, xmm0, xmm1

; 311  : #else
; 312  :   // this hadd path is slower on Ivy bridge
; 313  :   if (sizeof(pixel_t) == 2) {
; 314  :     sum = _mm_hadd_epi32(sum, zero); // a0_a = a0 + a1, a1_a = a2 + a3
; 315  :     sum = _mm_hadd_epi32(sum, zero); // a0 = a0_a + a1_a ( = a0+a1+a2+a3)
; 316  :   }
; 317  :   else { // uint8_t
; 318  :     // sum here: two 32 bit partial result: sum1 0 sum2 0
; 319  :     __m128i sum_hi = _mm_unpackhi_epi64(sum, zero); // a1 + a3. 2 dwords right 
; 320  :     sum = _mm_add_epi32(sum, sum_hi);  // a0 + a2 + a1 + a3
; 321  : 
; 322  :   }
; 323  : #endif
; 324  : 
; 325  :   unsigned int result = _mm_cvtsi128_si32(sum);
; 326  : 
; 327  : #if 0
; 328  :   // check result against C
; 329  :   if (result != result2) {
; 330  :     result = result2;
; 331  :   }
; 332  : #endif
; 333  :   _mm256_zeroupper(); // diff from main sse2
; 334  : 
; 335  :   return result;
; 336  : }  // end of SSE2 with AVX commandset Sad16

	pop	edi
	vmovd	eax, xmm0
	pop	esi
	mov	esp, ebp
	pop	ebp
	ret	0
??$Sad16_sse2_avx@$0BA@$03G@@YAIPBEH0H@Z ENDP		; Sad16_sse2_avx<16,4,unsigned short>
_TEXT	ENDS
; Function compile flags: /Ogtpy
; File c:\github\mvtools\sources\sadfunctions_avx.cpp
;	COMDAT ??$Sad16_sse2_avx@$0BA@$01G@@YAIPBEH0H@Z
_TEXT	SEGMENT
_pSrc$ = 8						; size = 4
_nSrcPitch$ = 12					; size = 4
_pRef$ = 16						; size = 4
_nRefPitch$ = 20					; size = 4
??$Sad16_sse2_avx@$0BA@$01G@@YAIPBEH0H@Z PROC		; Sad16_sse2_avx<16,2,unsigned short>, COMDAT

; 88   : {

	push	ebp
	mov	ebp, esp
	and	esp, -8					; fffffff8H

; 89   : #if 0
; 90   :   // check result against C
; 91   :   unsigned int result2 = Sad_AVX_C<nBlkWidth, nBlkHeight, pixel_t>(pSrc, nSrcPitch, pRef, nRefPitch);
; 92   : #endif
; 93   :   _mm256_zeroupper(); // diff from main sse2
; 94   :   __m128i zero = _mm_setzero_si128();
; 95   :   __m128i sum = _mm_setzero_si128(); // 2x or 4x int is probably enough for 32x32
; 96   : 
; 97   :   const bool two_8byte_rows = (sizeof(pixel_t) == 2 && nBlkWidth <= 4) || (sizeof(pixel_t) == 1 && nBlkWidth <= 8);
; 98   :   const bool one_cycle = (sizeof(pixel_t) * nBlkWidth) == 16;
; 99   :   const bool unroll_by2 = !two_8byte_rows && nBlkHeight>=2; // unroll by 4: slower
; 100  : 
; 101  :   bool unaligned = true;
; 102  :   if (!two_8byte_rows) {
; 103  :     // test. not faster. Checking overhead?
; 104  :     unaligned = true; // ((reinterpret_cast <ptrdiff_t> (pSrc) & 0x0F) || ((reinterpret_cast <ptrdiff_t>(pRef)) & 0x0F) || ((nRefPitch | nSrcPitch) & 0x0F));
; 105  :   }
; 106  : 
; 107  :   if (unaligned) {
; 108  :     for (int y = 0; y < nBlkHeight; y += (two_8byte_rows || unroll_by2) ? 2 : 1)
; 109  :     {
; 110  :       if (two_8byte_rows) { // no x cycle
; 111  :         __m128i src1, src2;
; 112  :         // (8 bytes or 4 words) * 2 rows
; 113  : #if 0
; 114  :         src1 = _mm_or_si128(_mm_loadl_epi64((__m128i *) (pSrc)), _mm_slli_si128(_mm_loadl_epi64((__m128i *) (pSrc + nSrcPitch)), 8));
; 115  :         src2 = _mm_or_si128(_mm_loadl_epi64((__m128i *) (pRef)), _mm_slli_si128(_mm_loadl_epi64((__m128i *) (pRef + nRefPitch)), 8));
; 116  : #else
; 117  :         // 16.12.01 unpack
; 118  :         if (sizeof(pixel_t) == 1) {
; 119  :           src1 = _mm_unpacklo_epi8(_mm_loadl_epi64((__m128i *) (pSrc)), _mm_loadl_epi64((__m128i *) (pSrc + nSrcPitch)));
; 120  :           src2 = _mm_unpacklo_epi8(_mm_loadl_epi64((__m128i *) (pRef)), _mm_loadl_epi64((__m128i *) (pRef + nRefPitch)));
; 121  :         }
; 122  :         else if (sizeof(pixel_t) == 2) {
; 123  :           src1 = _mm_unpacklo_epi16(_mm_loadl_epi64((__m128i *) (pSrc)), _mm_loadl_epi64((__m128i *) (pSrc + nSrcPitch)));
; 124  :           src2 = _mm_unpacklo_epi16(_mm_loadl_epi64((__m128i *) (pRef)), _mm_loadl_epi64((__m128i *) (pRef + nRefPitch)));
; 125  :         }
; 126  : #endif
; 127  :         if (sizeof(pixel_t) == 1) {
; 128  :           // this is uint_16 specific, but will test on uint8_t against external .asm SAD functions)
; 129  :           sum = _mm_add_epi32(sum, _mm_sad_epu8(src1, src2)); // yihhaaa, existing SIMD   sum1_32, 0, sum2_32, 0
; 130  :                                                               // result in two 32 bit areas at the upper and lower 64 bytes
; 131  :         }
; 132  :         else {
; 133  :           __m128i greater_t = _mm_subs_epu16(src1, src2); // unsigned sub with saturation
; 134  :           __m128i smaller_t = _mm_subs_epu16(src2, src1);
; 135  :           __m128i absdiff = _mm_or_si128(greater_t, smaller_t); //abs(s1-s2)  == (satsub(s1,s2) | satsub(s2,s1))
; 136  :           // 8 x uint16 absolute differences
; 137  :           sum = _mm_add_epi32(sum, _mm_unpacklo_epi16(absdiff, zero));
; 138  :           sum = _mm_add_epi32(sum, _mm_unpackhi_epi16(absdiff, zero));
; 139  :           // sum1_32, sum2_32, sum3_32, sum4_32
; 140  :         }
; 141  :       }
; 142  :       else if (one_cycle)
; 143  :       {
; 144  :         __m128i src1, src2;
; 145  :         src1 = _mm_loadu_si128((__m128i *) (pSrc)); // no x
; 146  :         src2 = _mm_loadu_si128((__m128i *) (pRef));
; 147  :         if (sizeof(pixel_t) == 1) {
; 148  :           // this is uint_16 specific, but will test on uint8_t against external .asm SAD functions)
; 149  :           sum = _mm_add_epi32(sum, _mm_sad_epu8(src1, src2)); // yihhaaa, existing SIMD   sum1_32, 0, sum2_32, 0
; 150  :                                                               // result in two 32 bit areas at the upper and lower 64 bytes
; 151  :         }
; 152  :         else {
; 153  :           __m128i greater_t = _mm_subs_epu16(src1, src2); // unsigned sub with saturation
; 154  :           __m128i smaller_t = _mm_subs_epu16(src2, src1);
; 155  :           __m128i absdiff = _mm_or_si128(greater_t, smaller_t); //abs(s1-s2)  == (satsub(s1,s2) | satsub(s2,s1))
; 156  :                                                                 // 8 x uint16 absolute differences
; 157  :           sum = _mm_add_epi32(sum, _mm_unpacklo_epi16(absdiff, zero));
; 158  :           sum = _mm_add_epi32(sum, _mm_unpackhi_epi16(absdiff, zero));
; 159  :           // sum1_32, sum2_32, sum3_32, sum4_32
; 160  :         }
; 161  :         if (unroll_by2) {
; 162  :           // unroll#2
; 163  :           src1 = _mm_loadu_si128((__m128i *) (pSrc+nSrcPitch)); // no x
; 164  :           src2 = _mm_loadu_si128((__m128i *) (pRef+nRefPitch));
; 165  :           if (sizeof(pixel_t) == 1) {
; 166  :             // this is uint_16 specific, but will test on uint8_t against external .asm SAD functions)
; 167  :             sum = _mm_add_epi32(sum, _mm_sad_epu8(src1, src2)); // yihhaaa, existing SIMD   sum1_32, 0, sum2_32, 0
; 168  :                                                                 // result in two 32 bit areas at the upper and lower 64 bytes
; 169  :           }
; 170  :           else {
; 171  :             __m128i greater_t = _mm_subs_epu16(src1, src2); // unsigned sub with saturation
; 172  :             __m128i smaller_t = _mm_subs_epu16(src2, src1);
; 173  :             __m128i absdiff = _mm_or_si128(greater_t, smaller_t); //abs(s1-s2)  == (satsub(s1,s2) | satsub(s2,s1))
; 174  :                                                                   // 8 x uint16 absolute differences
; 175  :             sum = _mm_add_epi32(sum, _mm_unpacklo_epi16(absdiff, zero));
; 176  :             sum = _mm_add_epi32(sum, _mm_unpackhi_epi16(absdiff, zero));
; 177  :             // sum1_32, sum2_32, sum3_32, sum4_32
; 178  :           }
; 179  :         }
; 180  :       }
; 181  :       else {
; 182  :         for (int x = 0; x < nBlkWidth * sizeof(pixel_t); x += 16)

	mov	edx, DWORD PTR _pSrc$[ebp]
	mov	eax, DWORD PTR _pRef$[ebp]
	sub	edx, eax
	push	esi
	vpxor	xmm4, xmm4, xmm4
	push	edi
	vmovdqa	xmm5, xmm4
	mov	esi, 2
	npad	3
$LL7@Sad16_sse2:

; 183  :         {
; 184  :           __m128i src1, src2;
; 185  :           src1 = _mm_loadu_si128((__m128i *) (pSrc + x));
; 186  :           src2 = _mm_loadu_si128((__m128i *) (pRef + x));
; 187  :           if (sizeof(pixel_t) == 1) {
; 188  :             // this is uint_16 specific, but will test on uint8_t against external .asm SAD functions)
; 189  :             sum = _mm_add_epi32(sum, _mm_sad_epu8(src1, src2)); // yihhaaa, existing SIMD   sum1_32, 0, sum2_32, 0
; 190  :             // result in two 32 bit areas at the upper and lower 64 bytes
; 191  :           }
; 192  :           else {
; 193  :             __m128i greater_t = _mm_subs_epu16(src1, src2); // unsigned sub with saturation
; 194  :             __m128i smaller_t = _mm_subs_epu16(src2, src1);
; 195  :             __m128i absdiff = _mm_or_si128(greater_t, smaller_t); //abs(s1-s2)  == (satsub(s1,s2) | satsub(s2,s1))
; 196  :             // 8 x uint16 absolute differences
; 197  :             sum = _mm_add_epi32(sum, _mm_unpacklo_epi16(absdiff, zero));
; 198  :             sum = _mm_add_epi32(sum, _mm_unpackhi_epi16(absdiff, zero));
; 199  :             // sum1_32, sum2_32, sum3_32, sum4_32
; 200  :           }
; 201  :           // sum += SADABS(reinterpret_cast<const pixel_t *>(pSrc)[x] - reinterpret_cast<const pixel_t *>(pRef)[x]);
; 202  :           if (unroll_by2)
; 203  :           {
; 204  :             // unroll#2
; 205  :             src1 = _mm_loadu_si128((__m128i *) (pSrc + nSrcPitch + x));

	mov	edi, DWORD PTR _nSrcPitch$[ebp]
	lea	ecx, DWORD PTR [edx+eax]
	lea	eax, DWORD PTR [eax+16]
	vmovdqu	xmm2, XMMWORD PTR [ecx]
	vmovdqu	xmm0, XMMWORD PTR [eax-16]
	vpsubusw xmm1, xmm2, xmm0
	vpsubusw xmm0, xmm0, xmm2
	vmovdqu	xmm2, XMMWORD PTR [ecx+edi]

; 206  :             src2 = _mm_loadu_si128((__m128i *) (pRef + nRefPitch + x));

	mov	edi, DWORD PTR _nRefPitch$[ebp]
	vpor	xmm3, xmm1, xmm0
	vmovdqu	xmm0, XMMWORD PTR [eax+edi-16]

; 207  :             if (sizeof(pixel_t) == 1) {
; 208  :               // this is uint_16 specific, but will test on uint8_t against external .asm SAD functions)
; 209  :               sum = _mm_add_epi32(sum, _mm_sad_epu8(src1, src2)); // yihhaaa, existing SIMD   sum1_32, 0, sum2_32, 0
; 210  :                                                                   // result in two 32 bit areas at the upper and lower 64 bytes
; 211  :             }
; 212  :             else {
; 213  :               __m128i greater_t = _mm_subs_epu16(src1, src2); // unsigned sub with saturation

	vpsubusw xmm1, xmm2, xmm0

; 214  :               __m128i smaller_t = _mm_subs_epu16(src2, src1);

	vpsubusw xmm0, xmm0, xmm2

; 215  :               __m128i absdiff = _mm_or_si128(greater_t, smaller_t); //abs(s1-s2)  == (satsub(s1,s2) | satsub(s2,s1))

	vpor	xmm2, xmm1, xmm0
	vpunpcklwd xmm0, xmm3, xmm4
	vpaddd	xmm1, xmm0, xmm5
	vpunpckhwd xmm0, xmm3, xmm4
	vpaddd	xmm1, xmm1, xmm0

; 216  :                                                                     // 8 x uint16 absolute differences
; 217  :               sum = _mm_add_epi32(sum, _mm_unpacklo_epi16(absdiff, zero));

	vpunpcklwd xmm0, xmm2, xmm4
	vpaddd	xmm1, xmm1, xmm0

; 218  :               sum = _mm_add_epi32(sum, _mm_unpackhi_epi16(absdiff, zero));

	vpunpckhwd xmm0, xmm2, xmm4
	vpaddd	xmm5, xmm1, xmm0
	sub	esi, 1
	jne	SHORT $LL7@Sad16_sse2

; 219  :               // sum1_32, sum2_32, sum3_32, sum4_32
; 220  :             }
; 221  :           }
; 222  :         }
; 223  :       }
; 224  :       if (two_8byte_rows || unroll_by2) {
; 225  :         pSrc += nSrcPitch * 2;
; 226  :         pRef += nRefPitch * 2;
; 227  :       }
; 228  :       else {
; 229  :         pSrc += nSrcPitch;
; 230  :         pRef += nRefPitch;
; 231  :       }
; 232  :     }
; 233  :   }
; 234  : #if 0
; 235  :   else { // aligned, experimental. With the in-function alignment check overhead it is slower
; 236  :     for (int y = 0; y < nBlkHeight; y += (two_8byte_rows ? 2 : 1))
; 237  :     {
; 238  :       if (one_cycle)
; 239  :       {
; 240  :         __m128i src1, src2;
; 241  :         src1 = _mm_load_si128((__m128i *) (pSrc)); // no x
; 242  :         src2 = _mm_load_si128((__m128i *) (pRef));
; 243  :         if (sizeof(pixel_t) == 1) {
; 244  :           // this is uint_16 specific, but will test on uint8_t against external .asm SAD functions)
; 245  :           sum = _mm_add_epi32(sum, _mm_sad_epu8(src1, src2)); // yihhaaa, existing SIMD   sum1_32, 0, sum2_32, 0
; 246  :                                                               // result in two 32 bit areas at the upper and lower 64 bytes
; 247  :         }
; 248  :         else {
; 249  :           __m128i greater_t = _mm_subs_epu16(src1, src2); // unsigned sub with saturation
; 250  :           __m128i smaller_t = _mm_subs_epu16(src2, src1);
; 251  :           __m128i absdiff = _mm_or_si128(greater_t, smaller_t); //abs(s1-s2)  == (satsub(s1,s2) | satsub(s2,s1))
; 252  :                                                                 // 8 x uint16 absolute differences
; 253  :           sum = _mm_add_epi32(sum, _mm_unpacklo_epi16(absdiff, zero));
; 254  :           sum = _mm_add_epi32(sum, _mm_unpackhi_epi16(absdiff, zero));
; 255  :           // sum1_32, sum2_32, sum3_32, sum4_32
; 256  :         }
; 257  :       }
; 258  :       else {
; 259  :         for (int x = 0; x < nBlkWidth * sizeof(pixel_t); x += 16)
; 260  :         {
; 261  :           __m128i src1, src2;
; 262  :           src1 = _mm_load_si128((__m128i *) (pSrc + x));
; 263  :           src2 = _mm_load_si128((__m128i *) (pRef + x));
; 264  :           if (sizeof(pixel_t) == 1) {
; 265  :             // this is uint_16 specific, but will test on uint8_t against external .asm SAD functions)
; 266  :             sum = _mm_add_epi32(sum, _mm_sad_epu8(src1, src2)); // yihhaaa, existing SIMD   sum1_32, 0, sum2_32, 0
; 267  :                                                                 // result in two 32 bit areas at the upper and lower 64 bytes
; 268  :           }
; 269  :           else {
; 270  :             __m128i greater_t = _mm_subs_epu16(src1, src2); // unsigned sub with saturation
; 271  :             __m128i smaller_t = _mm_subs_epu16(src2, src1);
; 272  :             __m128i absdiff = _mm_or_si128(greater_t, smaller_t); //abs(s1-s2)  == (satsub(s1,s2) | satsub(s2,s1))
; 273  :                                                                   // 8 x uint16 absolute differences
; 274  :             sum = _mm_add_epi32(sum, _mm_unpacklo_epi16(absdiff, zero));
; 275  :             sum = _mm_add_epi32(sum, _mm_unpackhi_epi16(absdiff, zero));
; 276  :             // sum1_32, sum2_32, sum3_32, sum4_32
; 277  :           }
; 278  :           // sum += SADABS(reinterpret_cast<const pixel_t *>(pSrc)[x] - reinterpret_cast<const pixel_t *>(pRef)[x]);
; 279  :         }
; 280  :       }
; 281  :       if (two_8byte_rows) {
; 282  :         pSrc += nSrcPitch * 2;
; 283  :         pRef += nRefPitch * 2;
; 284  :       }
; 285  :       else {
; 286  :         pSrc += nSrcPitch;
; 287  :         pRef += nRefPitch;
; 288  :       }
; 289  :     }
; 290  : 
; 291  :   }
; 292  : #endif
; 293  :   /*
; 294  :   [Low64, Hi64]
; 295  :   _mm_unpacklo_epi64(_mm_setzero_si128(), x)  [0, x0]
; 296  :   _mm_unpackhi_epi64(_mm_setzero_si128(), x)  [0, x1]
; 297  :   _mm_move_epi64(x)                           [x0, 0]
; 298  :   _mm_unpackhi_epi64(x, _mm_setzero_si128())  [x1, 0]
; 299  :   */
; 300  : #if 1
; 301  :   if(sizeof(pixel_t) == 2) {
; 302  :     // at 16 bits: we have 4 integers for sum: a0 a1 a2 a3
; 303  :     __m128i a0_a1 = _mm_unpacklo_epi32(sum, zero); // a0 0 a1 0

	vpunpckldq xmm0, xmm5, xmm4

; 304  :     __m128i a2_a3 = _mm_unpackhi_epi32(sum, zero); // a2 0 a3 0

	vpunpckhdq xmm1, xmm5, xmm4

; 305  :     sum = _mm_add_epi32( a0_a1, a2_a3 ); // a0+a2, 0, a1+a3, 0

	vpaddd	xmm1, xmm1, xmm0

; 306  :     // hadd: shower
; 307  :   }
; 308  :   // sum here: two 32 bit partial result: sum1 0 sum2 0
; 309  :   __m128i sum_hi = _mm_unpackhi_epi64(sum, zero); // a1 + a3. 2 dwords right 

	vpunpckhqdq xmm0, xmm1, xmm4

; 310  :   sum = _mm_add_epi32(sum, sum_hi);  // a0 + a2 + a1 + a3

	vpaddd	xmm0, xmm0, xmm1

; 311  : #else
; 312  :   // this hadd path is slower on Ivy bridge
; 313  :   if (sizeof(pixel_t) == 2) {
; 314  :     sum = _mm_hadd_epi32(sum, zero); // a0_a = a0 + a1, a1_a = a2 + a3
; 315  :     sum = _mm_hadd_epi32(sum, zero); // a0 = a0_a + a1_a ( = a0+a1+a2+a3)
; 316  :   }
; 317  :   else { // uint8_t
; 318  :     // sum here: two 32 bit partial result: sum1 0 sum2 0
; 319  :     __m128i sum_hi = _mm_unpackhi_epi64(sum, zero); // a1 + a3. 2 dwords right 
; 320  :     sum = _mm_add_epi32(sum, sum_hi);  // a0 + a2 + a1 + a3
; 321  : 
; 322  :   }
; 323  : #endif
; 324  : 
; 325  :   unsigned int result = _mm_cvtsi128_si32(sum);
; 326  : 
; 327  : #if 0
; 328  :   // check result against C
; 329  :   if (result != result2) {
; 330  :     result = result2;
; 331  :   }
; 332  : #endif
; 333  :   _mm256_zeroupper(); // diff from main sse2
; 334  : 
; 335  :   return result;
; 336  : }  // end of SSE2 with AVX commandset Sad16

	pop	edi
	vmovd	eax, xmm0
	pop	esi
	mov	esp, ebp
	pop	ebp
	ret	0
??$Sad16_sse2_avx@$0BA@$01G@@YAIPBEH0H@Z ENDP		; Sad16_sse2_avx<16,2,unsigned short>
_TEXT	ENDS
; Function compile flags: /Ogtpy
; File c:\github\mvtools\sources\sadfunctions_avx.cpp
;	COMDAT ??$Sad16_sse2_avx@$0BA@$00G@@YAIPBEH0H@Z
_TEXT	SEGMENT
_pSrc$ = 8						; size = 4
_nSrcPitch$ = 12					; size = 4
_pRef$ = 16						; size = 4
_nRefPitch$ = 20					; size = 4
??$Sad16_sse2_avx@$0BA@$00G@@YAIPBEH0H@Z PROC		; Sad16_sse2_avx<16,1,unsigned short>, COMDAT

; 88   : {

	push	ebp
	mov	ebp, esp
	and	esp, -8					; fffffff8H

; 89   : #if 0
; 90   :   // check result against C
; 91   :   unsigned int result2 = Sad_AVX_C<nBlkWidth, nBlkHeight, pixel_t>(pSrc, nSrcPitch, pRef, nRefPitch);
; 92   : #endif
; 93   :   _mm256_zeroupper(); // diff from main sse2
; 94   :   __m128i zero = _mm_setzero_si128();
; 95   :   __m128i sum = _mm_setzero_si128(); // 2x or 4x int is probably enough for 32x32
; 96   : 
; 97   :   const bool two_8byte_rows = (sizeof(pixel_t) == 2 && nBlkWidth <= 4) || (sizeof(pixel_t) == 1 && nBlkWidth <= 8);
; 98   :   const bool one_cycle = (sizeof(pixel_t) * nBlkWidth) == 16;
; 99   :   const bool unroll_by2 = !two_8byte_rows && nBlkHeight>=2; // unroll by 4: slower
; 100  : 
; 101  :   bool unaligned = true;
; 102  :   if (!two_8byte_rows) {
; 103  :     // test. not faster. Checking overhead?
; 104  :     unaligned = true; // ((reinterpret_cast <ptrdiff_t> (pSrc) & 0x0F) || ((reinterpret_cast <ptrdiff_t>(pRef)) & 0x0F) || ((nRefPitch | nSrcPitch) & 0x0F));
; 105  :   }
; 106  : 
; 107  :   if (unaligned) {
; 108  :     for (int y = 0; y < nBlkHeight; y += (two_8byte_rows || unroll_by2) ? 2 : 1)
; 109  :     {
; 110  :       if (two_8byte_rows) { // no x cycle
; 111  :         __m128i src1, src2;
; 112  :         // (8 bytes or 4 words) * 2 rows
; 113  : #if 0
; 114  :         src1 = _mm_or_si128(_mm_loadl_epi64((__m128i *) (pSrc)), _mm_slli_si128(_mm_loadl_epi64((__m128i *) (pSrc + nSrcPitch)), 8));
; 115  :         src2 = _mm_or_si128(_mm_loadl_epi64((__m128i *) (pRef)), _mm_slli_si128(_mm_loadl_epi64((__m128i *) (pRef + nRefPitch)), 8));
; 116  : #else
; 117  :         // 16.12.01 unpack
; 118  :         if (sizeof(pixel_t) == 1) {
; 119  :           src1 = _mm_unpacklo_epi8(_mm_loadl_epi64((__m128i *) (pSrc)), _mm_loadl_epi64((__m128i *) (pSrc + nSrcPitch)));
; 120  :           src2 = _mm_unpacklo_epi8(_mm_loadl_epi64((__m128i *) (pRef)), _mm_loadl_epi64((__m128i *) (pRef + nRefPitch)));
; 121  :         }
; 122  :         else if (sizeof(pixel_t) == 2) {
; 123  :           src1 = _mm_unpacklo_epi16(_mm_loadl_epi64((__m128i *) (pSrc)), _mm_loadl_epi64((__m128i *) (pSrc + nSrcPitch)));
; 124  :           src2 = _mm_unpacklo_epi16(_mm_loadl_epi64((__m128i *) (pRef)), _mm_loadl_epi64((__m128i *) (pRef + nRefPitch)));
; 125  :         }
; 126  : #endif
; 127  :         if (sizeof(pixel_t) == 1) {
; 128  :           // this is uint_16 specific, but will test on uint8_t against external .asm SAD functions)
; 129  :           sum = _mm_add_epi32(sum, _mm_sad_epu8(src1, src2)); // yihhaaa, existing SIMD   sum1_32, 0, sum2_32, 0
; 130  :                                                               // result in two 32 bit areas at the upper and lower 64 bytes
; 131  :         }
; 132  :         else {
; 133  :           __m128i greater_t = _mm_subs_epu16(src1, src2); // unsigned sub with saturation
; 134  :           __m128i smaller_t = _mm_subs_epu16(src2, src1);
; 135  :           __m128i absdiff = _mm_or_si128(greater_t, smaller_t); //abs(s1-s2)  == (satsub(s1,s2) | satsub(s2,s1))
; 136  :           // 8 x uint16 absolute differences
; 137  :           sum = _mm_add_epi32(sum, _mm_unpacklo_epi16(absdiff, zero));
; 138  :           sum = _mm_add_epi32(sum, _mm_unpackhi_epi16(absdiff, zero));
; 139  :           // sum1_32, sum2_32, sum3_32, sum4_32
; 140  :         }
; 141  :       }
; 142  :       else if (one_cycle)
; 143  :       {
; 144  :         __m128i src1, src2;
; 145  :         src1 = _mm_loadu_si128((__m128i *) (pSrc)); // no x
; 146  :         src2 = _mm_loadu_si128((__m128i *) (pRef));
; 147  :         if (sizeof(pixel_t) == 1) {
; 148  :           // this is uint_16 specific, but will test on uint8_t against external .asm SAD functions)
; 149  :           sum = _mm_add_epi32(sum, _mm_sad_epu8(src1, src2)); // yihhaaa, existing SIMD   sum1_32, 0, sum2_32, 0
; 150  :                                                               // result in two 32 bit areas at the upper and lower 64 bytes
; 151  :         }
; 152  :         else {
; 153  :           __m128i greater_t = _mm_subs_epu16(src1, src2); // unsigned sub with saturation
; 154  :           __m128i smaller_t = _mm_subs_epu16(src2, src1);
; 155  :           __m128i absdiff = _mm_or_si128(greater_t, smaller_t); //abs(s1-s2)  == (satsub(s1,s2) | satsub(s2,s1))
; 156  :                                                                 // 8 x uint16 absolute differences
; 157  :           sum = _mm_add_epi32(sum, _mm_unpacklo_epi16(absdiff, zero));
; 158  :           sum = _mm_add_epi32(sum, _mm_unpackhi_epi16(absdiff, zero));
; 159  :           // sum1_32, sum2_32, sum3_32, sum4_32
; 160  :         }
; 161  :         if (unroll_by2) {
; 162  :           // unroll#2
; 163  :           src1 = _mm_loadu_si128((__m128i *) (pSrc+nSrcPitch)); // no x
; 164  :           src2 = _mm_loadu_si128((__m128i *) (pRef+nRefPitch));
; 165  :           if (sizeof(pixel_t) == 1) {
; 166  :             // this is uint_16 specific, but will test on uint8_t against external .asm SAD functions)
; 167  :             sum = _mm_add_epi32(sum, _mm_sad_epu8(src1, src2)); // yihhaaa, existing SIMD   sum1_32, 0, sum2_32, 0
; 168  :                                                                 // result in two 32 bit areas at the upper and lower 64 bytes
; 169  :           }
; 170  :           else {
; 171  :             __m128i greater_t = _mm_subs_epu16(src1, src2); // unsigned sub with saturation
; 172  :             __m128i smaller_t = _mm_subs_epu16(src2, src1);
; 173  :             __m128i absdiff = _mm_or_si128(greater_t, smaller_t); //abs(s1-s2)  == (satsub(s1,s2) | satsub(s2,s1))
; 174  :                                                                   // 8 x uint16 absolute differences
; 175  :             sum = _mm_add_epi32(sum, _mm_unpacklo_epi16(absdiff, zero));
; 176  :             sum = _mm_add_epi32(sum, _mm_unpackhi_epi16(absdiff, zero));
; 177  :             // sum1_32, sum2_32, sum3_32, sum4_32
; 178  :           }
; 179  :         }
; 180  :       }
; 181  :       else {
; 182  :         for (int x = 0; x < nBlkWidth * sizeof(pixel_t); x += 16)

	mov	ecx, DWORD PTR _pSrc$[ebp]
	mov	edx, 2
	mov	eax, DWORD PTR _pRef$[ebp]
	sub	ecx, eax
	vpxor	xmm3, xmm3, xmm3
	vmovdqa	xmm4, xmm3
	npad	5
$LL7@Sad16_sse2:
	lea	eax, DWORD PTR [eax+16]

; 183  :         {
; 184  :           __m128i src1, src2;
; 185  :           src1 = _mm_loadu_si128((__m128i *) (pSrc + x));

	vmovdqu	xmm2, XMMWORD PTR [ecx+eax-16]

; 186  :           src2 = _mm_loadu_si128((__m128i *) (pRef + x));

	vmovdqu	xmm0, XMMWORD PTR [eax-16]

; 187  :           if (sizeof(pixel_t) == 1) {
; 188  :             // this is uint_16 specific, but will test on uint8_t against external .asm SAD functions)
; 189  :             sum = _mm_add_epi32(sum, _mm_sad_epu8(src1, src2)); // yihhaaa, existing SIMD   sum1_32, 0, sum2_32, 0
; 190  :             // result in two 32 bit areas at the upper and lower 64 bytes
; 191  :           }
; 192  :           else {
; 193  :             __m128i greater_t = _mm_subs_epu16(src1, src2); // unsigned sub with saturation

	vpsubusw xmm1, xmm2, xmm0

; 194  :             __m128i smaller_t = _mm_subs_epu16(src2, src1);

	vpsubusw xmm0, xmm0, xmm2

; 195  :             __m128i absdiff = _mm_or_si128(greater_t, smaller_t); //abs(s1-s2)  == (satsub(s1,s2) | satsub(s2,s1))

	vpor	xmm2, xmm1, xmm0

; 196  :             // 8 x uint16 absolute differences
; 197  :             sum = _mm_add_epi32(sum, _mm_unpacklo_epi16(absdiff, zero));

	vpunpcklwd xmm0, xmm2, xmm3
	vpaddd	xmm1, xmm0, xmm4

; 198  :             sum = _mm_add_epi32(sum, _mm_unpackhi_epi16(absdiff, zero));

	vpunpckhwd xmm0, xmm2, xmm3
	vpaddd	xmm4, xmm1, xmm0
	sub	edx, 1
	jne	SHORT $LL7@Sad16_sse2

; 199  :             // sum1_32, sum2_32, sum3_32, sum4_32
; 200  :           }
; 201  :           // sum += SADABS(reinterpret_cast<const pixel_t *>(pSrc)[x] - reinterpret_cast<const pixel_t *>(pRef)[x]);
; 202  :           if (unroll_by2)
; 203  :           {
; 204  :             // unroll#2
; 205  :             src1 = _mm_loadu_si128((__m128i *) (pSrc + nSrcPitch + x));
; 206  :             src2 = _mm_loadu_si128((__m128i *) (pRef + nRefPitch + x));
; 207  :             if (sizeof(pixel_t) == 1) {
; 208  :               // this is uint_16 specific, but will test on uint8_t against external .asm SAD functions)
; 209  :               sum = _mm_add_epi32(sum, _mm_sad_epu8(src1, src2)); // yihhaaa, existing SIMD   sum1_32, 0, sum2_32, 0
; 210  :                                                                   // result in two 32 bit areas at the upper and lower 64 bytes
; 211  :             }
; 212  :             else {
; 213  :               __m128i greater_t = _mm_subs_epu16(src1, src2); // unsigned sub with saturation
; 214  :               __m128i smaller_t = _mm_subs_epu16(src2, src1);
; 215  :               __m128i absdiff = _mm_or_si128(greater_t, smaller_t); //abs(s1-s2)  == (satsub(s1,s2) | satsub(s2,s1))
; 216  :                                                                     // 8 x uint16 absolute differences
; 217  :               sum = _mm_add_epi32(sum, _mm_unpacklo_epi16(absdiff, zero));
; 218  :               sum = _mm_add_epi32(sum, _mm_unpackhi_epi16(absdiff, zero));
; 219  :               // sum1_32, sum2_32, sum3_32, sum4_32
; 220  :             }
; 221  :           }
; 222  :         }
; 223  :       }
; 224  :       if (two_8byte_rows || unroll_by2) {
; 225  :         pSrc += nSrcPitch * 2;
; 226  :         pRef += nRefPitch * 2;
; 227  :       }
; 228  :       else {
; 229  :         pSrc += nSrcPitch;
; 230  :         pRef += nRefPitch;
; 231  :       }
; 232  :     }
; 233  :   }
; 234  : #if 0
; 235  :   else { // aligned, experimental. With the in-function alignment check overhead it is slower
; 236  :     for (int y = 0; y < nBlkHeight; y += (two_8byte_rows ? 2 : 1))
; 237  :     {
; 238  :       if (one_cycle)
; 239  :       {
; 240  :         __m128i src1, src2;
; 241  :         src1 = _mm_load_si128((__m128i *) (pSrc)); // no x
; 242  :         src2 = _mm_load_si128((__m128i *) (pRef));
; 243  :         if (sizeof(pixel_t) == 1) {
; 244  :           // this is uint_16 specific, but will test on uint8_t against external .asm SAD functions)
; 245  :           sum = _mm_add_epi32(sum, _mm_sad_epu8(src1, src2)); // yihhaaa, existing SIMD   sum1_32, 0, sum2_32, 0
; 246  :                                                               // result in two 32 bit areas at the upper and lower 64 bytes
; 247  :         }
; 248  :         else {
; 249  :           __m128i greater_t = _mm_subs_epu16(src1, src2); // unsigned sub with saturation
; 250  :           __m128i smaller_t = _mm_subs_epu16(src2, src1);
; 251  :           __m128i absdiff = _mm_or_si128(greater_t, smaller_t); //abs(s1-s2)  == (satsub(s1,s2) | satsub(s2,s1))
; 252  :                                                                 // 8 x uint16 absolute differences
; 253  :           sum = _mm_add_epi32(sum, _mm_unpacklo_epi16(absdiff, zero));
; 254  :           sum = _mm_add_epi32(sum, _mm_unpackhi_epi16(absdiff, zero));
; 255  :           // sum1_32, sum2_32, sum3_32, sum4_32
; 256  :         }
; 257  :       }
; 258  :       else {
; 259  :         for (int x = 0; x < nBlkWidth * sizeof(pixel_t); x += 16)
; 260  :         {
; 261  :           __m128i src1, src2;
; 262  :           src1 = _mm_load_si128((__m128i *) (pSrc + x));
; 263  :           src2 = _mm_load_si128((__m128i *) (pRef + x));
; 264  :           if (sizeof(pixel_t) == 1) {
; 265  :             // this is uint_16 specific, but will test on uint8_t against external .asm SAD functions)
; 266  :             sum = _mm_add_epi32(sum, _mm_sad_epu8(src1, src2)); // yihhaaa, existing SIMD   sum1_32, 0, sum2_32, 0
; 267  :                                                                 // result in two 32 bit areas at the upper and lower 64 bytes
; 268  :           }
; 269  :           else {
; 270  :             __m128i greater_t = _mm_subs_epu16(src1, src2); // unsigned sub with saturation
; 271  :             __m128i smaller_t = _mm_subs_epu16(src2, src1);
; 272  :             __m128i absdiff = _mm_or_si128(greater_t, smaller_t); //abs(s1-s2)  == (satsub(s1,s2) | satsub(s2,s1))
; 273  :                                                                   // 8 x uint16 absolute differences
; 274  :             sum = _mm_add_epi32(sum, _mm_unpacklo_epi16(absdiff, zero));
; 275  :             sum = _mm_add_epi32(sum, _mm_unpackhi_epi16(absdiff, zero));
; 276  :             // sum1_32, sum2_32, sum3_32, sum4_32
; 277  :           }
; 278  :           // sum += SADABS(reinterpret_cast<const pixel_t *>(pSrc)[x] - reinterpret_cast<const pixel_t *>(pRef)[x]);
; 279  :         }
; 280  :       }
; 281  :       if (two_8byte_rows) {
; 282  :         pSrc += nSrcPitch * 2;
; 283  :         pRef += nRefPitch * 2;
; 284  :       }
; 285  :       else {
; 286  :         pSrc += nSrcPitch;
; 287  :         pRef += nRefPitch;
; 288  :       }
; 289  :     }
; 290  : 
; 291  :   }
; 292  : #endif
; 293  :   /*
; 294  :   [Low64, Hi64]
; 295  :   _mm_unpacklo_epi64(_mm_setzero_si128(), x)  [0, x0]
; 296  :   _mm_unpackhi_epi64(_mm_setzero_si128(), x)  [0, x1]
; 297  :   _mm_move_epi64(x)                           [x0, 0]
; 298  :   _mm_unpackhi_epi64(x, _mm_setzero_si128())  [x1, 0]
; 299  :   */
; 300  : #if 1
; 301  :   if(sizeof(pixel_t) == 2) {
; 302  :     // at 16 bits: we have 4 integers for sum: a0 a1 a2 a3
; 303  :     __m128i a0_a1 = _mm_unpacklo_epi32(sum, zero); // a0 0 a1 0

	vpunpckldq xmm0, xmm4, xmm3

; 304  :     __m128i a2_a3 = _mm_unpackhi_epi32(sum, zero); // a2 0 a3 0

	vpunpckhdq xmm1, xmm4, xmm3

; 305  :     sum = _mm_add_epi32( a0_a1, a2_a3 ); // a0+a2, 0, a1+a3, 0

	vpaddd	xmm1, xmm1, xmm0

; 306  :     // hadd: shower
; 307  :   }
; 308  :   // sum here: two 32 bit partial result: sum1 0 sum2 0
; 309  :   __m128i sum_hi = _mm_unpackhi_epi64(sum, zero); // a1 + a3. 2 dwords right 

	vpunpckhqdq xmm0, xmm1, xmm3

; 310  :   sum = _mm_add_epi32(sum, sum_hi);  // a0 + a2 + a1 + a3

	vpaddd	xmm0, xmm0, xmm1

; 311  : #else
; 312  :   // this hadd path is slower on Ivy bridge
; 313  :   if (sizeof(pixel_t) == 2) {
; 314  :     sum = _mm_hadd_epi32(sum, zero); // a0_a = a0 + a1, a1_a = a2 + a3
; 315  :     sum = _mm_hadd_epi32(sum, zero); // a0 = a0_a + a1_a ( = a0+a1+a2+a3)
; 316  :   }
; 317  :   else { // uint8_t
; 318  :     // sum here: two 32 bit partial result: sum1 0 sum2 0
; 319  :     __m128i sum_hi = _mm_unpackhi_epi64(sum, zero); // a1 + a3. 2 dwords right 
; 320  :     sum = _mm_add_epi32(sum, sum_hi);  // a0 + a2 + a1 + a3
; 321  : 
; 322  :   }
; 323  : #endif
; 324  : 
; 325  :   unsigned int result = _mm_cvtsi128_si32(sum);

	vmovd	eax, xmm0

; 326  : 
; 327  : #if 0
; 328  :   // check result against C
; 329  :   if (result != result2) {
; 330  :     result = result2;
; 331  :   }
; 332  : #endif
; 333  :   _mm256_zeroupper(); // diff from main sse2
; 334  : 
; 335  :   return result;
; 336  : }  // end of SSE2 with AVX commandset Sad16

	mov	esp, ebp
	pop	ebp
	ret	0
??$Sad16_sse2_avx@$0BA@$00G@@YAIPBEH0H@Z ENDP		; Sad16_sse2_avx<16,1,unsigned short>
_TEXT	ENDS
; Function compile flags: /Ogtpy
; File c:\github\mvtools\sources\sadfunctions_avx.cpp
;	COMDAT ??$Sad16_sse2_avx@$07$0BA@G@@YAIPBEH0H@Z
_TEXT	SEGMENT
tv490 = -8						; size = 4
tv489 = -4						; size = 4
_pSrc$ = 8						; size = 4
_nSrcPitch$ = 12					; size = 4
_pRef$ = 16						; size = 4
_nRefPitch$ = 20					; size = 4
??$Sad16_sse2_avx@$07$0BA@G@@YAIPBEH0H@Z PROC		; Sad16_sse2_avx<8,16,unsigned short>, COMDAT

; 88   : {

	push	ebp
	mov	ebp, esp
	and	esp, -8					; fffffff8H
	sub	esp, 8
	mov	edx, DWORD PTR _nSrcPitch$[ebp]

; 89   : #if 0
; 90   :   // check result against C
; 91   :   unsigned int result2 = Sad_AVX_C<nBlkWidth, nBlkHeight, pixel_t>(pSrc, nSrcPitch, pRef, nRefPitch);
; 92   : #endif
; 93   :   _mm256_zeroupper(); // diff from main sse2

	mov	ecx, DWORD PTR _pSrc$[ebp]
	push	esi
	mov	esi, DWORD PTR _nRefPitch$[ebp]
	lea	eax, DWORD PTR [edx+edx]
	mov	DWORD PTR tv490[esp+12], eax
	vpxor	xmm4, xmm4, xmm4
	lea	eax, DWORD PTR [esi+esi]
	push	edi
	mov	DWORD PTR tv489[esp+16], eax
	mov	edi, 8
	mov	eax, DWORD PTR _pRef$[ebp]

; 94   :   __m128i zero = _mm_setzero_si128();
; 95   :   __m128i sum = _mm_setzero_si128(); // 2x or 4x int is probably enough for 32x32

	vmovdqa	xmm5, xmm4
$LL4@Sad16_sse2:

; 96   : 
; 97   :   const bool two_8byte_rows = (sizeof(pixel_t) == 2 && nBlkWidth <= 4) || (sizeof(pixel_t) == 1 && nBlkWidth <= 8);
; 98   :   const bool one_cycle = (sizeof(pixel_t) * nBlkWidth) == 16;
; 99   :   const bool unroll_by2 = !two_8byte_rows && nBlkHeight>=2; // unroll by 4: slower
; 100  : 
; 101  :   bool unaligned = true;
; 102  :   if (!two_8byte_rows) {
; 103  :     // test. not faster. Checking overhead?
; 104  :     unaligned = true; // ((reinterpret_cast <ptrdiff_t> (pSrc) & 0x0F) || ((reinterpret_cast <ptrdiff_t>(pRef)) & 0x0F) || ((nRefPitch | nSrcPitch) & 0x0F));
; 105  :   }
; 106  : 
; 107  :   if (unaligned) {
; 108  :     for (int y = 0; y < nBlkHeight; y += (two_8byte_rows || unroll_by2) ? 2 : 1)
; 109  :     {
; 110  :       if (two_8byte_rows) { // no x cycle
; 111  :         __m128i src1, src2;
; 112  :         // (8 bytes or 4 words) * 2 rows
; 113  : #if 0
; 114  :         src1 = _mm_or_si128(_mm_loadl_epi64((__m128i *) (pSrc)), _mm_slli_si128(_mm_loadl_epi64((__m128i *) (pSrc + nSrcPitch)), 8));
; 115  :         src2 = _mm_or_si128(_mm_loadl_epi64((__m128i *) (pRef)), _mm_slli_si128(_mm_loadl_epi64((__m128i *) (pRef + nRefPitch)), 8));
; 116  : #else
; 117  :         // 16.12.01 unpack
; 118  :         if (sizeof(pixel_t) == 1) {
; 119  :           src1 = _mm_unpacklo_epi8(_mm_loadl_epi64((__m128i *) (pSrc)), _mm_loadl_epi64((__m128i *) (pSrc + nSrcPitch)));
; 120  :           src2 = _mm_unpacklo_epi8(_mm_loadl_epi64((__m128i *) (pRef)), _mm_loadl_epi64((__m128i *) (pRef + nRefPitch)));
; 121  :         }
; 122  :         else if (sizeof(pixel_t) == 2) {
; 123  :           src1 = _mm_unpacklo_epi16(_mm_loadl_epi64((__m128i *) (pSrc)), _mm_loadl_epi64((__m128i *) (pSrc + nSrcPitch)));
; 124  :           src2 = _mm_unpacklo_epi16(_mm_loadl_epi64((__m128i *) (pRef)), _mm_loadl_epi64((__m128i *) (pRef + nRefPitch)));
; 125  :         }
; 126  : #endif
; 127  :         if (sizeof(pixel_t) == 1) {
; 128  :           // this is uint_16 specific, but will test on uint8_t against external .asm SAD functions)
; 129  :           sum = _mm_add_epi32(sum, _mm_sad_epu8(src1, src2)); // yihhaaa, existing SIMD   sum1_32, 0, sum2_32, 0
; 130  :                                                               // result in two 32 bit areas at the upper and lower 64 bytes
; 131  :         }
; 132  :         else {
; 133  :           __m128i greater_t = _mm_subs_epu16(src1, src2); // unsigned sub with saturation
; 134  :           __m128i smaller_t = _mm_subs_epu16(src2, src1);
; 135  :           __m128i absdiff = _mm_or_si128(greater_t, smaller_t); //abs(s1-s2)  == (satsub(s1,s2) | satsub(s2,s1))
; 136  :           // 8 x uint16 absolute differences
; 137  :           sum = _mm_add_epi32(sum, _mm_unpacklo_epi16(absdiff, zero));
; 138  :           sum = _mm_add_epi32(sum, _mm_unpackhi_epi16(absdiff, zero));
; 139  :           // sum1_32, sum2_32, sum3_32, sum4_32
; 140  :         }
; 141  :       }
; 142  :       else if (one_cycle)
; 143  :       {
; 144  :         __m128i src1, src2;
; 145  :         src1 = _mm_loadu_si128((__m128i *) (pSrc)); // no x

	vmovdqu	xmm2, XMMWORD PTR [ecx]

; 146  :         src2 = _mm_loadu_si128((__m128i *) (pRef));

	vmovdqu	xmm0, XMMWORD PTR [eax]

; 147  :         if (sizeof(pixel_t) == 1) {
; 148  :           // this is uint_16 specific, but will test on uint8_t against external .asm SAD functions)
; 149  :           sum = _mm_add_epi32(sum, _mm_sad_epu8(src1, src2)); // yihhaaa, existing SIMD   sum1_32, 0, sum2_32, 0
; 150  :                                                               // result in two 32 bit areas at the upper and lower 64 bytes
; 151  :         }
; 152  :         else {
; 153  :           __m128i greater_t = _mm_subs_epu16(src1, src2); // unsigned sub with saturation

	vpsubusw xmm1, xmm2, xmm0

; 154  :           __m128i smaller_t = _mm_subs_epu16(src2, src1);

	vpsubusw xmm0, xmm0, xmm2

; 155  :           __m128i absdiff = _mm_or_si128(greater_t, smaller_t); //abs(s1-s2)  == (satsub(s1,s2) | satsub(s2,s1))
; 156  :                                                                 // 8 x uint16 absolute differences
; 157  :           sum = _mm_add_epi32(sum, _mm_unpacklo_epi16(absdiff, zero));
; 158  :           sum = _mm_add_epi32(sum, _mm_unpackhi_epi16(absdiff, zero));
; 159  :           // sum1_32, sum2_32, sum3_32, sum4_32
; 160  :         }
; 161  :         if (unroll_by2) {
; 162  :           // unroll#2
; 163  :           src1 = _mm_loadu_si128((__m128i *) (pSrc+nSrcPitch)); // no x

	vmovdqu	xmm2, XMMWORD PTR [ecx+edx]

; 164  :           src2 = _mm_loadu_si128((__m128i *) (pRef+nRefPitch));
; 165  :           if (sizeof(pixel_t) == 1) {
; 166  :             // this is uint_16 specific, but will test on uint8_t against external .asm SAD functions)
; 167  :             sum = _mm_add_epi32(sum, _mm_sad_epu8(src1, src2)); // yihhaaa, existing SIMD   sum1_32, 0, sum2_32, 0
; 168  :                                                                 // result in two 32 bit areas at the upper and lower 64 bytes
; 169  :           }
; 170  :           else {
; 171  :             __m128i greater_t = _mm_subs_epu16(src1, src2); // unsigned sub with saturation
; 172  :             __m128i smaller_t = _mm_subs_epu16(src2, src1);
; 173  :             __m128i absdiff = _mm_or_si128(greater_t, smaller_t); //abs(s1-s2)  == (satsub(s1,s2) | satsub(s2,s1))
; 174  :                                                                   // 8 x uint16 absolute differences
; 175  :             sum = _mm_add_epi32(sum, _mm_unpacklo_epi16(absdiff, zero));
; 176  :             sum = _mm_add_epi32(sum, _mm_unpackhi_epi16(absdiff, zero));
; 177  :             // sum1_32, sum2_32, sum3_32, sum4_32
; 178  :           }
; 179  :         }
; 180  :       }
; 181  :       else {
; 182  :         for (int x = 0; x < nBlkWidth * sizeof(pixel_t); x += 16)
; 183  :         {
; 184  :           __m128i src1, src2;
; 185  :           src1 = _mm_loadu_si128((__m128i *) (pSrc + x));
; 186  :           src2 = _mm_loadu_si128((__m128i *) (pRef + x));
; 187  :           if (sizeof(pixel_t) == 1) {
; 188  :             // this is uint_16 specific, but will test on uint8_t against external .asm SAD functions)
; 189  :             sum = _mm_add_epi32(sum, _mm_sad_epu8(src1, src2)); // yihhaaa, existing SIMD   sum1_32, 0, sum2_32, 0
; 190  :             // result in two 32 bit areas at the upper and lower 64 bytes
; 191  :           }
; 192  :           else {
; 193  :             __m128i greater_t = _mm_subs_epu16(src1, src2); // unsigned sub with saturation
; 194  :             __m128i smaller_t = _mm_subs_epu16(src2, src1);
; 195  :             __m128i absdiff = _mm_or_si128(greater_t, smaller_t); //abs(s1-s2)  == (satsub(s1,s2) | satsub(s2,s1))
; 196  :             // 8 x uint16 absolute differences
; 197  :             sum = _mm_add_epi32(sum, _mm_unpacklo_epi16(absdiff, zero));
; 198  :             sum = _mm_add_epi32(sum, _mm_unpackhi_epi16(absdiff, zero));
; 199  :             // sum1_32, sum2_32, sum3_32, sum4_32
; 200  :           }
; 201  :           // sum += SADABS(reinterpret_cast<const pixel_t *>(pSrc)[x] - reinterpret_cast<const pixel_t *>(pRef)[x]);
; 202  :           if (unroll_by2)
; 203  :           {
; 204  :             // unroll#2
; 205  :             src1 = _mm_loadu_si128((__m128i *) (pSrc + nSrcPitch + x));
; 206  :             src2 = _mm_loadu_si128((__m128i *) (pRef + nRefPitch + x));
; 207  :             if (sizeof(pixel_t) == 1) {
; 208  :               // this is uint_16 specific, but will test on uint8_t against external .asm SAD functions)
; 209  :               sum = _mm_add_epi32(sum, _mm_sad_epu8(src1, src2)); // yihhaaa, existing SIMD   sum1_32, 0, sum2_32, 0
; 210  :                                                                   // result in two 32 bit areas at the upper and lower 64 bytes
; 211  :             }
; 212  :             else {
; 213  :               __m128i greater_t = _mm_subs_epu16(src1, src2); // unsigned sub with saturation
; 214  :               __m128i smaller_t = _mm_subs_epu16(src2, src1);
; 215  :               __m128i absdiff = _mm_or_si128(greater_t, smaller_t); //abs(s1-s2)  == (satsub(s1,s2) | satsub(s2,s1))
; 216  :                                                                     // 8 x uint16 absolute differences
; 217  :               sum = _mm_add_epi32(sum, _mm_unpacklo_epi16(absdiff, zero));
; 218  :               sum = _mm_add_epi32(sum, _mm_unpackhi_epi16(absdiff, zero));
; 219  :               // sum1_32, sum2_32, sum3_32, sum4_32
; 220  :             }
; 221  :           }
; 222  :         }
; 223  :       }
; 224  :       if (two_8byte_rows || unroll_by2) {
; 225  :         pSrc += nSrcPitch * 2;

	add	ecx, DWORD PTR tv490[esp+16]
	vpor	xmm3, xmm1, xmm0
	vmovdqu	xmm0, XMMWORD PTR [eax+esi]

; 226  :         pRef += nRefPitch * 2;

	add	eax, DWORD PTR tv489[esp+16]
	vpsubusw xmm1, xmm2, xmm0
	vpsubusw xmm0, xmm0, xmm2
	vpor	xmm2, xmm1, xmm0
	vpunpcklwd xmm0, xmm3, xmm4
	vpaddd	xmm1, xmm0, xmm5
	vpunpckhwd xmm0, xmm3, xmm4
	vpaddd	xmm1, xmm1, xmm0
	vpunpcklwd xmm0, xmm2, xmm4
	vpaddd	xmm1, xmm1, xmm0
	vpunpckhwd xmm0, xmm2, xmm4
	vpaddd	xmm5, xmm1, xmm0
	sub	edi, 1
	jne	SHORT $LL4@Sad16_sse2

; 227  :       }
; 228  :       else {
; 229  :         pSrc += nSrcPitch;
; 230  :         pRef += nRefPitch;
; 231  :       }
; 232  :     }
; 233  :   }
; 234  : #if 0
; 235  :   else { // aligned, experimental. With the in-function alignment check overhead it is slower
; 236  :     for (int y = 0; y < nBlkHeight; y += (two_8byte_rows ? 2 : 1))
; 237  :     {
; 238  :       if (one_cycle)
; 239  :       {
; 240  :         __m128i src1, src2;
; 241  :         src1 = _mm_load_si128((__m128i *) (pSrc)); // no x
; 242  :         src2 = _mm_load_si128((__m128i *) (pRef));
; 243  :         if (sizeof(pixel_t) == 1) {
; 244  :           // this is uint_16 specific, but will test on uint8_t against external .asm SAD functions)
; 245  :           sum = _mm_add_epi32(sum, _mm_sad_epu8(src1, src2)); // yihhaaa, existing SIMD   sum1_32, 0, sum2_32, 0
; 246  :                                                               // result in two 32 bit areas at the upper and lower 64 bytes
; 247  :         }
; 248  :         else {
; 249  :           __m128i greater_t = _mm_subs_epu16(src1, src2); // unsigned sub with saturation
; 250  :           __m128i smaller_t = _mm_subs_epu16(src2, src1);
; 251  :           __m128i absdiff = _mm_or_si128(greater_t, smaller_t); //abs(s1-s2)  == (satsub(s1,s2) | satsub(s2,s1))
; 252  :                                                                 // 8 x uint16 absolute differences
; 253  :           sum = _mm_add_epi32(sum, _mm_unpacklo_epi16(absdiff, zero));
; 254  :           sum = _mm_add_epi32(sum, _mm_unpackhi_epi16(absdiff, zero));
; 255  :           // sum1_32, sum2_32, sum3_32, sum4_32
; 256  :         }
; 257  :       }
; 258  :       else {
; 259  :         for (int x = 0; x < nBlkWidth * sizeof(pixel_t); x += 16)
; 260  :         {
; 261  :           __m128i src1, src2;
; 262  :           src1 = _mm_load_si128((__m128i *) (pSrc + x));
; 263  :           src2 = _mm_load_si128((__m128i *) (pRef + x));
; 264  :           if (sizeof(pixel_t) == 1) {
; 265  :             // this is uint_16 specific, but will test on uint8_t against external .asm SAD functions)
; 266  :             sum = _mm_add_epi32(sum, _mm_sad_epu8(src1, src2)); // yihhaaa, existing SIMD   sum1_32, 0, sum2_32, 0
; 267  :                                                                 // result in two 32 bit areas at the upper and lower 64 bytes
; 268  :           }
; 269  :           else {
; 270  :             __m128i greater_t = _mm_subs_epu16(src1, src2); // unsigned sub with saturation
; 271  :             __m128i smaller_t = _mm_subs_epu16(src2, src1);
; 272  :             __m128i absdiff = _mm_or_si128(greater_t, smaller_t); //abs(s1-s2)  == (satsub(s1,s2) | satsub(s2,s1))
; 273  :                                                                   // 8 x uint16 absolute differences
; 274  :             sum = _mm_add_epi32(sum, _mm_unpacklo_epi16(absdiff, zero));
; 275  :             sum = _mm_add_epi32(sum, _mm_unpackhi_epi16(absdiff, zero));
; 276  :             // sum1_32, sum2_32, sum3_32, sum4_32
; 277  :           }
; 278  :           // sum += SADABS(reinterpret_cast<const pixel_t *>(pSrc)[x] - reinterpret_cast<const pixel_t *>(pRef)[x]);
; 279  :         }
; 280  :       }
; 281  :       if (two_8byte_rows) {
; 282  :         pSrc += nSrcPitch * 2;
; 283  :         pRef += nRefPitch * 2;
; 284  :       }
; 285  :       else {
; 286  :         pSrc += nSrcPitch;
; 287  :         pRef += nRefPitch;
; 288  :       }
; 289  :     }
; 290  : 
; 291  :   }
; 292  : #endif
; 293  :   /*
; 294  :   [Low64, Hi64]
; 295  :   _mm_unpacklo_epi64(_mm_setzero_si128(), x)  [0, x0]
; 296  :   _mm_unpackhi_epi64(_mm_setzero_si128(), x)  [0, x1]
; 297  :   _mm_move_epi64(x)                           [x0, 0]
; 298  :   _mm_unpackhi_epi64(x, _mm_setzero_si128())  [x1, 0]
; 299  :   */
; 300  : #if 1
; 301  :   if(sizeof(pixel_t) == 2) {
; 302  :     // at 16 bits: we have 4 integers for sum: a0 a1 a2 a3
; 303  :     __m128i a0_a1 = _mm_unpacklo_epi32(sum, zero); // a0 0 a1 0

	vpunpckldq xmm0, xmm5, xmm4

; 304  :     __m128i a2_a3 = _mm_unpackhi_epi32(sum, zero); // a2 0 a3 0

	vpunpckhdq xmm1, xmm5, xmm4

; 305  :     sum = _mm_add_epi32( a0_a1, a2_a3 ); // a0+a2, 0, a1+a3, 0

	vpaddd	xmm1, xmm1, xmm0

; 306  :     // hadd: shower
; 307  :   }
; 308  :   // sum here: two 32 bit partial result: sum1 0 sum2 0
; 309  :   __m128i sum_hi = _mm_unpackhi_epi64(sum, zero); // a1 + a3. 2 dwords right 

	vpunpckhqdq xmm0, xmm1, xmm4

; 310  :   sum = _mm_add_epi32(sum, sum_hi);  // a0 + a2 + a1 + a3

	vpaddd	xmm0, xmm0, xmm1

; 311  : #else
; 312  :   // this hadd path is slower on Ivy bridge
; 313  :   if (sizeof(pixel_t) == 2) {
; 314  :     sum = _mm_hadd_epi32(sum, zero); // a0_a = a0 + a1, a1_a = a2 + a3
; 315  :     sum = _mm_hadd_epi32(sum, zero); // a0 = a0_a + a1_a ( = a0+a1+a2+a3)
; 316  :   }
; 317  :   else { // uint8_t
; 318  :     // sum here: two 32 bit partial result: sum1 0 sum2 0
; 319  :     __m128i sum_hi = _mm_unpackhi_epi64(sum, zero); // a1 + a3. 2 dwords right 
; 320  :     sum = _mm_add_epi32(sum, sum_hi);  // a0 + a2 + a1 + a3
; 321  : 
; 322  :   }
; 323  : #endif
; 324  : 
; 325  :   unsigned int result = _mm_cvtsi128_si32(sum);
; 326  : 
; 327  : #if 0
; 328  :   // check result against C
; 329  :   if (result != result2) {
; 330  :     result = result2;
; 331  :   }
; 332  : #endif
; 333  :   _mm256_zeroupper(); // diff from main sse2
; 334  : 
; 335  :   return result;
; 336  : }  // end of SSE2 with AVX commandset Sad16

	pop	edi
	vmovd	eax, xmm0
	pop	esi
	mov	esp, ebp
	pop	ebp
	ret	0
??$Sad16_sse2_avx@$07$0BA@G@@YAIPBEH0H@Z ENDP		; Sad16_sse2_avx<8,16,unsigned short>
_TEXT	ENDS
; Function compile flags: /Ogtpy
; File c:\github\mvtools\sources\sadfunctions_avx.cpp
;	COMDAT ??$Sad16_sse2_avx@$07$07G@@YAIPBEH0H@Z
_TEXT	SEGMENT
tv490 = -8						; size = 4
tv489 = -4						; size = 4
_pSrc$ = 8						; size = 4
_nSrcPitch$ = 12					; size = 4
_pRef$ = 16						; size = 4
_nRefPitch$ = 20					; size = 4
??$Sad16_sse2_avx@$07$07G@@YAIPBEH0H@Z PROC		; Sad16_sse2_avx<8,8,unsigned short>, COMDAT

; 88   : {

	push	ebp
	mov	ebp, esp
	and	esp, -8					; fffffff8H
	sub	esp, 8
	mov	edx, DWORD PTR _nSrcPitch$[ebp]

; 89   : #if 0
; 90   :   // check result against C
; 91   :   unsigned int result2 = Sad_AVX_C<nBlkWidth, nBlkHeight, pixel_t>(pSrc, nSrcPitch, pRef, nRefPitch);
; 92   : #endif
; 93   :   _mm256_zeroupper(); // diff from main sse2

	mov	ecx, DWORD PTR _pSrc$[ebp]
	push	esi
	mov	esi, DWORD PTR _nRefPitch$[ebp]
	lea	eax, DWORD PTR [edx+edx]
	mov	DWORD PTR tv490[esp+12], eax
	vpxor	xmm4, xmm4, xmm4
	lea	eax, DWORD PTR [esi+esi]
	push	edi
	mov	DWORD PTR tv489[esp+16], eax
	mov	edi, 4
	mov	eax, DWORD PTR _pRef$[ebp]

; 94   :   __m128i zero = _mm_setzero_si128();
; 95   :   __m128i sum = _mm_setzero_si128(); // 2x or 4x int is probably enough for 32x32

	vmovdqa	xmm5, xmm4
$LL4@Sad16_sse2:

; 96   : 
; 97   :   const bool two_8byte_rows = (sizeof(pixel_t) == 2 && nBlkWidth <= 4) || (sizeof(pixel_t) == 1 && nBlkWidth <= 8);
; 98   :   const bool one_cycle = (sizeof(pixel_t) * nBlkWidth) == 16;
; 99   :   const bool unroll_by2 = !two_8byte_rows && nBlkHeight>=2; // unroll by 4: slower
; 100  : 
; 101  :   bool unaligned = true;
; 102  :   if (!two_8byte_rows) {
; 103  :     // test. not faster. Checking overhead?
; 104  :     unaligned = true; // ((reinterpret_cast <ptrdiff_t> (pSrc) & 0x0F) || ((reinterpret_cast <ptrdiff_t>(pRef)) & 0x0F) || ((nRefPitch | nSrcPitch) & 0x0F));
; 105  :   }
; 106  : 
; 107  :   if (unaligned) {
; 108  :     for (int y = 0; y < nBlkHeight; y += (two_8byte_rows || unroll_by2) ? 2 : 1)
; 109  :     {
; 110  :       if (two_8byte_rows) { // no x cycle
; 111  :         __m128i src1, src2;
; 112  :         // (8 bytes or 4 words) * 2 rows
; 113  : #if 0
; 114  :         src1 = _mm_or_si128(_mm_loadl_epi64((__m128i *) (pSrc)), _mm_slli_si128(_mm_loadl_epi64((__m128i *) (pSrc + nSrcPitch)), 8));
; 115  :         src2 = _mm_or_si128(_mm_loadl_epi64((__m128i *) (pRef)), _mm_slli_si128(_mm_loadl_epi64((__m128i *) (pRef + nRefPitch)), 8));
; 116  : #else
; 117  :         // 16.12.01 unpack
; 118  :         if (sizeof(pixel_t) == 1) {
; 119  :           src1 = _mm_unpacklo_epi8(_mm_loadl_epi64((__m128i *) (pSrc)), _mm_loadl_epi64((__m128i *) (pSrc + nSrcPitch)));
; 120  :           src2 = _mm_unpacklo_epi8(_mm_loadl_epi64((__m128i *) (pRef)), _mm_loadl_epi64((__m128i *) (pRef + nRefPitch)));
; 121  :         }
; 122  :         else if (sizeof(pixel_t) == 2) {
; 123  :           src1 = _mm_unpacklo_epi16(_mm_loadl_epi64((__m128i *) (pSrc)), _mm_loadl_epi64((__m128i *) (pSrc + nSrcPitch)));
; 124  :           src2 = _mm_unpacklo_epi16(_mm_loadl_epi64((__m128i *) (pRef)), _mm_loadl_epi64((__m128i *) (pRef + nRefPitch)));
; 125  :         }
; 126  : #endif
; 127  :         if (sizeof(pixel_t) == 1) {
; 128  :           // this is uint_16 specific, but will test on uint8_t against external .asm SAD functions)
; 129  :           sum = _mm_add_epi32(sum, _mm_sad_epu8(src1, src2)); // yihhaaa, existing SIMD   sum1_32, 0, sum2_32, 0
; 130  :                                                               // result in two 32 bit areas at the upper and lower 64 bytes
; 131  :         }
; 132  :         else {
; 133  :           __m128i greater_t = _mm_subs_epu16(src1, src2); // unsigned sub with saturation
; 134  :           __m128i smaller_t = _mm_subs_epu16(src2, src1);
; 135  :           __m128i absdiff = _mm_or_si128(greater_t, smaller_t); //abs(s1-s2)  == (satsub(s1,s2) | satsub(s2,s1))
; 136  :           // 8 x uint16 absolute differences
; 137  :           sum = _mm_add_epi32(sum, _mm_unpacklo_epi16(absdiff, zero));
; 138  :           sum = _mm_add_epi32(sum, _mm_unpackhi_epi16(absdiff, zero));
; 139  :           // sum1_32, sum2_32, sum3_32, sum4_32
; 140  :         }
; 141  :       }
; 142  :       else if (one_cycle)
; 143  :       {
; 144  :         __m128i src1, src2;
; 145  :         src1 = _mm_loadu_si128((__m128i *) (pSrc)); // no x

	vmovdqu	xmm2, XMMWORD PTR [ecx]

; 146  :         src2 = _mm_loadu_si128((__m128i *) (pRef));

	vmovdqu	xmm0, XMMWORD PTR [eax]

; 147  :         if (sizeof(pixel_t) == 1) {
; 148  :           // this is uint_16 specific, but will test on uint8_t against external .asm SAD functions)
; 149  :           sum = _mm_add_epi32(sum, _mm_sad_epu8(src1, src2)); // yihhaaa, existing SIMD   sum1_32, 0, sum2_32, 0
; 150  :                                                               // result in two 32 bit areas at the upper and lower 64 bytes
; 151  :         }
; 152  :         else {
; 153  :           __m128i greater_t = _mm_subs_epu16(src1, src2); // unsigned sub with saturation

	vpsubusw xmm1, xmm2, xmm0

; 154  :           __m128i smaller_t = _mm_subs_epu16(src2, src1);

	vpsubusw xmm0, xmm0, xmm2

; 155  :           __m128i absdiff = _mm_or_si128(greater_t, smaller_t); //abs(s1-s2)  == (satsub(s1,s2) | satsub(s2,s1))
; 156  :                                                                 // 8 x uint16 absolute differences
; 157  :           sum = _mm_add_epi32(sum, _mm_unpacklo_epi16(absdiff, zero));
; 158  :           sum = _mm_add_epi32(sum, _mm_unpackhi_epi16(absdiff, zero));
; 159  :           // sum1_32, sum2_32, sum3_32, sum4_32
; 160  :         }
; 161  :         if (unroll_by2) {
; 162  :           // unroll#2
; 163  :           src1 = _mm_loadu_si128((__m128i *) (pSrc+nSrcPitch)); // no x

	vmovdqu	xmm2, XMMWORD PTR [ecx+edx]

; 164  :           src2 = _mm_loadu_si128((__m128i *) (pRef+nRefPitch));
; 165  :           if (sizeof(pixel_t) == 1) {
; 166  :             // this is uint_16 specific, but will test on uint8_t against external .asm SAD functions)
; 167  :             sum = _mm_add_epi32(sum, _mm_sad_epu8(src1, src2)); // yihhaaa, existing SIMD   sum1_32, 0, sum2_32, 0
; 168  :                                                                 // result in two 32 bit areas at the upper and lower 64 bytes
; 169  :           }
; 170  :           else {
; 171  :             __m128i greater_t = _mm_subs_epu16(src1, src2); // unsigned sub with saturation
; 172  :             __m128i smaller_t = _mm_subs_epu16(src2, src1);
; 173  :             __m128i absdiff = _mm_or_si128(greater_t, smaller_t); //abs(s1-s2)  == (satsub(s1,s2) | satsub(s2,s1))
; 174  :                                                                   // 8 x uint16 absolute differences
; 175  :             sum = _mm_add_epi32(sum, _mm_unpacklo_epi16(absdiff, zero));
; 176  :             sum = _mm_add_epi32(sum, _mm_unpackhi_epi16(absdiff, zero));
; 177  :             // sum1_32, sum2_32, sum3_32, sum4_32
; 178  :           }
; 179  :         }
; 180  :       }
; 181  :       else {
; 182  :         for (int x = 0; x < nBlkWidth * sizeof(pixel_t); x += 16)
; 183  :         {
; 184  :           __m128i src1, src2;
; 185  :           src1 = _mm_loadu_si128((__m128i *) (pSrc + x));
; 186  :           src2 = _mm_loadu_si128((__m128i *) (pRef + x));
; 187  :           if (sizeof(pixel_t) == 1) {
; 188  :             // this is uint_16 specific, but will test on uint8_t against external .asm SAD functions)
; 189  :             sum = _mm_add_epi32(sum, _mm_sad_epu8(src1, src2)); // yihhaaa, existing SIMD   sum1_32, 0, sum2_32, 0
; 190  :             // result in two 32 bit areas at the upper and lower 64 bytes
; 191  :           }
; 192  :           else {
; 193  :             __m128i greater_t = _mm_subs_epu16(src1, src2); // unsigned sub with saturation
; 194  :             __m128i smaller_t = _mm_subs_epu16(src2, src1);
; 195  :             __m128i absdiff = _mm_or_si128(greater_t, smaller_t); //abs(s1-s2)  == (satsub(s1,s2) | satsub(s2,s1))
; 196  :             // 8 x uint16 absolute differences
; 197  :             sum = _mm_add_epi32(sum, _mm_unpacklo_epi16(absdiff, zero));
; 198  :             sum = _mm_add_epi32(sum, _mm_unpackhi_epi16(absdiff, zero));
; 199  :             // sum1_32, sum2_32, sum3_32, sum4_32
; 200  :           }
; 201  :           // sum += SADABS(reinterpret_cast<const pixel_t *>(pSrc)[x] - reinterpret_cast<const pixel_t *>(pRef)[x]);
; 202  :           if (unroll_by2)
; 203  :           {
; 204  :             // unroll#2
; 205  :             src1 = _mm_loadu_si128((__m128i *) (pSrc + nSrcPitch + x));
; 206  :             src2 = _mm_loadu_si128((__m128i *) (pRef + nRefPitch + x));
; 207  :             if (sizeof(pixel_t) == 1) {
; 208  :               // this is uint_16 specific, but will test on uint8_t against external .asm SAD functions)
; 209  :               sum = _mm_add_epi32(sum, _mm_sad_epu8(src1, src2)); // yihhaaa, existing SIMD   sum1_32, 0, sum2_32, 0
; 210  :                                                                   // result in two 32 bit areas at the upper and lower 64 bytes
; 211  :             }
; 212  :             else {
; 213  :               __m128i greater_t = _mm_subs_epu16(src1, src2); // unsigned sub with saturation
; 214  :               __m128i smaller_t = _mm_subs_epu16(src2, src1);
; 215  :               __m128i absdiff = _mm_or_si128(greater_t, smaller_t); //abs(s1-s2)  == (satsub(s1,s2) | satsub(s2,s1))
; 216  :                                                                     // 8 x uint16 absolute differences
; 217  :               sum = _mm_add_epi32(sum, _mm_unpacklo_epi16(absdiff, zero));
; 218  :               sum = _mm_add_epi32(sum, _mm_unpackhi_epi16(absdiff, zero));
; 219  :               // sum1_32, sum2_32, sum3_32, sum4_32
; 220  :             }
; 221  :           }
; 222  :         }
; 223  :       }
; 224  :       if (two_8byte_rows || unroll_by2) {
; 225  :         pSrc += nSrcPitch * 2;

	add	ecx, DWORD PTR tv490[esp+16]
	vpor	xmm3, xmm1, xmm0
	vmovdqu	xmm0, XMMWORD PTR [eax+esi]

; 226  :         pRef += nRefPitch * 2;

	add	eax, DWORD PTR tv489[esp+16]
	vpsubusw xmm1, xmm2, xmm0
	vpsubusw xmm0, xmm0, xmm2
	vpor	xmm2, xmm1, xmm0
	vpunpcklwd xmm0, xmm3, xmm4
	vpaddd	xmm1, xmm0, xmm5
	vpunpckhwd xmm0, xmm3, xmm4
	vpaddd	xmm1, xmm1, xmm0
	vpunpcklwd xmm0, xmm2, xmm4
	vpaddd	xmm1, xmm1, xmm0
	vpunpckhwd xmm0, xmm2, xmm4
	vpaddd	xmm5, xmm1, xmm0
	sub	edi, 1
	jne	SHORT $LL4@Sad16_sse2

; 227  :       }
; 228  :       else {
; 229  :         pSrc += nSrcPitch;
; 230  :         pRef += nRefPitch;
; 231  :       }
; 232  :     }
; 233  :   }
; 234  : #if 0
; 235  :   else { // aligned, experimental. With the in-function alignment check overhead it is slower
; 236  :     for (int y = 0; y < nBlkHeight; y += (two_8byte_rows ? 2 : 1))
; 237  :     {
; 238  :       if (one_cycle)
; 239  :       {
; 240  :         __m128i src1, src2;
; 241  :         src1 = _mm_load_si128((__m128i *) (pSrc)); // no x
; 242  :         src2 = _mm_load_si128((__m128i *) (pRef));
; 243  :         if (sizeof(pixel_t) == 1) {
; 244  :           // this is uint_16 specific, but will test on uint8_t against external .asm SAD functions)
; 245  :           sum = _mm_add_epi32(sum, _mm_sad_epu8(src1, src2)); // yihhaaa, existing SIMD   sum1_32, 0, sum2_32, 0
; 246  :                                                               // result in two 32 bit areas at the upper and lower 64 bytes
; 247  :         }
; 248  :         else {
; 249  :           __m128i greater_t = _mm_subs_epu16(src1, src2); // unsigned sub with saturation
; 250  :           __m128i smaller_t = _mm_subs_epu16(src2, src1);
; 251  :           __m128i absdiff = _mm_or_si128(greater_t, smaller_t); //abs(s1-s2)  == (satsub(s1,s2) | satsub(s2,s1))
; 252  :                                                                 // 8 x uint16 absolute differences
; 253  :           sum = _mm_add_epi32(sum, _mm_unpacklo_epi16(absdiff, zero));
; 254  :           sum = _mm_add_epi32(sum, _mm_unpackhi_epi16(absdiff, zero));
; 255  :           // sum1_32, sum2_32, sum3_32, sum4_32
; 256  :         }
; 257  :       }
; 258  :       else {
; 259  :         for (int x = 0; x < nBlkWidth * sizeof(pixel_t); x += 16)
; 260  :         {
; 261  :           __m128i src1, src2;
; 262  :           src1 = _mm_load_si128((__m128i *) (pSrc + x));
; 263  :           src2 = _mm_load_si128((__m128i *) (pRef + x));
; 264  :           if (sizeof(pixel_t) == 1) {
; 265  :             // this is uint_16 specific, but will test on uint8_t against external .asm SAD functions)
; 266  :             sum = _mm_add_epi32(sum, _mm_sad_epu8(src1, src2)); // yihhaaa, existing SIMD   sum1_32, 0, sum2_32, 0
; 267  :                                                                 // result in two 32 bit areas at the upper and lower 64 bytes
; 268  :           }
; 269  :           else {
; 270  :             __m128i greater_t = _mm_subs_epu16(src1, src2); // unsigned sub with saturation
; 271  :             __m128i smaller_t = _mm_subs_epu16(src2, src1);
; 272  :             __m128i absdiff = _mm_or_si128(greater_t, smaller_t); //abs(s1-s2)  == (satsub(s1,s2) | satsub(s2,s1))
; 273  :                                                                   // 8 x uint16 absolute differences
; 274  :             sum = _mm_add_epi32(sum, _mm_unpacklo_epi16(absdiff, zero));
; 275  :             sum = _mm_add_epi32(sum, _mm_unpackhi_epi16(absdiff, zero));
; 276  :             // sum1_32, sum2_32, sum3_32, sum4_32
; 277  :           }
; 278  :           // sum += SADABS(reinterpret_cast<const pixel_t *>(pSrc)[x] - reinterpret_cast<const pixel_t *>(pRef)[x]);
; 279  :         }
; 280  :       }
; 281  :       if (two_8byte_rows) {
; 282  :         pSrc += nSrcPitch * 2;
; 283  :         pRef += nRefPitch * 2;
; 284  :       }
; 285  :       else {
; 286  :         pSrc += nSrcPitch;
; 287  :         pRef += nRefPitch;
; 288  :       }
; 289  :     }
; 290  : 
; 291  :   }
; 292  : #endif
; 293  :   /*
; 294  :   [Low64, Hi64]
; 295  :   _mm_unpacklo_epi64(_mm_setzero_si128(), x)  [0, x0]
; 296  :   _mm_unpackhi_epi64(_mm_setzero_si128(), x)  [0, x1]
; 297  :   _mm_move_epi64(x)                           [x0, 0]
; 298  :   _mm_unpackhi_epi64(x, _mm_setzero_si128())  [x1, 0]
; 299  :   */
; 300  : #if 1
; 301  :   if(sizeof(pixel_t) == 2) {
; 302  :     // at 16 bits: we have 4 integers for sum: a0 a1 a2 a3
; 303  :     __m128i a0_a1 = _mm_unpacklo_epi32(sum, zero); // a0 0 a1 0

	vpunpckldq xmm0, xmm5, xmm4

; 304  :     __m128i a2_a3 = _mm_unpackhi_epi32(sum, zero); // a2 0 a3 0

	vpunpckhdq xmm1, xmm5, xmm4

; 305  :     sum = _mm_add_epi32( a0_a1, a2_a3 ); // a0+a2, 0, a1+a3, 0

	vpaddd	xmm1, xmm1, xmm0

; 306  :     // hadd: shower
; 307  :   }
; 308  :   // sum here: two 32 bit partial result: sum1 0 sum2 0
; 309  :   __m128i sum_hi = _mm_unpackhi_epi64(sum, zero); // a1 + a3. 2 dwords right 

	vpunpckhqdq xmm0, xmm1, xmm4

; 310  :   sum = _mm_add_epi32(sum, sum_hi);  // a0 + a2 + a1 + a3

	vpaddd	xmm0, xmm0, xmm1

; 311  : #else
; 312  :   // this hadd path is slower on Ivy bridge
; 313  :   if (sizeof(pixel_t) == 2) {
; 314  :     sum = _mm_hadd_epi32(sum, zero); // a0_a = a0 + a1, a1_a = a2 + a3
; 315  :     sum = _mm_hadd_epi32(sum, zero); // a0 = a0_a + a1_a ( = a0+a1+a2+a3)
; 316  :   }
; 317  :   else { // uint8_t
; 318  :     // sum here: two 32 bit partial result: sum1 0 sum2 0
; 319  :     __m128i sum_hi = _mm_unpackhi_epi64(sum, zero); // a1 + a3. 2 dwords right 
; 320  :     sum = _mm_add_epi32(sum, sum_hi);  // a0 + a2 + a1 + a3
; 321  : 
; 322  :   }
; 323  : #endif
; 324  : 
; 325  :   unsigned int result = _mm_cvtsi128_si32(sum);
; 326  : 
; 327  : #if 0
; 328  :   // check result against C
; 329  :   if (result != result2) {
; 330  :     result = result2;
; 331  :   }
; 332  : #endif
; 333  :   _mm256_zeroupper(); // diff from main sse2
; 334  : 
; 335  :   return result;
; 336  : }  // end of SSE2 with AVX commandset Sad16

	pop	edi
	vmovd	eax, xmm0
	pop	esi
	mov	esp, ebp
	pop	ebp
	ret	0
??$Sad16_sse2_avx@$07$07G@@YAIPBEH0H@Z ENDP		; Sad16_sse2_avx<8,8,unsigned short>
_TEXT	ENDS
; Function compile flags: /Ogtpy
; File c:\github\mvtools\sources\sadfunctions_avx.cpp
;	COMDAT ??$Sad16_sse2_avx@$07$03G@@YAIPBEH0H@Z
_TEXT	SEGMENT
tv490 = -8						; size = 4
tv489 = -4						; size = 4
_pSrc$ = 8						; size = 4
_nSrcPitch$ = 12					; size = 4
_pRef$ = 16						; size = 4
_nRefPitch$ = 20					; size = 4
??$Sad16_sse2_avx@$07$03G@@YAIPBEH0H@Z PROC		; Sad16_sse2_avx<8,4,unsigned short>, COMDAT

; 88   : {

	push	ebp
	mov	ebp, esp
	and	esp, -8					; fffffff8H
	sub	esp, 8
	mov	edx, DWORD PTR _nSrcPitch$[ebp]

; 89   : #if 0
; 90   :   // check result against C
; 91   :   unsigned int result2 = Sad_AVX_C<nBlkWidth, nBlkHeight, pixel_t>(pSrc, nSrcPitch, pRef, nRefPitch);
; 92   : #endif
; 93   :   _mm256_zeroupper(); // diff from main sse2

	mov	ecx, DWORD PTR _pSrc$[ebp]
	push	esi
	mov	esi, DWORD PTR _nRefPitch$[ebp]
	lea	eax, DWORD PTR [edx+edx]
	mov	DWORD PTR tv490[esp+12], eax
	vpxor	xmm4, xmm4, xmm4
	lea	eax, DWORD PTR [esi+esi]
	push	edi
	mov	DWORD PTR tv489[esp+16], eax
	mov	edi, 2
	mov	eax, DWORD PTR _pRef$[ebp]

; 94   :   __m128i zero = _mm_setzero_si128();
; 95   :   __m128i sum = _mm_setzero_si128(); // 2x or 4x int is probably enough for 32x32

	vmovdqa	xmm5, xmm4
$LL4@Sad16_sse2:

; 96   : 
; 97   :   const bool two_8byte_rows = (sizeof(pixel_t) == 2 && nBlkWidth <= 4) || (sizeof(pixel_t) == 1 && nBlkWidth <= 8);
; 98   :   const bool one_cycle = (sizeof(pixel_t) * nBlkWidth) == 16;
; 99   :   const bool unroll_by2 = !two_8byte_rows && nBlkHeight>=2; // unroll by 4: slower
; 100  : 
; 101  :   bool unaligned = true;
; 102  :   if (!two_8byte_rows) {
; 103  :     // test. not faster. Checking overhead?
; 104  :     unaligned = true; // ((reinterpret_cast <ptrdiff_t> (pSrc) & 0x0F) || ((reinterpret_cast <ptrdiff_t>(pRef)) & 0x0F) || ((nRefPitch | nSrcPitch) & 0x0F));
; 105  :   }
; 106  : 
; 107  :   if (unaligned) {
; 108  :     for (int y = 0; y < nBlkHeight; y += (two_8byte_rows || unroll_by2) ? 2 : 1)
; 109  :     {
; 110  :       if (two_8byte_rows) { // no x cycle
; 111  :         __m128i src1, src2;
; 112  :         // (8 bytes or 4 words) * 2 rows
; 113  : #if 0
; 114  :         src1 = _mm_or_si128(_mm_loadl_epi64((__m128i *) (pSrc)), _mm_slli_si128(_mm_loadl_epi64((__m128i *) (pSrc + nSrcPitch)), 8));
; 115  :         src2 = _mm_or_si128(_mm_loadl_epi64((__m128i *) (pRef)), _mm_slli_si128(_mm_loadl_epi64((__m128i *) (pRef + nRefPitch)), 8));
; 116  : #else
; 117  :         // 16.12.01 unpack
; 118  :         if (sizeof(pixel_t) == 1) {
; 119  :           src1 = _mm_unpacklo_epi8(_mm_loadl_epi64((__m128i *) (pSrc)), _mm_loadl_epi64((__m128i *) (pSrc + nSrcPitch)));
; 120  :           src2 = _mm_unpacklo_epi8(_mm_loadl_epi64((__m128i *) (pRef)), _mm_loadl_epi64((__m128i *) (pRef + nRefPitch)));
; 121  :         }
; 122  :         else if (sizeof(pixel_t) == 2) {
; 123  :           src1 = _mm_unpacklo_epi16(_mm_loadl_epi64((__m128i *) (pSrc)), _mm_loadl_epi64((__m128i *) (pSrc + nSrcPitch)));
; 124  :           src2 = _mm_unpacklo_epi16(_mm_loadl_epi64((__m128i *) (pRef)), _mm_loadl_epi64((__m128i *) (pRef + nRefPitch)));
; 125  :         }
; 126  : #endif
; 127  :         if (sizeof(pixel_t) == 1) {
; 128  :           // this is uint_16 specific, but will test on uint8_t against external .asm SAD functions)
; 129  :           sum = _mm_add_epi32(sum, _mm_sad_epu8(src1, src2)); // yihhaaa, existing SIMD   sum1_32, 0, sum2_32, 0
; 130  :                                                               // result in two 32 bit areas at the upper and lower 64 bytes
; 131  :         }
; 132  :         else {
; 133  :           __m128i greater_t = _mm_subs_epu16(src1, src2); // unsigned sub with saturation
; 134  :           __m128i smaller_t = _mm_subs_epu16(src2, src1);
; 135  :           __m128i absdiff = _mm_or_si128(greater_t, smaller_t); //abs(s1-s2)  == (satsub(s1,s2) | satsub(s2,s1))
; 136  :           // 8 x uint16 absolute differences
; 137  :           sum = _mm_add_epi32(sum, _mm_unpacklo_epi16(absdiff, zero));
; 138  :           sum = _mm_add_epi32(sum, _mm_unpackhi_epi16(absdiff, zero));
; 139  :           // sum1_32, sum2_32, sum3_32, sum4_32
; 140  :         }
; 141  :       }
; 142  :       else if (one_cycle)
; 143  :       {
; 144  :         __m128i src1, src2;
; 145  :         src1 = _mm_loadu_si128((__m128i *) (pSrc)); // no x

	vmovdqu	xmm2, XMMWORD PTR [ecx]

; 146  :         src2 = _mm_loadu_si128((__m128i *) (pRef));

	vmovdqu	xmm0, XMMWORD PTR [eax]

; 147  :         if (sizeof(pixel_t) == 1) {
; 148  :           // this is uint_16 specific, but will test on uint8_t against external .asm SAD functions)
; 149  :           sum = _mm_add_epi32(sum, _mm_sad_epu8(src1, src2)); // yihhaaa, existing SIMD   sum1_32, 0, sum2_32, 0
; 150  :                                                               // result in two 32 bit areas at the upper and lower 64 bytes
; 151  :         }
; 152  :         else {
; 153  :           __m128i greater_t = _mm_subs_epu16(src1, src2); // unsigned sub with saturation

	vpsubusw xmm1, xmm2, xmm0

; 154  :           __m128i smaller_t = _mm_subs_epu16(src2, src1);

	vpsubusw xmm0, xmm0, xmm2

; 155  :           __m128i absdiff = _mm_or_si128(greater_t, smaller_t); //abs(s1-s2)  == (satsub(s1,s2) | satsub(s2,s1))
; 156  :                                                                 // 8 x uint16 absolute differences
; 157  :           sum = _mm_add_epi32(sum, _mm_unpacklo_epi16(absdiff, zero));
; 158  :           sum = _mm_add_epi32(sum, _mm_unpackhi_epi16(absdiff, zero));
; 159  :           // sum1_32, sum2_32, sum3_32, sum4_32
; 160  :         }
; 161  :         if (unroll_by2) {
; 162  :           // unroll#2
; 163  :           src1 = _mm_loadu_si128((__m128i *) (pSrc+nSrcPitch)); // no x

	vmovdqu	xmm2, XMMWORD PTR [ecx+edx]

; 164  :           src2 = _mm_loadu_si128((__m128i *) (pRef+nRefPitch));
; 165  :           if (sizeof(pixel_t) == 1) {
; 166  :             // this is uint_16 specific, but will test on uint8_t against external .asm SAD functions)
; 167  :             sum = _mm_add_epi32(sum, _mm_sad_epu8(src1, src2)); // yihhaaa, existing SIMD   sum1_32, 0, sum2_32, 0
; 168  :                                                                 // result in two 32 bit areas at the upper and lower 64 bytes
; 169  :           }
; 170  :           else {
; 171  :             __m128i greater_t = _mm_subs_epu16(src1, src2); // unsigned sub with saturation
; 172  :             __m128i smaller_t = _mm_subs_epu16(src2, src1);
; 173  :             __m128i absdiff = _mm_or_si128(greater_t, smaller_t); //abs(s1-s2)  == (satsub(s1,s2) | satsub(s2,s1))
; 174  :                                                                   // 8 x uint16 absolute differences
; 175  :             sum = _mm_add_epi32(sum, _mm_unpacklo_epi16(absdiff, zero));
; 176  :             sum = _mm_add_epi32(sum, _mm_unpackhi_epi16(absdiff, zero));
; 177  :             // sum1_32, sum2_32, sum3_32, sum4_32
; 178  :           }
; 179  :         }
; 180  :       }
; 181  :       else {
; 182  :         for (int x = 0; x < nBlkWidth * sizeof(pixel_t); x += 16)
; 183  :         {
; 184  :           __m128i src1, src2;
; 185  :           src1 = _mm_loadu_si128((__m128i *) (pSrc + x));
; 186  :           src2 = _mm_loadu_si128((__m128i *) (pRef + x));
; 187  :           if (sizeof(pixel_t) == 1) {
; 188  :             // this is uint_16 specific, but will test on uint8_t against external .asm SAD functions)
; 189  :             sum = _mm_add_epi32(sum, _mm_sad_epu8(src1, src2)); // yihhaaa, existing SIMD   sum1_32, 0, sum2_32, 0
; 190  :             // result in two 32 bit areas at the upper and lower 64 bytes
; 191  :           }
; 192  :           else {
; 193  :             __m128i greater_t = _mm_subs_epu16(src1, src2); // unsigned sub with saturation
; 194  :             __m128i smaller_t = _mm_subs_epu16(src2, src1);
; 195  :             __m128i absdiff = _mm_or_si128(greater_t, smaller_t); //abs(s1-s2)  == (satsub(s1,s2) | satsub(s2,s1))
; 196  :             // 8 x uint16 absolute differences
; 197  :             sum = _mm_add_epi32(sum, _mm_unpacklo_epi16(absdiff, zero));
; 198  :             sum = _mm_add_epi32(sum, _mm_unpackhi_epi16(absdiff, zero));
; 199  :             // sum1_32, sum2_32, sum3_32, sum4_32
; 200  :           }
; 201  :           // sum += SADABS(reinterpret_cast<const pixel_t *>(pSrc)[x] - reinterpret_cast<const pixel_t *>(pRef)[x]);
; 202  :           if (unroll_by2)
; 203  :           {
; 204  :             // unroll#2
; 205  :             src1 = _mm_loadu_si128((__m128i *) (pSrc + nSrcPitch + x));
; 206  :             src2 = _mm_loadu_si128((__m128i *) (pRef + nRefPitch + x));
; 207  :             if (sizeof(pixel_t) == 1) {
; 208  :               // this is uint_16 specific, but will test on uint8_t against external .asm SAD functions)
; 209  :               sum = _mm_add_epi32(sum, _mm_sad_epu8(src1, src2)); // yihhaaa, existing SIMD   sum1_32, 0, sum2_32, 0
; 210  :                                                                   // result in two 32 bit areas at the upper and lower 64 bytes
; 211  :             }
; 212  :             else {
; 213  :               __m128i greater_t = _mm_subs_epu16(src1, src2); // unsigned sub with saturation
; 214  :               __m128i smaller_t = _mm_subs_epu16(src2, src1);
; 215  :               __m128i absdiff = _mm_or_si128(greater_t, smaller_t); //abs(s1-s2)  == (satsub(s1,s2) | satsub(s2,s1))
; 216  :                                                                     // 8 x uint16 absolute differences
; 217  :               sum = _mm_add_epi32(sum, _mm_unpacklo_epi16(absdiff, zero));
; 218  :               sum = _mm_add_epi32(sum, _mm_unpackhi_epi16(absdiff, zero));
; 219  :               // sum1_32, sum2_32, sum3_32, sum4_32
; 220  :             }
; 221  :           }
; 222  :         }
; 223  :       }
; 224  :       if (two_8byte_rows || unroll_by2) {
; 225  :         pSrc += nSrcPitch * 2;

	add	ecx, DWORD PTR tv490[esp+16]
	vpor	xmm3, xmm1, xmm0
	vmovdqu	xmm0, XMMWORD PTR [eax+esi]

; 226  :         pRef += nRefPitch * 2;

	add	eax, DWORD PTR tv489[esp+16]
	vpsubusw xmm1, xmm2, xmm0
	vpsubusw xmm0, xmm0, xmm2
	vpor	xmm2, xmm1, xmm0
	vpunpcklwd xmm0, xmm3, xmm4
	vpaddd	xmm1, xmm0, xmm5
	vpunpckhwd xmm0, xmm3, xmm4
	vpaddd	xmm1, xmm1, xmm0
	vpunpcklwd xmm0, xmm2, xmm4
	vpaddd	xmm1, xmm1, xmm0
	vpunpckhwd xmm0, xmm2, xmm4
	vpaddd	xmm5, xmm1, xmm0
	sub	edi, 1
	jne	SHORT $LL4@Sad16_sse2

; 227  :       }
; 228  :       else {
; 229  :         pSrc += nSrcPitch;
; 230  :         pRef += nRefPitch;
; 231  :       }
; 232  :     }
; 233  :   }
; 234  : #if 0
; 235  :   else { // aligned, experimental. With the in-function alignment check overhead it is slower
; 236  :     for (int y = 0; y < nBlkHeight; y += (two_8byte_rows ? 2 : 1))
; 237  :     {
; 238  :       if (one_cycle)
; 239  :       {
; 240  :         __m128i src1, src2;
; 241  :         src1 = _mm_load_si128((__m128i *) (pSrc)); // no x
; 242  :         src2 = _mm_load_si128((__m128i *) (pRef));
; 243  :         if (sizeof(pixel_t) == 1) {
; 244  :           // this is uint_16 specific, but will test on uint8_t against external .asm SAD functions)
; 245  :           sum = _mm_add_epi32(sum, _mm_sad_epu8(src1, src2)); // yihhaaa, existing SIMD   sum1_32, 0, sum2_32, 0
; 246  :                                                               // result in two 32 bit areas at the upper and lower 64 bytes
; 247  :         }
; 248  :         else {
; 249  :           __m128i greater_t = _mm_subs_epu16(src1, src2); // unsigned sub with saturation
; 250  :           __m128i smaller_t = _mm_subs_epu16(src2, src1);
; 251  :           __m128i absdiff = _mm_or_si128(greater_t, smaller_t); //abs(s1-s2)  == (satsub(s1,s2) | satsub(s2,s1))
; 252  :                                                                 // 8 x uint16 absolute differences
; 253  :           sum = _mm_add_epi32(sum, _mm_unpacklo_epi16(absdiff, zero));
; 254  :           sum = _mm_add_epi32(sum, _mm_unpackhi_epi16(absdiff, zero));
; 255  :           // sum1_32, sum2_32, sum3_32, sum4_32
; 256  :         }
; 257  :       }
; 258  :       else {
; 259  :         for (int x = 0; x < nBlkWidth * sizeof(pixel_t); x += 16)
; 260  :         {
; 261  :           __m128i src1, src2;
; 262  :           src1 = _mm_load_si128((__m128i *) (pSrc + x));
; 263  :           src2 = _mm_load_si128((__m128i *) (pRef + x));
; 264  :           if (sizeof(pixel_t) == 1) {
; 265  :             // this is uint_16 specific, but will test on uint8_t against external .asm SAD functions)
; 266  :             sum = _mm_add_epi32(sum, _mm_sad_epu8(src1, src2)); // yihhaaa, existing SIMD   sum1_32, 0, sum2_32, 0
; 267  :                                                                 // result in two 32 bit areas at the upper and lower 64 bytes
; 268  :           }
; 269  :           else {
; 270  :             __m128i greater_t = _mm_subs_epu16(src1, src2); // unsigned sub with saturation
; 271  :             __m128i smaller_t = _mm_subs_epu16(src2, src1);
; 272  :             __m128i absdiff = _mm_or_si128(greater_t, smaller_t); //abs(s1-s2)  == (satsub(s1,s2) | satsub(s2,s1))
; 273  :                                                                   // 8 x uint16 absolute differences
; 274  :             sum = _mm_add_epi32(sum, _mm_unpacklo_epi16(absdiff, zero));
; 275  :             sum = _mm_add_epi32(sum, _mm_unpackhi_epi16(absdiff, zero));
; 276  :             // sum1_32, sum2_32, sum3_32, sum4_32
; 277  :           }
; 278  :           // sum += SADABS(reinterpret_cast<const pixel_t *>(pSrc)[x] - reinterpret_cast<const pixel_t *>(pRef)[x]);
; 279  :         }
; 280  :       }
; 281  :       if (two_8byte_rows) {
; 282  :         pSrc += nSrcPitch * 2;
; 283  :         pRef += nRefPitch * 2;
; 284  :       }
; 285  :       else {
; 286  :         pSrc += nSrcPitch;
; 287  :         pRef += nRefPitch;
; 288  :       }
; 289  :     }
; 290  : 
; 291  :   }
; 292  : #endif
; 293  :   /*
; 294  :   [Low64, Hi64]
; 295  :   _mm_unpacklo_epi64(_mm_setzero_si128(), x)  [0, x0]
; 296  :   _mm_unpackhi_epi64(_mm_setzero_si128(), x)  [0, x1]
; 297  :   _mm_move_epi64(x)                           [x0, 0]
; 298  :   _mm_unpackhi_epi64(x, _mm_setzero_si128())  [x1, 0]
; 299  :   */
; 300  : #if 1
; 301  :   if(sizeof(pixel_t) == 2) {
; 302  :     // at 16 bits: we have 4 integers for sum: a0 a1 a2 a3
; 303  :     __m128i a0_a1 = _mm_unpacklo_epi32(sum, zero); // a0 0 a1 0

	vpunpckldq xmm0, xmm5, xmm4

; 304  :     __m128i a2_a3 = _mm_unpackhi_epi32(sum, zero); // a2 0 a3 0

	vpunpckhdq xmm1, xmm5, xmm4

; 305  :     sum = _mm_add_epi32( a0_a1, a2_a3 ); // a0+a2, 0, a1+a3, 0

	vpaddd	xmm1, xmm1, xmm0

; 306  :     // hadd: shower
; 307  :   }
; 308  :   // sum here: two 32 bit partial result: sum1 0 sum2 0
; 309  :   __m128i sum_hi = _mm_unpackhi_epi64(sum, zero); // a1 + a3. 2 dwords right 

	vpunpckhqdq xmm0, xmm1, xmm4

; 310  :   sum = _mm_add_epi32(sum, sum_hi);  // a0 + a2 + a1 + a3

	vpaddd	xmm0, xmm0, xmm1

; 311  : #else
; 312  :   // this hadd path is slower on Ivy bridge
; 313  :   if (sizeof(pixel_t) == 2) {
; 314  :     sum = _mm_hadd_epi32(sum, zero); // a0_a = a0 + a1, a1_a = a2 + a3
; 315  :     sum = _mm_hadd_epi32(sum, zero); // a0 = a0_a + a1_a ( = a0+a1+a2+a3)
; 316  :   }
; 317  :   else { // uint8_t
; 318  :     // sum here: two 32 bit partial result: sum1 0 sum2 0
; 319  :     __m128i sum_hi = _mm_unpackhi_epi64(sum, zero); // a1 + a3. 2 dwords right 
; 320  :     sum = _mm_add_epi32(sum, sum_hi);  // a0 + a2 + a1 + a3
; 321  : 
; 322  :   }
; 323  : #endif
; 324  : 
; 325  :   unsigned int result = _mm_cvtsi128_si32(sum);
; 326  : 
; 327  : #if 0
; 328  :   // check result against C
; 329  :   if (result != result2) {
; 330  :     result = result2;
; 331  :   }
; 332  : #endif
; 333  :   _mm256_zeroupper(); // diff from main sse2
; 334  : 
; 335  :   return result;
; 336  : }  // end of SSE2 with AVX commandset Sad16

	pop	edi
	vmovd	eax, xmm0
	pop	esi
	mov	esp, ebp
	pop	ebp
	ret	0
??$Sad16_sse2_avx@$07$03G@@YAIPBEH0H@Z ENDP		; Sad16_sse2_avx<8,4,unsigned short>
_TEXT	ENDS
; Function compile flags: /Ogtpy
; File c:\github\mvtools\sources\sadfunctions_avx.cpp
;	COMDAT ??$Sad16_sse2_avx@$07$01G@@YAIPBEH0H@Z
_TEXT	SEGMENT
_pSrc$ = 8						; size = 4
_nSrcPitch$ = 12					; size = 4
_pRef$ = 16						; size = 4
_nRefPitch$ = 20					; size = 4
??$Sad16_sse2_avx@$07$01G@@YAIPBEH0H@Z PROC		; Sad16_sse2_avx<8,2,unsigned short>, COMDAT

; 88   : {

	push	ebp
	mov	ebp, esp
	and	esp, -8					; fffffff8H

; 89   : #if 0
; 90   :   // check result against C
; 91   :   unsigned int result2 = Sad_AVX_C<nBlkWidth, nBlkHeight, pixel_t>(pSrc, nSrcPitch, pRef, nRefPitch);
; 92   : #endif
; 93   :   _mm256_zeroupper(); // diff from main sse2
; 94   :   __m128i zero = _mm_setzero_si128();
; 95   :   __m128i sum = _mm_setzero_si128(); // 2x or 4x int is probably enough for 32x32
; 96   : 
; 97   :   const bool two_8byte_rows = (sizeof(pixel_t) == 2 && nBlkWidth <= 4) || (sizeof(pixel_t) == 1 && nBlkWidth <= 8);
; 98   :   const bool one_cycle = (sizeof(pixel_t) * nBlkWidth) == 16;
; 99   :   const bool unroll_by2 = !two_8byte_rows && nBlkHeight>=2; // unroll by 4: slower
; 100  : 
; 101  :   bool unaligned = true;
; 102  :   if (!two_8byte_rows) {
; 103  :     // test. not faster. Checking overhead?
; 104  :     unaligned = true; // ((reinterpret_cast <ptrdiff_t> (pSrc) & 0x0F) || ((reinterpret_cast <ptrdiff_t>(pRef)) & 0x0F) || ((nRefPitch | nSrcPitch) & 0x0F));
; 105  :   }
; 106  : 
; 107  :   if (unaligned) {
; 108  :     for (int y = 0; y < nBlkHeight; y += (two_8byte_rows || unroll_by2) ? 2 : 1)
; 109  :     {
; 110  :       if (two_8byte_rows) { // no x cycle
; 111  :         __m128i src1, src2;
; 112  :         // (8 bytes or 4 words) * 2 rows
; 113  : #if 0
; 114  :         src1 = _mm_or_si128(_mm_loadl_epi64((__m128i *) (pSrc)), _mm_slli_si128(_mm_loadl_epi64((__m128i *) (pSrc + nSrcPitch)), 8));
; 115  :         src2 = _mm_or_si128(_mm_loadl_epi64((__m128i *) (pRef)), _mm_slli_si128(_mm_loadl_epi64((__m128i *) (pRef + nRefPitch)), 8));
; 116  : #else
; 117  :         // 16.12.01 unpack
; 118  :         if (sizeof(pixel_t) == 1) {
; 119  :           src1 = _mm_unpacklo_epi8(_mm_loadl_epi64((__m128i *) (pSrc)), _mm_loadl_epi64((__m128i *) (pSrc + nSrcPitch)));
; 120  :           src2 = _mm_unpacklo_epi8(_mm_loadl_epi64((__m128i *) (pRef)), _mm_loadl_epi64((__m128i *) (pRef + nRefPitch)));
; 121  :         }
; 122  :         else if (sizeof(pixel_t) == 2) {
; 123  :           src1 = _mm_unpacklo_epi16(_mm_loadl_epi64((__m128i *) (pSrc)), _mm_loadl_epi64((__m128i *) (pSrc + nSrcPitch)));
; 124  :           src2 = _mm_unpacklo_epi16(_mm_loadl_epi64((__m128i *) (pRef)), _mm_loadl_epi64((__m128i *) (pRef + nRefPitch)));
; 125  :         }
; 126  : #endif
; 127  :         if (sizeof(pixel_t) == 1) {
; 128  :           // this is uint_16 specific, but will test on uint8_t against external .asm SAD functions)
; 129  :           sum = _mm_add_epi32(sum, _mm_sad_epu8(src1, src2)); // yihhaaa, existing SIMD   sum1_32, 0, sum2_32, 0
; 130  :                                                               // result in two 32 bit areas at the upper and lower 64 bytes
; 131  :         }
; 132  :         else {
; 133  :           __m128i greater_t = _mm_subs_epu16(src1, src2); // unsigned sub with saturation
; 134  :           __m128i smaller_t = _mm_subs_epu16(src2, src1);
; 135  :           __m128i absdiff = _mm_or_si128(greater_t, smaller_t); //abs(s1-s2)  == (satsub(s1,s2) | satsub(s2,s1))
; 136  :           // 8 x uint16 absolute differences
; 137  :           sum = _mm_add_epi32(sum, _mm_unpacklo_epi16(absdiff, zero));
; 138  :           sum = _mm_add_epi32(sum, _mm_unpackhi_epi16(absdiff, zero));
; 139  :           // sum1_32, sum2_32, sum3_32, sum4_32
; 140  :         }
; 141  :       }
; 142  :       else if (one_cycle)
; 143  :       {
; 144  :         __m128i src1, src2;
; 145  :         src1 = _mm_loadu_si128((__m128i *) (pSrc)); // no x

	mov	edx, DWORD PTR _pSrc$[ebp]

; 146  :         src2 = _mm_loadu_si128((__m128i *) (pRef));

	mov	ecx, DWORD PTR _pRef$[ebp]

; 147  :         if (sizeof(pixel_t) == 1) {
; 148  :           // this is uint_16 specific, but will test on uint8_t against external .asm SAD functions)
; 149  :           sum = _mm_add_epi32(sum, _mm_sad_epu8(src1, src2)); // yihhaaa, existing SIMD   sum1_32, 0, sum2_32, 0
; 150  :                                                               // result in two 32 bit areas at the upper and lower 64 bytes
; 151  :         }
; 152  :         else {
; 153  :           __m128i greater_t = _mm_subs_epu16(src1, src2); // unsigned sub with saturation
; 154  :           __m128i smaller_t = _mm_subs_epu16(src2, src1);
; 155  :           __m128i absdiff = _mm_or_si128(greater_t, smaller_t); //abs(s1-s2)  == (satsub(s1,s2) | satsub(s2,s1))
; 156  :                                                                 // 8 x uint16 absolute differences
; 157  :           sum = _mm_add_epi32(sum, _mm_unpacklo_epi16(absdiff, zero));
; 158  :           sum = _mm_add_epi32(sum, _mm_unpackhi_epi16(absdiff, zero));
; 159  :           // sum1_32, sum2_32, sum3_32, sum4_32
; 160  :         }
; 161  :         if (unroll_by2) {
; 162  :           // unroll#2
; 163  :           src1 = _mm_loadu_si128((__m128i *) (pSrc+nSrcPitch)); // no x

	mov	eax, DWORD PTR _nSrcPitch$[ebp]
	vpxor	xmm4, xmm4, xmm4
	vmovdqu	xmm2, XMMWORD PTR [edx]
	vmovdqu	xmm0, XMMWORD PTR [ecx]
	vpsubusw xmm1, xmm2, xmm0
	vpsubusw xmm0, xmm0, xmm2
	vmovdqu	xmm2, XMMWORD PTR [edx+eax]

; 164  :           src2 = _mm_loadu_si128((__m128i *) (pRef+nRefPitch));

	mov	eax, DWORD PTR _nRefPitch$[ebp]
	vpor	xmm3, xmm1, xmm0
	vmovdqu	xmm0, XMMWORD PTR [ecx+eax]

; 165  :           if (sizeof(pixel_t) == 1) {
; 166  :             // this is uint_16 specific, but will test on uint8_t against external .asm SAD functions)
; 167  :             sum = _mm_add_epi32(sum, _mm_sad_epu8(src1, src2)); // yihhaaa, existing SIMD   sum1_32, 0, sum2_32, 0
; 168  :                                                                 // result in two 32 bit areas at the upper and lower 64 bytes
; 169  :           }
; 170  :           else {
; 171  :             __m128i greater_t = _mm_subs_epu16(src1, src2); // unsigned sub with saturation

	vpsubusw xmm1, xmm2, xmm0

; 172  :             __m128i smaller_t = _mm_subs_epu16(src2, src1);

	vpsubusw xmm0, xmm0, xmm2

; 173  :             __m128i absdiff = _mm_or_si128(greater_t, smaller_t); //abs(s1-s2)  == (satsub(s1,s2) | satsub(s2,s1))

	vpor	xmm2, xmm1, xmm0
	vpunpckhwd xmm0, xmm3, xmm4
	vpunpcklwd xmm1, xmm3, xmm4
	vpaddd	xmm1, xmm1, xmm0

; 174  :                                                                   // 8 x uint16 absolute differences
; 175  :             sum = _mm_add_epi32(sum, _mm_unpacklo_epi16(absdiff, zero));

	vpunpcklwd xmm0, xmm2, xmm4
	vpaddd	xmm1, xmm1, xmm0

; 176  :             sum = _mm_add_epi32(sum, _mm_unpackhi_epi16(absdiff, zero));

	vpunpckhwd xmm0, xmm2, xmm4
	vpaddd	xmm0, xmm1, xmm0

; 177  :             // sum1_32, sum2_32, sum3_32, sum4_32
; 178  :           }
; 179  :         }
; 180  :       }
; 181  :       else {
; 182  :         for (int x = 0; x < nBlkWidth * sizeof(pixel_t); x += 16)
; 183  :         {
; 184  :           __m128i src1, src2;
; 185  :           src1 = _mm_loadu_si128((__m128i *) (pSrc + x));
; 186  :           src2 = _mm_loadu_si128((__m128i *) (pRef + x));
; 187  :           if (sizeof(pixel_t) == 1) {
; 188  :             // this is uint_16 specific, but will test on uint8_t against external .asm SAD functions)
; 189  :             sum = _mm_add_epi32(sum, _mm_sad_epu8(src1, src2)); // yihhaaa, existing SIMD   sum1_32, 0, sum2_32, 0
; 190  :             // result in two 32 bit areas at the upper and lower 64 bytes
; 191  :           }
; 192  :           else {
; 193  :             __m128i greater_t = _mm_subs_epu16(src1, src2); // unsigned sub with saturation
; 194  :             __m128i smaller_t = _mm_subs_epu16(src2, src1);
; 195  :             __m128i absdiff = _mm_or_si128(greater_t, smaller_t); //abs(s1-s2)  == (satsub(s1,s2) | satsub(s2,s1))
; 196  :             // 8 x uint16 absolute differences
; 197  :             sum = _mm_add_epi32(sum, _mm_unpacklo_epi16(absdiff, zero));
; 198  :             sum = _mm_add_epi32(sum, _mm_unpackhi_epi16(absdiff, zero));
; 199  :             // sum1_32, sum2_32, sum3_32, sum4_32
; 200  :           }
; 201  :           // sum += SADABS(reinterpret_cast<const pixel_t *>(pSrc)[x] - reinterpret_cast<const pixel_t *>(pRef)[x]);
; 202  :           if (unroll_by2)
; 203  :           {
; 204  :             // unroll#2
; 205  :             src1 = _mm_loadu_si128((__m128i *) (pSrc + nSrcPitch + x));
; 206  :             src2 = _mm_loadu_si128((__m128i *) (pRef + nRefPitch + x));
; 207  :             if (sizeof(pixel_t) == 1) {
; 208  :               // this is uint_16 specific, but will test on uint8_t against external .asm SAD functions)
; 209  :               sum = _mm_add_epi32(sum, _mm_sad_epu8(src1, src2)); // yihhaaa, existing SIMD   sum1_32, 0, sum2_32, 0
; 210  :                                                                   // result in two 32 bit areas at the upper and lower 64 bytes
; 211  :             }
; 212  :             else {
; 213  :               __m128i greater_t = _mm_subs_epu16(src1, src2); // unsigned sub with saturation
; 214  :               __m128i smaller_t = _mm_subs_epu16(src2, src1);
; 215  :               __m128i absdiff = _mm_or_si128(greater_t, smaller_t); //abs(s1-s2)  == (satsub(s1,s2) | satsub(s2,s1))
; 216  :                                                                     // 8 x uint16 absolute differences
; 217  :               sum = _mm_add_epi32(sum, _mm_unpacklo_epi16(absdiff, zero));
; 218  :               sum = _mm_add_epi32(sum, _mm_unpackhi_epi16(absdiff, zero));
; 219  :               // sum1_32, sum2_32, sum3_32, sum4_32
; 220  :             }
; 221  :           }
; 222  :         }
; 223  :       }
; 224  :       if (two_8byte_rows || unroll_by2) {
; 225  :         pSrc += nSrcPitch * 2;
; 226  :         pRef += nRefPitch * 2;
; 227  :       }
; 228  :       else {
; 229  :         pSrc += nSrcPitch;
; 230  :         pRef += nRefPitch;
; 231  :       }
; 232  :     }
; 233  :   }
; 234  : #if 0
; 235  :   else { // aligned, experimental. With the in-function alignment check overhead it is slower
; 236  :     for (int y = 0; y < nBlkHeight; y += (two_8byte_rows ? 2 : 1))
; 237  :     {
; 238  :       if (one_cycle)
; 239  :       {
; 240  :         __m128i src1, src2;
; 241  :         src1 = _mm_load_si128((__m128i *) (pSrc)); // no x
; 242  :         src2 = _mm_load_si128((__m128i *) (pRef));
; 243  :         if (sizeof(pixel_t) == 1) {
; 244  :           // this is uint_16 specific, but will test on uint8_t against external .asm SAD functions)
; 245  :           sum = _mm_add_epi32(sum, _mm_sad_epu8(src1, src2)); // yihhaaa, existing SIMD   sum1_32, 0, sum2_32, 0
; 246  :                                                               // result in two 32 bit areas at the upper and lower 64 bytes
; 247  :         }
; 248  :         else {
; 249  :           __m128i greater_t = _mm_subs_epu16(src1, src2); // unsigned sub with saturation
; 250  :           __m128i smaller_t = _mm_subs_epu16(src2, src1);
; 251  :           __m128i absdiff = _mm_or_si128(greater_t, smaller_t); //abs(s1-s2)  == (satsub(s1,s2) | satsub(s2,s1))
; 252  :                                                                 // 8 x uint16 absolute differences
; 253  :           sum = _mm_add_epi32(sum, _mm_unpacklo_epi16(absdiff, zero));
; 254  :           sum = _mm_add_epi32(sum, _mm_unpackhi_epi16(absdiff, zero));
; 255  :           // sum1_32, sum2_32, sum3_32, sum4_32
; 256  :         }
; 257  :       }
; 258  :       else {
; 259  :         for (int x = 0; x < nBlkWidth * sizeof(pixel_t); x += 16)
; 260  :         {
; 261  :           __m128i src1, src2;
; 262  :           src1 = _mm_load_si128((__m128i *) (pSrc + x));
; 263  :           src2 = _mm_load_si128((__m128i *) (pRef + x));
; 264  :           if (sizeof(pixel_t) == 1) {
; 265  :             // this is uint_16 specific, but will test on uint8_t against external .asm SAD functions)
; 266  :             sum = _mm_add_epi32(sum, _mm_sad_epu8(src1, src2)); // yihhaaa, existing SIMD   sum1_32, 0, sum2_32, 0
; 267  :                                                                 // result in two 32 bit areas at the upper and lower 64 bytes
; 268  :           }
; 269  :           else {
; 270  :             __m128i greater_t = _mm_subs_epu16(src1, src2); // unsigned sub with saturation
; 271  :             __m128i smaller_t = _mm_subs_epu16(src2, src1);
; 272  :             __m128i absdiff = _mm_or_si128(greater_t, smaller_t); //abs(s1-s2)  == (satsub(s1,s2) | satsub(s2,s1))
; 273  :                                                                   // 8 x uint16 absolute differences
; 274  :             sum = _mm_add_epi32(sum, _mm_unpacklo_epi16(absdiff, zero));
; 275  :             sum = _mm_add_epi32(sum, _mm_unpackhi_epi16(absdiff, zero));
; 276  :             // sum1_32, sum2_32, sum3_32, sum4_32
; 277  :           }
; 278  :           // sum += SADABS(reinterpret_cast<const pixel_t *>(pSrc)[x] - reinterpret_cast<const pixel_t *>(pRef)[x]);
; 279  :         }
; 280  :       }
; 281  :       if (two_8byte_rows) {
; 282  :         pSrc += nSrcPitch * 2;
; 283  :         pRef += nRefPitch * 2;
; 284  :       }
; 285  :       else {
; 286  :         pSrc += nSrcPitch;
; 287  :         pRef += nRefPitch;
; 288  :       }
; 289  :     }
; 290  : 
; 291  :   }
; 292  : #endif
; 293  :   /*
; 294  :   [Low64, Hi64]
; 295  :   _mm_unpacklo_epi64(_mm_setzero_si128(), x)  [0, x0]
; 296  :   _mm_unpackhi_epi64(_mm_setzero_si128(), x)  [0, x1]
; 297  :   _mm_move_epi64(x)                           [x0, 0]
; 298  :   _mm_unpackhi_epi64(x, _mm_setzero_si128())  [x1, 0]
; 299  :   */
; 300  : #if 1
; 301  :   if(sizeof(pixel_t) == 2) {
; 302  :     // at 16 bits: we have 4 integers for sum: a0 a1 a2 a3
; 303  :     __m128i a0_a1 = _mm_unpacklo_epi32(sum, zero); // a0 0 a1 0
; 304  :     __m128i a2_a3 = _mm_unpackhi_epi32(sum, zero); // a2 0 a3 0

	vpunpckhdq xmm1, xmm0, xmm4
	vpunpckldq xmm0, xmm0, xmm4

; 305  :     sum = _mm_add_epi32( a0_a1, a2_a3 ); // a0+a2, 0, a1+a3, 0

	vpaddd	xmm1, xmm1, xmm0

; 306  :     // hadd: shower
; 307  :   }
; 308  :   // sum here: two 32 bit partial result: sum1 0 sum2 0
; 309  :   __m128i sum_hi = _mm_unpackhi_epi64(sum, zero); // a1 + a3. 2 dwords right 

	vpunpckhqdq xmm0, xmm1, xmm4

; 310  :   sum = _mm_add_epi32(sum, sum_hi);  // a0 + a2 + a1 + a3

	vpaddd	xmm0, xmm0, xmm1

; 311  : #else
; 312  :   // this hadd path is slower on Ivy bridge
; 313  :   if (sizeof(pixel_t) == 2) {
; 314  :     sum = _mm_hadd_epi32(sum, zero); // a0_a = a0 + a1, a1_a = a2 + a3
; 315  :     sum = _mm_hadd_epi32(sum, zero); // a0 = a0_a + a1_a ( = a0+a1+a2+a3)
; 316  :   }
; 317  :   else { // uint8_t
; 318  :     // sum here: two 32 bit partial result: sum1 0 sum2 0
; 319  :     __m128i sum_hi = _mm_unpackhi_epi64(sum, zero); // a1 + a3. 2 dwords right 
; 320  :     sum = _mm_add_epi32(sum, sum_hi);  // a0 + a2 + a1 + a3
; 321  : 
; 322  :   }
; 323  : #endif
; 324  : 
; 325  :   unsigned int result = _mm_cvtsi128_si32(sum);

	vmovd	eax, xmm0

; 326  : 
; 327  : #if 0
; 328  :   // check result against C
; 329  :   if (result != result2) {
; 330  :     result = result2;
; 331  :   }
; 332  : #endif
; 333  :   _mm256_zeroupper(); // diff from main sse2
; 334  : 
; 335  :   return result;
; 336  : }  // end of SSE2 with AVX commandset Sad16

	mov	esp, ebp
	pop	ebp
	ret	0
??$Sad16_sse2_avx@$07$01G@@YAIPBEH0H@Z ENDP		; Sad16_sse2_avx<8,2,unsigned short>
_TEXT	ENDS
; Function compile flags: /Ogtpy
; File c:\github\mvtools\sources\sadfunctions_avx.cpp
;	COMDAT ??$Sad16_sse2_avx@$07$00G@@YAIPBEH0H@Z
_TEXT	SEGMENT
_pSrc$ = 8						; size = 4
_nSrcPitch$ = 12					; size = 4
_pRef$ = 16						; size = 4
_nRefPitch$ = 20					; size = 4
??$Sad16_sse2_avx@$07$00G@@YAIPBEH0H@Z PROC		; Sad16_sse2_avx<8,1,unsigned short>, COMDAT

; 88   : {

	push	ebp
	mov	ebp, esp
	and	esp, -8					; fffffff8H

; 89   : #if 0
; 90   :   // check result against C
; 91   :   unsigned int result2 = Sad_AVX_C<nBlkWidth, nBlkHeight, pixel_t>(pSrc, nSrcPitch, pRef, nRefPitch);
; 92   : #endif
; 93   :   _mm256_zeroupper(); // diff from main sse2
; 94   :   __m128i zero = _mm_setzero_si128();
; 95   :   __m128i sum = _mm_setzero_si128(); // 2x or 4x int is probably enough for 32x32
; 96   : 
; 97   :   const bool two_8byte_rows = (sizeof(pixel_t) == 2 && nBlkWidth <= 4) || (sizeof(pixel_t) == 1 && nBlkWidth <= 8);
; 98   :   const bool one_cycle = (sizeof(pixel_t) * nBlkWidth) == 16;
; 99   :   const bool unroll_by2 = !two_8byte_rows && nBlkHeight>=2; // unroll by 4: slower
; 100  : 
; 101  :   bool unaligned = true;
; 102  :   if (!two_8byte_rows) {
; 103  :     // test. not faster. Checking overhead?
; 104  :     unaligned = true; // ((reinterpret_cast <ptrdiff_t> (pSrc) & 0x0F) || ((reinterpret_cast <ptrdiff_t>(pRef)) & 0x0F) || ((nRefPitch | nSrcPitch) & 0x0F));
; 105  :   }
; 106  : 
; 107  :   if (unaligned) {
; 108  :     for (int y = 0; y < nBlkHeight; y += (two_8byte_rows || unroll_by2) ? 2 : 1)
; 109  :     {
; 110  :       if (two_8byte_rows) { // no x cycle
; 111  :         __m128i src1, src2;
; 112  :         // (8 bytes or 4 words) * 2 rows
; 113  : #if 0
; 114  :         src1 = _mm_or_si128(_mm_loadl_epi64((__m128i *) (pSrc)), _mm_slli_si128(_mm_loadl_epi64((__m128i *) (pSrc + nSrcPitch)), 8));
; 115  :         src2 = _mm_or_si128(_mm_loadl_epi64((__m128i *) (pRef)), _mm_slli_si128(_mm_loadl_epi64((__m128i *) (pRef + nRefPitch)), 8));
; 116  : #else
; 117  :         // 16.12.01 unpack
; 118  :         if (sizeof(pixel_t) == 1) {
; 119  :           src1 = _mm_unpacklo_epi8(_mm_loadl_epi64((__m128i *) (pSrc)), _mm_loadl_epi64((__m128i *) (pSrc + nSrcPitch)));
; 120  :           src2 = _mm_unpacklo_epi8(_mm_loadl_epi64((__m128i *) (pRef)), _mm_loadl_epi64((__m128i *) (pRef + nRefPitch)));
; 121  :         }
; 122  :         else if (sizeof(pixel_t) == 2) {
; 123  :           src1 = _mm_unpacklo_epi16(_mm_loadl_epi64((__m128i *) (pSrc)), _mm_loadl_epi64((__m128i *) (pSrc + nSrcPitch)));
; 124  :           src2 = _mm_unpacklo_epi16(_mm_loadl_epi64((__m128i *) (pRef)), _mm_loadl_epi64((__m128i *) (pRef + nRefPitch)));
; 125  :         }
; 126  : #endif
; 127  :         if (sizeof(pixel_t) == 1) {
; 128  :           // this is uint_16 specific, but will test on uint8_t against external .asm SAD functions)
; 129  :           sum = _mm_add_epi32(sum, _mm_sad_epu8(src1, src2)); // yihhaaa, existing SIMD   sum1_32, 0, sum2_32, 0
; 130  :                                                               // result in two 32 bit areas at the upper and lower 64 bytes
; 131  :         }
; 132  :         else {
; 133  :           __m128i greater_t = _mm_subs_epu16(src1, src2); // unsigned sub with saturation
; 134  :           __m128i smaller_t = _mm_subs_epu16(src2, src1);
; 135  :           __m128i absdiff = _mm_or_si128(greater_t, smaller_t); //abs(s1-s2)  == (satsub(s1,s2) | satsub(s2,s1))
; 136  :           // 8 x uint16 absolute differences
; 137  :           sum = _mm_add_epi32(sum, _mm_unpacklo_epi16(absdiff, zero));
; 138  :           sum = _mm_add_epi32(sum, _mm_unpackhi_epi16(absdiff, zero));
; 139  :           // sum1_32, sum2_32, sum3_32, sum4_32
; 140  :         }
; 141  :       }
; 142  :       else if (one_cycle)
; 143  :       {
; 144  :         __m128i src1, src2;
; 145  :         src1 = _mm_loadu_si128((__m128i *) (pSrc)); // no x

	mov	eax, DWORD PTR _pSrc$[ebp]
	vpxor	xmm3, xmm3, xmm3
	vmovdqu	xmm2, XMMWORD PTR [eax]

; 146  :         src2 = _mm_loadu_si128((__m128i *) (pRef));

	mov	eax, DWORD PTR _pRef$[ebp]
	vmovdqu	xmm0, XMMWORD PTR [eax]

; 147  :         if (sizeof(pixel_t) == 1) {
; 148  :           // this is uint_16 specific, but will test on uint8_t against external .asm SAD functions)
; 149  :           sum = _mm_add_epi32(sum, _mm_sad_epu8(src1, src2)); // yihhaaa, existing SIMD   sum1_32, 0, sum2_32, 0
; 150  :                                                               // result in two 32 bit areas at the upper and lower 64 bytes
; 151  :         }
; 152  :         else {
; 153  :           __m128i greater_t = _mm_subs_epu16(src1, src2); // unsigned sub with saturation

	vpsubusw xmm1, xmm2, xmm0

; 154  :           __m128i smaller_t = _mm_subs_epu16(src2, src1);

	vpsubusw xmm0, xmm0, xmm2

; 155  :           __m128i absdiff = _mm_or_si128(greater_t, smaller_t); //abs(s1-s2)  == (satsub(s1,s2) | satsub(s2,s1))

	vpor	xmm2, xmm1, xmm0

; 156  :                                                                 // 8 x uint16 absolute differences
; 157  :           sum = _mm_add_epi32(sum, _mm_unpacklo_epi16(absdiff, zero));

	vpunpcklwd xmm1, xmm2, xmm3

; 158  :           sum = _mm_add_epi32(sum, _mm_unpackhi_epi16(absdiff, zero));

	vpunpckhwd xmm0, xmm2, xmm3
	vpaddd	xmm0, xmm1, xmm0

; 159  :           // sum1_32, sum2_32, sum3_32, sum4_32
; 160  :         }
; 161  :         if (unroll_by2) {
; 162  :           // unroll#2
; 163  :           src1 = _mm_loadu_si128((__m128i *) (pSrc+nSrcPitch)); // no x
; 164  :           src2 = _mm_loadu_si128((__m128i *) (pRef+nRefPitch));
; 165  :           if (sizeof(pixel_t) == 1) {
; 166  :             // this is uint_16 specific, but will test on uint8_t against external .asm SAD functions)
; 167  :             sum = _mm_add_epi32(sum, _mm_sad_epu8(src1, src2)); // yihhaaa, existing SIMD   sum1_32, 0, sum2_32, 0
; 168  :                                                                 // result in two 32 bit areas at the upper and lower 64 bytes
; 169  :           }
; 170  :           else {
; 171  :             __m128i greater_t = _mm_subs_epu16(src1, src2); // unsigned sub with saturation
; 172  :             __m128i smaller_t = _mm_subs_epu16(src2, src1);
; 173  :             __m128i absdiff = _mm_or_si128(greater_t, smaller_t); //abs(s1-s2)  == (satsub(s1,s2) | satsub(s2,s1))
; 174  :                                                                   // 8 x uint16 absolute differences
; 175  :             sum = _mm_add_epi32(sum, _mm_unpacklo_epi16(absdiff, zero));
; 176  :             sum = _mm_add_epi32(sum, _mm_unpackhi_epi16(absdiff, zero));
; 177  :             // sum1_32, sum2_32, sum3_32, sum4_32
; 178  :           }
; 179  :         }
; 180  :       }
; 181  :       else {
; 182  :         for (int x = 0; x < nBlkWidth * sizeof(pixel_t); x += 16)
; 183  :         {
; 184  :           __m128i src1, src2;
; 185  :           src1 = _mm_loadu_si128((__m128i *) (pSrc + x));
; 186  :           src2 = _mm_loadu_si128((__m128i *) (pRef + x));
; 187  :           if (sizeof(pixel_t) == 1) {
; 188  :             // this is uint_16 specific, but will test on uint8_t against external .asm SAD functions)
; 189  :             sum = _mm_add_epi32(sum, _mm_sad_epu8(src1, src2)); // yihhaaa, existing SIMD   sum1_32, 0, sum2_32, 0
; 190  :             // result in two 32 bit areas at the upper and lower 64 bytes
; 191  :           }
; 192  :           else {
; 193  :             __m128i greater_t = _mm_subs_epu16(src1, src2); // unsigned sub with saturation
; 194  :             __m128i smaller_t = _mm_subs_epu16(src2, src1);
; 195  :             __m128i absdiff = _mm_or_si128(greater_t, smaller_t); //abs(s1-s2)  == (satsub(s1,s2) | satsub(s2,s1))
; 196  :             // 8 x uint16 absolute differences
; 197  :             sum = _mm_add_epi32(sum, _mm_unpacklo_epi16(absdiff, zero));
; 198  :             sum = _mm_add_epi32(sum, _mm_unpackhi_epi16(absdiff, zero));
; 199  :             // sum1_32, sum2_32, sum3_32, sum4_32
; 200  :           }
; 201  :           // sum += SADABS(reinterpret_cast<const pixel_t *>(pSrc)[x] - reinterpret_cast<const pixel_t *>(pRef)[x]);
; 202  :           if (unroll_by2)
; 203  :           {
; 204  :             // unroll#2
; 205  :             src1 = _mm_loadu_si128((__m128i *) (pSrc + nSrcPitch + x));
; 206  :             src2 = _mm_loadu_si128((__m128i *) (pRef + nRefPitch + x));
; 207  :             if (sizeof(pixel_t) == 1) {
; 208  :               // this is uint_16 specific, but will test on uint8_t against external .asm SAD functions)
; 209  :               sum = _mm_add_epi32(sum, _mm_sad_epu8(src1, src2)); // yihhaaa, existing SIMD   sum1_32, 0, sum2_32, 0
; 210  :                                                                   // result in two 32 bit areas at the upper and lower 64 bytes
; 211  :             }
; 212  :             else {
; 213  :               __m128i greater_t = _mm_subs_epu16(src1, src2); // unsigned sub with saturation
; 214  :               __m128i smaller_t = _mm_subs_epu16(src2, src1);
; 215  :               __m128i absdiff = _mm_or_si128(greater_t, smaller_t); //abs(s1-s2)  == (satsub(s1,s2) | satsub(s2,s1))
; 216  :                                                                     // 8 x uint16 absolute differences
; 217  :               sum = _mm_add_epi32(sum, _mm_unpacklo_epi16(absdiff, zero));
; 218  :               sum = _mm_add_epi32(sum, _mm_unpackhi_epi16(absdiff, zero));
; 219  :               // sum1_32, sum2_32, sum3_32, sum4_32
; 220  :             }
; 221  :           }
; 222  :         }
; 223  :       }
; 224  :       if (two_8byte_rows || unroll_by2) {
; 225  :         pSrc += nSrcPitch * 2;
; 226  :         pRef += nRefPitch * 2;
; 227  :       }
; 228  :       else {
; 229  :         pSrc += nSrcPitch;
; 230  :         pRef += nRefPitch;
; 231  :       }
; 232  :     }
; 233  :   }
; 234  : #if 0
; 235  :   else { // aligned, experimental. With the in-function alignment check overhead it is slower
; 236  :     for (int y = 0; y < nBlkHeight; y += (two_8byte_rows ? 2 : 1))
; 237  :     {
; 238  :       if (one_cycle)
; 239  :       {
; 240  :         __m128i src1, src2;
; 241  :         src1 = _mm_load_si128((__m128i *) (pSrc)); // no x
; 242  :         src2 = _mm_load_si128((__m128i *) (pRef));
; 243  :         if (sizeof(pixel_t) == 1) {
; 244  :           // this is uint_16 specific, but will test on uint8_t against external .asm SAD functions)
; 245  :           sum = _mm_add_epi32(sum, _mm_sad_epu8(src1, src2)); // yihhaaa, existing SIMD   sum1_32, 0, sum2_32, 0
; 246  :                                                               // result in two 32 bit areas at the upper and lower 64 bytes
; 247  :         }
; 248  :         else {
; 249  :           __m128i greater_t = _mm_subs_epu16(src1, src2); // unsigned sub with saturation
; 250  :           __m128i smaller_t = _mm_subs_epu16(src2, src1);
; 251  :           __m128i absdiff = _mm_or_si128(greater_t, smaller_t); //abs(s1-s2)  == (satsub(s1,s2) | satsub(s2,s1))
; 252  :                                                                 // 8 x uint16 absolute differences
; 253  :           sum = _mm_add_epi32(sum, _mm_unpacklo_epi16(absdiff, zero));
; 254  :           sum = _mm_add_epi32(sum, _mm_unpackhi_epi16(absdiff, zero));
; 255  :           // sum1_32, sum2_32, sum3_32, sum4_32
; 256  :         }
; 257  :       }
; 258  :       else {
; 259  :         for (int x = 0; x < nBlkWidth * sizeof(pixel_t); x += 16)
; 260  :         {
; 261  :           __m128i src1, src2;
; 262  :           src1 = _mm_load_si128((__m128i *) (pSrc + x));
; 263  :           src2 = _mm_load_si128((__m128i *) (pRef + x));
; 264  :           if (sizeof(pixel_t) == 1) {
; 265  :             // this is uint_16 specific, but will test on uint8_t against external .asm SAD functions)
; 266  :             sum = _mm_add_epi32(sum, _mm_sad_epu8(src1, src2)); // yihhaaa, existing SIMD   sum1_32, 0, sum2_32, 0
; 267  :                                                                 // result in two 32 bit areas at the upper and lower 64 bytes
; 268  :           }
; 269  :           else {
; 270  :             __m128i greater_t = _mm_subs_epu16(src1, src2); // unsigned sub with saturation
; 271  :             __m128i smaller_t = _mm_subs_epu16(src2, src1);
; 272  :             __m128i absdiff = _mm_or_si128(greater_t, smaller_t); //abs(s1-s2)  == (satsub(s1,s2) | satsub(s2,s1))
; 273  :                                                                   // 8 x uint16 absolute differences
; 274  :             sum = _mm_add_epi32(sum, _mm_unpacklo_epi16(absdiff, zero));
; 275  :             sum = _mm_add_epi32(sum, _mm_unpackhi_epi16(absdiff, zero));
; 276  :             // sum1_32, sum2_32, sum3_32, sum4_32
; 277  :           }
; 278  :           // sum += SADABS(reinterpret_cast<const pixel_t *>(pSrc)[x] - reinterpret_cast<const pixel_t *>(pRef)[x]);
; 279  :         }
; 280  :       }
; 281  :       if (two_8byte_rows) {
; 282  :         pSrc += nSrcPitch * 2;
; 283  :         pRef += nRefPitch * 2;
; 284  :       }
; 285  :       else {
; 286  :         pSrc += nSrcPitch;
; 287  :         pRef += nRefPitch;
; 288  :       }
; 289  :     }
; 290  : 
; 291  :   }
; 292  : #endif
; 293  :   /*
; 294  :   [Low64, Hi64]
; 295  :   _mm_unpacklo_epi64(_mm_setzero_si128(), x)  [0, x0]
; 296  :   _mm_unpackhi_epi64(_mm_setzero_si128(), x)  [0, x1]
; 297  :   _mm_move_epi64(x)                           [x0, 0]
; 298  :   _mm_unpackhi_epi64(x, _mm_setzero_si128())  [x1, 0]
; 299  :   */
; 300  : #if 1
; 301  :   if(sizeof(pixel_t) == 2) {
; 302  :     // at 16 bits: we have 4 integers for sum: a0 a1 a2 a3
; 303  :     __m128i a0_a1 = _mm_unpacklo_epi32(sum, zero); // a0 0 a1 0
; 304  :     __m128i a2_a3 = _mm_unpackhi_epi32(sum, zero); // a2 0 a3 0

	vpunpckhdq xmm1, xmm0, xmm3
	vpunpckldq xmm0, xmm0, xmm3

; 305  :     sum = _mm_add_epi32( a0_a1, a2_a3 ); // a0+a2, 0, a1+a3, 0

	vpaddd	xmm1, xmm1, xmm0

; 306  :     // hadd: shower
; 307  :   }
; 308  :   // sum here: two 32 bit partial result: sum1 0 sum2 0
; 309  :   __m128i sum_hi = _mm_unpackhi_epi64(sum, zero); // a1 + a3. 2 dwords right 

	vpunpckhqdq xmm0, xmm1, xmm3

; 310  :   sum = _mm_add_epi32(sum, sum_hi);  // a0 + a2 + a1 + a3

	vpaddd	xmm0, xmm0, xmm1

; 311  : #else
; 312  :   // this hadd path is slower on Ivy bridge
; 313  :   if (sizeof(pixel_t) == 2) {
; 314  :     sum = _mm_hadd_epi32(sum, zero); // a0_a = a0 + a1, a1_a = a2 + a3
; 315  :     sum = _mm_hadd_epi32(sum, zero); // a0 = a0_a + a1_a ( = a0+a1+a2+a3)
; 316  :   }
; 317  :   else { // uint8_t
; 318  :     // sum here: two 32 bit partial result: sum1 0 sum2 0
; 319  :     __m128i sum_hi = _mm_unpackhi_epi64(sum, zero); // a1 + a3. 2 dwords right 
; 320  :     sum = _mm_add_epi32(sum, sum_hi);  // a0 + a2 + a1 + a3
; 321  : 
; 322  :   }
; 323  : #endif
; 324  : 
; 325  :   unsigned int result = _mm_cvtsi128_si32(sum);

	vmovd	eax, xmm0

; 326  : 
; 327  : #if 0
; 328  :   // check result against C
; 329  :   if (result != result2) {
; 330  :     result = result2;
; 331  :   }
; 332  : #endif
; 333  :   _mm256_zeroupper(); // diff from main sse2
; 334  : 
; 335  :   return result;
; 336  : }  // end of SSE2 with AVX commandset Sad16

	mov	esp, ebp
	pop	ebp
	ret	0
??$Sad16_sse2_avx@$07$00G@@YAIPBEH0H@Z ENDP		; Sad16_sse2_avx<8,1,unsigned short>
_TEXT	ENDS
; Function compile flags: /Ogtpy
; File c:\github\mvtools\sources\sadfunctions_avx.cpp
;	COMDAT ??$Sad16_sse2_avx@$03$07G@@YAIPBEH0H@Z
_TEXT	SEGMENT
tv495 = -8						; size = 4
tv494 = -4						; size = 4
_pSrc$ = 8						; size = 4
_nSrcPitch$ = 12					; size = 4
_pRef$ = 16						; size = 4
_nRefPitch$ = 20					; size = 4
??$Sad16_sse2_avx@$03$07G@@YAIPBEH0H@Z PROC		; Sad16_sse2_avx<4,8,unsigned short>, COMDAT

; 88   : {

	push	ebp
	mov	ebp, esp
	and	esp, -8					; fffffff8H
	sub	esp, 8
	mov	edx, DWORD PTR _nSrcPitch$[ebp]

; 89   : #if 0
; 90   :   // check result against C
; 91   :   unsigned int result2 = Sad_AVX_C<nBlkWidth, nBlkHeight, pixel_t>(pSrc, nSrcPitch, pRef, nRefPitch);
; 92   : #endif
; 93   :   _mm256_zeroupper(); // diff from main sse2

	mov	ecx, DWORD PTR _pSrc$[ebp]
	push	esi
	mov	esi, DWORD PTR _nRefPitch$[ebp]
	lea	eax, DWORD PTR [edx+edx]
	mov	DWORD PTR tv495[esp+12], eax
	vpxor	xmm3, xmm3, xmm3
	lea	eax, DWORD PTR [esi+esi]
	push	edi
	mov	DWORD PTR tv494[esp+16], eax
	mov	edi, 4
	mov	eax, DWORD PTR _pRef$[ebp]

; 94   :   __m128i zero = _mm_setzero_si128();
; 95   :   __m128i sum = _mm_setzero_si128(); // 2x or 4x int is probably enough for 32x32

	vmovdqa	xmm4, xmm3
$LL4@Sad16_sse2:

; 96   : 
; 97   :   const bool two_8byte_rows = (sizeof(pixel_t) == 2 && nBlkWidth <= 4) || (sizeof(pixel_t) == 1 && nBlkWidth <= 8);
; 98   :   const bool one_cycle = (sizeof(pixel_t) * nBlkWidth) == 16;
; 99   :   const bool unroll_by2 = !two_8byte_rows && nBlkHeight>=2; // unroll by 4: slower
; 100  : 
; 101  :   bool unaligned = true;
; 102  :   if (!two_8byte_rows) {
; 103  :     // test. not faster. Checking overhead?
; 104  :     unaligned = true; // ((reinterpret_cast <ptrdiff_t> (pSrc) & 0x0F) || ((reinterpret_cast <ptrdiff_t>(pRef)) & 0x0F) || ((nRefPitch | nSrcPitch) & 0x0F));
; 105  :   }
; 106  : 
; 107  :   if (unaligned) {
; 108  :     for (int y = 0; y < nBlkHeight; y += (two_8byte_rows || unroll_by2) ? 2 : 1)
; 109  :     {
; 110  :       if (two_8byte_rows) { // no x cycle
; 111  :         __m128i src1, src2;
; 112  :         // (8 bytes or 4 words) * 2 rows
; 113  : #if 0
; 114  :         src1 = _mm_or_si128(_mm_loadl_epi64((__m128i *) (pSrc)), _mm_slli_si128(_mm_loadl_epi64((__m128i *) (pSrc + nSrcPitch)), 8));
; 115  :         src2 = _mm_or_si128(_mm_loadl_epi64((__m128i *) (pRef)), _mm_slli_si128(_mm_loadl_epi64((__m128i *) (pRef + nRefPitch)), 8));
; 116  : #else
; 117  :         // 16.12.01 unpack
; 118  :         if (sizeof(pixel_t) == 1) {
; 119  :           src1 = _mm_unpacklo_epi8(_mm_loadl_epi64((__m128i *) (pSrc)), _mm_loadl_epi64((__m128i *) (pSrc + nSrcPitch)));
; 120  :           src2 = _mm_unpacklo_epi8(_mm_loadl_epi64((__m128i *) (pRef)), _mm_loadl_epi64((__m128i *) (pRef + nRefPitch)));
; 121  :         }
; 122  :         else if (sizeof(pixel_t) == 2) {
; 123  :           src1 = _mm_unpacklo_epi16(_mm_loadl_epi64((__m128i *) (pSrc)), _mm_loadl_epi64((__m128i *) (pSrc + nSrcPitch)));

	vmovq	xmm1, QWORD PTR [ecx]
	vmovq	xmm0, QWORD PTR [ecx+edx]

; 124  :           src2 = _mm_unpacklo_epi16(_mm_loadl_epi64((__m128i *) (pRef)), _mm_loadl_epi64((__m128i *) (pRef + nRefPitch)));
; 125  :         }
; 126  : #endif
; 127  :         if (sizeof(pixel_t) == 1) {
; 128  :           // this is uint_16 specific, but will test on uint8_t against external .asm SAD functions)
; 129  :           sum = _mm_add_epi32(sum, _mm_sad_epu8(src1, src2)); // yihhaaa, existing SIMD   sum1_32, 0, sum2_32, 0
; 130  :                                                               // result in two 32 bit areas at the upper and lower 64 bytes
; 131  :         }
; 132  :         else {
; 133  :           __m128i greater_t = _mm_subs_epu16(src1, src2); // unsigned sub with saturation
; 134  :           __m128i smaller_t = _mm_subs_epu16(src2, src1);
; 135  :           __m128i absdiff = _mm_or_si128(greater_t, smaller_t); //abs(s1-s2)  == (satsub(s1,s2) | satsub(s2,s1))
; 136  :           // 8 x uint16 absolute differences
; 137  :           sum = _mm_add_epi32(sum, _mm_unpacklo_epi16(absdiff, zero));
; 138  :           sum = _mm_add_epi32(sum, _mm_unpackhi_epi16(absdiff, zero));
; 139  :           // sum1_32, sum2_32, sum3_32, sum4_32
; 140  :         }
; 141  :       }
; 142  :       else if (one_cycle)
; 143  :       {
; 144  :         __m128i src1, src2;
; 145  :         src1 = _mm_loadu_si128((__m128i *) (pSrc)); // no x
; 146  :         src2 = _mm_loadu_si128((__m128i *) (pRef));
; 147  :         if (sizeof(pixel_t) == 1) {
; 148  :           // this is uint_16 specific, but will test on uint8_t against external .asm SAD functions)
; 149  :           sum = _mm_add_epi32(sum, _mm_sad_epu8(src1, src2)); // yihhaaa, existing SIMD   sum1_32, 0, sum2_32, 0
; 150  :                                                               // result in two 32 bit areas at the upper and lower 64 bytes
; 151  :         }
; 152  :         else {
; 153  :           __m128i greater_t = _mm_subs_epu16(src1, src2); // unsigned sub with saturation
; 154  :           __m128i smaller_t = _mm_subs_epu16(src2, src1);
; 155  :           __m128i absdiff = _mm_or_si128(greater_t, smaller_t); //abs(s1-s2)  == (satsub(s1,s2) | satsub(s2,s1))
; 156  :                                                                 // 8 x uint16 absolute differences
; 157  :           sum = _mm_add_epi32(sum, _mm_unpacklo_epi16(absdiff, zero));
; 158  :           sum = _mm_add_epi32(sum, _mm_unpackhi_epi16(absdiff, zero));
; 159  :           // sum1_32, sum2_32, sum3_32, sum4_32
; 160  :         }
; 161  :         if (unroll_by2) {
; 162  :           // unroll#2
; 163  :           src1 = _mm_loadu_si128((__m128i *) (pSrc+nSrcPitch)); // no x
; 164  :           src2 = _mm_loadu_si128((__m128i *) (pRef+nRefPitch));
; 165  :           if (sizeof(pixel_t) == 1) {
; 166  :             // this is uint_16 specific, but will test on uint8_t against external .asm SAD functions)
; 167  :             sum = _mm_add_epi32(sum, _mm_sad_epu8(src1, src2)); // yihhaaa, existing SIMD   sum1_32, 0, sum2_32, 0
; 168  :                                                                 // result in two 32 bit areas at the upper and lower 64 bytes
; 169  :           }
; 170  :           else {
; 171  :             __m128i greater_t = _mm_subs_epu16(src1, src2); // unsigned sub with saturation
; 172  :             __m128i smaller_t = _mm_subs_epu16(src2, src1);
; 173  :             __m128i absdiff = _mm_or_si128(greater_t, smaller_t); //abs(s1-s2)  == (satsub(s1,s2) | satsub(s2,s1))
; 174  :                                                                   // 8 x uint16 absolute differences
; 175  :             sum = _mm_add_epi32(sum, _mm_unpacklo_epi16(absdiff, zero));
; 176  :             sum = _mm_add_epi32(sum, _mm_unpackhi_epi16(absdiff, zero));
; 177  :             // sum1_32, sum2_32, sum3_32, sum4_32
; 178  :           }
; 179  :         }
; 180  :       }
; 181  :       else {
; 182  :         for (int x = 0; x < nBlkWidth * sizeof(pixel_t); x += 16)
; 183  :         {
; 184  :           __m128i src1, src2;
; 185  :           src1 = _mm_loadu_si128((__m128i *) (pSrc + x));
; 186  :           src2 = _mm_loadu_si128((__m128i *) (pRef + x));
; 187  :           if (sizeof(pixel_t) == 1) {
; 188  :             // this is uint_16 specific, but will test on uint8_t against external .asm SAD functions)
; 189  :             sum = _mm_add_epi32(sum, _mm_sad_epu8(src1, src2)); // yihhaaa, existing SIMD   sum1_32, 0, sum2_32, 0
; 190  :             // result in two 32 bit areas at the upper and lower 64 bytes
; 191  :           }
; 192  :           else {
; 193  :             __m128i greater_t = _mm_subs_epu16(src1, src2); // unsigned sub with saturation
; 194  :             __m128i smaller_t = _mm_subs_epu16(src2, src1);
; 195  :             __m128i absdiff = _mm_or_si128(greater_t, smaller_t); //abs(s1-s2)  == (satsub(s1,s2) | satsub(s2,s1))
; 196  :             // 8 x uint16 absolute differences
; 197  :             sum = _mm_add_epi32(sum, _mm_unpacklo_epi16(absdiff, zero));
; 198  :             sum = _mm_add_epi32(sum, _mm_unpackhi_epi16(absdiff, zero));
; 199  :             // sum1_32, sum2_32, sum3_32, sum4_32
; 200  :           }
; 201  :           // sum += SADABS(reinterpret_cast<const pixel_t *>(pSrc)[x] - reinterpret_cast<const pixel_t *>(pRef)[x]);
; 202  :           if (unroll_by2)
; 203  :           {
; 204  :             // unroll#2
; 205  :             src1 = _mm_loadu_si128((__m128i *) (pSrc + nSrcPitch + x));
; 206  :             src2 = _mm_loadu_si128((__m128i *) (pRef + nRefPitch + x));
; 207  :             if (sizeof(pixel_t) == 1) {
; 208  :               // this is uint_16 specific, but will test on uint8_t against external .asm SAD functions)
; 209  :               sum = _mm_add_epi32(sum, _mm_sad_epu8(src1, src2)); // yihhaaa, existing SIMD   sum1_32, 0, sum2_32, 0
; 210  :                                                                   // result in two 32 bit areas at the upper and lower 64 bytes
; 211  :             }
; 212  :             else {
; 213  :               __m128i greater_t = _mm_subs_epu16(src1, src2); // unsigned sub with saturation
; 214  :               __m128i smaller_t = _mm_subs_epu16(src2, src1);
; 215  :               __m128i absdiff = _mm_or_si128(greater_t, smaller_t); //abs(s1-s2)  == (satsub(s1,s2) | satsub(s2,s1))
; 216  :                                                                     // 8 x uint16 absolute differences
; 217  :               sum = _mm_add_epi32(sum, _mm_unpacklo_epi16(absdiff, zero));
; 218  :               sum = _mm_add_epi32(sum, _mm_unpackhi_epi16(absdiff, zero));
; 219  :               // sum1_32, sum2_32, sum3_32, sum4_32
; 220  :             }
; 221  :           }
; 222  :         }
; 223  :       }
; 224  :       if (two_8byte_rows || unroll_by2) {
; 225  :         pSrc += nSrcPitch * 2;

	add	ecx, DWORD PTR tv495[esp+16]
	vpunpcklwd xmm2, xmm1, xmm0
	vmovq	xmm1, QWORD PTR [eax]
	vmovq	xmm0, QWORD PTR [eax+esi]

; 226  :         pRef += nRefPitch * 2;

	add	eax, DWORD PTR tv494[esp+16]
	vpunpcklwd xmm0, xmm1, xmm0
	vpsubusw xmm1, xmm2, xmm0
	vpsubusw xmm0, xmm0, xmm2
	vpor	xmm2, xmm1, xmm0
	vpunpcklwd xmm0, xmm2, xmm3
	vpaddd	xmm1, xmm0, xmm4
	vpunpckhwd xmm0, xmm2, xmm3
	vpaddd	xmm4, xmm1, xmm0
	sub	edi, 1
	jne	SHORT $LL4@Sad16_sse2

; 227  :       }
; 228  :       else {
; 229  :         pSrc += nSrcPitch;
; 230  :         pRef += nRefPitch;
; 231  :       }
; 232  :     }
; 233  :   }
; 234  : #if 0
; 235  :   else { // aligned, experimental. With the in-function alignment check overhead it is slower
; 236  :     for (int y = 0; y < nBlkHeight; y += (two_8byte_rows ? 2 : 1))
; 237  :     {
; 238  :       if (one_cycle)
; 239  :       {
; 240  :         __m128i src1, src2;
; 241  :         src1 = _mm_load_si128((__m128i *) (pSrc)); // no x
; 242  :         src2 = _mm_load_si128((__m128i *) (pRef));
; 243  :         if (sizeof(pixel_t) == 1) {
; 244  :           // this is uint_16 specific, but will test on uint8_t against external .asm SAD functions)
; 245  :           sum = _mm_add_epi32(sum, _mm_sad_epu8(src1, src2)); // yihhaaa, existing SIMD   sum1_32, 0, sum2_32, 0
; 246  :                                                               // result in two 32 bit areas at the upper and lower 64 bytes
; 247  :         }
; 248  :         else {
; 249  :           __m128i greater_t = _mm_subs_epu16(src1, src2); // unsigned sub with saturation
; 250  :           __m128i smaller_t = _mm_subs_epu16(src2, src1);
; 251  :           __m128i absdiff = _mm_or_si128(greater_t, smaller_t); //abs(s1-s2)  == (satsub(s1,s2) | satsub(s2,s1))
; 252  :                                                                 // 8 x uint16 absolute differences
; 253  :           sum = _mm_add_epi32(sum, _mm_unpacklo_epi16(absdiff, zero));
; 254  :           sum = _mm_add_epi32(sum, _mm_unpackhi_epi16(absdiff, zero));
; 255  :           // sum1_32, sum2_32, sum3_32, sum4_32
; 256  :         }
; 257  :       }
; 258  :       else {
; 259  :         for (int x = 0; x < nBlkWidth * sizeof(pixel_t); x += 16)
; 260  :         {
; 261  :           __m128i src1, src2;
; 262  :           src1 = _mm_load_si128((__m128i *) (pSrc + x));
; 263  :           src2 = _mm_load_si128((__m128i *) (pRef + x));
; 264  :           if (sizeof(pixel_t) == 1) {
; 265  :             // this is uint_16 specific, but will test on uint8_t against external .asm SAD functions)
; 266  :             sum = _mm_add_epi32(sum, _mm_sad_epu8(src1, src2)); // yihhaaa, existing SIMD   sum1_32, 0, sum2_32, 0
; 267  :                                                                 // result in two 32 bit areas at the upper and lower 64 bytes
; 268  :           }
; 269  :           else {
; 270  :             __m128i greater_t = _mm_subs_epu16(src1, src2); // unsigned sub with saturation
; 271  :             __m128i smaller_t = _mm_subs_epu16(src2, src1);
; 272  :             __m128i absdiff = _mm_or_si128(greater_t, smaller_t); //abs(s1-s2)  == (satsub(s1,s2) | satsub(s2,s1))
; 273  :                                                                   // 8 x uint16 absolute differences
; 274  :             sum = _mm_add_epi32(sum, _mm_unpacklo_epi16(absdiff, zero));
; 275  :             sum = _mm_add_epi32(sum, _mm_unpackhi_epi16(absdiff, zero));
; 276  :             // sum1_32, sum2_32, sum3_32, sum4_32
; 277  :           }
; 278  :           // sum += SADABS(reinterpret_cast<const pixel_t *>(pSrc)[x] - reinterpret_cast<const pixel_t *>(pRef)[x]);
; 279  :         }
; 280  :       }
; 281  :       if (two_8byte_rows) {
; 282  :         pSrc += nSrcPitch * 2;
; 283  :         pRef += nRefPitch * 2;
; 284  :       }
; 285  :       else {
; 286  :         pSrc += nSrcPitch;
; 287  :         pRef += nRefPitch;
; 288  :       }
; 289  :     }
; 290  : 
; 291  :   }
; 292  : #endif
; 293  :   /*
; 294  :   [Low64, Hi64]
; 295  :   _mm_unpacklo_epi64(_mm_setzero_si128(), x)  [0, x0]
; 296  :   _mm_unpackhi_epi64(_mm_setzero_si128(), x)  [0, x1]
; 297  :   _mm_move_epi64(x)                           [x0, 0]
; 298  :   _mm_unpackhi_epi64(x, _mm_setzero_si128())  [x1, 0]
; 299  :   */
; 300  : #if 1
; 301  :   if(sizeof(pixel_t) == 2) {
; 302  :     // at 16 bits: we have 4 integers for sum: a0 a1 a2 a3
; 303  :     __m128i a0_a1 = _mm_unpacklo_epi32(sum, zero); // a0 0 a1 0

	vpunpckldq xmm0, xmm4, xmm3

; 304  :     __m128i a2_a3 = _mm_unpackhi_epi32(sum, zero); // a2 0 a3 0

	vpunpckhdq xmm1, xmm4, xmm3

; 305  :     sum = _mm_add_epi32( a0_a1, a2_a3 ); // a0+a2, 0, a1+a3, 0

	vpaddd	xmm1, xmm1, xmm0

; 306  :     // hadd: shower
; 307  :   }
; 308  :   // sum here: two 32 bit partial result: sum1 0 sum2 0
; 309  :   __m128i sum_hi = _mm_unpackhi_epi64(sum, zero); // a1 + a3. 2 dwords right 

	vpunpckhqdq xmm0, xmm1, xmm3

; 310  :   sum = _mm_add_epi32(sum, sum_hi);  // a0 + a2 + a1 + a3

	vpaddd	xmm0, xmm0, xmm1

; 311  : #else
; 312  :   // this hadd path is slower on Ivy bridge
; 313  :   if (sizeof(pixel_t) == 2) {
; 314  :     sum = _mm_hadd_epi32(sum, zero); // a0_a = a0 + a1, a1_a = a2 + a3
; 315  :     sum = _mm_hadd_epi32(sum, zero); // a0 = a0_a + a1_a ( = a0+a1+a2+a3)
; 316  :   }
; 317  :   else { // uint8_t
; 318  :     // sum here: two 32 bit partial result: sum1 0 sum2 0
; 319  :     __m128i sum_hi = _mm_unpackhi_epi64(sum, zero); // a1 + a3. 2 dwords right 
; 320  :     sum = _mm_add_epi32(sum, sum_hi);  // a0 + a2 + a1 + a3
; 321  : 
; 322  :   }
; 323  : #endif
; 324  : 
; 325  :   unsigned int result = _mm_cvtsi128_si32(sum);
; 326  : 
; 327  : #if 0
; 328  :   // check result against C
; 329  :   if (result != result2) {
; 330  :     result = result2;
; 331  :   }
; 332  : #endif
; 333  :   _mm256_zeroupper(); // diff from main sse2
; 334  : 
; 335  :   return result;
; 336  : }  // end of SSE2 with AVX commandset Sad16

	pop	edi
	vmovd	eax, xmm0
	pop	esi
	mov	esp, ebp
	pop	ebp
	ret	0
??$Sad16_sse2_avx@$03$07G@@YAIPBEH0H@Z ENDP		; Sad16_sse2_avx<4,8,unsigned short>
_TEXT	ENDS
; Function compile flags: /Ogtpy
; File c:\github\mvtools\sources\sadfunctions_avx.cpp
;	COMDAT ??$Sad16_sse2_avx@$03$03G@@YAIPBEH0H@Z
_TEXT	SEGMENT
tv495 = -8						; size = 4
tv494 = -4						; size = 4
_pSrc$ = 8						; size = 4
_nSrcPitch$ = 12					; size = 4
_pRef$ = 16						; size = 4
_nRefPitch$ = 20					; size = 4
??$Sad16_sse2_avx@$03$03G@@YAIPBEH0H@Z PROC		; Sad16_sse2_avx<4,4,unsigned short>, COMDAT

; 88   : {

	push	ebp
	mov	ebp, esp
	and	esp, -8					; fffffff8H
	sub	esp, 8
	mov	edx, DWORD PTR _nSrcPitch$[ebp]

; 89   : #if 0
; 90   :   // check result against C
; 91   :   unsigned int result2 = Sad_AVX_C<nBlkWidth, nBlkHeight, pixel_t>(pSrc, nSrcPitch, pRef, nRefPitch);
; 92   : #endif
; 93   :   _mm256_zeroupper(); // diff from main sse2

	mov	ecx, DWORD PTR _pSrc$[ebp]
	push	esi
	mov	esi, DWORD PTR _nRefPitch$[ebp]
	lea	eax, DWORD PTR [edx+edx]
	mov	DWORD PTR tv495[esp+12], eax
	vpxor	xmm3, xmm3, xmm3
	lea	eax, DWORD PTR [esi+esi]
	push	edi
	mov	DWORD PTR tv494[esp+16], eax
	mov	edi, 2
	mov	eax, DWORD PTR _pRef$[ebp]

; 94   :   __m128i zero = _mm_setzero_si128();
; 95   :   __m128i sum = _mm_setzero_si128(); // 2x or 4x int is probably enough for 32x32

	vmovdqa	xmm4, xmm3
$LL4@Sad16_sse2:

; 96   : 
; 97   :   const bool two_8byte_rows = (sizeof(pixel_t) == 2 && nBlkWidth <= 4) || (sizeof(pixel_t) == 1 && nBlkWidth <= 8);
; 98   :   const bool one_cycle = (sizeof(pixel_t) * nBlkWidth) == 16;
; 99   :   const bool unroll_by2 = !two_8byte_rows && nBlkHeight>=2; // unroll by 4: slower
; 100  : 
; 101  :   bool unaligned = true;
; 102  :   if (!two_8byte_rows) {
; 103  :     // test. not faster. Checking overhead?
; 104  :     unaligned = true; // ((reinterpret_cast <ptrdiff_t> (pSrc) & 0x0F) || ((reinterpret_cast <ptrdiff_t>(pRef)) & 0x0F) || ((nRefPitch | nSrcPitch) & 0x0F));
; 105  :   }
; 106  : 
; 107  :   if (unaligned) {
; 108  :     for (int y = 0; y < nBlkHeight; y += (two_8byte_rows || unroll_by2) ? 2 : 1)
; 109  :     {
; 110  :       if (two_8byte_rows) { // no x cycle
; 111  :         __m128i src1, src2;
; 112  :         // (8 bytes or 4 words) * 2 rows
; 113  : #if 0
; 114  :         src1 = _mm_or_si128(_mm_loadl_epi64((__m128i *) (pSrc)), _mm_slli_si128(_mm_loadl_epi64((__m128i *) (pSrc + nSrcPitch)), 8));
; 115  :         src2 = _mm_or_si128(_mm_loadl_epi64((__m128i *) (pRef)), _mm_slli_si128(_mm_loadl_epi64((__m128i *) (pRef + nRefPitch)), 8));
; 116  : #else
; 117  :         // 16.12.01 unpack
; 118  :         if (sizeof(pixel_t) == 1) {
; 119  :           src1 = _mm_unpacklo_epi8(_mm_loadl_epi64((__m128i *) (pSrc)), _mm_loadl_epi64((__m128i *) (pSrc + nSrcPitch)));
; 120  :           src2 = _mm_unpacklo_epi8(_mm_loadl_epi64((__m128i *) (pRef)), _mm_loadl_epi64((__m128i *) (pRef + nRefPitch)));
; 121  :         }
; 122  :         else if (sizeof(pixel_t) == 2) {
; 123  :           src1 = _mm_unpacklo_epi16(_mm_loadl_epi64((__m128i *) (pSrc)), _mm_loadl_epi64((__m128i *) (pSrc + nSrcPitch)));

	vmovq	xmm1, QWORD PTR [ecx]
	vmovq	xmm0, QWORD PTR [ecx+edx]

; 124  :           src2 = _mm_unpacklo_epi16(_mm_loadl_epi64((__m128i *) (pRef)), _mm_loadl_epi64((__m128i *) (pRef + nRefPitch)));
; 125  :         }
; 126  : #endif
; 127  :         if (sizeof(pixel_t) == 1) {
; 128  :           // this is uint_16 specific, but will test on uint8_t against external .asm SAD functions)
; 129  :           sum = _mm_add_epi32(sum, _mm_sad_epu8(src1, src2)); // yihhaaa, existing SIMD   sum1_32, 0, sum2_32, 0
; 130  :                                                               // result in two 32 bit areas at the upper and lower 64 bytes
; 131  :         }
; 132  :         else {
