; Listing generated by Microsoft (R) Optimizing Compiler Version 19.00.24215.1 

	TITLE	c:\github\mvtools\sources\variance.cpp
	.686P
	.XMM
	include listing.inc
	.model	flat

INCLUDELIB OLDNAMES

EXTRN	_Luma8x8_sse2:PROC
EXTRN	_Luma16x16_sse2:PROC
EXTRN	_Luma32x16_sse2:PROC
EXTRN	_Luma16x8_sse2:PROC
EXTRN	_Luma4x4_sse2:PROC
EXTRN	_Luma16x2_sse2:PROC
EXTRN	_Luma16x32_sse2:PROC
EXTRN	_Luma32x32_sse2:PROC
EXTRN	_Luma8x4_sse2:PROC
?piecewise_construct@std@@3Upiecewise_construct_t@1@B	ORG $+1 ; std::piecewise_construct
PUBLIC	??$?0V?$tuple@$$QAV?$tuple@HHHW4arch_t@@@std@@@std@@V?$tuple@$$V@1@$0A@$$Z$S@?$pair@$$CBV?$tuple@HHHW4arch_t@@@std@@P6AIPBEH@Z@std@@QAE@AAV?$tuple@$$QAV?$tuple@HHHW4arch_t@@@std@@@1@AAV?$tuple@$$V@1@U?$integer_sequence@I$0A@@1@U?$integer_sequence@I$S@1@@Z ; std::pair<std::tuple<int,int,int,enum arch_t> const ,unsigned int (__cdecl*)(unsigned char const *,int)>::pair<std::tuple<int,int,int,enum arch_t> const ,unsigned int (__cdecl*)(unsigned char const *,int)><std::tuple<std::tuple<int,int,int,enum arch_t> &&>,std::tuple<>,0>
PUBLIC	??$?0$$QAV?$tuple@HHHW4arch_t@@@std@@$$Z$$V@?$pair@$$CBV?$tuple@HHHW4arch_t@@@std@@P6AIPBEH@Z@std@@QAE@Upiecewise_construct_t@1@V?$tuple@$$QAV?$tuple@HHHW4arch_t@@@std@@@1@V?$tuple@$$V@1@@Z ; std::pair<std::tuple<int,int,int,enum arch_t> const ,unsigned int (__cdecl*)(unsigned char const *,int)>::pair<std::tuple<int,int,int,enum arch_t> const ,unsigned int (__cdecl*)(unsigned char const *,int)><std::tuple<int,int,int,enum arch_t> &&>
PUBLIC	??$construct@U?$pair@$$CBV?$tuple@HHHW4arch_t@@@std@@P6AIPBEH@Z@std@@ABUpiecewise_construct_t@2@V?$tuple@$$QAV?$tuple@HHHW4arch_t@@@std@@@2@V?$tuple@$$V@2@@?$allocator@U?$_Tree_node@U?$pair@$$CBV?$tuple@HHHW4arch_t@@@std@@P6AIPBEH@Z@std@@PAX@std@@@std@@QAEXPAU?$pair@$$CBV?$tuple@HHHW4arch_t@@@std@@P6AIPBEH@Z@1@ABUpiecewise_construct_t@1@$$QAV?$tuple@$$QAV?$tuple@HHHW4arch_t@@@std@@@1@$$QAV?$tuple@$$V@1@@Z ; std::allocator<std::_Tree_node<std::pair<std::tuple<int,int,int,enum arch_t> const ,unsigned int (__cdecl*)(unsigned char const *,int)>,void *> >::construct<std::pair<std::tuple<int,int,int,enum arch_t> const ,unsigned int (__cdecl*)(unsigned char const *,int)>,std::piecewise_construct_t const &,std::tuple<std::tuple<int,int,int,enum arch_t> &&>,std::tuple<> >
PUBLIC	??$_Buynode_if_nil@AAU?$pair@$$CBV?$tuple@HHHW4arch_t@@@std@@P6AIPBEH@Z@std@@@?$_Tree@V?$_Tmap_traits@V?$tuple@HHHW4arch_t@@@std@@P6AIPBEH@ZU?$less@V?$tuple@HHHW4arch_t@@@std@@@2@V?$allocator@U?$pair@$$CBV?$tuple@HHHW4arch_t@@@std@@P6AIPBEH@Z@std@@@2@$0A@@std@@@std@@IAEPAU?$_Tree_node@U?$pair@$$CBV?$tuple@HHHW4arch_t@@@std@@P6AIPBEH@Z@std@@PAX@1@PAU21@AAU?$pair@$$CBV?$tuple@HHHW4arch_t@@@std@@P6AIPBEH@Z@1@@Z ; std::_Tree<std::_Tmap_traits<std::tuple<int,int,int,enum arch_t>,unsigned int (__cdecl*)(unsigned char const *,int),std::less<std::tuple<int,int,int,enum arch_t> >,std::allocator<std::pair<std::tuple<int,int,int,enum arch_t> const ,unsigned int (__cdecl*)(unsigned char const *,int)> >,0> >::_Buynode_if_nil<std::pair<std::tuple<int,int,int,enum arch_t> const ,unsigned int (__cdecl*)(unsigned char const *,int)> &>
PUBLIC	??$construct@U?$pair@$$CBV?$tuple@HHHW4arch_t@@@std@@P6AIPBEH@Z@std@@ABUpiecewise_construct_t@2@V?$tuple@$$QAV?$tuple@HHHW4arch_t@@@std@@@2@V?$tuple@$$V@2@@?$allocator_traits@V?$allocator@U?$_Tree_node@U?$pair@$$CBV?$tuple@HHHW4arch_t@@@std@@P6AIPBEH@Z@std@@PAX@std@@@std@@@std@@SAXAAV?$allocator@U?$_Tree_node@U?$pair@$$CBV?$tuple@HHHW4arch_t@@@std@@P6AIPBEH@Z@std@@PAX@std@@@1@PAU?$pair@$$CBV?$tuple@HHHW4arch_t@@@std@@P6AIPBEH@Z@1@ABUpiecewise_construct_t@1@$$QAV?$tuple@$$QAV?$tuple@HHHW4arch_t@@@std@@@1@$$QAV?$tuple@$$V@1@@Z ; std::allocator_traits<std::allocator<std::_Tree_node<std::pair<std::tuple<int,int,int,enum arch_t> const ,unsigned int (__cdecl*)(unsigned char const *,int)>,void *> > >::construct<std::pair<std::tuple<int,int,int,enum arch_t> const ,unsigned int (__cdecl*)(unsigned char const *,int)>,std::piecewise_construct_t const &,std::tuple<std::tuple<int,int,int,enum arch_t> &&>,std::tuple<> >
PUBLIC	?max_size@?$allocator@U?$_Tree_node@U?$pair@$$CBV?$tuple@HHHW4arch_t@@@std@@P6AIPBEH@Z@std@@PAX@std@@@std@@QBEIXZ ; std::allocator<std::_Tree_node<std::pair<std::tuple<int,int,int,enum arch_t> const ,unsigned int (__cdecl*)(unsigned char const *,int)>,void *> >::max_size
PUBLIC	?max_size@?$allocator_traits@V?$allocator@U?$_Tree_node@U?$pair@$$CBV?$tuple@HHHW4arch_t@@@std@@P6AIPBEH@Z@std@@PAX@std@@@std@@@std@@SAIABV?$allocator@U?$_Tree_node@U?$pair@$$CBV?$tuple@HHHW4arch_t@@@std@@P6AIPBEH@Z@std@@PAX@std@@@2@@Z ; std::allocator_traits<std::allocator<std::_Tree_node<std::pair<std::tuple<int,int,int,enum arch_t> const ,unsigned int (__cdecl*)(unsigned char const *,int)>,void *> > >::max_size
PUBLIC	?_Get_first@?$_Compressed_pair@U?$_Wrap_alloc@V?$allocator@U?$_Tree_node@U?$pair@$$CBV?$tuple@HHHW4arch_t@@@std@@P6AIPBEH@Z@std@@PAX@std@@@std@@@std@@V?$_Tree_val@U?$_Tree_simple_types@U?$pair@$$CBV?$tuple@HHHW4arch_t@@@std@@P6AIPBEH@Z@std@@@std@@@2@$00@std@@QBEABU?$_Wrap_alloc@V?$allocator@U?$_Tree_node@U?$pair@$$CBV?$tuple@HHHW4arch_t@@@std@@P6AIPBEH@Z@std@@PAX@std@@@std@@@2@XZ ; std::_Compressed_pair<std::_Wrap_alloc<std::allocator<std::_Tree_node<std::pair<std::tuple<int,int,int,enum arch_t> const ,unsigned int (__cdecl*)(unsigned char const *,int)>,void *> > >,std::_Tree_val<std::_Tree_simple_types<std::pair<std::tuple<int,int,int,enum arch_t> const ,unsigned int (__cdecl*)(unsigned char const *,int)> > >,1>::_Get_first
PUBLIC	?_Getal@?$_Tree_comp_alloc@V?$_Tmap_traits@V?$tuple@HHHW4arch_t@@@std@@P6AIPBEH@ZU?$less@V?$tuple@HHHW4arch_t@@@std@@@2@V?$allocator@U?$pair@$$CBV?$tuple@HHHW4arch_t@@@std@@P6AIPBEH@Z@std@@@2@$0A@@std@@@std@@QBEABU?$_Wrap_alloc@V?$allocator@U?$_Tree_node@U?$pair@$$CBV?$tuple@HHHW4arch_t@@@std@@P6AIPBEH@Z@std@@PAX@std@@@std@@@2@XZ ; std::_Tree_comp_alloc<std::_Tmap_traits<std::tuple<int,int,int,enum arch_t>,unsigned int (__cdecl*)(unsigned char const *,int),std::less<std::tuple<int,int,int,enum arch_t> >,std::allocator<std::pair<std::tuple<int,int,int,enum arch_t> const ,unsigned int (__cdecl*)(unsigned char const *,int)> >,0> >::_Getal
PUBLIC	?max_size@?$_Wrap_alloc@V?$allocator@U?$_Tree_node@U?$pair@$$CBV?$tuple@HHHW4arch_t@@@std@@P6AIPBEH@Z@std@@PAX@std@@@std@@@std@@QBEIU_Nil@2@@Z ; std::_Wrap_alloc<std::allocator<std::_Tree_node<std::pair<std::tuple<int,int,int,enum arch_t> const ,unsigned int (__cdecl*)(unsigned char const *,int)>,void *> > >::max_size
PUBLIC	?max_size@?$_Tree@V?$_Tmap_traits@V?$tuple@HHHW4arch_t@@@std@@P6AIPBEH@ZU?$less@V?$tuple@HHHW4arch_t@@@std@@@2@V?$allocator@U?$pair@$$CBV?$tuple@HHHW4arch_t@@@std@@P6AIPBEH@Z@std@@@2@$0A@@std@@@std@@QBEIXZ ; std::_Tree<std::_Tmap_traits<std::tuple<int,int,int,enum arch_t>,unsigned int (__cdecl*)(unsigned char const *,int),std::less<std::tuple<int,int,int,enum arch_t> >,std::allocator<std::pair<std::tuple<int,int,int,enum arch_t> const ,unsigned int (__cdecl*)(unsigned char const *,int)> >,0> >::max_size
PUBLIC	??F?$_Tree_iterator@V?$_Tree_val@U?$_Tree_simple_types@U?$pair@$$CBV?$tuple@HHHW4arch_t@@@std@@P6AIPBEH@Z@std@@@std@@@std@@@std@@QAEAAV01@XZ ; std::_Tree_iterator<std::_Tree_val<std::_Tree_simple_types<std::pair<std::tuple<int,int,int,enum arch_t> const ,unsigned int (__cdecl*)(unsigned char const *,int)> > > >::operator--
PUBLIC	??$_Insert_nohint@AAU?$pair@$$CBV?$tuple@HHHW4arch_t@@@std@@P6AIPBEH@Z@std@@PAU?$_Tree_node@U?$pair@$$CBV?$tuple@HHHW4arch_t@@@std@@P6AIPBEH@Z@std@@PAX@2@@?$_Tree@V?$_Tmap_traits@V?$tuple@HHHW4arch_t@@@std@@P6AIPBEH@ZU?$less@V?$tuple@HHHW4arch_t@@@std@@@2@V?$allocator@U?$pair@$$CBV?$tuple@HHHW4arch_t@@@std@@P6AIPBEH@Z@std@@@2@$0A@@std@@@std@@IAE?AU?$pair@V?$_Tree_iterator@V?$_Tree_val@U?$_Tree_simple_types@U?$pair@$$CBV?$tuple@HHHW4arch_t@@@std@@P6AIPBEH@Z@std@@@std@@@std@@@std@@_N@1@_NAAU?$pair@$$CBV?$tuple@HHHW4arch_t@@@std@@P6AIPBEH@Z@1@PAU?$_Tree_node@U?$pair@$$CBV?$tuple@HHHW4arch_t@@@std@@P6AIPBEH@Z@std@@PAX@1@@Z ; std::_Tree<std::_Tmap_traits<std::tuple<int,int,int,enum arch_t>,unsigned int (__cdecl*)(unsigned char const *,int),std::less<std::tuple<int,int,int,enum arch_t> >,std::allocator<std::pair<std::tuple<int,int,int,enum arch_t> const ,unsigned int (__cdecl*)(unsigned char const *,int)> >,0> >::_Insert_nohint<std::pair<std::tuple<int,int,int,enum arch_t> const ,unsigned int (__cdecl*)(unsigned char const *,int)> &,std::_Tree_node<std::pair<std::tuple<int,int,int,enum arch_t> const ,unsigned int (__cdecl*)(unsigned char const *,int)>,void *> *>
PUBLIC	??$_Insert_at@AAU?$pair@$$CBV?$tuple@HHHW4arch_t@@@std@@P6AIPBEH@Z@std@@PAU?$_Tree_node@U?$pair@$$CBV?$tuple@HHHW4arch_t@@@std@@P6AIPBEH@Z@std@@PAX@2@@?$_Tree@V?$_Tmap_traits@V?$tuple@HHHW4arch_t@@@std@@P6AIPBEH@ZU?$less@V?$tuple@HHHW4arch_t@@@std@@@2@V?$allocator@U?$pair@$$CBV?$tuple@HHHW4arch_t@@@std@@P6AIPBEH@Z@std@@@2@$0A@@std@@@std@@IAE?AV?$_Tree_iterator@V?$_Tree_val@U?$_Tree_simple_types@U?$pair@$$CBV?$tuple@HHHW4arch_t@@@std@@P6AIPBEH@Z@std@@@std@@@std@@@1@_NPAU?$_Tree_node@U?$pair@$$CBV?$tuple@HHHW4arch_t@@@std@@P6AIPBEH@Z@std@@PAX@1@AAU?$pair@$$CBV?$tuple@HHHW4arch_t@@@std@@P6AIPBEH@Z@1@1@Z ; std::_Tree<std::_Tmap_traits<std::tuple<int,int,int,enum arch_t>,unsigned int (__cdecl*)(unsigned char const *,int),std::less<std::tuple<int,int,int,enum arch_t> >,std::allocator<std::pair<std::tuple<int,int,int,enum arch_t> const ,unsigned int (__cdecl*)(unsigned char const *,int)> >,0> >::_Insert_at<std::pair<std::tuple<int,int,int,enum arch_t> const ,unsigned int (__cdecl*)(unsigned char const *,int)> &,std::_Tree_node<std::pair<std::tuple<int,int,int,enum arch_t> const ,unsigned int (__cdecl*)(unsigned char const *,int)>,void *> *>
PUBLIC	??$forward@AAU?$pair@$$CBV?$tuple@HHHW4arch_t@@@std@@P6AIPBEH@Z@std@@@std@@YAAAU?$pair@$$CBV?$tuple@HHHW4arch_t@@@std@@P6AIPBEH@Z@0@AAU10@@Z ; std::forward<std::pair<std::tuple<int,int,int,enum arch_t> const ,unsigned int (__cdecl*)(unsigned char const *,int)> &>
PUBLIC	??$construct@U?$pair@$$CBV?$tuple@HHHW4arch_t@@@std@@P6AIPBEH@Z@std@@ABUpiecewise_construct_t@2@V?$tuple@$$QAV?$tuple@HHHW4arch_t@@@std@@@2@V?$tuple@$$V@2@@?$_Wrap_alloc@V?$allocator@U?$_Tree_node@U?$pair@$$CBV?$tuple@HHHW4arch_t@@@std@@P6AIPBEH@Z@std@@PAX@std@@@std@@@std@@QAEXPAU?$pair@$$CBV?$tuple@HHHW4arch_t@@@std@@P6AIPBEH@Z@1@ABUpiecewise_construct_t@1@$$QAV?$tuple@$$QAV?$tuple@HHHW4arch_t@@@std@@@1@$$QAV?$tuple@$$V@1@@Z ; std::_Wrap_alloc<std::allocator<std::_Tree_node<std::pair<std::tuple<int,int,int,enum arch_t> const ,unsigned int (__cdecl*)(unsigned char const *,int)>,void *> > >::construct<std::pair<std::tuple<int,int,int,enum arch_t> const ,unsigned int (__cdecl*)(unsigned char const *,int)>,std::piecewise_construct_t const &,std::tuple<std::tuple<int,int,int,enum arch_t> &&>,std::tuple<> >
PUBLIC	?_Mysize@?$_Tree_comp_alloc@V?$_Tmap_traits@V?$tuple@HHHW4arch_t@@@std@@P6AIPBEH@ZU?$less@V?$tuple@HHHW4arch_t@@@std@@@2@V?$allocator@U?$pair@$$CBV?$tuple@HHHW4arch_t@@@std@@P6AIPBEH@Z@std@@@2@$0A@@std@@@std@@QBEABIXZ ; std::_Tree_comp_alloc<std::_Tmap_traits<std::tuple<int,int,int,enum arch_t>,unsigned int (__cdecl*)(unsigned char const *,int),std::less<std::tuple<int,int,int,enum arch_t> >,std::allocator<std::pair<std::tuple<int,int,int,enum arch_t> const ,unsigned int (__cdecl*)(unsigned char const *,int)> >,0> >::_Mysize
PUBLIC	??0?$_Tree_unchecked_const_iterator@V?$_Tree_val@U?$_Tree_simple_types@U?$pair@$$CBV?$tuple@HHHW4arch_t@@@std@@P6AIPBEH@Z@std@@@std@@@std@@U_Iterator_base0@2@@std@@QAE@XZ ; std::_Tree_unchecked_const_iterator<std::_Tree_val<std::_Tree_simple_types<std::pair<std::tuple<int,int,int,enum arch_t> const ,unsigned int (__cdecl*)(unsigned char const *,int)> > >,std::_Iterator_base0>::_Tree_unchecked_const_iterator<std::_Tree_val<std::_Tree_simple_types<std::pair<std::tuple<int,int,int,enum arch_t> const ,unsigned int (__cdecl*)(unsigned char const *,int)> > >,std::_Iterator_base0>
PUBLIC	??F?$_Tree_unchecked_const_iterator@V?$_Tree_val@U?$_Tree_simple_types@U?$pair@$$CBV?$tuple@HHHW4arch_t@@@std@@P6AIPBEH@Z@std@@@std@@@std@@U_Iterator_base0@2@@std@@QAEAAV01@XZ ; std::_Tree_unchecked_const_iterator<std::_Tree_val<std::_Tree_simple_types<std::pair<std::tuple<int,int,int,enum arch_t> const ,unsigned int (__cdecl*)(unsigned char const *,int)> > >,std::_Iterator_base0>::operator--
PUBLIC	?size@?$_Tree@V?$_Tmap_traits@V?$tuple@HHHW4arch_t@@@std@@P6AIPBEH@ZU?$less@V?$tuple@HHHW4arch_t@@@std@@@2@V?$allocator@U?$pair@$$CBV?$tuple@HHHW4arch_t@@@std@@P6AIPBEH@Z@std@@@2@$0A@@std@@@std@@QBEIXZ ; std::_Tree<std::_Tmap_traits<std::tuple<int,int,int,enum arch_t>,unsigned int (__cdecl*)(unsigned char const *,int),std::less<std::tuple<int,int,int,enum arch_t> >,std::allocator<std::pair<std::tuple<int,int,int,enum arch_t> const ,unsigned int (__cdecl*)(unsigned char const *,int)> >,0> >::size
PUBLIC	?_Destroy_if_not_nil@?$_Tree@V?$_Tmap_traits@V?$tuple@HHHW4arch_t@@@std@@P6AIPBEH@ZU?$less@V?$tuple@HHHW4arch_t@@@std@@@2@V?$allocator@U?$pair@$$CBV?$tuple@HHHW4arch_t@@@std@@P6AIPBEH@Z@std@@@2@$0A@@std@@@std@@IAEXPAU?$_Tree_node@U?$pair@$$CBV?$tuple@HHHW4arch_t@@@std@@P6AIPBEH@Z@std@@PAX@2@@Z ; std::_Tree<std::_Tmap_traits<std::tuple<int,int,int,enum arch_t>,unsigned int (__cdecl*)(unsigned char const *,int),std::less<std::tuple<int,int,int,enum arch_t> >,std::allocator<std::pair<std::tuple<int,int,int,enum arch_t> const ,unsigned int (__cdecl*)(unsigned char const *,int)> >,0> >::_Destroy_if_not_nil
PUBLIC	?_Buynode0@?$_Tree_comp_alloc@V?$_Tmap_traits@V?$tuple@HHHW4arch_t@@@std@@P6AIPBEH@ZU?$less@V?$tuple@HHHW4arch_t@@@std@@@2@V?$allocator@U?$pair@$$CBV?$tuple@HHHW4arch_t@@@std@@P6AIPBEH@Z@std@@@2@$0A@@std@@@std@@QAEPAU?$_Tree_node@U?$pair@$$CBV?$tuple@HHHW4arch_t@@@std@@P6AIPBEH@Z@std@@PAX@2@XZ ; std::_Tree_comp_alloc<std::_Tmap_traits<std::tuple<int,int,int,enum arch_t>,unsigned int (__cdecl*)(unsigned char const *,int),std::less<std::tuple<int,int,int,enum arch_t> >,std::allocator<std::pair<std::tuple<int,int,int,enum arch_t> const ,unsigned int (__cdecl*)(unsigned char const *,int)> >,0> >::_Buynode0
PUBLIC	?_Freenode0@?$_Tree_comp_alloc@V?$_Tmap_traits@V?$tuple@HHHW4arch_t@@@std@@P6AIPBEH@ZU?$less@V?$tuple@HHHW4arch_t@@@std@@@2@V?$allocator@U?$pair@$$CBV?$tuple@HHHW4arch_t@@@std@@P6AIPBEH@Z@std@@@2@$0A@@std@@@std@@QAEXPAU?$_Tree_node@U?$pair@$$CBV?$tuple@HHHW4arch_t@@@std@@P6AIPBEH@Z@std@@PAX@2@@Z ; std::_Tree_comp_alloc<std::_Tmap_traits<std::tuple<int,int,int,enum arch_t>,unsigned int (__cdecl*)(unsigned char const *,int),std::less<std::tuple<int,int,int,enum arch_t> >,std::allocator<std::pair<std::tuple<int,int,int,enum arch_t> const ,unsigned int (__cdecl*)(unsigned char const *,int)> >,0> >::_Freenode0
PUBLIC	??0?$_Tree_const_iterator@V?$_Tree_val@U?$_Tree_simple_types@U?$pair@$$CBV?$tuple@HHHW4arch_t@@@std@@P6AIPBEH@Z@std@@@std@@@std@@@std@@QAE@XZ ; std::_Tree_const_iterator<std::_Tree_val<std::_Tree_simple_types<std::pair<std::tuple<int,int,int,enum arch_t> const ,unsigned int (__cdecl*)(unsigned char const *,int)> > > >::_Tree_const_iterator<std::_Tree_val<std::_Tree_simple_types<std::pair<std::tuple<int,int,int,enum arch_t> const ,unsigned int (__cdecl*)(unsigned char const *,int)> > > >
PUBLIC	??F?$_Tree_const_iterator@V?$_Tree_val@U?$_Tree_simple_types@U?$pair@$$CBV?$tuple@HHHW4arch_t@@@std@@P6AIPBEH@Z@std@@@std@@@std@@@std@@QAEAAV01@XZ ; std::_Tree_const_iterator<std::_Tree_val<std::_Tree_simple_types<std::pair<std::tuple<int,int,int,enum arch_t> const ,unsigned int (__cdecl*)(unsigned char const *,int)> > > >::operator--
PUBLIC	??$forward@AAV?$_Tree_iterator@V?$_Tree_val@U?$_Tree_simple_types@U?$pair@$$CBV?$tuple@HHHW4arch_t@@@std@@P6AIPBEH@Z@std@@@std@@@std@@@std@@@std@@YAAAV?$_Tree_iterator@V?$_Tree_val@U?$_Tree_simple_types@U?$pair@$$CBV?$tuple@HHHW4arch_t@@@std@@P6AIPBEH@Z@std@@@std@@@std@@@0@AAV10@@Z ; std::forward<std::_Tree_iterator<std::_Tree_val<std::_Tree_simple_types<std::pair<std::tuple<int,int,int,enum arch_t> const ,unsigned int (__cdecl*)(unsigned char const *,int)> > > > &>
PUBLIC	??$forward@V?$_Tree_iterator@V?$_Tree_val@U?$_Tree_simple_types@U?$pair@$$CBV?$tuple@HHHW4arch_t@@@std@@P6AIPBEH@Z@std@@@std@@@std@@@std@@@std@@YA$$QAV?$_Tree_iterator@V?$_Tree_val@U?$_Tree_simple_types@U?$pair@$$CBV?$tuple@HHHW4arch_t@@@std@@P6AIPBEH@Z@std@@@std@@@std@@@0@AAV10@@Z ; std::forward<std::_Tree_iterator<std::_Tree_val<std::_Tree_simple_types<std::pair<std::tuple<int,int,int,enum arch_t> const ,unsigned int (__cdecl*)(unsigned char const *,int)> > > > >
PUBLIC	??$_Insert_hint@AAU?$pair@$$CBV?$tuple@HHHW4arch_t@@@std@@P6AIPBEH@Z@std@@PAU?$_Tree_node@U?$pair@$$CBV?$tuple@HHHW4arch_t@@@std@@P6AIPBEH@Z@std@@PAX@2@@?$_Tree@V?$_Tmap_traits@V?$tuple@HHHW4arch_t@@@std@@P6AIPBEH@ZU?$less@V?$tuple@HHHW4arch_t@@@std@@@2@V?$allocator@U?$pair@$$CBV?$tuple@HHHW4arch_t@@@std@@P6AIPBEH@Z@std@@@2@$0A@@std@@@std@@IAE?AV?$_Tree_iterator@V?$_Tree_val@U?$_Tree_simple_types@U?$pair@$$CBV?$tuple@HHHW4arch_t@@@std@@P6AIPBEH@Z@std@@@std@@@std@@@1@V?$_Tree_const_iterator@V?$_Tree_val@U?$_Tree_simple_types@U?$pair@$$CBV?$tuple@HHHW4arch_t@@@std@@P6AIPBEH@Z@std@@@std@@@std@@@1@AAU?$pair@$$CBV?$tuple@HHHW4arch_t@@@std@@P6AIPBEH@Z@1@PAU?$_Tree_node@U?$pair@$$CBV?$tuple@HHHW4arch_t@@@std@@P6AIPBEH@Z@std@@PAX@1@@Z ; std::_Tree<std::_Tmap_traits<std::tuple<int,int,int,enum arch_t>,unsigned int (__cdecl*)(unsigned char const *,int),std::less<std::tuple<int,int,int,enum arch_t> >,std::allocator<std::pair<std::tuple<int,int,int,enum arch_t> const ,unsigned int (__cdecl*)(unsigned char const *,int)> >,0> >::_Insert_hint<std::pair<std::tuple<int,int,int,enum arch_t> const ,unsigned int (__cdecl*)(unsigned char const *,int)> &,std::_Tree_node<std::pair<std::tuple<int,int,int,enum arch_t> const ,unsigned int (__cdecl*)(unsigned char const *,int)>,void *> *>
PUBLIC	??$_Buynode@ABUpiecewise_construct_t@std@@V?$tuple@$$QAV?$tuple@HHHW4arch_t@@@std@@@2@V?$tuple@$$V@2@@?$_Tree_comp_alloc@V?$_Tmap_traits@V?$tuple@HHHW4arch_t@@@std@@P6AIPBEH@ZU?$less@V?$tuple@HHHW4arch_t@@@std@@@2@V?$allocator@U?$pair@$$CBV?$tuple@HHHW4arch_t@@@std@@P6AIPBEH@Z@std@@@2@$0A@@std@@@std@@QAEPAU?$_Tree_node@U?$pair@$$CBV?$tuple@HHHW4arch_t@@@std@@P6AIPBEH@Z@std@@PAX@1@ABUpiecewise_construct_t@1@$$QAV?$tuple@$$QAV?$tuple@HHHW4arch_t@@@std@@@1@$$QAV?$tuple@$$V@1@@Z ; std::_Tree_comp_alloc<std::_Tmap_traits<std::tuple<int,int,int,enum arch_t>,unsigned int (__cdecl*)(unsigned char const *,int),std::less<std::tuple<int,int,int,enum arch_t> >,std::allocator<std::pair<std::tuple<int,int,int,enum arch_t> const ,unsigned int (__cdecl*)(unsigned char const *,int)> >,0> >::_Buynode<std::piecewise_construct_t const &,std::tuple<std::tuple<int,int,int,enum arch_t> &&>,std::tuple<> >
PUBLIC	?_Get_first@?$_Compressed_pair@U?$less@V?$tuple@HHHW4arch_t@@@std@@@std@@V?$_Compressed_pair@U?$_Wrap_alloc@V?$allocator@U?$_Tree_node@U?$pair@$$CBV?$tuple@HHHW4arch_t@@@std@@P6AIPBEH@Z@std@@PAX@std@@@std@@@std@@V?$_Tree_val@U?$_Tree_simple_types@U?$pair@$$CBV?$tuple@HHHW4arch_t@@@std@@P6AIPBEH@Z@std@@@std@@@2@$00@2@$00@std@@QBEABU?$less@V?$tuple@HHHW4arch_t@@@std@@@2@XZ ; std::_Compressed_pair<std::less<std::tuple<int,int,int,enum arch_t> >,std::_Compressed_pair<std::_Wrap_alloc<std::allocator<std::_Tree_node<std::pair<std::tuple<int,int,int,enum arch_t> const ,unsigned int (__cdecl*)(unsigned char const *,int)>,void *> > >,std::_Tree_val<std::_Tree_simple_types<std::pair<std::tuple<int,int,int,enum arch_t> const ,unsigned int (__cdecl*)(unsigned char const *,int)> > >,1>,1>::_Get_first
PUBLIC	?_Getcomp@?$_Tree_comp_alloc@V?$_Tmap_traits@V?$tuple@HHHW4arch_t@@@std@@P6AIPBEH@ZU?$less@V?$tuple@HHHW4arch_t@@@std@@@2@V?$allocator@U?$pair@$$CBV?$tuple@HHHW4arch_t@@@std@@P6AIPBEH@Z@std@@@2@$0A@@std@@@std@@QBEABU?$less@V?$tuple@HHHW4arch_t@@@std@@@2@XZ ; std::_Tree_comp_alloc<std::_Tmap_traits<std::tuple<int,int,int,enum arch_t>,unsigned int (__cdecl*)(unsigned char const *,int),std::less<std::tuple<int,int,int,enum arch_t> >,std::allocator<std::pair<std::tuple<int,int,int,enum arch_t> const ,unsigned int (__cdecl*)(unsigned char const *,int)> >,0> >::_Getcomp
PUBLIC	?_Compare@?$_Tree@V?$_Tmap_traits@V?$tuple@HHHW4arch_t@@@std@@P6AIPBEH@ZU?$less@V?$tuple@HHHW4arch_t@@@std@@@2@V?$allocator@U?$pair@$$CBV?$tuple@HHHW4arch_t@@@std@@P6AIPBEH@Z@std@@@2@$0A@@std@@@std@@IBE_NABV?$tuple@HHHW4arch_t@@@2@0@Z ; std::_Tree<std::_Tmap_traits<std::tuple<int,int,int,enum arch_t>,unsigned int (__cdecl*)(unsigned char const *,int),std::less<std::tuple<int,int,int,enum arch_t> >,std::allocator<std::pair<std::tuple<int,int,int,enum arch_t> const ,unsigned int (__cdecl*)(unsigned char const *,int)> >,0> >::_Compare
PUBLIC	??$_Kfn@$$CBV?$tuple@HHHW4arch_t@@@std@@P6AIPBEH@Z@?$_Tmap_traits@V?$tuple@HHHW4arch_t@@@std@@P6AIPBEH@ZU?$less@V?$tuple@HHHW4arch_t@@@std@@@2@V?$allocator@U?$pair@$$CBV?$tuple@HHHW4arch_t@@@std@@P6AIPBEH@Z@std@@@2@$0A@@std@@SAABV?$tuple@HHHW4arch_t@@@1@ABU?$pair@$$CBV?$tuple@HHHW4arch_t@@@std@@P6AIPBEH@Z@1@@Z ; std::_Tmap_traits<std::tuple<int,int,int,enum arch_t>,unsigned int (__cdecl*)(unsigned char const *,int),std::less<std::tuple<int,int,int,enum arch_t> >,std::allocator<std::pair<std::tuple<int,int,int,enum arch_t> const ,unsigned int (__cdecl*)(unsigned char const *,int)> >,0>::_Kfn<std::tuple<int,int,int,enum arch_t> const ,unsigned int (__cdecl*)(unsigned char const *,int)>
PUBLIC	??$_Lbound@V?$tuple@HHHW4arch_t@@@std@@@?$_Tree@V?$_Tmap_traits@V?$tuple@HHHW4arch_t@@@std@@P6AIPBEH@ZU?$less@V?$tuple@HHHW4arch_t@@@std@@@2@V?$allocator@U?$pair@$$CBV?$tuple@HHHW4arch_t@@@std@@P6AIPBEH@Z@std@@@2@$0A@@std@@@std@@IBEPAU?$_Tree_node@U?$pair@$$CBV?$tuple@HHHW4arch_t@@@std@@P6AIPBEH@Z@std@@PAX@1@ABV?$tuple@HHHW4arch_t@@@1@@Z ; std::_Tree<std::_Tmap_traits<std::tuple<int,int,int,enum arch_t>,unsigned int (__cdecl*)(unsigned char const *,int),std::less<std::tuple<int,int,int,enum arch_t> >,std::allocator<std::pair<std::tuple<int,int,int,enum arch_t> const ,unsigned int (__cdecl*)(unsigned char const *,int)> >,0> >::_Lbound<std::tuple<int,int,int,enum arch_t> >
PUBLIC	??$construct@PAU?$_Tree_node@U?$pair@$$CBV?$tuple@HHHW4arch_t@@@std@@P6AIPBEH@Z@std@@PAX@std@@AAPAU12@@?$allocator@U?$_Tree_node@U?$pair@$$CBV?$tuple@HHHW4arch_t@@@std@@P6AIPBEH@Z@std@@PAX@std@@@std@@QAEXPAPAU?$_Tree_node@U?$pair@$$CBV?$tuple@HHHW4arch_t@@@std@@P6AIPBEH@Z@std@@PAX@1@AAPAU21@@Z ; std::allocator<std::_Tree_node<std::pair<std::tuple<int,int,int,enum arch_t> const ,unsigned int (__cdecl*)(unsigned char const *,int)>,void *> >::construct<std::_Tree_node<std::pair<std::tuple<int,int,int,enum arch_t> const ,unsigned int (__cdecl*)(unsigned char const *,int)>,void *> *,std::_Tree_node<std::pair<std::tuple<int,int,int,enum arch_t> const ,unsigned int (__cdecl*)(unsigned char const *,int)>,void *> * &>
PUBLIC	??$destroy@U?$pair@$$CBV?$tuple@HHHW4arch_t@@@std@@P6AIPBEH@Z@std@@@?$allocator@U?$_Tree_node@U?$pair@$$CBV?$tuple@HHHW4arch_t@@@std@@P6AIPBEH@Z@std@@PAX@std@@@std@@QAEXPAU?$pair@$$CBV?$tuple@HHHW4arch_t@@@std@@P6AIPBEH@Z@1@@Z ; std::allocator<std::_Tree_node<std::pair<std::tuple<int,int,int,enum arch_t> const ,unsigned int (__cdecl*)(unsigned char const *,int)>,void *> >::destroy<std::pair<std::tuple<int,int,int,enum arch_t> const ,unsigned int (__cdecl*)(unsigned char const *,int)> >
PUBLIC	??$destroy@PAU?$_Tree_node@U?$pair@$$CBV?$tuple@HHHW4arch_t@@@std@@P6AIPBEH@Z@std@@PAX@std@@@?$allocator@U?$_Tree_node@U?$pair@$$CBV?$tuple@HHHW4arch_t@@@std@@P6AIPBEH@Z@std@@PAX@std@@@std@@QAEXPAPAU?$_Tree_node@U?$pair@$$CBV?$tuple@HHHW4arch_t@@@std@@P6AIPBEH@Z@std@@PAX@1@@Z ; std::allocator<std::_Tree_node<std::pair<std::tuple<int,int,int,enum arch_t> const ,unsigned int (__cdecl*)(unsigned char const *,int)>,void *> >::destroy<std::_Tree_node<std::pair<std::tuple<int,int,int,enum arch_t> const ,unsigned int (__cdecl*)(unsigned char const *,int)>,void *> *>
PUBLIC	??$?0AAV?$_Tree_iterator@V?$_Tree_val@U?$_Tree_simple_types@U?$pair@$$CBV?$tuple@HHHW4arch_t@@@std@@P6AIPBEH@Z@std@@@std@@@std@@@std@@_NX$0A@@?$pair@V?$_Tree_iterator@V?$_Tree_val@U?$_Tree_simple_types@U?$pair@$$CBV?$tuple@HHHW4arch_t@@@std@@P6AIPBEH@Z@std@@@std@@@std@@@std@@_N@std@@QAE@AAV?$_Tree_iterator@V?$_Tree_val@U?$_Tree_simple_types@U?$pair@$$CBV?$tuple@HHHW4arch_t@@@std@@P6AIPBEH@Z@std@@@std@@@std@@@1@$$QA_N@Z ; std::pair<std::_Tree_iterator<std::_Tree_val<std::_Tree_simple_types<std::pair<std::tuple<int,int,int,enum arch_t> const ,unsigned int (__cdecl*)(unsigned char const *,int)> > > >,bool>::pair<std::_Tree_iterator<std::_Tree_val<std::_Tree_simple_types<std::pair<std::tuple<int,int,int,enum arch_t> const ,unsigned int (__cdecl*)(unsigned char const *,int)> > > >,bool><std::_Tree_iterator<std::_Tree_val<std::_Tree_simple_types<std::pair<std::tuple<int,int,int,enum arch_t> const ,unsigned int (__cdecl*)(unsigned char const *,int)> > > > &,bool,void,0>
PUBLIC	??$?0V?$_Tree_iterator@V?$_Tree_val@U?$_Tree_simple_types@U?$pair@$$CBV?$tuple@HHHW4arch_t@@@std@@P6AIPBEH@Z@std@@@std@@@std@@@std@@_NX$0A@@?$pair@V?$_Tree_iterator@V?$_Tree_val@U?$_Tree_simple_types@U?$pair@$$CBV?$tuple@HHHW4arch_t@@@std@@P6AIPBEH@Z@std@@@std@@@std@@@std@@_N@std@@QAE@$$QAV?$_Tree_iterator@V?$_Tree_val@U?$_Tree_simple_types@U?$pair@$$CBV?$tuple@HHHW4arch_t@@@std@@P6AIPBEH@Z@std@@@std@@@std@@@1@$$QA_N@Z ; std::pair<std::_Tree_iterator<std::_Tree_val<std::_Tree_simple_types<std::pair<std::tuple<int,int,int,enum arch_t> const ,unsigned int (__cdecl*)(unsigned char const *,int)> > > >,bool>::pair<std::_Tree_iterator<std::_Tree_val<std::_Tree_simple_types<std::pair<std::tuple<int,int,int,enum arch_t> const ,unsigned int (__cdecl*)(unsigned char const *,int)> > > >,bool><std::_Tree_iterator<std::_Tree_val<std::_Tree_simple_types<std::pair<std::tuple<int,int,int,enum arch_t> const ,unsigned int (__cdecl*)(unsigned char const *,int)> > > >,bool,void,0>
PUBLIC	??$emplace_hint@ABUpiecewise_construct_t@std@@V?$tuple@$$QAV?$tuple@HHHW4arch_t@@@std@@@2@V?$tuple@$$V@2@@?$_Tree@V?$_Tmap_traits@V?$tuple@HHHW4arch_t@@@std@@P6AIPBEH@ZU?$less@V?$tuple@HHHW4arch_t@@@std@@@2@V?$allocator@U?$pair@$$CBV?$tuple@HHHW4arch_t@@@std@@P6AIPBEH@Z@std@@@2@$0A@@std@@@std@@QAE?AV?$_Tree_iterator@V?$_Tree_val@U?$_Tree_simple_types@U?$pair@$$CBV?$tuple@HHHW4arch_t@@@std@@P6AIPBEH@Z@std@@@std@@@std@@@1@V?$_Tree_const_iterator@V?$_Tree_val@U?$_Tree_simple_types@U?$pair@$$CBV?$tuple@HHHW4arch_t@@@std@@P6AIPBEH@Z@std@@@std@@@std@@@1@ABUpiecewise_construct_t@1@$$QAV?$tuple@$$QAV?$tuple@HHHW4arch_t@@@std@@@1@$$QAV?$tuple@$$V@1@@Z ; std::_Tree<std::_Tmap_traits<std::tuple<int,int,int,enum arch_t>,unsigned int (__cdecl*)(unsigned char const *,int),std::less<std::tuple<int,int,int,enum arch_t> >,std::allocator<std::pair<std::tuple<int,int,int,enum arch_t> const ,unsigned int (__cdecl*)(unsigned char const *,int)> >,0> >::emplace_hint<std::piecewise_construct_t const &,std::tuple<std::tuple<int,int,int,enum arch_t> &&>,std::tuple<> >
PUBLIC	?_Kfn@?$_Tree@V?$_Tmap_traits@V?$tuple@HHHW4arch_t@@@std@@P6AIPBEH@ZU?$less@V?$tuple@HHHW4arch_t@@@std@@@2@V?$allocator@U?$pair@$$CBV?$tuple@HHHW4arch_t@@@std@@P6AIPBEH@Z@std@@@2@$0A@@std@@@std@@IBEABV?$tuple@HHHW4arch_t@@@2@ABU?$pair@$$CBV?$tuple@HHHW4arch_t@@@std@@P6AIPBEH@Z@2@@Z ; std::_Tree<std::_Tmap_traits<std::tuple<int,int,int,enum arch_t>,unsigned int (__cdecl*)(unsigned char const *,int),std::less<std::tuple<int,int,int,enum arch_t> >,std::allocator<std::pair<std::tuple<int,int,int,enum arch_t> const ,unsigned int (__cdecl*)(unsigned char const *,int)> >,0> >::_Kfn
PUBLIC	??0?$allocator@U?$_Tree_node@U?$pair@$$CBV?$tuple@HHHW4arch_t@@@std@@P6AIPBEH@Z@std@@PAX@std@@@std@@QAE@XZ ; std::allocator<std::_Tree_node<std::pair<std::tuple<int,int,int,enum arch_t> const ,unsigned int (__cdecl*)(unsigned char const *,int)>,void *> >::allocator<std::_Tree_node<std::pair<std::tuple<int,int,int,enum arch_t> const ,unsigned int (__cdecl*)(unsigned char const *,int)>,void *> >
PUBLIC	?_Get_first@?$_Compressed_pair@U?$less@V?$tuple@HHHW4arch_t@@@std@@@std@@V?$_Compressed_pair@U?$_Wrap_alloc@V?$allocator@U?$_Tree_node@U?$pair@$$CBV?$tuple@HHHW4arch_t@@@std@@P6AIPBEH@Z@std@@PAX@std@@@std@@@std@@V?$_Tree_val@U?$_Tree_simple_types@U?$pair@$$CBV?$tuple@HHHW4arch_t@@@std@@P6AIPBEH@Z@std@@@std@@@2@$00@2@$00@std@@QAEAAU?$less@V?$tuple@HHHW4arch_t@@@std@@@2@XZ ; std::_Compressed_pair<std::less<std::tuple<int,int,int,enum arch_t> >,std::_Compressed_pair<std::_Wrap_alloc<std::allocator<std::_Tree_node<std::pair<std::tuple<int,int,int,enum arch_t> const ,unsigned int (__cdecl*)(unsigned char const *,int)>,void *> > >,std::_Tree_val<std::_Tree_simple_types<std::pair<std::tuple<int,int,int,enum arch_t> const ,unsigned int (__cdecl*)(unsigned char const *,int)> > >,1>,1>::_Get_first
PUBLIC	?lower_bound@?$_Tree@V?$_Tmap_traits@V?$tuple@HHHW4arch_t@@@std@@P6AIPBEH@ZU?$less@V?$tuple@HHHW4arch_t@@@std@@@2@V?$allocator@U?$pair@$$CBV?$tuple@HHHW4arch_t@@@std@@P6AIPBEH@Z@std@@@2@$0A@@std@@@std@@QAE?AV?$_Tree_iterator@V?$_Tree_val@U?$_Tree_simple_types@U?$pair@$$CBV?$tuple@HHHW4arch_t@@@std@@P6AIPBEH@Z@std@@@std@@@std@@@2@ABV?$tuple@HHHW4arch_t@@@2@@Z ; std::_Tree<std::_Tmap_traits<std::tuple<int,int,int,enum arch_t>,unsigned int (__cdecl*)(unsigned char const *,int),std::less<std::tuple<int,int,int,enum arch_t> >,std::allocator<std::pair<std::tuple<int,int,int,enum arch_t> const ,unsigned int (__cdecl*)(unsigned char const *,int)> >,0> >::lower_bound
PUBLIC	?_Key@?$_Tree@V?$_Tmap_traits@V?$tuple@HHHW4arch_t@@@std@@P6AIPBEH@ZU?$less@V?$tuple@HHHW4arch_t@@@std@@@2@V?$allocator@U?$pair@$$CBV?$tuple@HHHW4arch_t@@@std@@P6AIPBEH@Z@std@@@2@$0A@@std@@@std@@IBEABV?$tuple@HHHW4arch_t@@@2@PAU?$_Tree_node@U?$pair@$$CBV?$tuple@HHHW4arch_t@@@std@@P6AIPBEH@Z@std@@PAX@2@@Z ; std::_Tree<std::_Tmap_traits<std::tuple<int,int,int,enum arch_t>,unsigned int (__cdecl*)(unsigned char const *,int),std::less<std::tuple<int,int,int,enum arch_t> >,std::allocator<std::pair<std::tuple<int,int,int,enum arch_t> const ,unsigned int (__cdecl*)(unsigned char const *,int)> >,0> >::_Key
PUBLIC	?_Getcomp@?$_Tree_comp_alloc@V?$_Tmap_traits@V?$tuple@HHHW4arch_t@@@std@@P6AIPBEH@ZU?$less@V?$tuple@HHHW4arch_t@@@std@@@2@V?$allocator@U?$pair@$$CBV?$tuple@HHHW4arch_t@@@std@@P6AIPBEH@Z@std@@@2@$0A@@std@@@std@@QAEAAU?$less@V?$tuple@HHHW4arch_t@@@std@@@2@XZ ; std::_Tree_comp_alloc<std::_Tmap_traits<std::tuple<int,int,int,enum arch_t>,unsigned int (__cdecl*)(unsigned char const *,int),std::less<std::tuple<int,int,int,enum arch_t> >,std::allocator<std::pair<std::tuple<int,int,int,enum arch_t> const ,unsigned int (__cdecl*)(unsigned char const *,int)> >,0> >::_Getcomp
PUBLIC	??0?$_Wrap_alloc@V?$allocator@U?$_Tree_node@U?$pair@$$CBV?$tuple@HHHW4arch_t@@@std@@P6AIPBEH@Z@std@@PAX@std@@@std@@@std@@QAE@XZ ; std::_Wrap_alloc<std::allocator<std::_Tree_node<std::pair<std::tuple<int,int,int,enum arch_t> const ,unsigned int (__cdecl*)(unsigned char const *,int)>,void *> > >::_Wrap_alloc<std::allocator<std::_Tree_node<std::pair<std::tuple<int,int,int,enum arch_t> const ,unsigned int (__cdecl*)(unsigned char const *,int)>,void *> > >
PUBLIC	??0?$_Tree_val@U?$_Tree_simple_types@U?$pair@$$CBV?$tuple@HHHW4arch_t@@@std@@P6AIPBEH@Z@std@@@std@@@std@@QAE@XZ ; std::_Tree_val<std::_Tree_simple_types<std::pair<std::tuple<int,int,int,enum arch_t> const ,unsigned int (__cdecl*)(unsigned char const *,int)> > >::_Tree_val<std::_Tree_simple_types<std::pair<std::tuple<int,int,int,enum arch_t> const ,unsigned int (__cdecl*)(unsigned char const *,int)> > >
PUBLIC	??$construct@PAU?$_Tree_node@U?$pair@$$CBV?$tuple@HHHW4arch_t@@@std@@P6AIPBEH@Z@std@@PAX@std@@AAPAU12@@?$allocator_traits@V?$allocator@U?$_Tree_node@U?$pair@$$CBV?$tuple@HHHW4arch_t@@@std@@P6AIPBEH@Z@std@@PAX@std@@@std@@@std@@SAXAAV?$allocator@U?$_Tree_node@U?$pair@$$CBV?$tuple@HHHW4arch_t@@@std@@P6AIPBEH@Z@std@@PAX@std@@@1@PAPAU?$_Tree_node@U?$pair@$$CBV?$tuple@HHHW4arch_t@@@std@@P6AIPBEH@Z@std@@PAX@1@AAPAU31@@Z ; std::allocator_traits<std::allocator<std::_Tree_node<std::pair<std::tuple<int,int,int,enum arch_t> const ,unsigned int (__cdecl*)(unsigned char const *,int)>,void *> > >::construct<std::_Tree_node<std::pair<std::tuple<int,int,int,enum arch_t> const ,unsigned int (__cdecl*)(unsigned char const *,int)>,void *> *,std::_Tree_node<std::pair<std::tuple<int,int,int,enum arch_t> const ,unsigned int (__cdecl*)(unsigned char const *,int)>,void *> * &>
PUBLIC	??$forward@AAPAU?$_Tree_node@U?$pair@$$CBV?$tuple@HHHW4arch_t@@@std@@P6AIPBEH@Z@std@@PAX@std@@@std@@YAAAPAU?$_Tree_node@U?$pair@$$CBV?$tuple@HHHW4arch_t@@@std@@P6AIPBEH@Z@std@@PAX@0@AAPAU10@@Z ; std::forward<std::_Tree_node<std::pair<std::tuple<int,int,int,enum arch_t> const ,unsigned int (__cdecl*)(unsigned char const *,int)>,void *> * &>
PUBLIC	??$destroy@U?$pair@$$CBV?$tuple@HHHW4arch_t@@@std@@P6AIPBEH@Z@std@@@?$allocator_traits@V?$allocator@U?$_Tree_node@U?$pair@$$CBV?$tuple@HHHW4arch_t@@@std@@P6AIPBEH@Z@std@@PAX@std@@@std@@@std@@SAXAAV?$allocator@U?$_Tree_node@U?$pair@$$CBV?$tuple@HHHW4arch_t@@@std@@P6AIPBEH@Z@std@@PAX@std@@@1@PAU?$pair@$$CBV?$tuple@HHHW4arch_t@@@std@@P6AIPBEH@Z@1@@Z ; std::allocator_traits<std::allocator<std::_Tree_node<std::pair<std::tuple<int,int,int,enum arch_t> const ,unsigned int (__cdecl*)(unsigned char const *,int)>,void *> > >::destroy<std::pair<std::tuple<int,int,int,enum arch_t> const ,unsigned int (__cdecl*)(unsigned char const *,int)> >
PUBLIC	??$?0$$V@?$_Compressed_pair@U?$_Wrap_alloc@V?$allocator@U?$_Tree_node@U?$pair@$$CBV?$tuple@HHHW4arch_t@@@std@@P6AIPBEH@Z@std@@PAX@std@@@std@@@std@@V?$_Tree_val@U?$_Tree_simple_types@U?$pair@$$CBV?$tuple@HHHW4arch_t@@@std@@P6AIPBEH@Z@std@@@std@@@2@$00@std@@QAE@U_Zero_then_variadic_args_t@1@@Z ; std::_Compressed_pair<std::_Wrap_alloc<std::allocator<std::_Tree_node<std::pair<std::tuple<int,int,int,enum arch_t> const ,unsigned int (__cdecl*)(unsigned char const *,int)>,void *> > >,std::_Tree_val<std::_Tree_simple_types<std::pair<std::tuple<int,int,int,enum arch_t> const ,unsigned int (__cdecl*)(unsigned char const *,int)> > >,1>::_Compressed_pair<std::_Wrap_alloc<std::allocator<std::_Tree_node<std::pair<std::tuple<int,int,int,enum arch_t> const ,unsigned int (__cdecl*)(unsigned char const *,int)>,void *> > >,std::_Tree_val<std::_Tree_simple_types<std::pair<std::tuple<int,int,int,enum arch_t> const ,unsigned int (__cdecl*)(unsigned char const *,int)> > >,1><>
PUBLIC	??$destroy@PAU?$_Tree_node@U?$pair@$$CBV?$tuple@HHHW4arch_t@@@std@@P6AIPBEH@Z@std@@PAX@std@@@?$allocator_traits@V?$allocator@U?$_Tree_node@U?$pair@$$CBV?$tuple@HHHW4arch_t@@@std@@P6AIPBEH@Z@std@@PAX@std@@@std@@@std@@SAXAAV?$allocator@U?$_Tree_node@U?$pair@$$CBV?$tuple@HHHW4arch_t@@@std@@P6AIPBEH@Z@std@@PAX@std@@@1@PAPAU?$_Tree_node@U?$pair@$$CBV?$tuple@HHHW4arch_t@@@std@@P6AIPBEH@Z@std@@PAX@1@@Z ; std::allocator_traits<std::allocator<std::_Tree_node<std::pair<std::tuple<int,int,int,enum arch_t> const ,unsigned int (__cdecl*)(unsigned char const *,int)>,void *> > >::destroy<std::_Tree_node<std::pair<std::tuple<int,int,int,enum arch_t> const ,unsigned int (__cdecl*)(unsigned char const *,int)>,void *> *>
PUBLIC	??$_Try_emplace@V?$tuple@HHHW4arch_t@@@std@@$$V@?$map@V?$tuple@HHHW4arch_t@@@std@@P6AIPBEH@ZU?$less@V?$tuple@HHHW4arch_t@@@std@@@2@V?$allocator@U?$pair@$$CBV?$tuple@HHHW4arch_t@@@std@@P6AIPBEH@Z@std@@@2@@std@@QAE?AU?$pair@V?$_Tree_iterator@V?$_Tree_val@U?$_Tree_simple_types@U?$pair@$$CBV?$tuple@HHHW4arch_t@@@std@@P6AIPBEH@Z@std@@@std@@@std@@@std@@_N@1@$$QAV?$tuple@HHHW4arch_t@@@1@@Z ; std::map<std::tuple<int,int,int,enum arch_t>,unsigned int (__cdecl*)(unsigned char const *,int),std::less<std::tuple<int,int,int,enum arch_t> >,std::allocator<std::pair<std::tuple<int,int,int,enum arch_t> const ,unsigned int (__cdecl*)(unsigned char const *,int)> > >::_Try_emplace<std::tuple<int,int,int,enum arch_t> >
PUBLIC	??$construct@PAU?$_Tree_node@U?$pair@$$CBV?$tuple@HHHW4arch_t@@@std@@P6AIPBEH@Z@std@@PAX@std@@AAPAU12@@?$_Wrap_alloc@V?$allocator@U?$_Tree_node@U?$pair@$$CBV?$tuple@HHHW4arch_t@@@std@@P6AIPBEH@Z@std@@PAX@std@@@std@@@std@@QAEXPAPAU?$_Tree_node@U?$pair@$$CBV?$tuple@HHHW4arch_t@@@std@@P6AIPBEH@Z@std@@PAX@1@AAPAU21@@Z ; std::_Wrap_alloc<std::allocator<std::_Tree_node<std::pair<std::tuple<int,int,int,enum arch_t> const ,unsigned int (__cdecl*)(unsigned char const *,int)>,void *> > >::construct<std::_Tree_node<std::pair<std::tuple<int,int,int,enum arch_t> const ,unsigned int (__cdecl*)(unsigned char const *,int)>,void *> *,std::_Tree_node<std::pair<std::tuple<int,int,int,enum arch_t> const ,unsigned int (__cdecl*)(unsigned char const *,int)>,void *> * &>
PUBLIC	??$destroy@U?$pair@$$CBV?$tuple@HHHW4arch_t@@@std@@P6AIPBEH@Z@std@@@?$_Wrap_alloc@V?$allocator@U?$_Tree_node@U?$pair@$$CBV?$tuple@HHHW4arch_t@@@std@@P6AIPBEH@Z@std@@PAX@std@@@std@@@std@@QAEXPAU?$pair@$$CBV?$tuple@HHHW4arch_t@@@std@@P6AIPBEH@Z@1@@Z ; std::_Wrap_alloc<std::allocator<std::_Tree_node<std::pair<std::tuple<int,int,int,enum arch_t> const ,unsigned int (__cdecl*)(unsigned char const *,int)>,void *> > >::destroy<std::pair<std::tuple<int,int,int,enum arch_t> const ,unsigned int (__cdecl*)(unsigned char const *,int)> >
PUBLIC	??$?0ABU?$less@V?$tuple@HHHW4arch_t@@@std@@@std@@U_Zero_then_variadic_args_t@1@@?$_Compressed_pair@U?$less@V?$tuple@HHHW4arch_t@@@std@@@std@@V?$_Compressed_pair@U?$_Wrap_alloc@V?$allocator@U?$_Tree_node@U?$pair@$$CBV?$tuple@HHHW4arch_t@@@std@@P6AIPBEH@Z@std@@PAX@std@@@std@@@std@@V?$_Tree_val@U?$_Tree_simple_types@U?$pair@$$CBV?$tuple@HHHW4arch_t@@@std@@P6AIPBEH@Z@std@@@std@@@2@$00@2@$00@std@@QAE@U_One_then_variadic_args_t@1@ABU?$less@V?$tuple@HHHW4arch_t@@@std@@@1@$$QAU_Zero_then_variadic_args_t@1@@Z ; std::_Compressed_pair<std::less<std::tuple<int,int,int,enum arch_t> >,std::_Compressed_pair<std::_Wrap_alloc<std::allocator<std::_Tree_node<std::pair<std::tuple<int,int,int,enum arch_t> const ,unsigned int (__cdecl*)(unsigned char const *,int)>,void *> > >,std::_Tree_val<std::_Tree_simple_types<std::pair<std::tuple<int,int,int,enum arch_t> const ,unsigned int (__cdecl*)(unsigned char const *,int)> > >,1>,1>::_Compressed_pair<std::less<std::tuple<int,int,int,enum arch_t> >,std::_Compressed_pair<std::_Wrap_alloc<std::allocator<std::_Tree_node<std::pair<std::tuple<int,int,int,enum arch_t> const ,unsigned int (__cdecl*)(unsigned char const *,int)>,void *> > >,std::_Tree_val<std::_Tree_simple_types<std::pair<std::tuple<int,int,int,enum arch_t> const ,unsigned int (__cdecl*)(unsigned char const *,int)> > >,1>,1><std::less<std::tuple<int,int,int,enum arch_t> > const &,std::_Zero_then_variadic_args_t>
PUBLIC	??$destroy@PAU?$_Tree_node@U?$pair@$$CBV?$tuple@HHHW4arch_t@@@std@@P6AIPBEH@Z@std@@PAX@std@@@?$_Wrap_alloc@V?$allocator@U?$_Tree_node@U?$pair@$$CBV?$tuple@HHHW4arch_t@@@std@@P6AIPBEH@Z@std@@PAX@std@@@std@@@std@@QAEXPAPAU?$_Tree_node@U?$pair@$$CBV?$tuple@HHHW4arch_t@@@std@@P6AIPBEH@Z@std@@PAX@1@@Z ; std::_Wrap_alloc<std::allocator<std::_Tree_node<std::pair<std::tuple<int,int,int,enum arch_t> const ,unsigned int (__cdecl*)(unsigned char const *,int)>,void *> > >::destroy<std::_Tree_node<std::pair<std::tuple<int,int,int,enum arch_t> const ,unsigned int (__cdecl*)(unsigned char const *,int)>,void *> *>
PUBLIC	??$addressof@PAU?$_Tree_node@U?$pair@$$CBV?$tuple@HHHW4arch_t@@@std@@P6AIPBEH@Z@std@@PAX@std@@@std@@YAPAPAU?$_Tree_node@U?$pair@$$CBV?$tuple@HHHW4arch_t@@@std@@P6AIPBEH@Z@std@@PAX@0@AAPAU10@@Z ; std::addressof<std::_Tree_node<std::pair<std::tuple<int,int,int,enum arch_t> const ,unsigned int (__cdecl*)(unsigned char const *,int)>,void *> *>
PUBLIC	??$addressof@U?$pair@$$CBV?$tuple@HHHW4arch_t@@@std@@P6AIPBEH@Z@std@@@std@@YAPAU?$pair@$$CBV?$tuple@HHHW4arch_t@@@std@@P6AIPBEH@Z@0@AAU10@@Z ; std::addressof<std::pair<std::tuple<int,int,int,enum arch_t> const ,unsigned int (__cdecl*)(unsigned char const *,int)> >
PUBLIC	??$try_emplace@$$V@?$map@V?$tuple@HHHW4arch_t@@@std@@P6AIPBEH@ZU?$less@V?$tuple@HHHW4arch_t@@@std@@@2@V?$allocator@U?$pair@$$CBV?$tuple@HHHW4arch_t@@@std@@P6AIPBEH@Z@std@@@2@@std@@QAE?AU?$pair@V?$_Tree_iterator@V?$_Tree_val@U?$_Tree_simple_types@U?$pair@$$CBV?$tuple@HHHW4arch_t@@@std@@P6AIPBEH@Z@std@@@std@@@std@@@std@@_N@1@$$QAV?$tuple@HHHW4arch_t@@@1@@Z ; std::map<std::tuple<int,int,int,enum arch_t>,unsigned int (__cdecl*)(unsigned char const *,int),std::less<std::tuple<int,int,int,enum arch_t> >,std::allocator<std::pair<std::tuple<int,int,int,enum arch_t> const ,unsigned int (__cdecl*)(unsigned char const *,int)> > >::try_emplace<>
PUBLIC	??$Luma16_sse2@$03$01G@@YAIPBEH@Z		; Luma16_sse2<4,2,unsigned short>
PUBLIC	??$Luma16_sse2@$03$03G@@YAIPBEH@Z		; Luma16_sse2<4,4,unsigned short>
PUBLIC	??$Luma16_sse2@$03$07G@@YAIPBEH@Z		; Luma16_sse2<4,8,unsigned short>
PUBLIC	??$Luma16_sse2@$07$00G@@YAIPBEH@Z		; Luma16_sse2<8,1,unsigned short>
PUBLIC	??$Luma16_sse2@$07$01G@@YAIPBEH@Z		; Luma16_sse2<8,2,unsigned short>
PUBLIC	??$Luma16_sse2@$07$03G@@YAIPBEH@Z		; Luma16_sse2<8,4,unsigned short>
PUBLIC	??$Luma16_sse2@$07$07G@@YAIPBEH@Z		; Luma16_sse2<8,8,unsigned short>
PUBLIC	??$Luma16_sse2@$07$0BA@G@@YAIPBEH@Z		; Luma16_sse2<8,16,unsigned short>
PUBLIC	??$Luma16_sse2@$0BA@$00G@@YAIPBEH@Z		; Luma16_sse2<16,1,unsigned short>
PUBLIC	??$Luma16_sse2@$0BA@$01G@@YAIPBEH@Z		; Luma16_sse2<16,2,unsigned short>
PUBLIC	??$Luma16_sse2@$0BA@$03G@@YAIPBEH@Z		; Luma16_sse2<16,4,unsigned short>
PUBLIC	??$Luma16_sse2@$0BA@$07G@@YAIPBEH@Z		; Luma16_sse2<16,8,unsigned short>
PUBLIC	??$Luma16_sse2@$0BA@$0BA@G@@YAIPBEH@Z		; Luma16_sse2<16,16,unsigned short>
PUBLIC	??$Luma16_sse2@$0BA@$0CA@G@@YAIPBEH@Z		; Luma16_sse2<16,32,unsigned short>
PUBLIC	??$Luma16_sse2@$0CA@$07G@@YAIPBEH@Z		; Luma16_sse2<32,8,unsigned short>
PUBLIC	??$Luma16_sse2@$0CA@$0BA@G@@YAIPBEH@Z		; Luma16_sse2<32,16,unsigned short>
PUBLIC	??$Luma16_sse2@$0CA@$0CA@G@@YAIPBEH@Z		; Luma16_sse2<32,32,unsigned short>
PUBLIC	??$Luma_C@$01$00G@@YAIPBEH@Z			; Luma_C<2,1,unsigned short>
PUBLIC	??$Luma_C@$01$01G@@YAIPBEH@Z			; Luma_C<2,2,unsigned short>
PUBLIC	??$Luma_C@$01$03G@@YAIPBEH@Z			; Luma_C<2,4,unsigned short>
PUBLIC	??$Luma_C@$03$00G@@YAIPBEH@Z			; Luma_C<4,1,unsigned short>
PUBLIC	??$Luma_C@$03$01G@@YAIPBEH@Z			; Luma_C<4,2,unsigned short>
PUBLIC	??$Luma_C@$03$03G@@YAIPBEH@Z			; Luma_C<4,4,unsigned short>
PUBLIC	??$Luma_C@$03$07G@@YAIPBEH@Z			; Luma_C<4,8,unsigned short>
PUBLIC	??$Luma_C@$07$00G@@YAIPBEH@Z			; Luma_C<8,1,unsigned short>
PUBLIC	??$Luma_C@$07$01G@@YAIPBEH@Z			; Luma_C<8,2,unsigned short>
PUBLIC	??$Luma_C@$07$03G@@YAIPBEH@Z			; Luma_C<8,4,unsigned short>
PUBLIC	??$Luma_C@$07$07G@@YAIPBEH@Z			; Luma_C<8,8,unsigned short>
PUBLIC	??$Luma_C@$07$0BA@G@@YAIPBEH@Z			; Luma_C<8,16,unsigned short>
PUBLIC	??$Luma_C@$0BA@$00G@@YAIPBEH@Z			; Luma_C<16,1,unsigned short>
PUBLIC	??$Luma_C@$0BA@$01G@@YAIPBEH@Z			; Luma_C<16,2,unsigned short>
PUBLIC	??$Luma_C@$0BA@$03G@@YAIPBEH@Z			; Luma_C<16,4,unsigned short>
PUBLIC	??$Luma_C@$0BA@$07G@@YAIPBEH@Z			; Luma_C<16,8,unsigned short>
PUBLIC	??$Luma_C@$0BA@$0BA@G@@YAIPBEH@Z		; Luma_C<16,16,unsigned short>
PUBLIC	??$Luma_C@$0BA@$0CA@G@@YAIPBEH@Z		; Luma_C<16,32,unsigned short>
PUBLIC	??$Luma_C@$0CA@$07G@@YAIPBEH@Z			; Luma_C<32,8,unsigned short>
PUBLIC	??$Luma_C@$0CA@$0BA@G@@YAIPBEH@Z		; Luma_C<32,16,unsigned short>
PUBLIC	??$Luma_C@$0CA@$0CA@G@@YAIPBEH@Z		; Luma_C<32,32,unsigned short>
PUBLIC	??$Luma_C@$01$00E@@YAIPBEH@Z			; Luma_C<2,1,unsigned char>
PUBLIC	??$Luma_C@$01$01E@@YAIPBEH@Z			; Luma_C<2,2,unsigned char>
PUBLIC	??$Luma_C@$01$03E@@YAIPBEH@Z			; Luma_C<2,4,unsigned char>
PUBLIC	??$Luma_C@$03$00E@@YAIPBEH@Z			; Luma_C<4,1,unsigned char>
PUBLIC	??$Luma_C@$03$01E@@YAIPBEH@Z			; Luma_C<4,2,unsigned char>
PUBLIC	??$Luma_C@$03$03E@@YAIPBEH@Z			; Luma_C<4,4,unsigned char>
PUBLIC	??$Luma_C@$03$07E@@YAIPBEH@Z			; Luma_C<4,8,unsigned char>
PUBLIC	??$Luma_C@$07$00E@@YAIPBEH@Z			; Luma_C<8,1,unsigned char>
PUBLIC	??$Luma_C@$07$01E@@YAIPBEH@Z			; Luma_C<8,2,unsigned char>
PUBLIC	??$Luma_C@$07$03E@@YAIPBEH@Z			; Luma_C<8,4,unsigned char>
PUBLIC	??$Luma_C@$07$07E@@YAIPBEH@Z			; Luma_C<8,8,unsigned char>
PUBLIC	??$Luma_C@$07$0BA@E@@YAIPBEH@Z			; Luma_C<8,16,unsigned char>
PUBLIC	??$Luma_C@$0BA@$00E@@YAIPBEH@Z			; Luma_C<16,1,unsigned char>
PUBLIC	??$Luma_C@$0BA@$01E@@YAIPBEH@Z			; Luma_C<16,2,unsigned char>
PUBLIC	??$Luma_C@$0BA@$03E@@YAIPBEH@Z			; Luma_C<16,4,unsigned char>
PUBLIC	??$Luma_C@$0BA@$07E@@YAIPBEH@Z			; Luma_C<16,8,unsigned char>
PUBLIC	??$Luma_C@$0BA@$0BA@E@@YAIPBEH@Z		; Luma_C<16,16,unsigned char>
PUBLIC	??$Luma_C@$0BA@$0CA@E@@YAIPBEH@Z		; Luma_C<16,32,unsigned char>
PUBLIC	??$Luma_C@$0CA@$07E@@YAIPBEH@Z			; Luma_C<32,8,unsigned char>
PUBLIC	??$Luma_C@$0CA@$0BA@E@@YAIPBEH@Z		; Luma_C<32,16,unsigned char>
PUBLIC	??$Luma_C@$0CA@$0CA@E@@YAIPBEH@Z		; Luma_C<32,32,unsigned char>
PUBLIC	?allocate@?$allocator@U?$_Tree_node@U?$pair@$$CBV?$tuple@HHHW4arch_t@@@std@@P6AIPBEH@Z@std@@PAX@std@@@std@@QAEPAU?$_Tree_node@U?$pair@$$CBV?$tuple@HHHW4arch_t@@@std@@P6AIPBEH@Z@std@@PAX@2@I@Z ; std::allocator<std::_Tree_node<std::pair<std::tuple<int,int,int,enum arch_t> const ,unsigned int (__cdecl*)(unsigned char const *,int)>,void *> >::allocate
PUBLIC	?_Get_second@?$_Compressed_pair@U?$_Wrap_alloc@V?$allocator@U?$_Tree_node@U?$pair@$$CBV?$tuple@HHHW4arch_t@@@std@@P6AIPBEH@Z@std@@PAX@std@@@std@@@std@@V?$_Tree_val@U?$_Tree_simple_types@U?$pair@$$CBV?$tuple@HHHW4arch_t@@@std@@P6AIPBEH@Z@std@@@std@@@2@$00@std@@QBEABV?$_Tree_val@U?$_Tree_simple_types@U?$pair@$$CBV?$tuple@HHHW4arch_t@@@std@@P6AIPBEH@Z@std@@@std@@@2@XZ ; std::_Compressed_pair<std::_Wrap_alloc<std::allocator<std::_Tree_node<std::pair<std::tuple<int,int,int,enum arch_t> const ,unsigned int (__cdecl*)(unsigned char const *,int)>,void *> > >,std::_Tree_val<std::_Tree_simple_types<std::pair<std::tuple<int,int,int,enum arch_t> const ,unsigned int (__cdecl*)(unsigned char const *,int)> > >,1>::_Get_second
PUBLIC	?_Get_second@?$_Compressed_pair@U?$less@V?$tuple@HHHW4arch_t@@@std@@@std@@V?$_Compressed_pair@U?$_Wrap_alloc@V?$allocator@U?$_Tree_node@U?$pair@$$CBV?$tuple@HHHW4arch_t@@@std@@P6AIPBEH@Z@std@@PAX@std@@@std@@@std@@V?$_Tree_val@U?$_Tree_simple_types@U?$pair@$$CBV?$tuple@HHHW4arch_t@@@std@@P6AIPBEH@Z@std@@@std@@@2@$00@2@$00@std@@QBEABV?$_Compressed_pair@U?$_Wrap_alloc@V?$allocator@U?$_Tree_node@U?$pair@$$CBV?$tuple@HHHW4arch_t@@@std@@P6AIPBEH@Z@std@@PAX@std@@@std@@@std@@V?$_Tree_val@U?$_Tree_simple_types@U?$pair@$$CBV?$tuple@HHHW4arch_t@@@std@@P6AIPBEH@Z@std@@@std@@@2@$00@2@XZ ; std::_Compressed_pair<std::less<std::tuple<int,int,int,enum arch_t> >,std::_Compressed_pair<std::_Wrap_alloc<std::allocator<std::_Tree_node<std::pair<std::tuple<int,int,int,enum arch_t> const ,unsigned int (__cdecl*)(unsigned char const *,int)>,void *> > >,std::_Tree_val<std::_Tree_simple_types<std::pair<std::tuple<int,int,int,enum arch_t> const ,unsigned int (__cdecl*)(unsigned char const *,int)> > >,1>,1>::_Get_second
PUBLIC	?_Get_data@?$_Tree_comp_alloc@V?$_Tmap_traits@V?$tuple@HHHW4arch_t@@@std@@P6AIPBEH@ZU?$less@V?$tuple@HHHW4arch_t@@@std@@@2@V?$allocator@U?$pair@$$CBV?$tuple@HHHW4arch_t@@@std@@P6AIPBEH@Z@std@@@2@$0A@@std@@@std@@QBEABV?$_Tree_val@U?$_Tree_simple_types@U?$pair@$$CBV?$tuple@HHHW4arch_t@@@std@@P6AIPBEH@Z@std@@@std@@@2@XZ ; std::_Tree_comp_alloc<std::_Tmap_traits<std::tuple<int,int,int,enum arch_t>,unsigned int (__cdecl*)(unsigned char const *,int),std::less<std::tuple<int,int,int,enum arch_t> >,std::allocator<std::pair<std::tuple<int,int,int,enum arch_t> const ,unsigned int (__cdecl*)(unsigned char const *,int)> >,0> >::_Get_data
PUBLIC	?allocate@?$_Wrap_alloc@V?$allocator@U?$_Tree_node@U?$pair@$$CBV?$tuple@HHHW4arch_t@@@std@@P6AIPBEH@Z@std@@PAX@std@@@std@@@std@@QAEPAU?$_Tree_node@U?$pair@$$CBV?$tuple@HHHW4arch_t@@@std@@P6AIPBEH@Z@std@@PAX@2@I@Z ; std::_Wrap_alloc<std::allocator<std::_Tree_node<std::pair<std::tuple<int,int,int,enum arch_t> const ,unsigned int (__cdecl*)(unsigned char const *,int)>,void *> > >::allocate
PUBLIC	?_Color@?$_Tree_val@U?$_Tree_simple_types@U?$pair@$$CBV?$tuple@HHHW4arch_t@@@std@@P6AIPBEH@Z@std@@@std@@@std@@SAAADPAU?$_Tree_node@U?$pair@$$CBV?$tuple@HHHW4arch_t@@@std@@P6AIPBEH@Z@std@@PAX@2@@Z ; std::_Tree_val<std::_Tree_simple_types<std::pair<std::tuple<int,int,int,enum arch_t> const ,unsigned int (__cdecl*)(unsigned char const *,int)> > >::_Color
PUBLIC	?_Isnil@?$_Tree_val@U?$_Tree_simple_types@U?$pair@$$CBV?$tuple@HHHW4arch_t@@@std@@P6AIPBEH@Z@std@@@std@@@std@@SAAADPAU?$_Tree_node@U?$pair@$$CBV?$tuple@HHHW4arch_t@@@std@@P6AIPBEH@Z@std@@PAX@2@@Z ; std::_Tree_val<std::_Tree_simple_types<std::pair<std::tuple<int,int,int,enum arch_t> const ,unsigned int (__cdecl*)(unsigned char const *,int)> > >::_Isnil
PUBLIC	?_Max@?$_Tree_val@U?$_Tree_simple_types@U?$pair@$$CBV?$tuple@HHHW4arch_t@@@std@@P6AIPBEH@Z@std@@@std@@@std@@SAPAU?$_Tree_node@U?$pair@$$CBV?$tuple@HHHW4arch_t@@@std@@P6AIPBEH@Z@std@@PAX@2@PAU32@@Z ; std::_Tree_val<std::_Tree_simple_types<std::pair<std::tuple<int,int,int,enum arch_t> const ,unsigned int (__cdecl*)(unsigned char const *,int)> > >::_Max
PUBLIC	?_Min@?$_Tree_val@U?$_Tree_simple_types@U?$pair@$$CBV?$tuple@HHHW4arch_t@@@std@@P6AIPBEH@Z@std@@@std@@@std@@SAPAU?$_Tree_node@U?$pair@$$CBV?$tuple@HHHW4arch_t@@@std@@P6AIPBEH@Z@std@@PAX@2@PAU32@@Z ; std::_Tree_val<std::_Tree_simple_types<std::pair<std::tuple<int,int,int,enum arch_t> const ,unsigned int (__cdecl*)(unsigned char const *,int)> > >::_Min
PUBLIC	??0?$_Tree_unchecked_const_iterator@V?$_Tree_val@U?$_Tree_simple_types@U?$pair@$$CBV?$tuple@HHHW4arch_t@@@std@@P6AIPBEH@Z@std@@@std@@@std@@U_Iterator_base0@2@@std@@QAE@PAU?$_Tree_node@U?$pair@$$CBV?$tuple@HHHW4arch_t@@@std@@P6AIPBEH@Z@std@@PAX@1@PBV?$_Tree_val@U?$_Tree_simple_types@U?$pair@$$CBV?$tuple@HHHW4arch_t@@@std@@P6AIPBEH@Z@std@@@std@@@1@@Z ; std::_Tree_unchecked_const_iterator<std::_Tree_val<std::_Tree_simple_types<std::pair<std::tuple<int,int,int,enum arch_t> const ,unsigned int (__cdecl*)(unsigned char const *,int)> > >,std::_Iterator_base0>::_Tree_unchecked_const_iterator<std::_Tree_val<std::_Tree_simple_types<std::pair<std::tuple<int,int,int,enum arch_t> const ,unsigned int (__cdecl*)(unsigned char const *,int)> > >,std::_Iterator_base0>
PUBLIC	??E?$_Tree_unchecked_const_iterator@V?$_Tree_val@U?$_Tree_simple_types@U?$pair@$$CBV?$tuple@HHHW4arch_t@@@std@@P6AIPBEH@Z@std@@@std@@@std@@U_Iterator_base0@2@@std@@QAEAAV01@XZ ; std::_Tree_unchecked_const_iterator<std::_Tree_val<std::_Tree_simple_types<std::pair<std::tuple<int,int,int,enum arch_t> const ,unsigned int (__cdecl*)(unsigned char const *,int)> > >,std::_Iterator_base0>::operator++
PUBLIC	?_Erase@?$_Tree@V?$_Tmap_traits@V?$tuple@HHHW4arch_t@@@std@@P6AIPBEH@ZU?$less@V?$tuple@HHHW4arch_t@@@std@@@2@V?$allocator@U?$pair@$$CBV?$tuple@HHHW4arch_t@@@std@@P6AIPBEH@Z@std@@@2@$0A@@std@@@std@@IAEXPAU?$_Tree_node@U?$pair@$$CBV?$tuple@HHHW4arch_t@@@std@@P6AIPBEH@Z@std@@PAX@2@@Z ; std::_Tree<std::_Tmap_traits<std::tuple<int,int,int,enum arch_t>,unsigned int (__cdecl*)(unsigned char const *,int),std::less<std::tuple<int,int,int,enum arch_t> >,std::allocator<std::pair<std::tuple<int,int,int,enum arch_t> const ,unsigned int (__cdecl*)(unsigned char const *,int)> >,0> >::_Erase
PUBLIC	?_Lrotate@?$_Tree@V?$_Tmap_traits@V?$tuple@HHHW4arch_t@@@std@@P6AIPBEH@ZU?$less@V?$tuple@HHHW4arch_t@@@std@@@2@V?$allocator@U?$pair@$$CBV?$tuple@HHHW4arch_t@@@std@@P6AIPBEH@Z@std@@@2@$0A@@std@@@std@@IAEXPAU?$_Tree_node@U?$pair@$$CBV?$tuple@HHHW4arch_t@@@std@@P6AIPBEH@Z@std@@PAX@2@@Z ; std::_Tree<std::_Tmap_traits<std::tuple<int,int,int,enum arch_t>,unsigned int (__cdecl*)(unsigned char const *,int),std::less<std::tuple<int,int,int,enum arch_t> >,std::allocator<std::pair<std::tuple<int,int,int,enum arch_t> const ,unsigned int (__cdecl*)(unsigned char const *,int)> >,0> >::_Lrotate
PUBLIC	?_Rmost@?$_Tree@V?$_Tmap_traits@V?$tuple@HHHW4arch_t@@@std@@P6AIPBEH@ZU?$less@V?$tuple@HHHW4arch_t@@@std@@@2@V?$allocator@U?$pair@$$CBV?$tuple@HHHW4arch_t@@@std@@P6AIPBEH@Z@std@@@2@$0A@@std@@@std@@IBEAAPAU?$_Tree_node@U?$pair@$$CBV?$tuple@HHHW4arch_t@@@std@@P6AIPBEH@Z@std@@PAX@2@XZ ; std::_Tree<std::_Tmap_traits<std::tuple<int,int,int,enum arch_t>,unsigned int (__cdecl*)(unsigned char const *,int),std::less<std::tuple<int,int,int,enum arch_t> >,std::allocator<std::pair<std::tuple<int,int,int,enum arch_t> const ,unsigned int (__cdecl*)(unsigned char const *,int)> >,0> >::_Rmost
PUBLIC	?_Root@?$_Tree@V?$_Tmap_traits@V?$tuple@HHHW4arch_t@@@std@@P6AIPBEH@ZU?$less@V?$tuple@HHHW4arch_t@@@std@@@2@V?$allocator@U?$pair@$$CBV?$tuple@HHHW4arch_t@@@std@@P6AIPBEH@Z@std@@@2@$0A@@std@@@std@@IBEAAPAU?$_Tree_node@U?$pair@$$CBV?$tuple@HHHW4arch_t@@@std@@P6AIPBEH@Z@std@@PAX@2@XZ ; std::_Tree<std::_Tmap_traits<std::tuple<int,int,int,enum arch_t>,unsigned int (__cdecl*)(unsigned char const *,int),std::less<std::tuple<int,int,int,enum arch_t> >,std::allocator<std::pair<std::tuple<int,int,int,enum arch_t> const ,unsigned int (__cdecl*)(unsigned char const *,int)> >,0> >::_Root
PUBLIC	?_Rrotate@?$_Tree@V?$_Tmap_traits@V?$tuple@HHHW4arch_t@@@std@@P6AIPBEH@ZU?$less@V?$tuple@HHHW4arch_t@@@std@@@2@V?$allocator@U?$pair@$$CBV?$tuple@HHHW4arch_t@@@std@@P6AIPBEH@Z@std@@@2@$0A@@std@@@std@@IAEXPAU?$_Tree_node@U?$pair@$$CBV?$tuple@HHHW4arch_t@@@std@@P6AIPBEH@Z@std@@PAX@2@@Z ; std::_Tree<std::_Tmap_traits<std::tuple<int,int,int,enum arch_t>,unsigned int (__cdecl*)(unsigned char const *,int),std::less<std::tuple<int,int,int,enum arch_t> >,std::allocator<std::pair<std::tuple<int,int,int,enum arch_t> const ,unsigned int (__cdecl*)(unsigned char const *,int)> >,0> >::_Rrotate
PUBLIC	?_Color@?$_Tree_comp_alloc@V?$_Tmap_traits@V?$tuple@HHHW4arch_t@@@std@@P6AIPBEH@ZU?$less@V?$tuple@HHHW4arch_t@@@std@@@2@V?$allocator@U?$pair@$$CBV?$tuple@HHHW4arch_t@@@std@@P6AIPBEH@Z@std@@@2@$0A@@std@@@std@@SAAADPAU?$_Tree_node@U?$pair@$$CBV?$tuple@HHHW4arch_t@@@std@@P6AIPBEH@Z@std@@PAX@2@@Z ; std::_Tree_comp_alloc<std::_Tmap_traits<std::tuple<int,int,int,enum arch_t>,unsigned int (__cdecl*)(unsigned char const *,int),std::less<std::tuple<int,int,int,enum arch_t> >,std::allocator<std::pair<std::tuple<int,int,int,enum arch_t> const ,unsigned int (__cdecl*)(unsigned char const *,int)> >,0> >::_Color
PUBLIC	?_Isnil@?$_Tree_comp_alloc@V?$_Tmap_traits@V?$tuple@HHHW4arch_t@@@std@@P6AIPBEH@ZU?$less@V?$tuple@HHHW4arch_t@@@std@@@2@V?$allocator@U?$pair@$$CBV?$tuple@HHHW4arch_t@@@std@@P6AIPBEH@Z@std@@@2@$0A@@std@@@std@@SAAADPAU?$_Tree_node@U?$pair@$$CBV?$tuple@HHHW4arch_t@@@std@@P6AIPBEH@Z@std@@PAX@2@@Z ; std::_Tree_comp_alloc<std::_Tmap_traits<std::tuple<int,int,int,enum arch_t>,unsigned int (__cdecl*)(unsigned char const *,int),std::less<std::tuple<int,int,int,enum arch_t> >,std::allocator<std::pair<std::tuple<int,int,int,enum arch_t> const ,unsigned int (__cdecl*)(unsigned char const *,int)> >,0> >::_Isnil
PUBLIC	?_Myval@?$_Tree_comp_alloc@V?$_Tmap_traits@V?$tuple@HHHW4arch_t@@@std@@P6AIPBEH@ZU?$less@V?$tuple@HHHW4arch_t@@@std@@@2@V?$allocator@U?$pair@$$CBV?$tuple@HHHW4arch_t@@@std@@P6AIPBEH@Z@std@@@2@$0A@@std@@@std@@SAAAU?$pair@$$CBV?$tuple@HHHW4arch_t@@@std@@P6AIPBEH@Z@2@PAU?$_Tree_node@U?$pair@$$CBV?$tuple@HHHW4arch_t@@@std@@P6AIPBEH@Z@std@@PAX@2@@Z ; std::_Tree_comp_alloc<std::_Tmap_traits<std::tuple<int,int,int,enum arch_t>,unsigned int (__cdecl*)(unsigned char const *,int),std::less<std::tuple<int,int,int,enum arch_t> >,std::allocator<std::pair<std::tuple<int,int,int,enum arch_t> const ,unsigned int (__cdecl*)(unsigned char const *,int)> >,0> >::_Myval
PUBLIC	?_Max@?$_Tree_comp_alloc@V?$_Tmap_traits@V?$tuple@HHHW4arch_t@@@std@@P6AIPBEH@ZU?$less@V?$tuple@HHHW4arch_t@@@std@@@2@V?$allocator@U?$pair@$$CBV?$tuple@HHHW4arch_t@@@std@@P6AIPBEH@Z@std@@@2@$0A@@std@@@std@@SAPAU?$_Tree_node@U?$pair@$$CBV?$tuple@HHHW4arch_t@@@std@@P6AIPBEH@Z@std@@PAX@2@PAU32@@Z ; std::_Tree_comp_alloc<std::_Tmap_traits<std::tuple<int,int,int,enum arch_t>,unsigned int (__cdecl*)(unsigned char const *,int),std::less<std::tuple<int,int,int,enum arch_t> >,std::allocator<std::pair<std::tuple<int,int,int,enum arch_t> const ,unsigned int (__cdecl*)(unsigned char const *,int)> >,0> >::_Max
PUBLIC	?_Min@?$_Tree_comp_alloc@V?$_Tmap_traits@V?$tuple@HHHW4arch_t@@@std@@P6AIPBEH@ZU?$less@V?$tuple@HHHW4arch_t@@@std@@@2@V?$allocator@U?$pair@$$CBV?$tuple@HHHW4arch_t@@@std@@P6AIPBEH@Z@std@@@2@$0A@@std@@@std@@SAPAU?$_Tree_node@U?$pair@$$CBV?$tuple@HHHW4arch_t@@@std@@P6AIPBEH@Z@std@@PAX@2@PAU32@@Z ; std::_Tree_comp_alloc<std::_Tmap_traits<std::tuple<int,int,int,enum arch_t>,unsigned int (__cdecl*)(unsigned char const *,int),std::less<std::tuple<int,int,int,enum arch_t> >,std::allocator<std::pair<std::tuple<int,int,int,enum arch_t> const ,unsigned int (__cdecl*)(unsigned char const *,int)> >,0> >::_Min
PUBLIC	?_Buyheadnode@?$_Tree_comp_alloc@V?$_Tmap_traits@V?$tuple@HHHW4arch_t@@@std@@P6AIPBEH@ZU?$less@V?$tuple@HHHW4arch_t@@@std@@@2@V?$allocator@U?$pair@$$CBV?$tuple@HHHW4arch_t@@@std@@P6AIPBEH@Z@std@@@2@$0A@@std@@@std@@QAEPAU?$_Tree_node@U?$pair@$$CBV?$tuple@HHHW4arch_t@@@std@@P6AIPBEH@Z@std@@PAX@2@XZ ; std::_Tree_comp_alloc<std::_Tmap_traits<std::tuple<int,int,int,enum arch_t>,unsigned int (__cdecl*)(unsigned char const *,int),std::less<std::tuple<int,int,int,enum arch_t> >,std::allocator<std::pair<std::tuple<int,int,int,enum arch_t> const ,unsigned int (__cdecl*)(unsigned char const *,int)> >,0> >::_Buyheadnode
PUBLIC	?_Myhead@?$_Tree_comp_alloc@V?$_Tmap_traits@V?$tuple@HHHW4arch_t@@@std@@P6AIPBEH@ZU?$less@V?$tuple@HHHW4arch_t@@@std@@@2@V?$allocator@U?$pair@$$CBV?$tuple@HHHW4arch_t@@@std@@P6AIPBEH@Z@std@@@2@$0A@@std@@@std@@QBEABQAU?$_Tree_node@U?$pair@$$CBV?$tuple@HHHW4arch_t@@@std@@P6AIPBEH@Z@std@@PAX@2@XZ ; std::_Tree_comp_alloc<std::_Tmap_traits<std::tuple<int,int,int,enum arch_t>,unsigned int (__cdecl*)(unsigned char const *,int),std::less<std::tuple<int,int,int,enum arch_t> >,std::allocator<std::pair<std::tuple<int,int,int,enum arch_t> const ,unsigned int (__cdecl*)(unsigned char const *,int)> >,0> >::_Myhead
PUBLIC	?_Mysize@?$_Tree_comp_alloc@V?$_Tmap_traits@V?$tuple@HHHW4arch_t@@@std@@P6AIPBEH@ZU?$less@V?$tuple@HHHW4arch_t@@@std@@@2@V?$allocator@U?$pair@$$CBV?$tuple@HHHW4arch_t@@@std@@P6AIPBEH@Z@std@@@2@$0A@@std@@@std@@QAEAAIXZ ; std::_Tree_comp_alloc<std::_Tmap_traits<std::tuple<int,int,int,enum arch_t>,unsigned int (__cdecl*)(unsigned char const *,int),std::less<std::tuple<int,int,int,enum arch_t> >,std::allocator<std::pair<std::tuple<int,int,int,enum arch_t> const ,unsigned int (__cdecl*)(unsigned char const *,int)> >,0> >::_Mysize
PUBLIC	?deallocate@?$allocator@U?$_Tree_node@U?$pair@$$CBV?$tuple@HHHW4arch_t@@@std@@P6AIPBEH@Z@std@@PAX@std@@@std@@QAEXPAU?$_Tree_node@U?$pair@$$CBV?$tuple@HHHW4arch_t@@@std@@P6AIPBEH@Z@std@@PAX@2@I@Z ; std::allocator<std::_Tree_node<std::pair<std::tuple<int,int,int,enum arch_t> const ,unsigned int (__cdecl*)(unsigned char const *,int)>,void *> >::deallocate
PUBLIC	?_Left@?$_Tree_val@U?$_Tree_simple_types@U?$pair@$$CBV?$tuple@HHHW4arch_t@@@std@@P6AIPBEH@Z@std@@@std@@@std@@SAAAPAU?$_Tree_node@U?$pair@$$CBV?$tuple@HHHW4arch_t@@@std@@P6AIPBEH@Z@std@@PAX@2@PAU32@@Z ; std::_Tree_val<std::_Tree_simple_types<std::pair<std::tuple<int,int,int,enum arch_t> const ,unsigned int (__cdecl*)(unsigned char const *,int)> > >::_Left
PUBLIC	?_Parent@?$_Tree_val@U?$_Tree_simple_types@U?$pair@$$CBV?$tuple@HHHW4arch_t@@@std@@P6AIPBEH@Z@std@@@std@@@std@@SAAAPAU?$_Tree_node@U?$pair@$$CBV?$tuple@HHHW4arch_t@@@std@@P6AIPBEH@Z@std@@PAX@2@PAU32@@Z ; std::_Tree_val<std::_Tree_simple_types<std::pair<std::tuple<int,int,int,enum arch_t> const ,unsigned int (__cdecl*)(unsigned char const *,int)> > >::_Parent
PUBLIC	?_Right@?$_Tree_val@U?$_Tree_simple_types@U?$pair@$$CBV?$tuple@HHHW4arch_t@@@std@@P6AIPBEH@Z@std@@@std@@@std@@SAAAPAU?$_Tree_node@U?$pair@$$CBV?$tuple@HHHW4arch_t@@@std@@P6AIPBEH@Z@std@@PAX@2@PAU32@@Z ; std::_Tree_val<std::_Tree_simple_types<std::pair<std::tuple<int,int,int,enum arch_t> const ,unsigned int (__cdecl*)(unsigned char const *,int)> > >::_Right
PUBLIC	?_Myval@?$_Tree_val@U?$_Tree_simple_types@U?$pair@$$CBV?$tuple@HHHW4arch_t@@@std@@P6AIPBEH@Z@std@@@std@@@std@@SAAAU?$pair@$$CBV?$tuple@HHHW4arch_t@@@std@@P6AIPBEH@Z@2@PAU?$_Tree_node@U?$pair@$$CBV?$tuple@HHHW4arch_t@@@std@@P6AIPBEH@Z@std@@PAX@2@@Z ; std::_Tree_val<std::_Tree_simple_types<std::pair<std::tuple<int,int,int,enum arch_t> const ,unsigned int (__cdecl*)(unsigned char const *,int)> > >::_Myval
PUBLIC	??0?$_Tree_const_iterator@V?$_Tree_val@U?$_Tree_simple_types@U?$pair@$$CBV?$tuple@HHHW4arch_t@@@std@@P6AIPBEH@Z@std@@@std@@@std@@@std@@QAE@PAU?$_Tree_node@U?$pair@$$CBV?$tuple@HHHW4arch_t@@@std@@P6AIPBEH@Z@std@@PAX@1@PBV?$_Tree_val@U?$_Tree_simple_types@U?$pair@$$CBV?$tuple@HHHW4arch_t@@@std@@P6AIPBEH@Z@std@@@std@@@1@@Z ; std::_Tree_const_iterator<std::_Tree_val<std::_Tree_simple_types<std::pair<std::tuple<int,int,int,enum arch_t> const ,unsigned int (__cdecl*)(unsigned char const *,int)> > > >::_Tree_const_iterator<std::_Tree_val<std::_Tree_simple_types<std::pair<std::tuple<int,int,int,enum arch_t> const ,unsigned int (__cdecl*)(unsigned char const *,int)> > > >
PUBLIC	??E?$_Tree_const_iterator@V?$_Tree_val@U?$_Tree_simple_types@U?$pair@$$CBV?$tuple@HHHW4arch_t@@@std@@P6AIPBEH@Z@std@@@std@@@std@@@std@@QAEAAV01@XZ ; std::_Tree_const_iterator<std::_Tree_val<std::_Tree_simple_types<std::pair<std::tuple<int,int,int,enum arch_t> const ,unsigned int (__cdecl*)(unsigned char const *,int)> > > >::operator++
PUBLIC	?_Get_first@?$_Compressed_pair@U?$_Wrap_alloc@V?$allocator@U?$_Tree_node@U?$pair@$$CBV?$tuple@HHHW4arch_t@@@std@@P6AIPBEH@Z@std@@PAX@std@@@std@@@std@@V?$_Tree_val@U?$_Tree_simple_types@U?$pair@$$CBV?$tuple@HHHW4arch_t@@@std@@P6AIPBEH@Z@std@@@std@@@2@$00@std@@QAEAAU?$_Wrap_alloc@V?$allocator@U?$_Tree_node@U?$pair@$$CBV?$tuple@HHHW4arch_t@@@std@@P6AIPBEH@Z@std@@PAX@std@@@std@@@2@XZ ; std::_Compressed_pair<std::_Wrap_alloc<std::allocator<std::_Tree_node<std::pair<std::tuple<int,int,int,enum arch_t> const ,unsigned int (__cdecl*)(unsigned char const *,int)>,void *> > >,std::_Tree_val<std::_Tree_simple_types<std::pair<std::tuple<int,int,int,enum arch_t> const ,unsigned int (__cdecl*)(unsigned char const *,int)> > >,1>::_Get_first
PUBLIC	?_Get_second@?$_Compressed_pair@U?$_Wrap_alloc@V?$allocator@U?$_Tree_node@U?$pair@$$CBV?$tuple@HHHW4arch_t@@@std@@P6AIPBEH@Z@std@@PAX@std@@@std@@@std@@V?$_Tree_val@U?$_Tree_simple_types@U?$pair@$$CBV?$tuple@HHHW4arch_t@@@std@@P6AIPBEH@Z@std@@@std@@@2@$00@std@@QAEAAV?$_Tree_val@U?$_Tree_simple_types@U?$pair@$$CBV?$tuple@HHHW4arch_t@@@std@@P6AIPBEH@Z@std@@@std@@@2@XZ ; std::_Compressed_pair<std::_Wrap_alloc<std::allocator<std::_Tree_node<std::pair<std::tuple<int,int,int,enum arch_t> const ,unsigned int (__cdecl*)(unsigned char const *,int)>,void *> > >,std::_Tree_val<std::_Tree_simple_types<std::pair<std::tuple<int,int,int,enum arch_t> const ,unsigned int (__cdecl*)(unsigned char const *,int)> > >,1>::_Get_second
PUBLIC	?_Get_second@?$_Compressed_pair@U?$less@V?$tuple@HHHW4arch_t@@@std@@@std@@V?$_Compressed_pair@U?$_Wrap_alloc@V?$allocator@U?$_Tree_node@U?$pair@$$CBV?$tuple@HHHW4arch_t@@@std@@P6AIPBEH@Z@std@@PAX@std@@@std@@@std@@V?$_Tree_val@U?$_Tree_simple_types@U?$pair@$$CBV?$tuple@HHHW4arch_t@@@std@@P6AIPBEH@Z@std@@@std@@@2@$00@2@$00@std@@QAEAAV?$_Compressed_pair@U?$_Wrap_alloc@V?$allocator@U?$_Tree_node@U?$pair@$$CBV?$tuple@HHHW4arch_t@@@std@@P6AIPBEH@Z@std@@PAX@std@@@std@@@std@@V?$_Tree_val@U?$_Tree_simple_types@U?$pair@$$CBV?$tuple@HHHW4arch_t@@@std@@P6AIPBEH@Z@std@@@std@@@2@$00@2@XZ ; std::_Compressed_pair<std::less<std::tuple<int,int,int,enum arch_t> >,std::_Compressed_pair<std::_Wrap_alloc<std::allocator<std::_Tree_node<std::pair<std::tuple<int,int,int,enum arch_t> const ,unsigned int (__cdecl*)(unsigned char const *,int)>,void *> > >,std::_Tree_val<std::_Tree_simple_types<std::pair<std::tuple<int,int,int,enum arch_t> const ,unsigned int (__cdecl*)(unsigned char const *,int)> > >,1>,1>::_Get_second
PUBLIC	?_Mynode@?$_Tree_unchecked_const_iterator@V?$_Tree_val@U?$_Tree_simple_types@U?$pair@$$CBV?$tuple@HHHW4arch_t@@@std@@P6AIPBEH@Z@std@@@std@@@std@@U_Iterator_base0@2@@std@@QBEPAU?$_Tree_node@U?$pair@$$CBV?$tuple@HHHW4arch_t@@@std@@P6AIPBEH@Z@std@@PAX@2@XZ ; std::_Tree_unchecked_const_iterator<std::_Tree_val<std::_Tree_simple_types<std::pair<std::tuple<int,int,int,enum arch_t> const ,unsigned int (__cdecl*)(unsigned char const *,int)> > >,std::_Iterator_base0>::_Mynode
PUBLIC	?erase@?$_Tree@V?$_Tmap_traits@V?$tuple@HHHW4arch_t@@@std@@P6AIPBEH@ZU?$less@V?$tuple@HHHW4arch_t@@@std@@@2@V?$allocator@U?$pair@$$CBV?$tuple@HHHW4arch_t@@@std@@P6AIPBEH@Z@std@@@2@$0A@@std@@@std@@QAE?AV?$_Tree_iterator@V?$_Tree_val@U?$_Tree_simple_types@U?$pair@$$CBV?$tuple@HHHW4arch_t@@@std@@P6AIPBEH@Z@std@@@std@@@std@@@2@V?$_Tree_const_iterator@V?$_Tree_val@U?$_Tree_simple_types@U?$pair@$$CBV?$tuple@HHHW4arch_t@@@std@@P6AIPBEH@Z@std@@@std@@@std@@@2@@Z ; std::_Tree<std::_Tmap_traits<std::tuple<int,int,int,enum arch_t>,unsigned int (__cdecl*)(unsigned char const *,int),std::less<std::tuple<int,int,int,enum arch_t> >,std::allocator<std::pair<std::tuple<int,int,int,enum arch_t> const ,unsigned int (__cdecl*)(unsigned char const *,int)> >,0> >::erase
PUBLIC	?clear@?$_Tree@V?$_Tmap_traits@V?$tuple@HHHW4arch_t@@@std@@P6AIPBEH@ZU?$less@V?$tuple@HHHW4arch_t@@@std@@@2@V?$allocator@U?$pair@$$CBV?$tuple@HHHW4arch_t@@@std@@P6AIPBEH@Z@std@@@2@$0A@@std@@@std@@QAEXXZ ; std::_Tree<std::_Tmap_traits<std::tuple<int,int,int,enum arch_t>,unsigned int (__cdecl*)(unsigned char const *,int),std::less<std::tuple<int,int,int,enum arch_t> >,std::allocator<std::pair<std::tuple<int,int,int,enum arch_t> const ,unsigned int (__cdecl*)(unsigned char const *,int)> >,0> >::clear
PUBLIC	?_Lmost@?$_Tree@V?$_Tmap_traits@V?$tuple@HHHW4arch_t@@@std@@P6AIPBEH@ZU?$less@V?$tuple@HHHW4arch_t@@@std@@@2@V?$allocator@U?$pair@$$CBV?$tuple@HHHW4arch_t@@@std@@P6AIPBEH@Z@std@@@2@$0A@@std@@@std@@IBEAAPAU?$_Tree_node@U?$pair@$$CBV?$tuple@HHHW4arch_t@@@std@@P6AIPBEH@Z@std@@PAX@2@XZ ; std::_Tree<std::_Tmap_traits<std::tuple<int,int,int,enum arch_t>,unsigned int (__cdecl*)(unsigned char const *,int),std::less<std::tuple<int,int,int,enum arch_t> >,std::allocator<std::pair<std::tuple<int,int,int,enum arch_t> const ,unsigned int (__cdecl*)(unsigned char const *,int)> >,0> >::_Lmost
PUBLIC	?_Left@?$_Tree_comp_alloc@V?$_Tmap_traits@V?$tuple@HHHW4arch_t@@@std@@P6AIPBEH@ZU?$less@V?$tuple@HHHW4arch_t@@@std@@@2@V?$allocator@U?$pair@$$CBV?$tuple@HHHW4arch_t@@@std@@P6AIPBEH@Z@std@@@2@$0A@@std@@@std@@SAAAPAU?$_Tree_node@U?$pair@$$CBV?$tuple@HHHW4arch_t@@@std@@P6AIPBEH@Z@std@@PAX@2@PAU32@@Z ; std::_Tree_comp_alloc<std::_Tmap_traits<std::tuple<int,int,int,enum arch_t>,unsigned int (__cdecl*)(unsigned char const *,int),std::less<std::tuple<int,int,int,enum arch_t> >,std::allocator<std::pair<std::tuple<int,int,int,enum arch_t> const ,unsigned int (__cdecl*)(unsigned char const *,int)> >,0> >::_Left
PUBLIC	?_Parent@?$_Tree_comp_alloc@V?$_Tmap_traits@V?$tuple@HHHW4arch_t@@@std@@P6AIPBEH@ZU?$less@V?$tuple@HHHW4arch_t@@@std@@@2@V?$allocator@U?$pair@$$CBV?$tuple@HHHW4arch_t@@@std@@P6AIPBEH@Z@std@@@2@$0A@@std@@@std@@SAAAPAU?$_Tree_node@U?$pair@$$CBV?$tuple@HHHW4arch_t@@@std@@P6AIPBEH@Z@std@@PAX@2@PAU32@@Z ; std::_Tree_comp_alloc<std::_Tmap_traits<std::tuple<int,int,int,enum arch_t>,unsigned int (__cdecl*)(unsigned char const *,int),std::less<std::tuple<int,int,int,enum arch_t> >,std::allocator<std::pair<std::tuple<int,int,int,enum arch_t> const ,unsigned int (__cdecl*)(unsigned char const *,int)> >,0> >::_Parent
PUBLIC	?_Right@?$_Tree_comp_alloc@V?$_Tmap_traits@V?$tuple@HHHW4arch_t@@@std@@P6AIPBEH@ZU?$less@V?$tuple@HHHW4arch_t@@@std@@@2@V?$allocator@U?$pair@$$CBV?$tuple@HHHW4arch_t@@@std@@P6AIPBEH@Z@std@@@2@$0A@@std@@@std@@SAAAPAU?$_Tree_node@U?$pair@$$CBV?$tuple@HHHW4arch_t@@@std@@P6AIPBEH@Z@std@@PAX@2@PAU32@@Z ; std::_Tree_comp_alloc<std::_Tmap_traits<std::tuple<int,int,int,enum arch_t>,unsigned int (__cdecl*)(unsigned char const *,int),std::less<std::tuple<int,int,int,enum arch_t> >,std::allocator<std::pair<std::tuple<int,int,int,enum arch_t> const ,unsigned int (__cdecl*)(unsigned char const *,int)> >,0> >::_Right
PUBLIC	?_Construct@?$_Tree_comp_alloc@V?$_Tmap_traits@V?$tuple@HHHW4arch_t@@@std@@P6AIPBEH@ZU?$less@V?$tuple@HHHW4arch_t@@@std@@@2@V?$allocator@U?$pair@$$CBV?$tuple@HHHW4arch_t@@@std@@P6AIPBEH@Z@std@@@2@$0A@@std@@@std@@QAEXXZ ; std::_Tree_comp_alloc<std::_Tmap_traits<std::tuple<int,int,int,enum arch_t>,unsigned int (__cdecl*)(unsigned char const *,int),std::less<std::tuple<int,int,int,enum arch_t> >,std::allocator<std::pair<std::tuple<int,int,int,enum arch_t> const ,unsigned int (__cdecl*)(unsigned char const *,int)> >,0> >::_Construct
PUBLIC	?_Getal@?$_Tree_comp_alloc@V?$_Tmap_traits@V?$tuple@HHHW4arch_t@@@std@@P6AIPBEH@ZU?$less@V?$tuple@HHHW4arch_t@@@std@@@2@V?$allocator@U?$pair@$$CBV?$tuple@HHHW4arch_t@@@std@@P6AIPBEH@Z@std@@@2@$0A@@std@@@std@@QAEAAU?$_Wrap_alloc@V?$allocator@U?$_Tree_node@U?$pair@$$CBV?$tuple@HHHW4arch_t@@@std@@P6AIPBEH@Z@std@@PAX@std@@@std@@@2@XZ ; std::_Tree_comp_alloc<std::_Tmap_traits<std::tuple<int,int,int,enum arch_t>,unsigned int (__cdecl*)(unsigned char const *,int),std::less<std::tuple<int,int,int,enum arch_t> >,std::allocator<std::pair<std::tuple<int,int,int,enum arch_t> const ,unsigned int (__cdecl*)(unsigned char const *,int)> >,0> >::_Getal
PUBLIC	?_Get_data@?$_Tree_comp_alloc@V?$_Tmap_traits@V?$tuple@HHHW4arch_t@@@std@@P6AIPBEH@ZU?$less@V?$tuple@HHHW4arch_t@@@std@@@2@V?$allocator@U?$pair@$$CBV?$tuple@HHHW4arch_t@@@std@@P6AIPBEH@Z@std@@@2@$0A@@std@@@std@@QAEAAV?$_Tree_val@U?$_Tree_simple_types@U?$pair@$$CBV?$tuple@HHHW4arch_t@@@std@@P6AIPBEH@Z@std@@@std@@@2@XZ ; std::_Tree_comp_alloc<std::_Tmap_traits<std::tuple<int,int,int,enum arch_t>,unsigned int (__cdecl*)(unsigned char const *,int),std::less<std::tuple<int,int,int,enum arch_t> >,std::allocator<std::pair<std::tuple<int,int,int,enum arch_t> const ,unsigned int (__cdecl*)(unsigned char const *,int)> >,0> >::_Get_data
PUBLIC	?deallocate@?$_Wrap_alloc@V?$allocator@U?$_Tree_node@U?$pair@$$CBV?$tuple@HHHW4arch_t@@@std@@P6AIPBEH@Z@std@@PAX@std@@@std@@@std@@QAEXPAU?$_Tree_node@U?$pair@$$CBV?$tuple@HHHW4arch_t@@@std@@P6AIPBEH@Z@std@@PAX@2@I@Z ; std::_Wrap_alloc<std::allocator<std::_Tree_node<std::pair<std::tuple<int,int,int,enum arch_t> const ,unsigned int (__cdecl*)(unsigned char const *,int)>,void *> > >::deallocate
PUBLIC	??D?$_Tree_const_iterator@V?$_Tree_val@U?$_Tree_simple_types@U?$pair@$$CBV?$tuple@HHHW4arch_t@@@std@@P6AIPBEH@Z@std@@@std@@@std@@@std@@QBEABU?$pair@$$CBV?$tuple@HHHW4arch_t@@@std@@P6AIPBEH@Z@1@XZ ; std::_Tree_const_iterator<std::_Tree_val<std::_Tree_simple_types<std::pair<std::tuple<int,int,int,enum arch_t> const ,unsigned int (__cdecl*)(unsigned char const *,int)> > > >::operator*
PUBLIC	??E?$_Tree_const_iterator@V?$_Tree_val@U?$_Tree_simple_types@U?$pair@$$CBV?$tuple@HHHW4arch_t@@@std@@P6AIPBEH@Z@std@@@std@@@std@@@std@@QAE?AV01@H@Z ; std::_Tree_const_iterator<std::_Tree_val<std::_Tree_simple_types<std::pair<std::tuple<int,int,int,enum arch_t> const ,unsigned int (__cdecl*)(unsigned char const *,int)> > > >::operator++
PUBLIC	??8?$_Tree_const_iterator@V?$_Tree_val@U?$_Tree_simple_types@U?$pair@$$CBV?$tuple@HHHW4arch_t@@@std@@P6AIPBEH@Z@std@@@std@@@std@@@std@@QBE_NABV01@@Z ; std::_Tree_const_iterator<std::_Tree_val<std::_Tree_simple_types<std::pair<std::tuple<int,int,int,enum arch_t> const ,unsigned int (__cdecl*)(unsigned char const *,int)> > > >::operator==
PUBLIC	??9?$_Tree_const_iterator@V?$_Tree_val@U?$_Tree_simple_types@U?$pair@$$CBV?$tuple@HHHW4arch_t@@@std@@P6AIPBEH@Z@std@@@std@@@std@@@std@@QBE_NABV01@@Z ; std::_Tree_const_iterator<std::_Tree_val<std::_Tree_simple_types<std::pair<std::tuple<int,int,int,enum arch_t> const ,unsigned int (__cdecl*)(unsigned char const *,int)> > > >::operator!=
PUBLIC	??0?$_Tree_iterator@V?$_Tree_val@U?$_Tree_simple_types@U?$pair@$$CBV?$tuple@HHHW4arch_t@@@std@@P6AIPBEH@Z@std@@@std@@@std@@@std@@QAE@PAU?$_Tree_node@U?$pair@$$CBV?$tuple@HHHW4arch_t@@@std@@P6AIPBEH@Z@std@@PAX@1@PBV?$_Tree_val@U?$_Tree_simple_types@U?$pair@$$CBV?$tuple@HHHW4arch_t@@@std@@P6AIPBEH@Z@std@@@std@@@1@@Z ; std::_Tree_iterator<std::_Tree_val<std::_Tree_simple_types<std::pair<std::tuple<int,int,int,enum arch_t> const ,unsigned int (__cdecl*)(unsigned char const *,int)> > > >::_Tree_iterator<std::_Tree_val<std::_Tree_simple_types<std::pair<std::tuple<int,int,int,enum arch_t> const ,unsigned int (__cdecl*)(unsigned char const *,int)> > > >
PUBLIC	?begin@?$_Tree@V?$_Tmap_traits@V?$tuple@HHHW4arch_t@@@std@@P6AIPBEH@ZU?$less@V?$tuple@HHHW4arch_t@@@std@@@2@V?$allocator@U?$pair@$$CBV?$tuple@HHHW4arch_t@@@std@@P6AIPBEH@Z@std@@@2@$0A@@std@@@std@@QAE?AV?$_Tree_iterator@V?$_Tree_val@U?$_Tree_simple_types@U?$pair@$$CBV?$tuple@HHHW4arch_t@@@std@@P6AIPBEH@Z@std@@@std@@@std@@@2@XZ ; std::_Tree<std::_Tmap_traits<std::tuple<int,int,int,enum arch_t>,unsigned int (__cdecl*)(unsigned char const *,int),std::less<std::tuple<int,int,int,enum arch_t> >,std::allocator<std::pair<std::tuple<int,int,int,enum arch_t> const ,unsigned int (__cdecl*)(unsigned char const *,int)> >,0> >::begin
PUBLIC	?end@?$_Tree@V?$_Tmap_traits@V?$tuple@HHHW4arch_t@@@std@@P6AIPBEH@ZU?$less@V?$tuple@HHHW4arch_t@@@std@@@2@V?$allocator@U?$pair@$$CBV?$tuple@HHHW4arch_t@@@std@@P6AIPBEH@Z@std@@@2@$0A@@std@@@std@@QAE?AV?$_Tree_iterator@V?$_Tree_val@U?$_Tree_simple_types@U?$pair@$$CBV?$tuple@HHHW4arch_t@@@std@@P6AIPBEH@Z@std@@@std@@@std@@@2@XZ ; std::_Tree<std::_Tmap_traits<std::tuple<int,int,int,enum arch_t>,unsigned int (__cdecl*)(unsigned char const *,int),std::less<std::tuple<int,int,int,enum arch_t> >,std::allocator<std::pair<std::tuple<int,int,int,enum arch_t> const ,unsigned int (__cdecl*)(unsigned char const *,int)> >,0> >::end
PUBLIC	?erase@?$_Tree@V?$_Tmap_traits@V?$tuple@HHHW4arch_t@@@std@@P6AIPBEH@ZU?$less@V?$tuple@HHHW4arch_t@@@std@@@2@V?$allocator@U?$pair@$$CBV?$tuple@HHHW4arch_t@@@std@@P6AIPBEH@Z@std@@@2@$0A@@std@@@std@@QAE?AV?$_Tree_iterator@V?$_Tree_val@U?$_Tree_simple_types@U?$pair@$$CBV?$tuple@HHHW4arch_t@@@std@@P6AIPBEH@Z@std@@@std@@@std@@@2@V?$_Tree_const_iterator@V?$_Tree_val@U?$_Tree_simple_types@U?$pair@$$CBV?$tuple@HHHW4arch_t@@@std@@P6AIPBEH@Z@std@@@std@@@std@@@2@0@Z ; std::_Tree<std::_Tmap_traits<std::tuple<int,int,int,enum arch_t>,unsigned int (__cdecl*)(unsigned char const *,int),std::less<std::tuple<int,int,int,enum arch_t> >,std::allocator<std::pair<std::tuple<int,int,int,enum arch_t> const ,unsigned int (__cdecl*)(unsigned char const *,int)> >,0> >::erase
PUBLIC	??0?$_Tree_comp_alloc@V?$_Tmap_traits@V?$tuple@HHHW4arch_t@@@std@@P6AIPBEH@ZU?$less@V?$tuple@HHHW4arch_t@@@std@@@2@V?$allocator@U?$pair@$$CBV?$tuple@HHHW4arch_t@@@std@@P6AIPBEH@Z@std@@@2@$0A@@std@@@std@@QAE@ABU?$less@V?$tuple@HHHW4arch_t@@@std@@@1@@Z ; std::_Tree_comp_alloc<std::_Tmap_traits<std::tuple<int,int,int,enum arch_t>,unsigned int (__cdecl*)(unsigned char const *,int),std::less<std::tuple<int,int,int,enum arch_t> >,std::allocator<std::pair<std::tuple<int,int,int,enum arch_t> const ,unsigned int (__cdecl*)(unsigned char const *,int)> >,0> >::_Tree_comp_alloc<std::_Tmap_traits<std::tuple<int,int,int,enum arch_t>,unsigned int (__cdecl*)(unsigned char const *,int),std::less<std::tuple<int,int,int,enum arch_t> >,std::allocator<std::pair<std::tuple<int,int,int,enum arch_t> const ,unsigned int (__cdecl*)(unsigned char const *,int)> >,0> >
PUBLIC	?_Freeheadnode@?$_Tree_comp_alloc@V?$_Tmap_traits@V?$tuple@HHHW4arch_t@@@std@@P6AIPBEH@ZU?$less@V?$tuple@HHHW4arch_t@@@std@@@2@V?$allocator@U?$pair@$$CBV?$tuple@HHHW4arch_t@@@std@@P6AIPBEH@Z@std@@@2@$0A@@std@@@std@@QAEXPAU?$_Tree_node@U?$pair@$$CBV?$tuple@HHHW4arch_t@@@std@@P6AIPBEH@Z@std@@PAX@2@@Z ; std::_Tree_comp_alloc<std::_Tmap_traits<std::tuple<int,int,int,enum arch_t>,unsigned int (__cdecl*)(unsigned char const *,int),std::less<std::tuple<int,int,int,enum arch_t> >,std::allocator<std::pair<std::tuple<int,int,int,enum arch_t> const ,unsigned int (__cdecl*)(unsigned char const *,int)> >,0> >::_Freeheadnode
PUBLIC	?_Myhead@?$_Tree_comp_alloc@V?$_Tmap_traits@V?$tuple@HHHW4arch_t@@@std@@P6AIPBEH@ZU?$less@V?$tuple@HHHW4arch_t@@@std@@@2@V?$allocator@U?$pair@$$CBV?$tuple@HHHW4arch_t@@@std@@P6AIPBEH@Z@std@@@2@$0A@@std@@@std@@QAEAAPAU?$_Tree_node@U?$pair@$$CBV?$tuple@HHHW4arch_t@@@std@@P6AIPBEH@Z@std@@PAX@2@XZ ; std::_Tree_comp_alloc<std::_Tmap_traits<std::tuple<int,int,int,enum arch_t>,unsigned int (__cdecl*)(unsigned char const *,int),std::less<std::tuple<int,int,int,enum arch_t> >,std::allocator<std::pair<std::tuple<int,int,int,enum arch_t> const ,unsigned int (__cdecl*)(unsigned char const *,int)> >,0> >::_Myhead
PUBLIC	??D?$_Tree_iterator@V?$_Tree_val@U?$_Tree_simple_types@U?$pair@$$CBV?$tuple@HHHW4arch_t@@@std@@P6AIPBEH@Z@std@@@std@@@std@@@std@@QBEAAU?$pair@$$CBV?$tuple@HHHW4arch_t@@@std@@P6AIPBEH@Z@1@XZ ; std::_Tree_iterator<std::_Tree_val<std::_Tree_simple_types<std::pair<std::tuple<int,int,int,enum arch_t> const ,unsigned int (__cdecl*)(unsigned char const *,int)> > > >::operator*
PUBLIC	?pointer_to@?$pointer_traits@PAU?$pair@$$CBV?$tuple@HHHW4arch_t@@@std@@P6AIPBEH@Z@std@@@std@@SAPAU?$pair@$$CBV?$tuple@HHHW4arch_t@@@std@@P6AIPBEH@Z@2@AAU32@@Z ; std::pointer_traits<std::pair<std::tuple<int,int,int,enum arch_t> const ,unsigned int (__cdecl*)(unsigned char const *,int)> *>::pointer_to
PUBLIC	??0?$_Tree@V?$_Tmap_traits@V?$tuple@HHHW4arch_t@@@std@@P6AIPBEH@ZU?$less@V?$tuple@HHHW4arch_t@@@std@@@2@V?$allocator@U?$pair@$$CBV?$tuple@HHHW4arch_t@@@std@@P6AIPBEH@Z@std@@@2@$0A@@std@@@std@@QAE@ABU?$less@V?$tuple@HHHW4arch_t@@@std@@@1@@Z ; std::_Tree<std::_Tmap_traits<std::tuple<int,int,int,enum arch_t>,unsigned int (__cdecl*)(unsigned char const *,int),std::less<std::tuple<int,int,int,enum arch_t> >,std::allocator<std::pair<std::tuple<int,int,int,enum arch_t> const ,unsigned int (__cdecl*)(unsigned char const *,int)> >,0> >::_Tree<std::_Tmap_traits<std::tuple<int,int,int,enum arch_t>,unsigned int (__cdecl*)(unsigned char const *,int),std::less<std::tuple<int,int,int,enum arch_t> >,std::allocator<std::pair<std::tuple<int,int,int,enum arch_t> const ,unsigned int (__cdecl*)(unsigned char const *,int)> >,0> >
PUBLIC	?_Tidy@?$_Tree@V?$_Tmap_traits@V?$tuple@HHHW4arch_t@@@std@@P6AIPBEH@ZU?$less@V?$tuple@HHHW4arch_t@@@std@@@2@V?$allocator@U?$pair@$$CBV?$tuple@HHHW4arch_t@@@std@@P6AIPBEH@Z@std@@@2@$0A@@std@@@std@@IAEXXZ ; std::_Tree<std::_Tmap_traits<std::tuple<int,int,int,enum arch_t>,unsigned int (__cdecl*)(unsigned char const *,int),std::less<std::tuple<int,int,int,enum arch_t> >,std::allocator<std::pair<std::tuple<int,int,int,enum arch_t> const ,unsigned int (__cdecl*)(unsigned char const *,int)> >,0> >::_Tidy
PUBLIC	??1?$_Tree_comp_alloc@V?$_Tmap_traits@V?$tuple@HHHW4arch_t@@@std@@P6AIPBEH@ZU?$less@V?$tuple@HHHW4arch_t@@@std@@@2@V?$allocator@U?$pair@$$CBV?$tuple@HHHW4arch_t@@@std@@P6AIPBEH@Z@std@@@2@$0A@@std@@@std@@QAE@XZ ; std::_Tree_comp_alloc<std::_Tmap_traits<std::tuple<int,int,int,enum arch_t>,unsigned int (__cdecl*)(unsigned char const *,int),std::less<std::tuple<int,int,int,enum arch_t> >,std::allocator<std::pair<std::tuple<int,int,int,enum arch_t> const ,unsigned int (__cdecl*)(unsigned char const *,int)> >,0> >::~_Tree_comp_alloc<std::_Tmap_traits<std::tuple<int,int,int,enum arch_t>,unsigned int (__cdecl*)(unsigned char const *,int),std::less<std::tuple<int,int,int,enum arch_t> >,std::allocator<std::pair<std::tuple<int,int,int,enum arch_t> const ,unsigned int (__cdecl*)(unsigned char const *,int)> >,0> >
PUBLIC	??C?$_Tree_iterator@V?$_Tree_val@U?$_Tree_simple_types@U?$pair@$$CBV?$tuple@HHHW4arch_t@@@std@@P6AIPBEH@Z@std@@@std@@@std@@@std@@QBEPAU?$pair@$$CBV?$tuple@HHHW4arch_t@@@std@@P6AIPBEH@Z@1@XZ ; std::_Tree_iterator<std::_Tree_val<std::_Tree_simple_types<std::pair<std::tuple<int,int,int,enum arch_t> const ,unsigned int (__cdecl*)(unsigned char const *,int)> > > >::operator->
PUBLIC	??0?$map@V?$tuple@HHHW4arch_t@@@std@@P6AIPBEH@ZU?$less@V?$tuple@HHHW4arch_t@@@std@@@2@V?$allocator@U?$pair@$$CBV?$tuple@HHHW4arch_t@@@std@@P6AIPBEH@Z@std@@@2@@std@@QAE@XZ ; std::map<std::tuple<int,int,int,enum arch_t>,unsigned int (__cdecl*)(unsigned char const *,int),std::less<std::tuple<int,int,int,enum arch_t> >,std::allocator<std::pair<std::tuple<int,int,int,enum arch_t> const ,unsigned int (__cdecl*)(unsigned char const *,int)> > >::map<std::tuple<int,int,int,enum arch_t>,unsigned int (__cdecl*)(unsigned char const *,int),std::less<std::tuple<int,int,int,enum arch_t> >,std::allocator<std::pair<std::tuple<int,int,int,enum arch_t> const ,unsigned int (__cdecl*)(unsigned char const *,int)> > >
PUBLIC	??A?$map@V?$tuple@HHHW4arch_t@@@std@@P6AIPBEH@ZU?$less@V?$tuple@HHHW4arch_t@@@std@@@2@V?$allocator@U?$pair@$$CBV?$tuple@HHHW4arch_t@@@std@@P6AIPBEH@Z@std@@@2@@std@@QAEAAP6AIPBEH@Z$$QAV?$tuple@HHHW4arch_t@@@1@@Z ; std::map<std::tuple<int,int,int,enum arch_t>,unsigned int (__cdecl*)(unsigned char const *,int),std::less<std::tuple<int,int,int,enum arch_t> >,std::allocator<std::pair<std::tuple<int,int,int,enum arch_t> const ,unsigned int (__cdecl*)(unsigned char const *,int)> > >::operator[]
PUBLIC	??1?$_Tree@V?$_Tmap_traits@V?$tuple@HHHW4arch_t@@@std@@P6AIPBEH@ZU?$less@V?$tuple@HHHW4arch_t@@@std@@@2@V?$allocator@U?$pair@$$CBV?$tuple@HHHW4arch_t@@@std@@P6AIPBEH@Z@std@@@2@$0A@@std@@@std@@QAE@XZ ; std::_Tree<std::_Tmap_traits<std::tuple<int,int,int,enum arch_t>,unsigned int (__cdecl*)(unsigned char const *,int),std::less<std::tuple<int,int,int,enum arch_t> >,std::allocator<std::pair<std::tuple<int,int,int,enum arch_t> const ,unsigned int (__cdecl*)(unsigned char const *,int)> >,0> >::~_Tree<std::_Tmap_traits<std::tuple<int,int,int,enum arch_t>,unsigned int (__cdecl*)(unsigned char const *,int),std::less<std::tuple<int,int,int,enum arch_t> >,std::allocator<std::pair<std::tuple<int,int,int,enum arch_t> const ,unsigned int (__cdecl*)(unsigned char const *,int)> >,0> >
PUBLIC	??1?$map@V?$tuple@HHHW4arch_t@@@std@@P6AIPBEH@ZU?$less@V?$tuple@HHHW4arch_t@@@std@@@2@V?$allocator@U?$pair@$$CBV?$tuple@HHHW4arch_t@@@std@@P6AIPBEH@Z@std@@@2@@std@@QAE@XZ ; std::map<std::tuple<int,int,int,enum arch_t>,unsigned int (__cdecl*)(unsigned char const *,int),std::less<std::tuple<int,int,int,enum arch_t> >,std::allocator<std::pair<std::tuple<int,int,int,enum arch_t> const ,unsigned int (__cdecl*)(unsigned char const *,int)> > >::~map<std::tuple<int,int,int,enum arch_t>,unsigned int (__cdecl*)(unsigned char const *,int),std::less<std::tuple<int,int,int,enum arch_t> >,std::allocator<std::pair<std::tuple<int,int,int,enum arch_t> const ,unsigned int (__cdecl*)(unsigned char const *,int)> > >
PUBLIC	?get_luma_function@@YAP6AIPBEH@ZHHHW4arch_t@@@Z	; get_luma_function
;	COMDAT xdata$x
xdata$x	SEGMENT
__ehfuncinfo$?get_luma_function@@YAP6AIPBEH@ZHHHW4arch_t@@@Z DD 019930522H
	DD	01H
	DD	FLAT:__unwindtable$?get_luma_function@@YAP6AIPBEH@ZHHHW4arch_t@@@Z
	DD	2 DUP(00H)
	DD	2 DUP(00H)
	DD	00H
	DD	01H
__unwindtable$?get_luma_function@@YAP6AIPBEH@ZHHHW4arch_t@@@Z DD 0ffffffffH
	DD	FLAT:__unwindfunclet$?get_luma_function@@YAP6AIPBEH@ZHHHW4arch_t@@@Z$0
xdata$x	ENDS
;	COMDAT xdata$x
xdata$x	SEGMENT
__ehfuncinfo$?clear@?$_Tree@V?$_Tmap_traits@V?$tuple@HHHW4arch_t@@@std@@P6AIPBEH@ZU?$less@V?$tuple@HHHW4arch_t@@@std@@@2@V?$allocator@U?$pair@$$CBV?$tuple@HHHW4arch_t@@@std@@P6AIPBEH@Z@std@@@2@$0A@@std@@@std@@QAEXXZ DD 019930522H
	DD	00H
	DD	00H
	DD	2 DUP(00H)
	DD	2 DUP(00H)
	DD	00H
	DD	05H
xdata$x	ENDS
;	COMDAT xdata$x
xdata$x	SEGMENT
__ehfuncinfo$??$_Insert_hint@AAU?$pair@$$CBV?$tuple@HHHW4arch_t@@@std@@P6AIPBEH@Z@std@@PAU?$_Tree_node@U?$pair@$$CBV?$tuple@HHHW4arch_t@@@std@@P6AIPBEH@Z@std@@PAX@2@@?$_Tree@V?$_Tmap_traits@V?$tuple@HHHW4arch_t@@@std@@P6AIPBEH@ZU?$less@V?$tuple@HHHW4arch_t@@@std@@@2@V?$allocator@U?$pair@$$CBV?$tuple@HHHW4arch_t@@@std@@P6AIPBEH@Z@std@@@2@$0A@@std@@@std@@IAE?AV?$_Tree_iterator@V?$_Tree_val@U?$_Tree_simple_types@U?$pair@$$CBV?$tuple@HHHW4arch_t@@@std@@P6AIPBEH@Z@std@@@std@@@std@@@1@V?$_Tree_const_iterator@V?$_Tree_val@U?$_Tree_simple_types@U?$pair@$$CBV?$tuple@HHHW4arch_t@@@std@@P6AIPBEH@Z@std@@@std@@@std@@@1@AAU?$pair@$$CBV?$tuple@HHHW4arch_t@@@std@@P6AIPBEH@Z@1@PAU?$_Tree_node@U?$pair@$$CBV?$tuple@HHHW4arch_t@@@std@@P6AIPBEH@Z@std@@PAX@1@@Z DD 019930522H
	DD	02H
	DD	FLAT:__unwindtable$??$_Insert_hint@AAU?$pair@$$CBV?$tuple@HHHW4arch_t@@@std@@P6AIPBEH@Z@std@@PAU?$_Tree_node@U?$pair@$$CBV?$tuple@HHHW4arch_t@@@std@@P6AIPBEH@Z@std@@PAX@2@@?$_Tree@V?$_Tmap_traits@V?$tuple@HHHW4arch_t@@@std@@P6AIPBEH@ZU?$less@V?$tuple@HHHW4arch_t@@@std@@@2@V?$allocator@U?$pair@$$CBV?$tuple@HHHW4arch_t@@@std@@P6AIPBEH@Z@std@@@2@$0A@@std@@@std@@IAE?AV?$_Tree_iterator@V?$_Tree_val@U?$_Tree_simple_types@U?$pair@$$CBV?$tuple@HHHW4arch_t@@@std@@P6AIPBEH@Z@std@@@std@@@std@@@1@V?$_Tree_const_iterator@V?$_Tree_val@U?$_Tree_simple_types@U?$pair@$$CBV?$tuple@HHHW4arch_t@@@std@@P6AIPBEH@Z@std@@@std@@@std@@@1@AAU?$pair@$$CBV?$tuple@HHHW4arch_t@@@std@@P6AIPBEH@Z@1@PAU?$_Tree_node@U?$pair@$$CBV?$tuple@HHHW4arch_t@@@std@@P6AIPBEH@Z@std@@PAX@1@@Z
	DD	01H
	DD	FLAT:__tryblocktable$??$_Insert_hint@AAU?$pair@$$CBV?$tuple@HHHW4arch_t@@@std@@P6AIPBEH@Z@std@@PAU?$_Tree_node@U?$pair@$$CBV?$tuple@HHHW4arch_t@@@std@@P6AIPBEH@Z@std@@PAX@2@@?$_Tree@V?$_Tmap_traits@V?$tuple@HHHW4arch_t@@@std@@P6AIPBEH@ZU?$less@V?$tuple@HHHW4arch_t@@@std@@@2@V?$allocator@U?$pair@$$CBV?$tuple@HHHW4arch_t@@@std@@P6AIPBEH@Z@std@@@2@$0A@@std@@@std@@IAE?AV?$_Tree_iterator@V?$_Tree_val@U?$_Tree_simple_types@U?$pair@$$CBV?$tuple@HHHW4arch_t@@@std@@P6AIPBEH@Z@std@@@std@@@std@@@1@V?$_Tree_const_iterator@V?$_Tree_val@U?$_Tree_simple_types@U?$pair@$$CBV?$tuple@HHHW4arch_t@@@std@@P6AIPBEH@Z@std@@@std@@@std@@@1@AAU?$pair@$$CBV?$tuple@HHHW4arch_t@@@std@@P6AIPBEH@Z@1@PAU?$_Tree_node@U?$pair@$$CBV?$tuple@HHHW4arch_t@@@std@@P6AIPBEH@Z@std@@PAX@1@@Z
	DD	2 DUP(00H)
	DD	00H
	DD	01H
__unwindtable$??$_Insert_hint@AAU?$pair@$$CBV?$tuple@HHHW4arch_t@@@std@@P6AIPBEH@Z@std@@PAU?$_Tree_node@U?$pair@$$CBV?$tuple@HHHW4arch_t@@@std@@P6AIPBEH@Z@std@@PAX@2@@?$_Tree@V?$_Tmap_traits@V?$tuple@HHHW4arch_t@@@std@@P6AIPBEH@ZU?$less@V?$tuple@HHHW4arch_t@@@std@@@2@V?$allocator@U?$pair@$$CBV?$tuple@HHHW4arch_t@@@std@@P6AIPBEH@Z@std@@@2@$0A@@std@@@std@@IAE?AV?$_Tree_iterator@V?$_Tree_val@U?$_Tree_simple_types@U?$pair@$$CBV?$tuple@HHHW4arch_t@@@std@@P6AIPBEH@Z@std@@@std@@@std@@@1@V?$_Tree_const_iterator@V?$_Tree_val@U?$_Tree_simple_types@U?$pair@$$CBV?$tuple@HHHW4arch_t@@@std@@P6AIPBEH@Z@std@@@std@@@std@@@1@AAU?$pair@$$CBV?$tuple@HHHW4arch_t@@@std@@P6AIPBEH@Z@1@PAU?$_Tree_node@U?$pair@$$CBV?$tuple@HHHW4arch_t@@@std@@P6AIPBEH@Z@std@@PAX@1@@Z DD 0ffffffffH
	DD	00H
	DD	0ffffffffH
	DD	00H
__tryblocktable$??$_Insert_hint@AAU?$pair@$$CBV?$tuple@HHHW4arch_t@@@std@@P6AIPBEH@Z@std@@PAU?$_Tree_node@U?$pair@$$CBV?$tuple@HHHW4arch_t@@@std@@P6AIPBEH@Z@std@@PAX@2@@?$_Tree@V?$_Tmap_traits@V?$tuple@HHHW4arch_t@@@std@@P6AIPBEH@ZU?$less@V?$tuple@HHHW4arch_t@@@std@@@2@V?$allocator@U?$pair@$$CBV?$tuple@HHHW4arch_t@@@std@@P6AIPBEH@Z@std@@@2@$0A@@std@@@std@@IAE?AV?$_Tree_iterator@V?$_Tree_val@U?$_Tree_simple_types@U?$pair@$$CBV?$tuple@HHHW4arch_t@@@std@@P6AIPBEH@Z@std@@@std@@@std@@@1@V?$_Tree_const_iterator@V?$_Tree_val@U?$_Tree_simple_types@U?$pair@$$CBV?$tuple@HHHW4arch_t@@@std@@P6AIPBEH@Z@std@@@std@@@std@@@1@AAU?$pair@$$CBV?$tuple@HHHW4arch_t@@@std@@P6AIPBEH@Z@1@PAU?$_Tree_node@U?$pair@$$CBV?$tuple@HHHW4arch_t@@@std@@P6AIPBEH@Z@std@@PAX@1@@Z DD 00H
	DD	00H
	DD	01H
	DD	01H
	DD	FLAT:__catchsym$??$_Insert_hint@AAU?$pair@$$CBV?$tuple@HHHW4arch_t@@@std@@P6AIPBEH@Z@std@@PAU?$_Tree_node@U?$pair@$$CBV?$tuple@HHHW4arch_t@@@std@@P6AIPBEH@Z@std@@PAX@2@@?$_Tree@V?$_Tmap_traits@V?$tuple@HHHW4arch_t@@@std@@P6AIPBEH@ZU?$less@V?$tuple@HHHW4arch_t@@@std@@@2@V?$allocator@U?$pair@$$CBV?$tuple@HHHW4arch_t@@@std@@P6AIPBEH@Z@std@@@2@$0A@@std@@@std@@IAE?AV?$_Tree_iterator@V?$_Tree_val@U?$_Tree_simple_types@U?$pair@$$CBV?$tuple@HHHW4arch_t@@@std@@P6AIPBEH@Z@std@@@std@@@std@@@1@V?$_Tree_const_iterator@V?$_Tree_val@U?$_Tree_simple_types@U?$pair@$$CBV?$tuple@HHHW4arch_t@@@std@@P6AIPBEH@Z@std@@@std@@@std@@@1@AAU?$pair@$$CBV?$tuple@HHHW4arch_t@@@std@@P6AIPBEH@Z@1@PAU?$_Tree_node@U?$pair@$$CBV?$tuple@HHHW4arch_t@@@std@@P6AIPBEH@Z@std@@PAX@1@@Z$120
__catchsym$??$_Insert_hint@AAU?$pair@$$CBV?$tuple@HHHW4arch_t@@@std@@P6AIPBEH@Z@std@@PAU?$_Tree_node@U?$pair@$$CBV?$tuple@HHHW4arch_t@@@std@@P6AIPBEH@Z@std@@PAX@2@@?$_Tree@V?$_Tmap_traits@V?$tuple@HHHW4arch_t@@@std@@P6AIPBEH@ZU?$less@V?$tuple@HHHW4arch_t@@@std@@@2@V?$allocator@U?$pair@$$CBV?$tuple@HHHW4arch_t@@@std@@P6AIPBEH@Z@std@@@2@$0A@@std@@@std@@IAE?AV?$_Tree_iterator@V?$_Tree_val@U?$_Tree_simple_types@U?$pair@$$CBV?$tuple@HHHW4arch_t@@@std@@P6AIPBEH@Z@std@@@std@@@std@@@1@V?$_Tree_const_iterator@V?$_Tree_val@U?$_Tree_simple_types@U?$pair@$$CBV?$tuple@HHHW4arch_t@@@std@@P6AIPBEH@Z@std@@@std@@@std@@@1@AAU?$pair@$$CBV?$tuple@HHHW4arch_t@@@std@@P6AIPBEH@Z@1@PAU?$_Tree_node@U?$pair@$$CBV?$tuple@HHHW4arch_t@@@std@@P6AIPBEH@Z@std@@PAX@1@@Z$120 DD 040H
	DD	00H
	DD	00H
	DD	FLAT:__catch$??$_Insert_hint@AAU?$pair@$$CBV?$tuple@HHHW4arch_t@@@std@@P6AIPBEH@Z@std@@PAU?$_Tree_node@U?$pair@$$CBV?$tuple@HHHW4arch_t@@@std@@P6AIPBEH@Z@std@@PAX@2@@?$_Tree@V?$_Tmap_traits@V?$tuple@HHHW4arch_t@@@std@@P6AIPBEH@ZU?$less@V?$tuple@HHHW4arch_t@@@std@@@2@V?$allocator@U?$pair@$$CBV?$tuple@HHHW4arch_t@@@std@@P6AIPBEH@Z@std@@@2@$0A@@std@@@std@@IAE?AV?$_Tree_iterator@V?$_Tree_val@U?$_Tree_simple_types@U?$pair@$$CBV?$tuple@HHHW4arch_t@@@std@@P6AIPBEH@Z@std@@@std@@@std@@@1@V?$_Tree_const_iterator@V?$_Tree_val@U?$_Tree_simple_types@U?$pair@$$CBV?$tuple@HHHW4arch_t@@@std@@P6AIPBEH@Z@std@@@std@@@std@@@1@AAU?$pair@$$CBV?$tuple@HHHW4arch_t@@@std@@P6AIPBEH@Z@1@PAU?$_Tree_node@U?$pair@$$CBV?$tuple@HHHW4arch_t@@@std@@P6AIPBEH@Z@std@@PAX@1@@Z$0
xdata$x	ENDS
;	COMDAT xdata$x
xdata$x	SEGMENT
__ehfuncinfo$??$_Insert_nohint@AAU?$pair@$$CBV?$tuple@HHHW4arch_t@@@std@@P6AIPBEH@Z@std@@PAU?$_Tree_node@U?$pair@$$CBV?$tuple@HHHW4arch_t@@@std@@P6AIPBEH@Z@std@@PAX@2@@?$_Tree@V?$_Tmap_traits@V?$tuple@HHHW4arch_t@@@std@@P6AIPBEH@ZU?$less@V?$tuple@HHHW4arch_t@@@std@@@2@V?$allocator@U?$pair@$$CBV?$tuple@HHHW4arch_t@@@std@@P6AIPBEH@Z@std@@@2@$0A@@std@@@std@@IAE?AU?$pair@V?$_Tree_iterator@V?$_Tree_val@U?$_Tree_simple_types@U?$pair@$$CBV?$tuple@HHHW4arch_t@@@std@@P6AIPBEH@Z@std@@@std@@@std@@@std@@_N@1@_NAAU?$pair@$$CBV?$tuple@HHHW4arch_t@@@std@@P6AIPBEH@Z@1@PAU?$_Tree_node@U?$pair@$$CBV?$tuple@HHHW4arch_t@@@std@@P6AIPBEH@Z@std@@PAX@1@@Z DD 019930522H
	DD	02H
	DD	FLAT:__unwindtable$??$_Insert_nohint@AAU?$pair@$$CBV?$tuple@HHHW4arch_t@@@std@@P6AIPBEH@Z@std@@PAU?$_Tree_node@U?$pair@$$CBV?$tuple@HHHW4arch_t@@@std@@P6AIPBEH@Z@std@@PAX@2@@?$_Tree@V?$_Tmap_traits@V?$tuple@HHHW4arch_t@@@std@@P6AIPBEH@ZU?$less@V?$tuple@HHHW4arch_t@@@std@@@2@V?$allocator@U?$pair@$$CBV?$tuple@HHHW4arch_t@@@std@@P6AIPBEH@Z@std@@@2@$0A@@std@@@std@@IAE?AU?$pair@V?$_Tree_iterator@V?$_Tree_val@U?$_Tree_simple_types@U?$pair@$$CBV?$tuple@HHHW4arch_t@@@std@@P6AIPBEH@Z@std@@@std@@@std@@@std@@_N@1@_NAAU?$pair@$$CBV?$tuple@HHHW4arch_t@@@std@@P6AIPBEH@Z@1@PAU?$_Tree_node@U?$pair@$$CBV?$tuple@HHHW4arch_t@@@std@@P6AIPBEH@Z@std@@PAX@1@@Z
	DD	01H
	DD	FLAT:__tryblocktable$??$_Insert_nohint@AAU?$pair@$$CBV?$tuple@HHHW4arch_t@@@std@@P6AIPBEH@Z@std@@PAU?$_Tree_node@U?$pair@$$CBV?$tuple@HHHW4arch_t@@@std@@P6AIPBEH@Z@std@@PAX@2@@?$_Tree@V?$_Tmap_traits@V?$tuple@HHHW4arch_t@@@std@@P6AIPBEH@ZU?$less@V?$tuple@HHHW4arch_t@@@std@@@2@V?$allocator@U?$pair@$$CBV?$tuple@HHHW4arch_t@@@std@@P6AIPBEH@Z@std@@@2@$0A@@std@@@std@@IAE?AU?$pair@V?$_Tree_iterator@V?$_Tree_val@U?$_Tree_simple_types@U?$pair@$$CBV?$tuple@HHHW4arch_t@@@std@@P6AIPBEH@Z@std@@@std@@@std@@@std@@_N@1@_NAAU?$pair@$$CBV?$tuple@HHHW4arch_t@@@std@@P6AIPBEH@Z@1@PAU?$_Tree_node@U?$pair@$$CBV?$tuple@HHHW4arch_t@@@std@@P6AIPBEH@Z@std@@PAX@1@@Z
	DD	2 DUP(00H)
	DD	00H
	DD	01H
__unwindtable$??$_Insert_nohint@AAU?$pair@$$CBV?$tuple@HHHW4arch_t@@@std@@P6AIPBEH@Z@std@@PAU?$_Tree_node@U?$pair@$$CBV?$tuple@HHHW4arch_t@@@std@@P6AIPBEH@Z@std@@PAX@2@@?$_Tree@V?$_Tmap_traits@V?$tuple@HHHW4arch_t@@@std@@P6AIPBEH@ZU?$less@V?$tuple@HHHW4arch_t@@@std@@@2@V?$allocator@U?$pair@$$CBV?$tuple@HHHW4arch_t@@@std@@P6AIPBEH@Z@std@@@2@$0A@@std@@@std@@IAE?AU?$pair@V?$_Tree_iterator@V?$_Tree_val@U?$_Tree_simple_types@U?$pair@$$CBV?$tuple@HHHW4arch_t@@@std@@P6AIPBEH@Z@std@@@std@@@std@@@std@@_N@1@_NAAU?$pair@$$CBV?$tuple@HHHW4arch_t@@@std@@P6AIPBEH@Z@1@PAU?$_Tree_node@U?$pair@$$CBV?$tuple@HHHW4arch_t@@@std@@P6AIPBEH@Z@std@@PAX@1@@Z DD 0ffffffffH
	DD	00H
	DD	0ffffffffH
	DD	00H
__tryblocktable$??$_Insert_nohint@AAU?$pair@$$CBV?$tuple@HHHW4arch_t@@@std@@P6AIPBEH@Z@std@@PAU?$_Tree_node@U?$pair@$$CBV?$tuple@HHHW4arch_t@@@std@@P6AIPBEH@Z@std@@PAX@2@@?$_Tree@V?$_Tmap_traits@V?$tuple@HHHW4arch_t@@@std@@P6AIPBEH@ZU?$less@V?$tuple@HHHW4arch_t@@@std@@@2@V?$allocator@U?$pair@$$CBV?$tuple@HHHW4arch_t@@@std@@P6AIPBEH@Z@std@@@2@$0A@@std@@@std@@IAE?AU?$pair@V?$_Tree_iterator@V?$_Tree_val@U?$_Tree_simple_types@U?$pair@$$CBV?$tuple@HHHW4arch_t@@@std@@P6AIPBEH@Z@std@@@std@@@std@@@std@@_N@1@_NAAU?$pair@$$CBV?$tuple@HHHW4arch_t@@@std@@P6AIPBEH@Z@1@PAU?$_Tree_node@U?$pair@$$CBV?$tuple@HHHW4arch_t@@@std@@P6AIPBEH@Z@std@@PAX@1@@Z DD 00H
	DD	00H
	DD	01H
	DD	01H
	DD	FLAT:__catchsym$??$_Insert_nohint@AAU?$pair@$$CBV?$tuple@HHHW4arch_t@@@std@@P6AIPBEH@Z@std@@PAU?$_Tree_node@U?$pair@$$CBV?$tuple@HHHW4arch_t@@@std@@P6AIPBEH@Z@std@@PAX@2@@?$_Tree@V?$_Tmap_traits@V?$tuple@HHHW4arch_t@@@std@@P6AIPBEH@ZU?$less@V?$tuple@HHHW4arch_t@@@std@@@2@V?$allocator@U?$pair@$$CBV?$tuple@HHHW4arch_t@@@std@@P6AIPBEH@Z@std@@@2@$0A@@std@@@std@@IAE?AU?$pair@V?$_Tree_iterator@V?$_Tree_val@U?$_Tree_simple_types@U?$pair@$$CBV?$tuple@HHHW4arch_t@@@std@@P6AIPBEH@Z@std@@@std@@@std@@@std@@_N@1@_NAAU?$pair@$$CBV?$tuple@HHHW4arch_t@@@std@@P6AIPBEH@Z@1@PAU?$_Tree_node@U?$pair@$$CBV?$tuple@HHHW4arch_t@@@std@@P6AIPBEH@Z@std@@PAX@1@@Z$71
__catchsym$??$_Insert_nohint@AAU?$pair@$$CBV?$tuple@HHHW4arch_t@@@std@@P6AIPBEH@Z@std@@PAU?$_Tree_node@U?$pair@$$CBV?$tuple@HHHW4arch_t@@@std@@P6AIPBEH@Z@std@@PAX@2@@?$_Tree@V?$_Tmap_traits@V?$tuple@HHHW4arch_t@@@std@@P6AIPBEH@ZU?$less@V?$tuple@HHHW4arch_t@@@std@@@2@V?$allocator@U?$pair@$$CBV?$tuple@HHHW4arch_t@@@std@@P6AIPBEH@Z@std@@@2@$0A@@std@@@std@@IAE?AU?$pair@V?$_Tree_iterator@V?$_Tree_val@U?$_Tree_simple_types@U?$pair@$$CBV?$tuple@HHHW4arch_t@@@std@@P6AIPBEH@Z@std@@@std@@@std@@@std@@_N@1@_NAAU?$pair@$$CBV?$tuple@HHHW4arch_t@@@std@@P6AIPBEH@Z@1@PAU?$_Tree_node@U?$pair@$$CBV?$tuple@HHHW4arch_t@@@std@@P6AIPBEH@Z@std@@PAX@1@@Z$71 DD 040H
	DD	00H
	DD	00H
	DD	FLAT:__catch$??$_Insert_nohint@AAU?$pair@$$CBV?$tuple@HHHW4arch_t@@@std@@P6AIPBEH@Z@std@@PAU?$_Tree_node@U?$pair@$$CBV?$tuple@HHHW4arch_t@@@std@@P6AIPBEH@Z@std@@PAX@2@@?$_Tree@V?$_Tmap_traits@V?$tuple@HHHW4arch_t@@@std@@P6AIPBEH@ZU?$less@V?$tuple@HHHW4arch_t@@@std@@@2@V?$allocator@U?$pair@$$CBV?$tuple@HHHW4arch_t@@@std@@P6AIPBEH@Z@std@@@2@$0A@@std@@@std@@IAE?AU?$pair@V?$_Tree_iterator@V?$_Tree_val@U?$_Tree_simple_types@U?$pair@$$CBV?$tuple@HHHW4arch_t@@@std@@P6AIPBEH@Z@std@@@std@@@std@@@std@@_N@1@_NAAU?$pair@$$CBV?$tuple@HHHW4arch_t@@@std@@P6AIPBEH@Z@1@PAU?$_Tree_node@U?$pair@$$CBV?$tuple@HHHW4arch_t@@@std@@P6AIPBEH@Z@std@@PAX@1@@Z$0
; Function compile flags: /Ogtpy
; File c:\github\mvtools\sources\variance.cpp
; File c:\program files (x86)\microsoft visual studio 14.0\vc\include\xtree
; File c:\program files (x86)\microsoft visual studio 14.0\vc\include\map
; File c:\github\mvtools\sources\variance.cpp
; File c:\program files (x86)\microsoft visual studio 14.0\vc\include\map
; File c:\github\mvtools\sources\variance.cpp
; File c:\program files (x86)\microsoft visual studio 14.0\vc\include\map
; File c:\github\mvtools\sources\variance.cpp
; File c:\program files (x86)\microsoft visual studio 14.0\vc\include\map
; File c:\github\mvtools\sources\variance.cpp
; File c:\program files (x86)\microsoft visual studio 14.0\vc\include\map
; File c:\github\mvtools\sources\variance.cpp
; File c:\program files (x86)\microsoft visual studio 14.0\vc\include\map
; File c:\github\mvtools\sources\variance.cpp
; File c:\program files (x86)\microsoft visual studio 14.0\vc\include\map
; File c:\github\mvtools\sources\variance.cpp
; File c:\program files (x86)\microsoft visual studio 14.0\vc\include\map
; File c:\github\mvtools\sources\variance.cpp
; File c:\program files (x86)\microsoft visual studio 14.0\vc\include\map
; File c:\github\mvtools\sources\variance.cpp
; File c:\program files (x86)\microsoft visual studio 14.0\vc\include\map
; File c:\github\mvtools\sources\variance.cpp
; File c:\program files (x86)\microsoft visual studio 14.0\vc\include\map
; File c:\github\mvtools\sources\variance.cpp
; File c:\program files (x86)\microsoft visual studio 14.0\vc\include\map
; File c:\github\mvtools\sources\variance.cpp
; File c:\program files (x86)\microsoft visual studio 14.0\vc\include\map
; File c:\github\mvtools\sources\variance.cpp
; File c:\program files (x86)\microsoft visual studio 14.0\vc\include\map
; File c:\github\mvtools\sources\variance.cpp
; File c:\program files (x86)\microsoft visual studio 14.0\vc\include\map
; File c:\github\mvtools\sources\variance.cpp
; File c:\program files (x86)\microsoft visual studio 14.0\vc\include\map
; File c:\github\mvtools\sources\variance.cpp
; File c:\program files (x86)\microsoft visual studio 14.0\vc\include\map
; File c:\github\mvtools\sources\variance.cpp
; File c:\program files (x86)\microsoft visual studio 14.0\vc\include\map
; File c:\github\mvtools\sources\variance.cpp
; File c:\program files (x86)\microsoft visual studio 14.0\vc\include\map
; File c:\github\mvtools\sources\variance.cpp
; File c:\program files (x86)\microsoft visual studio 14.0\vc\include\map
; File c:\github\mvtools\sources\variance.cpp
; File c:\program files (x86)\microsoft visual studio 14.0\vc\include\map
; File c:\github\mvtools\sources\variance.cpp
; File c:\program files (x86)\microsoft visual studio 14.0\vc\include\map
; File c:\github\mvtools\sources\variance.cpp
; File c:\program files (x86)\microsoft visual studio 14.0\vc\include\map
; File c:\github\mvtools\sources\variance.cpp
; File c:\program files (x86)\microsoft visual studio 14.0\vc\include\map
; File c:\github\mvtools\sources\variance.cpp
; File c:\program files (x86)\microsoft visual studio 14.0\vc\include\map
; File c:\github\mvtools\sources\variance.cpp
; File c:\program files (x86)\microsoft visual studio 14.0\vc\include\map
; File c:\github\mvtools\sources\variance.cpp
; File c:\program files (x86)\microsoft visual studio 14.0\vc\include\map
; File c:\github\mvtools\sources\variance.cpp
; File c:\program files (x86)\microsoft visual studio 14.0\vc\include\map
; File c:\github\mvtools\sources\variance.cpp
; File c:\program files (x86)\microsoft visual studio 14.0\vc\include\map
; File c:\github\mvtools\sources\variance.cpp
; File c:\program files (x86)\microsoft visual studio 14.0\vc\include\map
; File c:\github\mvtools\sources\variance.cpp
; File c:\program files (x86)\microsoft visual studio 14.0\vc\include\map
; File c:\github\mvtools\sources\variance.cpp
; File c:\program files (x86)\microsoft visual studio 14.0\vc\include\map
; File c:\github\mvtools\sources\variance.cpp
; File c:\program files (x86)\microsoft visual studio 14.0\vc\include\map
; File c:\github\mvtools\sources\variance.cpp
; File c:\program files (x86)\microsoft visual studio 14.0\vc\include\map
; File c:\github\mvtools\sources\variance.cpp
; File c:\program files (x86)\microsoft visual studio 14.0\vc\include\map
; File c:\github\mvtools\sources\variance.cpp
; File c:\program files (x86)\microsoft visual studio 14.0\vc\include\map
; File c:\github\mvtools\sources\variance.cpp
; File c:\program files (x86)\microsoft visual studio 14.0\vc\include\map
; File c:\github\mvtools\sources\variance.cpp
; File c:\program files (x86)\microsoft visual studio 14.0\vc\include\map
; File c:\github\mvtools\sources\variance.cpp
; File c:\program files (x86)\microsoft visual studio 14.0\vc\include\map
; File c:\github\mvtools\sources\variance.cpp
; File c:\program files (x86)\microsoft visual studio 14.0\vc\include\map
; File c:\github\mvtools\sources\variance.cpp
; File c:\program files (x86)\microsoft visual studio 14.0\vc\include\map
; File c:\github\mvtools\sources\variance.cpp
; File c:\program files (x86)\microsoft visual studio 14.0\vc\include\map
; File c:\github\mvtools\sources\variance.cpp
; File c:\program files (x86)\microsoft visual studio 14.0\vc\include\map
; File c:\github\mvtools\sources\variance.cpp
; File c:\program files (x86)\microsoft visual studio 14.0\vc\include\map
; File c:\github\mvtools\sources\variance.cpp
; File c:\program files (x86)\microsoft visual studio 14.0\vc\include\map
; File c:\github\mvtools\sources\variance.cpp
; File c:\program files (x86)\microsoft visual studio 14.0\vc\include\map
; File c:\github\mvtools\sources\variance.cpp
; File c:\program files (x86)\microsoft visual studio 14.0\vc\include\map
; File c:\github\mvtools\sources\variance.cpp
; File c:\program files (x86)\microsoft visual studio 14.0\vc\include\map
; File c:\github\mvtools\sources\variance.cpp
; File c:\program files (x86)\microsoft visual studio 14.0\vc\include\map
; File c:\github\mvtools\sources\variance.cpp
; File c:\program files (x86)\microsoft visual studio 14.0\vc\include\map
; File c:\github\mvtools\sources\variance.cpp
; File c:\program files (x86)\microsoft visual studio 14.0\vc\include\map
; File c:\github\mvtools\sources\variance.cpp
; File c:\program files (x86)\microsoft visual studio 14.0\vc\include\map
; File c:\github\mvtools\sources\variance.cpp
; File c:\program files (x86)\microsoft visual studio 14.0\vc\include\map
; File c:\github\mvtools\sources\variance.cpp
; File c:\program files (x86)\microsoft visual studio 14.0\vc\include\map
; File c:\github\mvtools\sources\variance.cpp
; File c:\program files (x86)\microsoft visual studio 14.0\vc\include\map
; File c:\github\mvtools\sources\variance.cpp
; File c:\program files (x86)\microsoft visual studio 14.0\vc\include\map
; File c:\github\mvtools\sources\variance.cpp
; File c:\program files (x86)\microsoft visual studio 14.0\vc\include\map
; File c:\github\mvtools\sources\variance.cpp
; File c:\program files (x86)\microsoft visual studio 14.0\vc\include\map
; File c:\github\mvtools\sources\variance.cpp
; File c:\program files (x86)\microsoft visual studio 14.0\vc\include\map
; File c:\github\mvtools\sources\variance.cpp
; File c:\program files (x86)\microsoft visual studio 14.0\vc\include\map
; File c:\github\mvtools\sources\variance.cpp
; File c:\program files (x86)\microsoft visual studio 14.0\vc\include\map
; File c:\github\mvtools\sources\variance.cpp
; File c:\program files (x86)\microsoft visual studio 14.0\vc\include\map
; File c:\github\mvtools\sources\variance.cpp
; File c:\program files (x86)\microsoft visual studio 14.0\vc\include\map
; File c:\github\mvtools\sources\variance.cpp
; File c:\program files (x86)\microsoft visual studio 14.0\vc\include\map
; File c:\github\mvtools\sources\variance.cpp
; File c:\program files (x86)\microsoft visual studio 14.0\vc\include\map
; File c:\github\mvtools\sources\variance.cpp
; File c:\program files (x86)\microsoft visual studio 14.0\vc\include\map
; File c:\github\mvtools\sources\variance.cpp
; File c:\program files (x86)\microsoft visual studio 14.0\vc\include\map
; File c:\github\mvtools\sources\variance.cpp
; File c:\program files (x86)\microsoft visual studio 14.0\vc\include\map
; File c:\github\mvtools\sources\variance.cpp
; File c:\program files (x86)\microsoft visual studio 14.0\vc\include\map
; File c:\github\mvtools\sources\variance.cpp
; File c:\program files (x86)\microsoft visual studio 14.0\vc\include\map
; File c:\github\mvtools\sources\variance.cpp
; File c:\program files (x86)\microsoft visual studio 14.0\vc\include\map
; File c:\github\mvtools\sources\variance.cpp
; File c:\program files (x86)\microsoft visual studio 14.0\vc\include\map
; File c:\github\mvtools\sources\variance.cpp
; File c:\program files (x86)\microsoft visual studio 14.0\vc\include\map
; File c:\github\mvtools\sources\variance.cpp
; File c:\program files (x86)\microsoft visual studio 14.0\vc\include\map
; File c:\github\mvtools\sources\variance.cpp
; File c:\program files (x86)\microsoft visual studio 14.0\vc\include\map
; File c:\github\mvtools\sources\variance.cpp
; File c:\program files (x86)\microsoft visual studio 14.0\vc\include\map
; File c:\github\mvtools\sources\variance.cpp
; File c:\program files (x86)\microsoft visual studio 14.0\vc\include\map
; File c:\github\mvtools\sources\variance.cpp
; File c:\program files (x86)\microsoft visual studio 14.0\vc\include\map
; File c:\github\mvtools\sources\variance.cpp
; File c:\program files (x86)\microsoft visual studio 14.0\vc\include\map
; File c:\github\mvtools\sources\variance.cpp
; File c:\program files (x86)\microsoft visual studio 14.0\vc\include\map
; File c:\github\mvtools\sources\variance.cpp
; File c:\program files (x86)\microsoft visual studio 14.0\vc\include\map
; File c:\github\mvtools\sources\variance.cpp
; File c:\program files (x86)\microsoft visual studio 14.0\vc\include\map
; File c:\github\mvtools\sources\variance.cpp
; File c:\program files (x86)\microsoft visual studio 14.0\vc\include\map
; File c:\github\mvtools\sources\variance.cpp
; File c:\program files (x86)\microsoft visual studio 14.0\vc\include\map
; File c:\github\mvtools\sources\variance.cpp
; File c:\program files (x86)\microsoft visual studio 14.0\vc\include\map
; File c:\github\mvtools\sources\variance.cpp
; File c:\program files (x86)\microsoft visual studio 14.0\vc\include\map
; File c:\github\mvtools\sources\variance.cpp
; File c:\program files (x86)\microsoft visual studio 14.0\vc\include\map
; File c:\github\mvtools\sources\variance.cpp
; File c:\program files (x86)\microsoft visual studio 14.0\vc\include\map
; File c:\github\mvtools\sources\variance.cpp
; File c:\program files (x86)\microsoft visual studio 14.0\vc\include\map
; File c:\github\mvtools\sources\variance.cpp
; File c:\program files (x86)\microsoft visual studio 14.0\vc\include\map
; File c:\github\mvtools\sources\variance.cpp
; File c:\program files (x86)\microsoft visual studio 14.0\vc\include\xtree
; File c:\github\mvtools\sources\variance.cpp
;	COMDAT ?get_luma_function@@YAP6AIPBEH@ZHHHW4arch_t@@@Z
_TEXT	SEGMENT
_archlist$ = -84					; size = 20
$T2 = -64						; size = 16
$T3 = -64						; size = 16
$T4 = -64						; size = 16
$T5 = -64						; size = 16
$T6 = -64						; size = 16
$T7 = -64						; size = 16
$T8 = -64						; size = 16
$T9 = -64						; size = 16
$T10 = -64						; size = 16
$T11 = -64						; size = 16
$T12 = -64						; size = 16
$T13 = -64						; size = 16
$T14 = -64						; size = 16
$T15 = -64						; size = 16
$T16 = -64						; size = 16
$T17 = -64						; size = 16
$T18 = -64						; size = 16
$T19 = -64						; size = 16
$T20 = -64						; size = 16
$T21 = -64						; size = 16
$T22 = -64						; size = 16
$T23 = -64						; size = 16
$T24 = -64						; size = 16
$T25 = -64						; size = 16
$T26 = -64						; size = 16
$T27 = -64						; size = 16
$T28 = -64						; size = 16
$T29 = -64						; size = 16
$T30 = -64						; size = 16
$T31 = -64						; size = 16
$T32 = -64						; size = 16
$T33 = -64						; size = 16
$T34 = -64						; size = 16
$T35 = -64						; size = 16
$T36 = -64						; size = 16
$T37 = -64						; size = 16
$T38 = -64						; size = 16
$T39 = -64						; size = 16
$T40 = -64						; size = 16
$T41 = -64						; size = 16
$T42 = -64						; size = 16
$T43 = -64						; size = 16
$T44 = -64						; size = 16
$T45 = -64						; size = 16
$T46 = -64						; size = 16
$T47 = -64						; size = 16
$T48 = -64						; size = 16
$T49 = -64						; size = 16
$T50 = -64						; size = 16
$T51 = -64						; size = 16
$T52 = -64						; size = 16
$T53 = -64						; size = 16
$T54 = -64						; size = 16
$T55 = -64						; size = 16
$T56 = -64						; size = 16
$T57 = -64						; size = 16
$T58 = -64						; size = 16
$T59 = -64						; size = 16
$T60 = -64						; size = 16
$T61 = -64						; size = 16
$T62 = -64						; size = 16
$T63 = -64						; size = 16
$T64 = -64						; size = 16
$T65 = -64						; size = 16
$T66 = -64						; size = 16
$T67 = -64						; size = 16
$T68 = -64						; size = 16
$T69 = -64						; size = 16
$T70 = -64						; size = 16
_func_luma$ = -48					; size = 8
_BlockX$ = -40						; size = 4
_BlockY$ = -36						; size = 4
$T71 = -32						; size = 8
$T72 = -32						; size = 8
$T73 = -32						; size = 8
$T74 = -32						; size = 8
$T75 = -32						; size = 8
$T76 = -32						; size = 8
$T77 = -32						; size = 8
$T78 = -32						; size = 8
$T79 = -32						; size = 8
$T80 = -32						; size = 8
$T81 = -32						; size = 8
$T82 = -32						; size = 8
$T83 = -32						; size = 8
$T84 = -32						; size = 8
$T85 = -32						; size = 8
$T86 = -32						; size = 8
$T87 = -32						; size = 8
$T88 = -32						; size = 8
$T89 = -32						; size = 8
$T90 = -32						; size = 8
$T91 = -32						; size = 8
$T92 = -32						; size = 8
$T93 = -32						; size = 8
$T94 = -32						; size = 8
$T95 = -32						; size = 8
$T96 = -32						; size = 8
$T97 = -32						; size = 8
$T98 = -32						; size = 8
$T99 = -32						; size = 8
$T100 = -32						; size = 8
$T101 = -32						; size = 8
$T102 = -32						; size = 8
$T103 = -32						; size = 8
$T104 = -32						; size = 8
$T105 = -32						; size = 8
$T106 = -32						; size = 8
$T107 = -32						; size = 8
$T108 = -32						; size = 8
$T109 = -32						; size = 8
$T110 = -32						; size = 8
$T111 = -32						; size = 8
$T112 = -32						; size = 8
$T113 = -32						; size = 8
$T114 = -32						; size = 8
$T115 = -32						; size = 8
$T116 = -32						; size = 8
$T117 = -32						; size = 8
$T118 = -32						; size = 8
$T119 = -28						; size = 4
$T120 = -28						; size = 4
$T121 = -28						; size = 4
$T122 = -28						; size = 4
$T123 = -28						; size = 4
$T124 = -28						; size = 4
$T125 = -28						; size = 4
$T126 = -28						; size = 4
$T127 = -28						; size = 4
$T128 = -28						; size = 4
$T129 = -28						; size = 4
$T130 = -28						; size = 4
$T131 = -28						; size = 4
$T132 = -28						; size = 4
$T133 = -28						; size = 4
$T134 = -28						; size = 4
$T135 = -28						; size = 4
$T136 = -28						; size = 4
$T137 = -28						; size = 4
$T138 = -24						; size = 4
$T139 = -24						; size = 4
$T140 = -24						; size = 4
$T141 = -24						; size = 4
$T142 = -24						; size = 4
$T143 = -24						; size = 4
$T144 = -24						; size = 4
$T145 = -24						; size = 4
$T146 = -24						; size = 4
$T147 = -24						; size = 4
$T148 = -24						; size = 4
$T149 = -24						; size = 4
$T150 = -24						; size = 4
$T151 = -24						; size = 4
$T152 = -24						; size = 4
$T153 = -24						; size = 4
$T154 = -24						; size = 4
$T155 = -24						; size = 4
$T156 = -24						; size = 4
$T157 = -20						; size = 4
$T158 = -20						; size = 4
$T159 = -20						; size = 4
$T160 = -20						; size = 4
$T161 = -20						; size = 4
$T162 = -20						; size = 4
$T163 = -20						; size = 4
$T164 = -20						; size = 4
$T165 = -20						; size = 4
$T166 = -20						; size = 4
$T167 = -20						; size = 4
$T168 = -20						; size = 4
$T169 = -20						; size = 4
$T170 = -20						; size = 4
$T171 = -20						; size = 4
$T172 = -20						; size = 4
$T173 = -20						; size = 4
$T174 = -20						; size = 4
$T175 = -20						; size = 4
_current_arch_try$176 = -16				; size = 4
$T177 = -16						; size = 4
$T178 = -16						; size = 4
$T179 = -16						; size = 4
$T180 = -16						; size = 4
$T181 = -16						; size = 4
$T182 = -16						; size = 4
$T183 = -16						; size = 4
$T184 = -16						; size = 4
$T185 = -16						; size = 4
$T186 = -16						; size = 4
$T187 = -16						; size = 4
$T188 = -16						; size = 4
$T189 = -16						; size = 4
$T190 = -16						; size = 4
$T191 = -16						; size = 4
$T192 = -16						; size = 4
$T193 = -16						; size = 4
$T194 = -16						; size = 4
$T195 = -16						; size = 4
__$EHRec$ = -12						; size = 12
_pixelsize$ = 8						; size = 4
_arch$ = 12						; size = 4
?get_luma_function@@YAP6AIPBEH@ZHHHW4arch_t@@@Z PROC	; get_luma_function, COMDAT
; _BlockX$ = ecx
; _BlockY$ = edx

; 125  : {

	push	ebp
	mov	ebp, esp
	push	-1
	push	__ehhandler$?get_luma_function@@YAP6AIPBEH@ZHHHW4arch_t@@@Z
	mov	eax, DWORD PTR fs:0
	push	eax
	mov	DWORD PTR fs:0, esp
	sub	esp, 72					; 00000048H
	push	ebx
	push	esi
	push	edi
	mov	DWORD PTR _BlockY$[ebp], edx
	mov	DWORD PTR _BlockX$[ebp], ecx
; File c:\program files (x86)\microsoft visual studio 14.0\vc\include\xtree

; 567  : 		: _Myhead(),

	mov	DWORD PTR _func_luma$[ebp], 0

; 568  : 		_Mysize(0)

	mov	DWORD PTR _func_luma$[ebp+4], 0

; 721  : 		_Myhead() = _Buyheadnode();

	call	?_Buyheadnode@?$_Tree_comp_alloc@V?$_Tmap_traits@V?$tuple@HHHW4arch_t@@@std@@P6AIPBEH@ZU?$less@V?$tuple@HHHW4arch_t@@@std@@@2@V?$allocator@U?$pair@$$CBV?$tuple@HHHW4arch_t@@@std@@P6AIPBEH@Z@std@@@2@$0A@@std@@@std@@QAEPAU?$_Tree_node@U?$pair@$$CBV?$tuple@HHHW4arch_t@@@std@@P6AIPBEH@Z@std@@PAX@2@XZ ; std::_Tree_comp_alloc<std::_Tmap_traits<std::tuple<int,int,int,enum arch_t>,unsigned int (__cdecl*)(unsigned char const *,int),std::less<std::tuple<int,int,int,enum arch_t> >,std::allocator<std::pair<std::tuple<int,int,int,enum arch_t> const ,unsigned int (__cdecl*)(unsigned char const *,int)> >,0> >::_Buyheadnode
	mov	DWORD PTR _func_luma$[ebp], eax
; File c:\program files (x86)\microsoft visual studio 14.0\vc\include\map

; 244  : 		return (_Try_emplace(_STD move(_Keyval),

	lea	eax, DWORD PTR $T70[ebp]
; File c:\github\mvtools\sources\variance.cpp

; 129  :     std::map<std::tuple<int, int, int, arch_t>, LUMAFunction*> func_luma;

	mov	DWORD PTR __$EHRec$[ebp+8], 0
	movaps	xmm0, XMMWORD PTR __xmm@00000020000000200000000100000000
; File c:\program files (x86)\microsoft visual studio 14.0\vc\include\map

; 244  : 		return (_Try_emplace(_STD move(_Keyval),

	lea	ecx, DWORD PTR _func_luma$[ebp]
	push	eax
	lea	eax, DWORD PTR $T118[ebp]
	push	eax
	movups	XMMWORD PTR $T70[ebp], xmm0
	call	??$_Try_emplace@V?$tuple@HHHW4arch_t@@@std@@$$V@?$map@V?$tuple@HHHW4arch_t@@@std@@P6AIPBEH@ZU?$less@V?$tuple@HHHW4arch_t@@@std@@@2@V?$allocator@U?$pair@$$CBV?$tuple@HHHW4arch_t@@@std@@P6AIPBEH@Z@std@@@2@@std@@QAE?AU?$pair@V?$_Tree_iterator@V?$_Tree_val@U?$_Tree_simple_types@U?$pair@$$CBV?$tuple@HHHW4arch_t@@@std@@P6AIPBEH@Z@std@@@std@@@std@@@std@@_N@1@$$QAV?$tuple@HHHW4arch_t@@@1@@Z ; std::map<std::tuple<int,int,int,enum arch_t>,unsigned int (__cdecl*)(unsigned char const *,int),std::less<std::tuple<int,int,int,enum arch_t> >,std::allocator<std::pair<std::tuple<int,int,int,enum arch_t> const ,unsigned int (__cdecl*)(unsigned char const *,int)> > >::_Try_emplace<std::tuple<int,int,int,enum arch_t> >
; File c:\github\mvtools\sources\variance.cpp

; 132  :     func_luma[make_tuple(32, 32, 1, NO_SIMD)] = Luma_C<32, 32,uint8_t>;

	mov	eax, DWORD PTR $T118[ebp]
; File c:\program files (x86)\microsoft visual studio 14.0\vc\include\map

; 244  : 		return (_Try_emplace(_STD move(_Keyval),

	lea	ecx, DWORD PTR _func_luma$[ebp]
	movaps	xmm0, XMMWORD PTR __xmm@00000020000000100000000100000000
; File c:\github\mvtools\sources\variance.cpp

; 132  :     func_luma[make_tuple(32, 32, 1, NO_SIMD)] = Luma_C<32, 32,uint8_t>;

	mov	DWORD PTR [eax+32], OFFSET ??$Luma_C@$0CA@$0CA@E@@YAIPBEH@Z ; Luma_C<32,32,unsigned char>
; File c:\program files (x86)\microsoft visual studio 14.0\vc\include\map

; 244  : 		return (_Try_emplace(_STD move(_Keyval),

	lea	eax, DWORD PTR $T69[ebp]
	push	eax
	lea	eax, DWORD PTR $T117[ebp]
	push	eax
	movups	XMMWORD PTR $T69[ebp], xmm0
	call	??$_Try_emplace@V?$tuple@HHHW4arch_t@@@std@@$$V@?$map@V?$tuple@HHHW4arch_t@@@std@@P6AIPBEH@ZU?$less@V?$tuple@HHHW4arch_t@@@std@@@2@V?$allocator@U?$pair@$$CBV?$tuple@HHHW4arch_t@@@std@@P6AIPBEH@Z@std@@@2@@std@@QAE?AU?$pair@V?$_Tree_iterator@V?$_Tree_val@U?$_Tree_simple_types@U?$pair@$$CBV?$tuple@HHHW4arch_t@@@std@@P6AIPBEH@Z@std@@@std@@@std@@@std@@_N@1@$$QAV?$tuple@HHHW4arch_t@@@1@@Z ; std::map<std::tuple<int,int,int,enum arch_t>,unsigned int (__cdecl*)(unsigned char const *,int),std::less<std::tuple<int,int,int,enum arch_t> >,std::allocator<std::pair<std::tuple<int,int,int,enum arch_t> const ,unsigned int (__cdecl*)(unsigned char const *,int)> > >::_Try_emplace<std::tuple<int,int,int,enum arch_t> >
; File c:\github\mvtools\sources\variance.cpp

; 133  :     func_luma[make_tuple(32, 16, 1, NO_SIMD)] = Luma_C<32, 16,uint8_t>;

	mov	eax, DWORD PTR $T117[ebp]
; File c:\program files (x86)\microsoft visual studio 14.0\vc\include\map

; 244  : 		return (_Try_emplace(_STD move(_Keyval),

	lea	ecx, DWORD PTR _func_luma$[ebp]
	movaps	xmm0, XMMWORD PTR __xmm@00000020000000080000000100000000
; File c:\github\mvtools\sources\variance.cpp

; 133  :     func_luma[make_tuple(32, 16, 1, NO_SIMD)] = Luma_C<32, 16,uint8_t>;

	mov	DWORD PTR [eax+32], OFFSET ??$Luma_C@$0CA@$0BA@E@@YAIPBEH@Z ; Luma_C<32,16,unsigned char>
; File c:\program files (x86)\microsoft visual studio 14.0\vc\include\map

; 244  : 		return (_Try_emplace(_STD move(_Keyval),

	lea	eax, DWORD PTR $T68[ebp]
	push	eax
	lea	eax, DWORD PTR $T116[ebp]
	push	eax
	movups	XMMWORD PTR $T68[ebp], xmm0
	call	??$_Try_emplace@V?$tuple@HHHW4arch_t@@@std@@$$V@?$map@V?$tuple@HHHW4arch_t@@@std@@P6AIPBEH@ZU?$less@V?$tuple@HHHW4arch_t@@@std@@@2@V?$allocator@U?$pair@$$CBV?$tuple@HHHW4arch_t@@@std@@P6AIPBEH@Z@std@@@2@@std@@QAE?AU?$pair@V?$_Tree_iterator@V?$_Tree_val@U?$_Tree_simple_types@U?$pair@$$CBV?$tuple@HHHW4arch_t@@@std@@P6AIPBEH@Z@std@@@std@@@std@@@std@@_N@1@$$QAV?$tuple@HHHW4arch_t@@@1@@Z ; std::map<std::tuple<int,int,int,enum arch_t>,unsigned int (__cdecl*)(unsigned char const *,int),std::less<std::tuple<int,int,int,enum arch_t> >,std::allocator<std::pair<std::tuple<int,int,int,enum arch_t> const ,unsigned int (__cdecl*)(unsigned char const *,int)> > >::_Try_emplace<std::tuple<int,int,int,enum arch_t> >
; File c:\github\mvtools\sources\variance.cpp

; 134  :     func_luma[make_tuple(32, 8 , 1, NO_SIMD)] = Luma_C<32, 8,uint8_t>;

	mov	eax, DWORD PTR $T116[ebp]
; File c:\program files (x86)\microsoft visual studio 14.0\vc\include\map

; 244  : 		return (_Try_emplace(_STD move(_Keyval),

	lea	ecx, DWORD PTR _func_luma$[ebp]
	movaps	xmm0, XMMWORD PTR __xmm@00000010000000200000000100000000
; File c:\github\mvtools\sources\variance.cpp

; 134  :     func_luma[make_tuple(32, 8 , 1, NO_SIMD)] = Luma_C<32, 8,uint8_t>;

	mov	DWORD PTR [eax+32], OFFSET ??$Luma_C@$0CA@$07E@@YAIPBEH@Z ; Luma_C<32,8,unsigned char>
; File c:\program files (x86)\microsoft visual studio 14.0\vc\include\map

; 244  : 		return (_Try_emplace(_STD move(_Keyval),

	lea	eax, DWORD PTR $T67[ebp]
	push	eax
	lea	eax, DWORD PTR $T115[ebp]
	push	eax
	movups	XMMWORD PTR $T67[ebp], xmm0
	call	??$_Try_emplace@V?$tuple@HHHW4arch_t@@@std@@$$V@?$map@V?$tuple@HHHW4arch_t@@@std@@P6AIPBEH@ZU?$less@V?$tuple@HHHW4arch_t@@@std@@@2@V?$allocator@U?$pair@$$CBV?$tuple@HHHW4arch_t@@@std@@P6AIPBEH@Z@std@@@2@@std@@QAE?AU?$pair@V?$_Tree_iterator@V?$_Tree_val@U?$_Tree_simple_types@U?$pair@$$CBV?$tuple@HHHW4arch_t@@@std@@P6AIPBEH@Z@std@@@std@@@std@@@std@@_N@1@$$QAV?$tuple@HHHW4arch_t@@@1@@Z ; std::map<std::tuple<int,int,int,enum arch_t>,unsigned int (__cdecl*)(unsigned char const *,int),std::less<std::tuple<int,int,int,enum arch_t> >,std::allocator<std::pair<std::tuple<int,int,int,enum arch_t> const ,unsigned int (__cdecl*)(unsigned char const *,int)> > >::_Try_emplace<std::tuple<int,int,int,enum arch_t> >
; File c:\github\mvtools\sources\variance.cpp

; 135  :     func_luma[make_tuple(16, 32, 1, NO_SIMD)] = Luma_C<16, 32,uint8_t>;

	mov	eax, DWORD PTR $T115[ebp]
; File c:\program files (x86)\microsoft visual studio 14.0\vc\include\map

; 244  : 		return (_Try_emplace(_STD move(_Keyval),

	lea	ecx, DWORD PTR _func_luma$[ebp]
	movaps	xmm0, XMMWORD PTR __xmm@00000010000000100000000100000000
; File c:\github\mvtools\sources\variance.cpp

; 135  :     func_luma[make_tuple(16, 32, 1, NO_SIMD)] = Luma_C<16, 32,uint8_t>;

	mov	DWORD PTR [eax+32], OFFSET ??$Luma_C@$0BA@$0CA@E@@YAIPBEH@Z ; Luma_C<16,32,unsigned char>
; File c:\program files (x86)\microsoft visual studio 14.0\vc\include\map

; 244  : 		return (_Try_emplace(_STD move(_Keyval),

	lea	eax, DWORD PTR $T66[ebp]
	push	eax
	lea	eax, DWORD PTR $T114[ebp]
	push	eax
	movups	XMMWORD PTR $T66[ebp], xmm0
	call	??$_Try_emplace@V?$tuple@HHHW4arch_t@@@std@@$$V@?$map@V?$tuple@HHHW4arch_t@@@std@@P6AIPBEH@ZU?$less@V?$tuple@HHHW4arch_t@@@std@@@2@V?$allocator@U?$pair@$$CBV?$tuple@HHHW4arch_t@@@std@@P6AIPBEH@Z@std@@@2@@std@@QAE?AU?$pair@V?$_Tree_iterator@V?$_Tree_val@U?$_Tree_simple_types@U?$pair@$$CBV?$tuple@HHHW4arch_t@@@std@@P6AIPBEH@Z@std@@@std@@@std@@@std@@_N@1@$$QAV?$tuple@HHHW4arch_t@@@1@@Z ; std::map<std::tuple<int,int,int,enum arch_t>,unsigned int (__cdecl*)(unsigned char const *,int),std::less<std::tuple<int,int,int,enum arch_t> >,std::allocator<std::pair<std::tuple<int,int,int,enum arch_t> const ,unsigned int (__cdecl*)(unsigned char const *,int)> > >::_Try_emplace<std::tuple<int,int,int,enum arch_t> >
; File c:\github\mvtools\sources\variance.cpp

; 136  :     func_luma[make_tuple(16, 16, 1, NO_SIMD)] = Luma_C<16, 16,uint8_t>;

	mov	eax, DWORD PTR $T114[ebp]
; File c:\program files (x86)\microsoft visual studio 14.0\vc\include\map

; 244  : 		return (_Try_emplace(_STD move(_Keyval),

	lea	ecx, DWORD PTR _func_luma$[ebp]
	movaps	xmm0, XMMWORD PTR __xmm@00000010000000080000000100000000
; File c:\github\mvtools\sources\variance.cpp

; 136  :     func_luma[make_tuple(16, 16, 1, NO_SIMD)] = Luma_C<16, 16,uint8_t>;

	mov	DWORD PTR [eax+32], OFFSET ??$Luma_C@$0BA@$0BA@E@@YAIPBEH@Z ; Luma_C<16,16,unsigned char>
; File c:\program files (x86)\microsoft visual studio 14.0\vc\include\map

; 244  : 		return (_Try_emplace(_STD move(_Keyval),

	lea	eax, DWORD PTR $T65[ebp]
	push	eax
	lea	eax, DWORD PTR $T113[ebp]
	push	eax
	movups	XMMWORD PTR $T65[ebp], xmm0
	call	??$_Try_emplace@V?$tuple@HHHW4arch_t@@@std@@$$V@?$map@V?$tuple@HHHW4arch_t@@@std@@P6AIPBEH@ZU?$less@V?$tuple@HHHW4arch_t@@@std@@@2@V?$allocator@U?$pair@$$CBV?$tuple@HHHW4arch_t@@@std@@P6AIPBEH@Z@std@@@2@@std@@QAE?AU?$pair@V?$_Tree_iterator@V?$_Tree_val@U?$_Tree_simple_types@U?$pair@$$CBV?$tuple@HHHW4arch_t@@@std@@P6AIPBEH@Z@std@@@std@@@std@@@std@@_N@1@$$QAV?$tuple@HHHW4arch_t@@@1@@Z ; std::map<std::tuple<int,int,int,enum arch_t>,unsigned int (__cdecl*)(unsigned char const *,int),std::less<std::tuple<int,int,int,enum arch_t> >,std::allocator<std::pair<std::tuple<int,int,int,enum arch_t> const ,unsigned int (__cdecl*)(unsigned char const *,int)> > >::_Try_emplace<std::tuple<int,int,int,enum arch_t> >
; File c:\github\mvtools\sources\variance.cpp

; 137  :     func_luma[make_tuple(16, 8 , 1, NO_SIMD)] = Luma_C<16, 8,uint8_t>;

	mov	eax, DWORD PTR $T113[ebp]
; File c:\program files (x86)\microsoft visual studio 14.0\vc\include\map

; 244  : 		return (_Try_emplace(_STD move(_Keyval),

	lea	ecx, DWORD PTR _func_luma$[ebp]
	movaps	xmm0, XMMWORD PTR __xmm@00000010000000040000000100000000
; File c:\github\mvtools\sources\variance.cpp

; 137  :     func_luma[make_tuple(16, 8 , 1, NO_SIMD)] = Luma_C<16, 8,uint8_t>;

	mov	DWORD PTR [eax+32], OFFSET ??$Luma_C@$0BA@$07E@@YAIPBEH@Z ; Luma_C<16,8,unsigned char>
; File c:\program files (x86)\microsoft visual studio 14.0\vc\include\map

; 244  : 		return (_Try_emplace(_STD move(_Keyval),

	lea	eax, DWORD PTR $T64[ebp]
	push	eax
	lea	eax, DWORD PTR $T112[ebp]
	push	eax
	movups	XMMWORD PTR $T64[ebp], xmm0
	call	??$_Try_emplace@V?$tuple@HHHW4arch_t@@@std@@$$V@?$map@V?$tuple@HHHW4arch_t@@@std@@P6AIPBEH@ZU?$less@V?$tuple@HHHW4arch_t@@@std@@@2@V?$allocator@U?$pair@$$CBV?$tuple@HHHW4arch_t@@@std@@P6AIPBEH@Z@std@@@2@@std@@QAE?AU?$pair@V?$_Tree_iterator@V?$_Tree_val@U?$_Tree_simple_types@U?$pair@$$CBV?$tuple@HHHW4arch_t@@@std@@P6AIPBEH@Z@std@@@std@@@std@@@std@@_N@1@$$QAV?$tuple@HHHW4arch_t@@@1@@Z ; std::map<std::tuple<int,int,int,enum arch_t>,unsigned int (__cdecl*)(unsigned char const *,int),std::less<std::tuple<int,int,int,enum arch_t> >,std::allocator<std::pair<std::tuple<int,int,int,enum arch_t> const ,unsigned int (__cdecl*)(unsigned char const *,int)> > >::_Try_emplace<std::tuple<int,int,int,enum arch_t> >
; File c:\github\mvtools\sources\variance.cpp

; 138  :     func_luma[make_tuple(16, 4 , 1, NO_SIMD)] = Luma_C<16, 4,uint8_t>;

	mov	eax, DWORD PTR $T112[ebp]
	mov	DWORD PTR [eax+32], OFFSET ??$Luma_C@$0BA@$03E@@YAIPBEH@Z ; Luma_C<16,4,unsigned char>
	movaps	xmm0, XMMWORD PTR __xmm@00000010000000020000000100000000
; File c:\program files (x86)\microsoft visual studio 14.0\vc\include\map

; 244  : 		return (_Try_emplace(_STD move(_Keyval),

	lea	eax, DWORD PTR $T63[ebp]
	push	eax
	lea	eax, DWORD PTR $T111[ebp]
	push	eax
	lea	ecx, DWORD PTR _func_luma$[ebp]
	movups	XMMWORD PTR $T63[ebp], xmm0
	call	??$_Try_emplace@V?$tuple@HHHW4arch_t@@@std@@$$V@?$map@V?$tuple@HHHW4arch_t@@@std@@P6AIPBEH@ZU?$less@V?$tuple@HHHW4arch_t@@@std@@@2@V?$allocator@U?$pair@$$CBV?$tuple@HHHW4arch_t@@@std@@P6AIPBEH@Z@std@@@2@@std@@QAE?AU?$pair@V?$_Tree_iterator@V?$_Tree_val@U?$_Tree_simple_types@U?$pair@$$CBV?$tuple@HHHW4arch_t@@@std@@P6AIPBEH@Z@std@@@std@@@std@@@std@@_N@1@$$QAV?$tuple@HHHW4arch_t@@@1@@Z ; std::map<std::tuple<int,int,int,enum arch_t>,unsigned int (__cdecl*)(unsigned char const *,int),std::less<std::tuple<int,int,int,enum arch_t> >,std::allocator<std::pair<std::tuple<int,int,int,enum arch_t> const ,unsigned int (__cdecl*)(unsigned char const *,int)> > >::_Try_emplace<std::tuple<int,int,int,enum arch_t> >
; File c:\github\mvtools\sources\variance.cpp

; 139  :     func_luma[make_tuple(16, 2 , 1, NO_SIMD)] = Luma_C<16, 2,uint8_t>;

	mov	eax, DWORD PTR $T111[ebp]
; File c:\program files (x86)\microsoft visual studio 14.0\vc\include\map

; 244  : 		return (_Try_emplace(_STD move(_Keyval),

	lea	ecx, DWORD PTR _func_luma$[ebp]
	movaps	xmm0, XMMWORD PTR __xmm@00000010000000010000000100000000
; File c:\github\mvtools\sources\variance.cpp

; 139  :     func_luma[make_tuple(16, 2 , 1, NO_SIMD)] = Luma_C<16, 2,uint8_t>;

	mov	DWORD PTR [eax+32], OFFSET ??$Luma_C@$0BA@$01E@@YAIPBEH@Z ; Luma_C<16,2,unsigned char>
; File c:\program files (x86)\microsoft visual studio 14.0\vc\include\map

; 244  : 		return (_Try_emplace(_STD move(_Keyval),

	lea	eax, DWORD PTR $T62[ebp]
	push	eax
	lea	eax, DWORD PTR $T110[ebp]
	push	eax
	movups	XMMWORD PTR $T62[ebp], xmm0
	call	??$_Try_emplace@V?$tuple@HHHW4arch_t@@@std@@$$V@?$map@V?$tuple@HHHW4arch_t@@@std@@P6AIPBEH@ZU?$less@V?$tuple@HHHW4arch_t@@@std@@@2@V?$allocator@U?$pair@$$CBV?$tuple@HHHW4arch_t@@@std@@P6AIPBEH@Z@std@@@2@@std@@QAE?AU?$pair@V?$_Tree_iterator@V?$_Tree_val@U?$_Tree_simple_types@U?$pair@$$CBV?$tuple@HHHW4arch_t@@@std@@P6AIPBEH@Z@std@@@std@@@std@@@std@@_N@1@$$QAV?$tuple@HHHW4arch_t@@@1@@Z ; std::map<std::tuple<int,int,int,enum arch_t>,unsigned int (__cdecl*)(unsigned char const *,int),std::less<std::tuple<int,int,int,enum arch_t> >,std::allocator<std::pair<std::tuple<int,int,int,enum arch_t> const ,unsigned int (__cdecl*)(unsigned char const *,int)> > >::_Try_emplace<std::tuple<int,int,int,enum arch_t> >
; File c:\github\mvtools\sources\variance.cpp

; 140  :     func_luma[make_tuple(16, 1 , 1, NO_SIMD)] = Luma_C<16, 1,uint8_t>;

	mov	eax, DWORD PTR $T110[ebp]
; File c:\program files (x86)\microsoft visual studio 14.0\vc\include\map

; 244  : 		return (_Try_emplace(_STD move(_Keyval),

	lea	ecx, DWORD PTR _func_luma$[ebp]
	movaps	xmm0, XMMWORD PTR __xmm@00000008000000100000000100000000
; File c:\github\mvtools\sources\variance.cpp

; 140  :     func_luma[make_tuple(16, 1 , 1, NO_SIMD)] = Luma_C<16, 1,uint8_t>;

	mov	DWORD PTR [eax+32], OFFSET ??$Luma_C@$0BA@$00E@@YAIPBEH@Z ; Luma_C<16,1,unsigned char>
; File c:\program files (x86)\microsoft visual studio 14.0\vc\include\map

; 244  : 		return (_Try_emplace(_STD move(_Keyval),

	lea	eax, DWORD PTR $T61[ebp]
	push	eax
	lea	eax, DWORD PTR $T109[ebp]
	push	eax
	movups	XMMWORD PTR $T61[ebp], xmm0
	call	??$_Try_emplace@V?$tuple@HHHW4arch_t@@@std@@$$V@?$map@V?$tuple@HHHW4arch_t@@@std@@P6AIPBEH@ZU?$less@V?$tuple@HHHW4arch_t@@@std@@@2@V?$allocator@U?$pair@$$CBV?$tuple@HHHW4arch_t@@@std@@P6AIPBEH@Z@std@@@2@@std@@QAE?AU?$pair@V?$_Tree_iterator@V?$_Tree_val@U?$_Tree_simple_types@U?$pair@$$CBV?$tuple@HHHW4arch_t@@@std@@P6AIPBEH@Z@std@@@std@@@std@@@std@@_N@1@$$QAV?$tuple@HHHW4arch_t@@@1@@Z ; std::map<std::tuple<int,int,int,enum arch_t>,unsigned int (__cdecl*)(unsigned char const *,int),std::less<std::tuple<int,int,int,enum arch_t> >,std::allocator<std::pair<std::tuple<int,int,int,enum arch_t> const ,unsigned int (__cdecl*)(unsigned char const *,int)> > >::_Try_emplace<std::tuple<int,int,int,enum arch_t> >
; File c:\github\mvtools\sources\variance.cpp

; 141  :     func_luma[make_tuple(8 , 16, 1, NO_SIMD)] = Luma_C<8 , 16,uint8_t>;

	mov	eax, DWORD PTR $T109[ebp]
; File c:\program files (x86)\microsoft visual studio 14.0\vc\include\map

; 244  : 		return (_Try_emplace(_STD move(_Keyval),

	lea	ecx, DWORD PTR _func_luma$[ebp]
	movaps	xmm0, XMMWORD PTR __xmm@00000008000000080000000100000000
; File c:\github\mvtools\sources\variance.cpp

; 141  :     func_luma[make_tuple(8 , 16, 1, NO_SIMD)] = Luma_C<8 , 16,uint8_t>;

	mov	DWORD PTR [eax+32], OFFSET ??$Luma_C@$07$0BA@E@@YAIPBEH@Z ; Luma_C<8,16,unsigned char>
; File c:\program files (x86)\microsoft visual studio 14.0\vc\include\map

; 244  : 		return (_Try_emplace(_STD move(_Keyval),

	lea	eax, DWORD PTR $T60[ebp]
	push	eax
	lea	eax, DWORD PTR $T108[ebp]
	push	eax
	movups	XMMWORD PTR $T60[ebp], xmm0
	call	??$_Try_emplace@V?$tuple@HHHW4arch_t@@@std@@$$V@?$map@V?$tuple@HHHW4arch_t@@@std@@P6AIPBEH@ZU?$less@V?$tuple@HHHW4arch_t@@@std@@@2@V?$allocator@U?$pair@$$CBV?$tuple@HHHW4arch_t@@@std@@P6AIPBEH@Z@std@@@2@@std@@QAE?AU?$pair@V?$_Tree_iterator@V?$_Tree_val@U?$_Tree_simple_types@U?$pair@$$CBV?$tuple@HHHW4arch_t@@@std@@P6AIPBEH@Z@std@@@std@@@std@@@std@@_N@1@$$QAV?$tuple@HHHW4arch_t@@@1@@Z ; std::map<std::tuple<int,int,int,enum arch_t>,unsigned int (__cdecl*)(unsigned char const *,int),std::less<std::tuple<int,int,int,enum arch_t> >,std::allocator<std::pair<std::tuple<int,int,int,enum arch_t> const ,unsigned int (__cdecl*)(unsigned char const *,int)> > >::_Try_emplace<std::tuple<int,int,int,enum arch_t> >
; File c:\github\mvtools\sources\variance.cpp

; 142  :     func_luma[make_tuple(8 , 8 , 1, NO_SIMD)] = Luma_C<8 , 8,uint8_t>;

	mov	eax, DWORD PTR $T108[ebp]
; File c:\program files (x86)\microsoft visual studio 14.0\vc\include\map

; 244  : 		return (_Try_emplace(_STD move(_Keyval),

	lea	ecx, DWORD PTR _func_luma$[ebp]
	movaps	xmm0, XMMWORD PTR __xmm@00000008000000040000000100000000
; File c:\github\mvtools\sources\variance.cpp

; 142  :     func_luma[make_tuple(8 , 8 , 1, NO_SIMD)] = Luma_C<8 , 8,uint8_t>;

	mov	DWORD PTR [eax+32], OFFSET ??$Luma_C@$07$07E@@YAIPBEH@Z ; Luma_C<8,8,unsigned char>
; File c:\program files (x86)\microsoft visual studio 14.0\vc\include\map

; 244  : 		return (_Try_emplace(_STD move(_Keyval),

	lea	eax, DWORD PTR $T59[ebp]
	push	eax
	lea	eax, DWORD PTR $T107[ebp]
	push	eax
	movups	XMMWORD PTR $T59[ebp], xmm0
	call	??$_Try_emplace@V?$tuple@HHHW4arch_t@@@std@@$$V@?$map@V?$tuple@HHHW4arch_t@@@std@@P6AIPBEH@ZU?$less@V?$tuple@HHHW4arch_t@@@std@@@2@V?$allocator@U?$pair@$$CBV?$tuple@HHHW4arch_t@@@std@@P6AIPBEH@Z@std@@@2@@std@@QAE?AU?$pair@V?$_Tree_iterator@V?$_Tree_val@U?$_Tree_simple_types@U?$pair@$$CBV?$tuple@HHHW4arch_t@@@std@@P6AIPBEH@Z@std@@@std@@@std@@@std@@_N@1@$$QAV?$tuple@HHHW4arch_t@@@1@@Z ; std::map<std::tuple<int,int,int,enum arch_t>,unsigned int (__cdecl*)(unsigned char const *,int),std::less<std::tuple<int,int,int,enum arch_t> >,std::allocator<std::pair<std::tuple<int,int,int,enum arch_t> const ,unsigned int (__cdecl*)(unsigned char const *,int)> > >::_Try_emplace<std::tuple<int,int,int,enum arch_t> >
; File c:\github\mvtools\sources\variance.cpp

; 143  :     func_luma[make_tuple(8 , 4 , 1, NO_SIMD)] = Luma_C<8 , 4,uint8_t>;

	mov	eax, DWORD PTR $T107[ebp]
; File c:\program files (x86)\microsoft visual studio 14.0\vc\include\map

; 244  : 		return (_Try_emplace(_STD move(_Keyval),

	lea	ecx, DWORD PTR _func_luma$[ebp]
	movaps	xmm0, XMMWORD PTR __xmm@00000008000000020000000100000000
; File c:\github\mvtools\sources\variance.cpp

; 143  :     func_luma[make_tuple(8 , 4 , 1, NO_SIMD)] = Luma_C<8 , 4,uint8_t>;

	mov	DWORD PTR [eax+32], OFFSET ??$Luma_C@$07$03E@@YAIPBEH@Z ; Luma_C<8,4,unsigned char>
; File c:\program files (x86)\microsoft visual studio 14.0\vc\include\map

; 244  : 		return (_Try_emplace(_STD move(_Keyval),

	lea	eax, DWORD PTR $T58[ebp]
	push	eax
	lea	eax, DWORD PTR $T106[ebp]
	push	eax
	movups	XMMWORD PTR $T58[ebp], xmm0
	call	??$_Try_emplace@V?$tuple@HHHW4arch_t@@@std@@$$V@?$map@V?$tuple@HHHW4arch_t@@@std@@P6AIPBEH@ZU?$less@V?$tuple@HHHW4arch_t@@@std@@@2@V?$allocator@U?$pair@$$CBV?$tuple@HHHW4arch_t@@@std@@P6AIPBEH@Z@std@@@2@@std@@QAE?AU?$pair@V?$_Tree_iterator@V?$_Tree_val@U?$_Tree_simple_types@U?$pair@$$CBV?$tuple@HHHW4arch_t@@@std@@P6AIPBEH@Z@std@@@std@@@std@@@std@@_N@1@$$QAV?$tuple@HHHW4arch_t@@@1@@Z ; std::map<std::tuple<int,int,int,enum arch_t>,unsigned int (__cdecl*)(unsigned char const *,int),std::less<std::tuple<int,int,int,enum arch_t> >,std::allocator<std::pair<std::tuple<int,int,int,enum arch_t> const ,unsigned int (__cdecl*)(unsigned char const *,int)> > >::_Try_emplace<std::tuple<int,int,int,enum arch_t> >
; File c:\github\mvtools\sources\variance.cpp

; 144  :     func_luma[make_tuple(8 , 2 , 1, NO_SIMD)] = Luma_C<8 , 2,uint8_t>;

	mov	eax, DWORD PTR $T106[ebp]
; File c:\program files (x86)\microsoft visual studio 14.0\vc\include\map

; 244  : 		return (_Try_emplace(_STD move(_Keyval),

	lea	ecx, DWORD PTR _func_luma$[ebp]
	movaps	xmm0, XMMWORD PTR __xmm@00000008000000010000000100000000
; File c:\github\mvtools\sources\variance.cpp

; 144  :     func_luma[make_tuple(8 , 2 , 1, NO_SIMD)] = Luma_C<8 , 2,uint8_t>;

	mov	DWORD PTR [eax+32], OFFSET ??$Luma_C@$07$01E@@YAIPBEH@Z ; Luma_C<8,2,unsigned char>
; File c:\program files (x86)\microsoft visual studio 14.0\vc\include\map

; 244  : 		return (_Try_emplace(_STD move(_Keyval),

	lea	eax, DWORD PTR $T57[ebp]
	push	eax
	lea	eax, DWORD PTR $T105[ebp]
	push	eax
	movups	XMMWORD PTR $T57[ebp], xmm0
	call	??$_Try_emplace@V?$tuple@HHHW4arch_t@@@std@@$$V@?$map@V?$tuple@HHHW4arch_t@@@std@@P6AIPBEH@ZU?$less@V?$tuple@HHHW4arch_t@@@std@@@2@V?$allocator@U?$pair@$$CBV?$tuple@HHHW4arch_t@@@std@@P6AIPBEH@Z@std@@@2@@std@@QAE?AU?$pair@V?$_Tree_iterator@V?$_Tree_val@U?$_Tree_simple_types@U?$pair@$$CBV?$tuple@HHHW4arch_t@@@std@@P6AIPBEH@Z@std@@@std@@@std@@@std@@_N@1@$$QAV?$tuple@HHHW4arch_t@@@1@@Z ; std::map<std::tuple<int,int,int,enum arch_t>,unsigned int (__cdecl*)(unsigned char const *,int),std::less<std::tuple<int,int,int,enum arch_t> >,std::allocator<std::pair<std::tuple<int,int,int,enum arch_t> const ,unsigned int (__cdecl*)(unsigned char const *,int)> > >::_Try_emplace<std::tuple<int,int,int,enum arch_t> >
; File c:\github\mvtools\sources\variance.cpp

; 145  :     func_luma[make_tuple(8 , 1 , 1, NO_SIMD)] = Luma_C<8 , 1,uint8_t>;

	mov	eax, DWORD PTR $T105[ebp]
; File c:\program files (x86)\microsoft visual studio 14.0\vc\include\map

; 244  : 		return (_Try_emplace(_STD move(_Keyval),

	lea	ecx, DWORD PTR _func_luma$[ebp]
	movaps	xmm0, XMMWORD PTR __xmm@00000004000000080000000100000000
; File c:\github\mvtools\sources\variance.cpp

; 145  :     func_luma[make_tuple(8 , 1 , 1, NO_SIMD)] = Luma_C<8 , 1,uint8_t>;

	mov	DWORD PTR [eax+32], OFFSET ??$Luma_C@$07$00E@@YAIPBEH@Z ; Luma_C<8,1,unsigned char>
; File c:\program files (x86)\microsoft visual studio 14.0\vc\include\map

; 244  : 		return (_Try_emplace(_STD move(_Keyval),

	lea	eax, DWORD PTR $T56[ebp]
	push	eax
	lea	eax, DWORD PTR $T104[ebp]
	push	eax
	movups	XMMWORD PTR $T56[ebp], xmm0
	call	??$_Try_emplace@V?$tuple@HHHW4arch_t@@@std@@$$V@?$map@V?$tuple@HHHW4arch_t@@@std@@P6AIPBEH@ZU?$less@V?$tuple@HHHW4arch_t@@@std@@@2@V?$allocator@U?$pair@$$CBV?$tuple@HHHW4arch_t@@@std@@P6AIPBEH@Z@std@@@2@@std@@QAE?AU?$pair@V?$_Tree_iterator@V?$_Tree_val@U?$_Tree_simple_types@U?$pair@$$CBV?$tuple@HHHW4arch_t@@@std@@P6AIPBEH@Z@std@@@std@@@std@@@std@@_N@1@$$QAV?$tuple@HHHW4arch_t@@@1@@Z ; std::map<std::tuple<int,int,int,enum arch_t>,unsigned int (__cdecl*)(unsigned char const *,int),std::less<std::tuple<int,int,int,enum arch_t> >,std::allocator<std::pair<std::tuple<int,int,int,enum arch_t> const ,unsigned int (__cdecl*)(unsigned char const *,int)> > >::_Try_emplace<std::tuple<int,int,int,enum arch_t> >
; File c:\github\mvtools\sources\variance.cpp

; 146  :     func_luma[make_tuple(4 , 8 , 1, NO_SIMD)] = Luma_C<4 , 8,uint8_t>;

	mov	eax, DWORD PTR $T104[ebp]
	movaps	xmm0, XMMWORD PTR __xmm@00000004000000040000000100000000
	mov	DWORD PTR [eax+32], OFFSET ??$Luma_C@$03$07E@@YAIPBEH@Z ; Luma_C<4,8,unsigned char>
; File c:\program files (x86)\microsoft visual studio 14.0\vc\include\map

; 244  : 		return (_Try_emplace(_STD move(_Keyval),

	lea	eax, DWORD PTR $T55[ebp]
	push	eax
	lea	eax, DWORD PTR $T103[ebp]
	push	eax
	lea	ecx, DWORD PTR _func_luma$[ebp]
	movups	XMMWORD PTR $T55[ebp], xmm0
	call	??$_Try_emplace@V?$tuple@HHHW4arch_t@@@std@@$$V@?$map@V?$tuple@HHHW4arch_t@@@std@@P6AIPBEH@ZU?$less@V?$tuple@HHHW4arch_t@@@std@@@2@V?$allocator@U?$pair@$$CBV?$tuple@HHHW4arch_t@@@std@@P6AIPBEH@Z@std@@@2@@std@@QAE?AU?$pair@V?$_Tree_iterator@V?$_Tree_val@U?$_Tree_simple_types@U?$pair@$$CBV?$tuple@HHHW4arch_t@@@std@@P6AIPBEH@Z@std@@@std@@@std@@@std@@_N@1@$$QAV?$tuple@HHHW4arch_t@@@1@@Z ; std::map<std::tuple<int,int,int,enum arch_t>,unsigned int (__cdecl*)(unsigned char const *,int),std::less<std::tuple<int,int,int,enum arch_t> >,std::allocator<std::pair<std::tuple<int,int,int,enum arch_t> const ,unsigned int (__cdecl*)(unsigned char const *,int)> > >::_Try_emplace<std::tuple<int,int,int,enum arch_t> >
; File c:\github\mvtools\sources\variance.cpp

; 147  :     func_luma[make_tuple(4 , 4 , 1, NO_SIMD)] = Luma_C<4 , 4,uint8_t>;

	mov	eax, DWORD PTR $T103[ebp]
; File c:\program files (x86)\microsoft visual studio 14.0\vc\include\map

; 244  : 		return (_Try_emplace(_STD move(_Keyval),

	lea	ecx, DWORD PTR _func_luma$[ebp]
	movaps	xmm0, XMMWORD PTR __xmm@00000004000000020000000100000000
; File c:\github\mvtools\sources\variance.cpp

; 147  :     func_luma[make_tuple(4 , 4 , 1, NO_SIMD)] = Luma_C<4 , 4,uint8_t>;

	mov	DWORD PTR [eax+32], OFFSET ??$Luma_C@$03$03E@@YAIPBEH@Z ; Luma_C<4,4,unsigned char>
; File c:\program files (x86)\microsoft visual studio 14.0\vc\include\map

; 244  : 		return (_Try_emplace(_STD move(_Keyval),

	lea	eax, DWORD PTR $T54[ebp]
	push	eax
	lea	eax, DWORD PTR $T102[ebp]
	push	eax
	movups	XMMWORD PTR $T54[ebp], xmm0
	call	??$_Try_emplace@V?$tuple@HHHW4arch_t@@@std@@$$V@?$map@V?$tuple@HHHW4arch_t@@@std@@P6AIPBEH@ZU?$less@V?$tuple@HHHW4arch_t@@@std@@@2@V?$allocator@U?$pair@$$CBV?$tuple@HHHW4arch_t@@@std@@P6AIPBEH@Z@std@@@2@@std@@QAE?AU?$pair@V?$_Tree_iterator@V?$_Tree_val@U?$_Tree_simple_types@U?$pair@$$CBV?$tuple@HHHW4arch_t@@@std@@P6AIPBEH@Z@std@@@std@@@std@@@std@@_N@1@$$QAV?$tuple@HHHW4arch_t@@@1@@Z ; std::map<std::tuple<int,int,int,enum arch_t>,unsigned int (__cdecl*)(unsigned char const *,int),std::less<std::tuple<int,int,int,enum arch_t> >,std::allocator<std::pair<std::tuple<int,int,int,enum arch_t> const ,unsigned int (__cdecl*)(unsigned char const *,int)> > >::_Try_emplace<std::tuple<int,int,int,enum arch_t> >
; File c:\github\mvtools\sources\variance.cpp

; 148  :     func_luma[make_tuple(4 , 2 , 1, NO_SIMD)] = Luma_C<4 , 2,uint8_t>;

	mov	eax, DWORD PTR $T102[ebp]
; File c:\program files (x86)\microsoft visual studio 14.0\vc\include\map

; 244  : 		return (_Try_emplace(_STD move(_Keyval),

	lea	ecx, DWORD PTR _func_luma$[ebp]
	movaps	xmm0, XMMWORD PTR __xmm@00000004000000010000000100000000
; File c:\github\mvtools\sources\variance.cpp

; 148  :     func_luma[make_tuple(4 , 2 , 1, NO_SIMD)] = Luma_C<4 , 2,uint8_t>;

	mov	DWORD PTR [eax+32], OFFSET ??$Luma_C@$03$01E@@YAIPBEH@Z ; Luma_C<4,2,unsigned char>
; File c:\program files (x86)\microsoft visual studio 14.0\vc\include\map

; 244  : 		return (_Try_emplace(_STD move(_Keyval),

	lea	eax, DWORD PTR $T53[ebp]
	push	eax
	lea	eax, DWORD PTR $T101[ebp]
	push	eax
	movups	XMMWORD PTR $T53[ebp], xmm0
	call	??$_Try_emplace@V?$tuple@HHHW4arch_t@@@std@@$$V@?$map@V?$tuple@HHHW4arch_t@@@std@@P6AIPBEH@ZU?$less@V?$tuple@HHHW4arch_t@@@std@@@2@V?$allocator@U?$pair@$$CBV?$tuple@HHHW4arch_t@@@std@@P6AIPBEH@Z@std@@@2@@std@@QAE?AU?$pair@V?$_Tree_iterator@V?$_Tree_val@U?$_Tree_simple_types@U?$pair@$$CBV?$tuple@HHHW4arch_t@@@std@@P6AIPBEH@Z@std@@@std@@@std@@@std@@_N@1@$$QAV?$tuple@HHHW4arch_t@@@1@@Z ; std::map<std::tuple<int,int,int,enum arch_t>,unsigned int (__cdecl*)(unsigned char const *,int),std::less<std::tuple<int,int,int,enum arch_t> >,std::allocator<std::pair<std::tuple<int,int,int,enum arch_t> const ,unsigned int (__cdecl*)(unsigned char const *,int)> > >::_Try_emplace<std::tuple<int,int,int,enum arch_t> >
; File c:\github\mvtools\sources\variance.cpp

; 149  :     func_luma[make_tuple(4 , 1 , 1, NO_SIMD)] = Luma_C<4 , 1,uint8_t>;

	mov	eax, DWORD PTR $T101[ebp]
; File c:\program files (x86)\microsoft visual studio 14.0\vc\include\map

; 244  : 		return (_Try_emplace(_STD move(_Keyval),

	lea	ecx, DWORD PTR _func_luma$[ebp]
	movaps	xmm0, XMMWORD PTR __xmm@00000002000000040000000100000000
; File c:\github\mvtools\sources\variance.cpp

; 149  :     func_luma[make_tuple(4 , 1 , 1, NO_SIMD)] = Luma_C<4 , 1,uint8_t>;

	mov	DWORD PTR [eax+32], OFFSET ??$Luma_C@$03$00E@@YAIPBEH@Z ; Luma_C<4,1,unsigned char>
; File c:\program files (x86)\microsoft visual studio 14.0\vc\include\map

; 244  : 		return (_Try_emplace(_STD move(_Keyval),

	lea	eax, DWORD PTR $T52[ebp]
	push	eax
	lea	eax, DWORD PTR $T100[ebp]
	push	eax
	movups	XMMWORD PTR $T52[ebp], xmm0
	call	??$_Try_emplace@V?$tuple@HHHW4arch_t@@@std@@$$V@?$map@V?$tuple@HHHW4arch_t@@@std@@P6AIPBEH@ZU?$less@V?$tuple@HHHW4arch_t@@@std@@@2@V?$allocator@U?$pair@$$CBV?$tuple@HHHW4arch_t@@@std@@P6AIPBEH@Z@std@@@2@@std@@QAE?AU?$pair@V?$_Tree_iterator@V?$_Tree_val@U?$_Tree_simple_types@U?$pair@$$CBV?$tuple@HHHW4arch_t@@@std@@P6AIPBEH@Z@std@@@std@@@std@@@std@@_N@1@$$QAV?$tuple@HHHW4arch_t@@@1@@Z ; std::map<std::tuple<int,int,int,enum arch_t>,unsigned int (__cdecl*)(unsigned char const *,int),std::less<std::tuple<int,int,int,enum arch_t> >,std::allocator<std::pair<std::tuple<int,int,int,enum arch_t> const ,unsigned int (__cdecl*)(unsigned char const *,int)> > >::_Try_emplace<std::tuple<int,int,int,enum arch_t> >
; File c:\github\mvtools\sources\variance.cpp

; 150  :     func_luma[make_tuple(2 , 4 , 1, NO_SIMD)] = Luma_C<2 , 4,uint8_t>;

	mov	eax, DWORD PTR $T100[ebp]
; File c:\program files (x86)\microsoft visual studio 14.0\vc\include\map

; 244  : 		return (_Try_emplace(_STD move(_Keyval),

	lea	ecx, DWORD PTR _func_luma$[ebp]
	movaps	xmm0, XMMWORD PTR __xmm@00000002000000020000000100000000
; File c:\github\mvtools\sources\variance.cpp

; 150  :     func_luma[make_tuple(2 , 4 , 1, NO_SIMD)] = Luma_C<2 , 4,uint8_t>;

	mov	DWORD PTR [eax+32], OFFSET ??$Luma_C@$01$03E@@YAIPBEH@Z ; Luma_C<2,4,unsigned char>
; File c:\program files (x86)\microsoft visual studio 14.0\vc\include\map

; 244  : 		return (_Try_emplace(_STD move(_Keyval),

	lea	eax, DWORD PTR $T51[ebp]
	push	eax
	lea	eax, DWORD PTR $T99[ebp]
	push	eax
	movups	XMMWORD PTR $T51[ebp], xmm0
	call	??$_Try_emplace@V?$tuple@HHHW4arch_t@@@std@@$$V@?$map@V?$tuple@HHHW4arch_t@@@std@@P6AIPBEH@ZU?$less@V?$tuple@HHHW4arch_t@@@std@@@2@V?$allocator@U?$pair@$$CBV?$tuple@HHHW4arch_t@@@std@@P6AIPBEH@Z@std@@@2@@std@@QAE?AU?$pair@V?$_Tree_iterator@V?$_Tree_val@U?$_Tree_simple_types@U?$pair@$$CBV?$tuple@HHHW4arch_t@@@std@@P6AIPBEH@Z@std@@@std@@@std@@@std@@_N@1@$$QAV?$tuple@HHHW4arch_t@@@1@@Z ; std::map<std::tuple<int,int,int,enum arch_t>,unsigned int (__cdecl*)(unsigned char const *,int),std::less<std::tuple<int,int,int,enum arch_t> >,std::allocator<std::pair<std::tuple<int,int,int,enum arch_t> const ,unsigned int (__cdecl*)(unsigned char const *,int)> > >::_Try_emplace<std::tuple<int,int,int,enum arch_t> >
; File c:\github\mvtools\sources\variance.cpp

; 151  :     func_luma[make_tuple(2 , 2 , 1, NO_SIMD)] = Luma_C<2 , 2,uint8_t>;

	mov	eax, DWORD PTR $T99[ebp]
; File c:\program files (x86)\microsoft visual studio 14.0\vc\include\map

; 244  : 		return (_Try_emplace(_STD move(_Keyval),

	lea	ecx, DWORD PTR _func_luma$[ebp]
	movaps	xmm0, XMMWORD PTR __xmm@00000002000000010000000100000000
; File c:\github\mvtools\sources\variance.cpp

; 151  :     func_luma[make_tuple(2 , 2 , 1, NO_SIMD)] = Luma_C<2 , 2,uint8_t>;

	mov	DWORD PTR [eax+32], OFFSET ??$Luma_C@$01$01E@@YAIPBEH@Z ; Luma_C<2,2,unsigned char>
; File c:\program files (x86)\microsoft visual studio 14.0\vc\include\map

; 244  : 		return (_Try_emplace(_STD move(_Keyval),

	lea	eax, DWORD PTR $T50[ebp]
	push	eax
	lea	eax, DWORD PTR $T98[ebp]
	push	eax
	movups	XMMWORD PTR $T50[ebp], xmm0
	call	??$_Try_emplace@V?$tuple@HHHW4arch_t@@@std@@$$V@?$map@V?$tuple@HHHW4arch_t@@@std@@P6AIPBEH@ZU?$less@V?$tuple@HHHW4arch_t@@@std@@@2@V?$allocator@U?$pair@$$CBV?$tuple@HHHW4arch_t@@@std@@P6AIPBEH@Z@std@@@2@@std@@QAE?AU?$pair@V?$_Tree_iterator@V?$_Tree_val@U?$_Tree_simple_types@U?$pair@$$CBV?$tuple@HHHW4arch_t@@@std@@P6AIPBEH@Z@std@@@std@@@std@@@std@@_N@1@$$QAV?$tuple@HHHW4arch_t@@@1@@Z ; std::map<std::tuple<int,int,int,enum arch_t>,unsigned int (__cdecl*)(unsigned char const *,int),std::less<std::tuple<int,int,int,enum arch_t> >,std::allocator<std::pair<std::tuple<int,int,int,enum arch_t> const ,unsigned int (__cdecl*)(unsigned char const *,int)> > >::_Try_emplace<std::tuple<int,int,int,enum arch_t> >
; File c:\github\mvtools\sources\variance.cpp

; 152  :     func_luma[make_tuple(2 , 1 , 1, NO_SIMD)] = Luma_C<2 , 1,uint8_t>;

	mov	eax, DWORD PTR $T98[ebp]
; File c:\program files (x86)\microsoft visual studio 14.0\vc\include\map

; 244  : 		return (_Try_emplace(_STD move(_Keyval),

	lea	ecx, DWORD PTR _func_luma$[ebp]
	movaps	xmm0, XMMWORD PTR __xmm@00000020000000200000000200000000
; File c:\github\mvtools\sources\variance.cpp

; 152  :     func_luma[make_tuple(2 , 1 , 1, NO_SIMD)] = Luma_C<2 , 1,uint8_t>;

	mov	DWORD PTR [eax+32], OFFSET ??$Luma_C@$01$00E@@YAIPBEH@Z ; Luma_C<2,1,unsigned char>
; File c:\program files (x86)\microsoft visual studio 14.0\vc\include\map

; 244  : 		return (_Try_emplace(_STD move(_Keyval),

	lea	eax, DWORD PTR $T49[ebp]
	push	eax
	lea	eax, DWORD PTR $T97[ebp]
	push	eax
	movups	XMMWORD PTR $T49[ebp], xmm0
	call	??$_Try_emplace@V?$tuple@HHHW4arch_t@@@std@@$$V@?$map@V?$tuple@HHHW4arch_t@@@std@@P6AIPBEH@ZU?$less@V?$tuple@HHHW4arch_t@@@std@@@2@V?$allocator@U?$pair@$$CBV?$tuple@HHHW4arch_t@@@std@@P6AIPBEH@Z@std@@@2@@std@@QAE?AU?$pair@V?$_Tree_iterator@V?$_Tree_val@U?$_Tree_simple_types@U?$pair@$$CBV?$tuple@HHHW4arch_t@@@std@@P6AIPBEH@Z@std@@@std@@@std@@@std@@_N@1@$$QAV?$tuple@HHHW4arch_t@@@1@@Z ; std::map<std::tuple<int,int,int,enum arch_t>,unsigned int (__cdecl*)(unsigned char const *,int),std::less<std::tuple<int,int,int,enum arch_t> >,std::allocator<std::pair<std::tuple<int,int,int,enum arch_t> const ,unsigned int (__cdecl*)(unsigned char const *,int)> > >::_Try_emplace<std::tuple<int,int,int,enum arch_t> >
; File c:\github\mvtools\sources\variance.cpp

; 154  :     func_luma[make_tuple(32, 32, 2, NO_SIMD)] = Luma_C<32, 32,uint16_t>;

	mov	eax, DWORD PTR $T97[ebp]
; File c:\program files (x86)\microsoft visual studio 14.0\vc\include\map

; 244  : 		return (_Try_emplace(_STD move(_Keyval),

	lea	ecx, DWORD PTR _func_luma$[ebp]
	movaps	xmm0, XMMWORD PTR __xmm@00000020000000100000000200000000
; File c:\github\mvtools\sources\variance.cpp

; 154  :     func_luma[make_tuple(32, 32, 2, NO_SIMD)] = Luma_C<32, 32,uint16_t>;

	mov	DWORD PTR [eax+32], OFFSET ??$Luma_C@$0CA@$0CA@G@@YAIPBEH@Z ; Luma_C<32,32,unsigned short>
; File c:\program files (x86)\microsoft visual studio 14.0\vc\include\map

; 244  : 		return (_Try_emplace(_STD move(_Keyval),

	lea	eax, DWORD PTR $T48[ebp]
	push	eax
	lea	eax, DWORD PTR $T96[ebp]
	push	eax
	movups	XMMWORD PTR $T48[ebp], xmm0
	call	??$_Try_emplace@V?$tuple@HHHW4arch_t@@@std@@$$V@?$map@V?$tuple@HHHW4arch_t@@@std@@P6AIPBEH@ZU?$less@V?$tuple@HHHW4arch_t@@@std@@@2@V?$allocator@U?$pair@$$CBV?$tuple@HHHW4arch_t@@@std@@P6AIPBEH@Z@std@@@2@@std@@QAE?AU?$pair@V?$_Tree_iterator@V?$_Tree_val@U?$_Tree_simple_types@U?$pair@$$CBV?$tuple@HHHW4arch_t@@@std@@P6AIPBEH@Z@std@@@std@@@std@@@std@@_N@1@$$QAV?$tuple@HHHW4arch_t@@@1@@Z ; std::map<std::tuple<int,int,int,enum arch_t>,unsigned int (__cdecl*)(unsigned char const *,int),std::less<std::tuple<int,int,int,enum arch_t> >,std::allocator<std::pair<std::tuple<int,int,int,enum arch_t> const ,unsigned int (__cdecl*)(unsigned char const *,int)> > >::_Try_emplace<std::tuple<int,int,int,enum arch_t> >
; File c:\github\mvtools\sources\variance.cpp

; 155  :     func_luma[make_tuple(32, 16, 2, NO_SIMD)] = Luma_C<32, 16,uint16_t>;

	mov	eax, DWORD PTR $T96[ebp]
	movaps	xmm0, XMMWORD PTR __xmm@00000020000000080000000200000000
	mov	DWORD PTR [eax+32], OFFSET ??$Luma_C@$0CA@$0BA@G@@YAIPBEH@Z ; Luma_C<32,16,unsigned short>
	movups	XMMWORD PTR $T47[ebp], xmm0
; File c:\program files (x86)\microsoft visual studio 14.0\vc\include\map

; 244  : 		return (_Try_emplace(_STD move(_Keyval),

	lea	eax, DWORD PTR $T47[ebp]
	push	eax
	lea	eax, DWORD PTR $T95[ebp]
	push	eax
	lea	ecx, DWORD PTR _func_luma$[ebp]
	call	??$_Try_emplace@V?$tuple@HHHW4arch_t@@@std@@$$V@?$map@V?$tuple@HHHW4arch_t@@@std@@P6AIPBEH@ZU?$less@V?$tuple@HHHW4arch_t@@@std@@@2@V?$allocator@U?$pair@$$CBV?$tuple@HHHW4arch_t@@@std@@P6AIPBEH@Z@std@@@2@@std@@QAE?AU?$pair@V?$_Tree_iterator@V?$_Tree_val@U?$_Tree_simple_types@U?$pair@$$CBV?$tuple@HHHW4arch_t@@@std@@P6AIPBEH@Z@std@@@std@@@std@@@std@@_N@1@$$QAV?$tuple@HHHW4arch_t@@@1@@Z ; std::map<std::tuple<int,int,int,enum arch_t>,unsigned int (__cdecl*)(unsigned char const *,int),std::less<std::tuple<int,int,int,enum arch_t> >,std::allocator<std::pair<std::tuple<int,int,int,enum arch_t> const ,unsigned int (__cdecl*)(unsigned char const *,int)> > >::_Try_emplace<std::tuple<int,int,int,enum arch_t> >
; File c:\github\mvtools\sources\variance.cpp

; 156  :     func_luma[make_tuple(32, 8 , 2, NO_SIMD)] = Luma_C<32, 8,uint16_t>;

	mov	eax, DWORD PTR $T95[ebp]
; File c:\program files (x86)\microsoft visual studio 14.0\vc\include\map

; 244  : 		return (_Try_emplace(_STD move(_Keyval),

	lea	ecx, DWORD PTR _func_luma$[ebp]
	movaps	xmm0, XMMWORD PTR __xmm@00000010000000200000000200000000
; File c:\github\mvtools\sources\variance.cpp

; 156  :     func_luma[make_tuple(32, 8 , 2, NO_SIMD)] = Luma_C<32, 8,uint16_t>;

	mov	DWORD PTR [eax+32], OFFSET ??$Luma_C@$0CA@$07G@@YAIPBEH@Z ; Luma_C<32,8,unsigned short>
; File c:\program files (x86)\microsoft visual studio 14.0\vc\include\map

; 244  : 		return (_Try_emplace(_STD move(_Keyval),

	lea	eax, DWORD PTR $T46[ebp]
	push	eax
	lea	eax, DWORD PTR $T94[ebp]
	push	eax
	movups	XMMWORD PTR $T46[ebp], xmm0
	call	??$_Try_emplace@V?$tuple@HHHW4arch_t@@@std@@$$V@?$map@V?$tuple@HHHW4arch_t@@@std@@P6AIPBEH@ZU?$less@V?$tuple@HHHW4arch_t@@@std@@@2@V?$allocator@U?$pair@$$CBV?$tuple@HHHW4arch_t@@@std@@P6AIPBEH@Z@std@@@2@@std@@QAE?AU?$pair@V?$_Tree_iterator@V?$_Tree_val@U?$_Tree_simple_types@U?$pair@$$CBV?$tuple@HHHW4arch_t@@@std@@P6AIPBEH@Z@std@@@std@@@std@@@std@@_N@1@$$QAV?$tuple@HHHW4arch_t@@@1@@Z ; std::map<std::tuple<int,int,int,enum arch_t>,unsigned int (__cdecl*)(unsigned char const *,int),std::less<std::tuple<int,int,int,enum arch_t> >,std::allocator<std::pair<std::tuple<int,int,int,enum arch_t> const ,unsigned int (__cdecl*)(unsigned char const *,int)> > >::_Try_emplace<std::tuple<int,int,int,enum arch_t> >
; File c:\github\mvtools\sources\variance.cpp

; 157  :     func_luma[make_tuple(16, 32, 2, NO_SIMD)] = Luma_C<16, 32,uint16_t>;

	mov	eax, DWORD PTR $T94[ebp]
; File c:\program files (x86)\microsoft visual studio 14.0\vc\include\map

; 244  : 		return (_Try_emplace(_STD move(_Keyval),

	lea	ecx, DWORD PTR _func_luma$[ebp]
	movaps	xmm0, XMMWORD PTR __xmm@00000010000000100000000200000000
; File c:\github\mvtools\sources\variance.cpp

; 157  :     func_luma[make_tuple(16, 32, 2, NO_SIMD)] = Luma_C<16, 32,uint16_t>;

	mov	DWORD PTR [eax+32], OFFSET ??$Luma_C@$0BA@$0CA@G@@YAIPBEH@Z ; Luma_C<16,32,unsigned short>
; File c:\program files (x86)\microsoft visual studio 14.0\vc\include\map

; 244  : 		return (_Try_emplace(_STD move(_Keyval),

	lea	eax, DWORD PTR $T45[ebp]
	push	eax
	lea	eax, DWORD PTR $T93[ebp]
	push	eax
	movups	XMMWORD PTR $T45[ebp], xmm0
	call	??$_Try_emplace@V?$tuple@HHHW4arch_t@@@std@@$$V@?$map@V?$tuple@HHHW4arch_t@@@std@@P6AIPBEH@ZU?$less@V?$tuple@HHHW4arch_t@@@std@@@2@V?$allocator@U?$pair@$$CBV?$tuple@HHHW4arch_t@@@std@@P6AIPBEH@Z@std@@@2@@std@@QAE?AU?$pair@V?$_Tree_iterator@V?$_Tree_val@U?$_Tree_simple_types@U?$pair@$$CBV?$tuple@HHHW4arch_t@@@std@@P6AIPBEH@Z@std@@@std@@@std@@@std@@_N@1@$$QAV?$tuple@HHHW4arch_t@@@1@@Z ; std::map<std::tuple<int,int,int,enum arch_t>,unsigned int (__cdecl*)(unsigned char const *,int),std::less<std::tuple<int,int,int,enum arch_t> >,std::allocator<std::pair<std::tuple<int,int,int,enum arch_t> const ,unsigned int (__cdecl*)(unsigned char const *,int)> > >::_Try_emplace<std::tuple<int,int,int,enum arch_t> >
; File c:\github\mvtools\sources\variance.cpp

; 158  :     func_luma[make_tuple(16, 16, 2, NO_SIMD)] = Luma_C<16, 16,uint16_t>;

	mov	eax, DWORD PTR $T93[ebp]
; File c:\program files (x86)\microsoft visual studio 14.0\vc\include\map

; 244  : 		return (_Try_emplace(_STD move(_Keyval),

	lea	ecx, DWORD PTR _func_luma$[ebp]
	movaps	xmm0, XMMWORD PTR __xmm@00000010000000080000000200000000
; File c:\github\mvtools\sources\variance.cpp

; 158  :     func_luma[make_tuple(16, 16, 2, NO_SIMD)] = Luma_C<16, 16,uint16_t>;

	mov	DWORD PTR [eax+32], OFFSET ??$Luma_C@$0BA@$0BA@G@@YAIPBEH@Z ; Luma_C<16,16,unsigned short>
; File c:\program files (x86)\microsoft visual studio 14.0\vc\include\map

; 244  : 		return (_Try_emplace(_STD move(_Keyval),

	lea	eax, DWORD PTR $T44[ebp]
	push	eax
	lea	eax, DWORD PTR $T92[ebp]
	push	eax
	movups	XMMWORD PTR $T44[ebp], xmm0
	call	??$_Try_emplace@V?$tuple@HHHW4arch_t@@@std@@$$V@?$map@V?$tuple@HHHW4arch_t@@@std@@P6AIPBEH@ZU?$less@V?$tuple@HHHW4arch_t@@@std@@@2@V?$allocator@U?$pair@$$CBV?$tuple@HHHW4arch_t@@@std@@P6AIPBEH@Z@std@@@2@@std@@QAE?AU?$pair@V?$_Tree_iterator@V?$_Tree_val@U?$_Tree_simple_types@U?$pair@$$CBV?$tuple@HHHW4arch_t@@@std@@P6AIPBEH@Z@std@@@std@@@std@@@std@@_N@1@$$QAV?$tuple@HHHW4arch_t@@@1@@Z ; std::map<std::tuple<int,int,int,enum arch_t>,unsigned int (__cdecl*)(unsigned char const *,int),std::less<std::tuple<int,int,int,enum arch_t> >,std::allocator<std::pair<std::tuple<int,int,int,enum arch_t> const ,unsigned int (__cdecl*)(unsigned char const *,int)> > >::_Try_emplace<std::tuple<int,int,int,enum arch_t> >
; File c:\github\mvtools\sources\variance.cpp

; 159  :     func_luma[make_tuple(16, 8 , 2, NO_SIMD)] = Luma_C<16, 8,uint16_t>;

	mov	eax, DWORD PTR $T92[ebp]
; File c:\program files (x86)\microsoft visual studio 14.0\vc\include\map

; 244  : 		return (_Try_emplace(_STD move(_Keyval),

	lea	ecx, DWORD PTR _func_luma$[ebp]
	movaps	xmm0, XMMWORD PTR __xmm@00000010000000040000000200000000
; File c:\github\mvtools\sources\variance.cpp

; 159  :     func_luma[make_tuple(16, 8 , 2, NO_SIMD)] = Luma_C<16, 8,uint16_t>;

	mov	DWORD PTR [eax+32], OFFSET ??$Luma_C@$0BA@$07G@@YAIPBEH@Z ; Luma_C<16,8,unsigned short>
; File c:\program files (x86)\microsoft visual studio 14.0\vc\include\map

; 244  : 		return (_Try_emplace(_STD move(_Keyval),

	lea	eax, DWORD PTR $T43[ebp]
	push	eax
	lea	eax, DWORD PTR $T91[ebp]
	push	eax
	movups	XMMWORD PTR $T43[ebp], xmm0
	call	??$_Try_emplace@V?$tuple@HHHW4arch_t@@@std@@$$V@?$map@V?$tuple@HHHW4arch_t@@@std@@P6AIPBEH@ZU?$less@V?$tuple@HHHW4arch_t@@@std@@@2@V?$allocator@U?$pair@$$CBV?$tuple@HHHW4arch_t@@@std@@P6AIPBEH@Z@std@@@2@@std@@QAE?AU?$pair@V?$_Tree_iterator@V?$_Tree_val@U?$_Tree_simple_types@U?$pair@$$CBV?$tuple@HHHW4arch_t@@@std@@P6AIPBEH@Z@std@@@std@@@std@@@std@@_N@1@$$QAV?$tuple@HHHW4arch_t@@@1@@Z ; std::map<std::tuple<int,int,int,enum arch_t>,unsigned int (__cdecl*)(unsigned char const *,int),std::less<std::tuple<int,int,int,enum arch_t> >,std::allocator<std::pair<std::tuple<int,int,int,enum arch_t> const ,unsigned int (__cdecl*)(unsigned char const *,int)> > >::_Try_emplace<std::tuple<int,int,int,enum arch_t> >
; File c:\github\mvtools\sources\variance.cpp

; 160  :     func_luma[make_tuple(16, 4 , 2, NO_SIMD)] = Luma_C<16, 4,uint16_t>;

	mov	eax, DWORD PTR $T91[ebp]
; File c:\program files (x86)\microsoft visual studio 14.0\vc\include\map

; 244  : 		return (_Try_emplace(_STD move(_Keyval),

	lea	ecx, DWORD PTR _func_luma$[ebp]
	movaps	xmm0, XMMWORD PTR __xmm@00000010000000020000000200000000
; File c:\github\mvtools\sources\variance.cpp

; 160  :     func_luma[make_tuple(16, 4 , 2, NO_SIMD)] = Luma_C<16, 4,uint16_t>;

	mov	DWORD PTR [eax+32], OFFSET ??$Luma_C@$0BA@$03G@@YAIPBEH@Z ; Luma_C<16,4,unsigned short>
; File c:\program files (x86)\microsoft visual studio 14.0\vc\include\map

; 244  : 		return (_Try_emplace(_STD move(_Keyval),

	lea	eax, DWORD PTR $T42[ebp]
	push	eax
	lea	eax, DWORD PTR $T90[ebp]
	push	eax
	movups	XMMWORD PTR $T42[ebp], xmm0
	call	??$_Try_emplace@V?$tuple@HHHW4arch_t@@@std@@$$V@?$map@V?$tuple@HHHW4arch_t@@@std@@P6AIPBEH@ZU?$less@V?$tuple@HHHW4arch_t@@@std@@@2@V?$allocator@U?$pair@$$CBV?$tuple@HHHW4arch_t@@@std@@P6AIPBEH@Z@std@@@2@@std@@QAE?AU?$pair@V?$_Tree_iterator@V?$_Tree_val@U?$_Tree_simple_types@U?$pair@$$CBV?$tuple@HHHW4arch_t@@@std@@P6AIPBEH@Z@std@@@std@@@std@@@std@@_N@1@$$QAV?$tuple@HHHW4arch_t@@@1@@Z ; std::map<std::tuple<int,int,int,enum arch_t>,unsigned int (__cdecl*)(unsigned char const *,int),std::less<std::tuple<int,int,int,enum arch_t> >,std::allocator<std::pair<std::tuple<int,int,int,enum arch_t> const ,unsigned int (__cdecl*)(unsigned char const *,int)> > >::_Try_emplace<std::tuple<int,int,int,enum arch_t> >
; File c:\github\mvtools\sources\variance.cpp

; 161  :     func_luma[make_tuple(16, 2 , 2, NO_SIMD)] = Luma_C<16, 2,uint16_t>;

	mov	eax, DWORD PTR $T90[ebp]
; File c:\program files (x86)\microsoft visual studio 14.0\vc\include\map

; 244  : 		return (_Try_emplace(_STD move(_Keyval),

	lea	ecx, DWORD PTR _func_luma$[ebp]
	movaps	xmm0, XMMWORD PTR __xmm@00000010000000010000000200000000
; File c:\github\mvtools\sources\variance.cpp

; 161  :     func_luma[make_tuple(16, 2 , 2, NO_SIMD)] = Luma_C<16, 2,uint16_t>;

	mov	DWORD PTR [eax+32], OFFSET ??$Luma_C@$0BA@$01G@@YAIPBEH@Z ; Luma_C<16,2,unsigned short>
; File c:\program files (x86)\microsoft visual studio 14.0\vc\include\map

; 244  : 		return (_Try_emplace(_STD move(_Keyval),

	lea	eax, DWORD PTR $T41[ebp]
	push	eax
	lea	eax, DWORD PTR $T89[ebp]
	push	eax
	movups	XMMWORD PTR $T41[ebp], xmm0
	call	??$_Try_emplace@V?$tuple@HHHW4arch_t@@@std@@$$V@?$map@V?$tuple@HHHW4arch_t@@@std@@P6AIPBEH@ZU?$less@V?$tuple@HHHW4arch_t@@@std@@@2@V?$allocator@U?$pair@$$CBV?$tuple@HHHW4arch_t@@@std@@P6AIPBEH@Z@std@@@2@@std@@QAE?AU?$pair@V?$_Tree_iterator@V?$_Tree_val@U?$_Tree_simple_types@U?$pair@$$CBV?$tuple@HHHW4arch_t@@@std@@P6AIPBEH@Z@std@@@std@@@std@@@std@@_N@1@$$QAV?$tuple@HHHW4arch_t@@@1@@Z ; std::map<std::tuple<int,int,int,enum arch_t>,unsigned int (__cdecl*)(unsigned char const *,int),std::less<std::tuple<int,int,int,enum arch_t> >,std::allocator<std::pair<std::tuple<int,int,int,enum arch_t> const ,unsigned int (__cdecl*)(unsigned char const *,int)> > >::_Try_emplace<std::tuple<int,int,int,enum arch_t> >
; File c:\github\mvtools\sources\variance.cpp

; 162  :     func_luma[make_tuple(16, 1 , 2, NO_SIMD)] = Luma_C<16, 1,uint16_t>;

	mov	eax, DWORD PTR $T89[ebp]
; File c:\program files (x86)\microsoft visual studio 14.0\vc\include\map

; 244  : 		return (_Try_emplace(_STD move(_Keyval),

	lea	ecx, DWORD PTR _func_luma$[ebp]
	movaps	xmm0, XMMWORD PTR __xmm@00000008000000100000000200000000
; File c:\github\mvtools\sources\variance.cpp

; 162  :     func_luma[make_tuple(16, 1 , 2, NO_SIMD)] = Luma_C<16, 1,uint16_t>;

	mov	DWORD PTR [eax+32], OFFSET ??$Luma_C@$0BA@$00G@@YAIPBEH@Z ; Luma_C<16,1,unsigned short>
; File c:\program files (x86)\microsoft visual studio 14.0\vc\include\map

; 244  : 		return (_Try_emplace(_STD move(_Keyval),

	lea	eax, DWORD PTR $T40[ebp]
	push	eax
	lea	eax, DWORD PTR $T88[ebp]
	push	eax
	movups	XMMWORD PTR $T40[ebp], xmm0
	call	??$_Try_emplace@V?$tuple@HHHW4arch_t@@@std@@$$V@?$map@V?$tuple@HHHW4arch_t@@@std@@P6AIPBEH@ZU?$less@V?$tuple@HHHW4arch_t@@@std@@@2@V?$allocator@U?$pair@$$CBV?$tuple@HHHW4arch_t@@@std@@P6AIPBEH@Z@std@@@2@@std@@QAE?AU?$pair@V?$_Tree_iterator@V?$_Tree_val@U?$_Tree_simple_types@U?$pair@$$CBV?$tuple@HHHW4arch_t@@@std@@P6AIPBEH@Z@std@@@std@@@std@@@std@@_N@1@$$QAV?$tuple@HHHW4arch_t@@@1@@Z ; std::map<std::tuple<int,int,int,enum arch_t>,unsigned int (__cdecl*)(unsigned char const *,int),std::less<std::tuple<int,int,int,enum arch_t> >,std::allocator<std::pair<std::tuple<int,int,int,enum arch_t> const ,unsigned int (__cdecl*)(unsigned char const *,int)> > >::_Try_emplace<std::tuple<int,int,int,enum arch_t> >
; File c:\github\mvtools\sources\variance.cpp

; 163  :     func_luma[make_tuple(8 , 16, 2, NO_SIMD)] = Luma_C<8 , 16,uint16_t>;

	mov	eax, DWORD PTR $T88[ebp]
	movaps	xmm0, XMMWORD PTR __xmm@00000008000000080000000200000000
	mov	DWORD PTR [eax+32], OFFSET ??$Luma_C@$07$0BA@G@@YAIPBEH@Z ; Luma_C<8,16,unsigned short>
; File c:\program files (x86)\microsoft visual studio 14.0\vc\include\map

; 244  : 		return (_Try_emplace(_STD move(_Keyval),

	lea	eax, DWORD PTR $T39[ebp]
	movups	XMMWORD PTR $T39[ebp], xmm0
	push	eax
	lea	eax, DWORD PTR $T87[ebp]
	push	eax
	lea	ecx, DWORD PTR _func_luma$[ebp]
	call	??$_Try_emplace@V?$tuple@HHHW4arch_t@@@std@@$$V@?$map@V?$tuple@HHHW4arch_t@@@std@@P6AIPBEH@ZU?$less@V?$tuple@HHHW4arch_t@@@std@@@2@V?$allocator@U?$pair@$$CBV?$tuple@HHHW4arch_t@@@std@@P6AIPBEH@Z@std@@@2@@std@@QAE?AU?$pair@V?$_Tree_iterator@V?$_Tree_val@U?$_Tree_simple_types@U?$pair@$$CBV?$tuple@HHHW4arch_t@@@std@@P6AIPBEH@Z@std@@@std@@@std@@@std@@_N@1@$$QAV?$tuple@HHHW4arch_t@@@1@@Z ; std::map<std::tuple<int,int,int,enum arch_t>,unsigned int (__cdecl*)(unsigned char const *,int),std::less<std::tuple<int,int,int,enum arch_t> >,std::allocator<std::pair<std::tuple<int,int,int,enum arch_t> const ,unsigned int (__cdecl*)(unsigned char const *,int)> > >::_Try_emplace<std::tuple<int,int,int,enum arch_t> >
; File c:\github\mvtools\sources\variance.cpp

; 164  :     func_luma[make_tuple(8 , 8 , 2, NO_SIMD)] = Luma_C<8 , 8,uint16_t>;

	mov	eax, DWORD PTR $T87[ebp]
; File c:\program files (x86)\microsoft visual studio 14.0\vc\include\map

; 244  : 		return (_Try_emplace(_STD move(_Keyval),

	lea	ecx, DWORD PTR _func_luma$[ebp]
	movaps	xmm0, XMMWORD PTR __xmm@00000008000000040000000200000000
; File c:\github\mvtools\sources\variance.cpp

; 164  :     func_luma[make_tuple(8 , 8 , 2, NO_SIMD)] = Luma_C<8 , 8,uint16_t>;

	mov	DWORD PTR [eax+32], OFFSET ??$Luma_C@$07$07G@@YAIPBEH@Z ; Luma_C<8,8,unsigned short>
; File c:\program files (x86)\microsoft visual studio 14.0\vc\include\map

; 244  : 		return (_Try_emplace(_STD move(_Keyval),

	lea	eax, DWORD PTR $T38[ebp]
	push	eax
	lea	eax, DWORD PTR $T86[ebp]
	push	eax
	movups	XMMWORD PTR $T38[ebp], xmm0
	call	??$_Try_emplace@V?$tuple@HHHW4arch_t@@@std@@$$V@?$map@V?$tuple@HHHW4arch_t@@@std@@P6AIPBEH@ZU?$less@V?$tuple@HHHW4arch_t@@@std@@@2@V?$allocator@U?$pair@$$CBV?$tuple@HHHW4arch_t@@@std@@P6AIPBEH@Z@std@@@2@@std@@QAE?AU?$pair@V?$_Tree_iterator@V?$_Tree_val@U?$_Tree_simple_types@U?$pair@$$CBV?$tuple@HHHW4arch_t@@@std@@P6AIPBEH@Z@std@@@std@@@std@@@std@@_N@1@$$QAV?$tuple@HHHW4arch_t@@@1@@Z ; std::map<std::tuple<int,int,int,enum arch_t>,unsigned int (__cdecl*)(unsigned char const *,int),std::less<std::tuple<int,int,int,enum arch_t> >,std::allocator<std::pair<std::tuple<int,int,int,enum arch_t> const ,unsigned int (__cdecl*)(unsigned char const *,int)> > >::_Try_emplace<std::tuple<int,int,int,enum arch_t> >
; File c:\github\mvtools\sources\variance.cpp

; 165  :     func_luma[make_tuple(8 , 4 , 2, NO_SIMD)] = Luma_C<8 , 4,uint16_t>;

	mov	eax, DWORD PTR $T86[ebp]
; File c:\program files (x86)\microsoft visual studio 14.0\vc\include\map

; 244  : 		return (_Try_emplace(_STD move(_Keyval),

	lea	ecx, DWORD PTR _func_luma$[ebp]
	movaps	xmm0, XMMWORD PTR __xmm@00000008000000020000000200000000
; File c:\github\mvtools\sources\variance.cpp

; 165  :     func_luma[make_tuple(8 , 4 , 2, NO_SIMD)] = Luma_C<8 , 4,uint16_t>;

	mov	DWORD PTR [eax+32], OFFSET ??$Luma_C@$07$03G@@YAIPBEH@Z ; Luma_C<8,4,unsigned short>
; File c:\program files (x86)\microsoft visual studio 14.0\vc\include\map

; 244  : 		return (_Try_emplace(_STD move(_Keyval),

	lea	eax, DWORD PTR $T37[ebp]
	push	eax
	lea	eax, DWORD PTR $T85[ebp]
	push	eax
	movups	XMMWORD PTR $T37[ebp], xmm0
	call	??$_Try_emplace@V?$tuple@HHHW4arch_t@@@std@@$$V@?$map@V?$tuple@HHHW4arch_t@@@std@@P6AIPBEH@ZU?$less@V?$tuple@HHHW4arch_t@@@std@@@2@V?$allocator@U?$pair@$$CBV?$tuple@HHHW4arch_t@@@std@@P6AIPBEH@Z@std@@@2@@std@@QAE?AU?$pair@V?$_Tree_iterator@V?$_Tree_val@U?$_Tree_simple_types@U?$pair@$$CBV?$tuple@HHHW4arch_t@@@std@@P6AIPBEH@Z@std@@@std@@@std@@@std@@_N@1@$$QAV?$tuple@HHHW4arch_t@@@1@@Z ; std::map<std::tuple<int,int,int,enum arch_t>,unsigned int (__cdecl*)(unsigned char const *,int),std::less<std::tuple<int,int,int,enum arch_t> >,std::allocator<std::pair<std::tuple<int,int,int,enum arch_t> const ,unsigned int (__cdecl*)(unsigned char const *,int)> > >::_Try_emplace<std::tuple<int,int,int,enum arch_t> >
; File c:\github\mvtools\sources\variance.cpp

; 166  :     func_luma[make_tuple(8 , 2 , 2, NO_SIMD)] = Luma_C<8 , 2,uint16_t>;

	mov	eax, DWORD PTR $T85[ebp]
; File c:\program files (x86)\microsoft visual studio 14.0\vc\include\map

; 244  : 		return (_Try_emplace(_STD move(_Keyval),

	lea	ecx, DWORD PTR _func_luma$[ebp]
	movaps	xmm0, XMMWORD PTR __xmm@00000008000000010000000200000000
; File c:\github\mvtools\sources\variance.cpp

; 166  :     func_luma[make_tuple(8 , 2 , 2, NO_SIMD)] = Luma_C<8 , 2,uint16_t>;

	mov	DWORD PTR [eax+32], OFFSET ??$Luma_C@$07$01G@@YAIPBEH@Z ; Luma_C<8,2,unsigned short>
; File c:\program files (x86)\microsoft visual studio 14.0\vc\include\map

; 244  : 		return (_Try_emplace(_STD move(_Keyval),

	lea	eax, DWORD PTR $T36[ebp]
	push	eax
	lea	eax, DWORD PTR $T84[ebp]
	push	eax
	movups	XMMWORD PTR $T36[ebp], xmm0
	call	??$_Try_emplace@V?$tuple@HHHW4arch_t@@@std@@$$V@?$map@V?$tuple@HHHW4arch_t@@@std@@P6AIPBEH@ZU?$less@V?$tuple@HHHW4arch_t@@@std@@@2@V?$allocator@U?$pair@$$CBV?$tuple@HHHW4arch_t@@@std@@P6AIPBEH@Z@std@@@2@@std@@QAE?AU?$pair@V?$_Tree_iterator@V?$_Tree_val@U?$_Tree_simple_types@U?$pair@$$CBV?$tuple@HHHW4arch_t@@@std@@P6AIPBEH@Z@std@@@std@@@std@@@std@@_N@1@$$QAV?$tuple@HHHW4arch_t@@@1@@Z ; std::map<std::tuple<int,int,int,enum arch_t>,unsigned int (__cdecl*)(unsigned char const *,int),std::less<std::tuple<int,int,int,enum arch_t> >,std::allocator<std::pair<std::tuple<int,int,int,enum arch_t> const ,unsigned int (__cdecl*)(unsigned char const *,int)> > >::_Try_emplace<std::tuple<int,int,int,enum arch_t> >
; File c:\github\mvtools\sources\variance.cpp

; 167  :     func_luma[make_tuple(8 , 1 , 2, NO_SIMD)] = Luma_C<8 , 1,uint16_t>;

	mov	eax, DWORD PTR $T84[ebp]
; File c:\program files (x86)\microsoft visual studio 14.0\vc\include\map

; 244  : 		return (_Try_emplace(_STD move(_Keyval),

	lea	ecx, DWORD PTR _func_luma$[ebp]
	movaps	xmm0, XMMWORD PTR __xmm@00000004000000080000000200000000
; File c:\github\mvtools\sources\variance.cpp

; 167  :     func_luma[make_tuple(8 , 1 , 2, NO_SIMD)] = Luma_C<8 , 1,uint16_t>;

	mov	DWORD PTR [eax+32], OFFSET ??$Luma_C@$07$00G@@YAIPBEH@Z ; Luma_C<8,1,unsigned short>
; File c:\program files (x86)\microsoft visual studio 14.0\vc\include\map

; 244  : 		return (_Try_emplace(_STD move(_Keyval),

	lea	eax, DWORD PTR $T35[ebp]
	push	eax
	lea	eax, DWORD PTR $T83[ebp]
	push	eax
	movups	XMMWORD PTR $T35[ebp], xmm0
	call	??$_Try_emplace@V?$tuple@HHHW4arch_t@@@std@@$$V@?$map@V?$tuple@HHHW4arch_t@@@std@@P6AIPBEH@ZU?$less@V?$tuple@HHHW4arch_t@@@std@@@2@V?$allocator@U?$pair@$$CBV?$tuple@HHHW4arch_t@@@std@@P6AIPBEH@Z@std@@@2@@std@@QAE?AU?$pair@V?$_Tree_iterator@V?$_Tree_val@U?$_Tree_simple_types@U?$pair@$$CBV?$tuple@HHHW4arch_t@@@std@@P6AIPBEH@Z@std@@@std@@@std@@@std@@_N@1@$$QAV?$tuple@HHHW4arch_t@@@1@@Z ; std::map<std::tuple<int,int,int,enum arch_t>,unsigned int (__cdecl*)(unsigned char const *,int),std::less<std::tuple<int,int,int,enum arch_t> >,std::allocator<std::pair<std::tuple<int,int,int,enum arch_t> const ,unsigned int (__cdecl*)(unsigned char const *,int)> > >::_Try_emplace<std::tuple<int,int,int,enum arch_t> >
; File c:\github\mvtools\sources\variance.cpp

; 168  :     func_luma[make_tuple(4 , 8 , 2, NO_SIMD)] = Luma_C<4 , 8,uint16_t>;

	mov	eax, DWORD PTR $T83[ebp]
; File c:\program files (x86)\microsoft visual studio 14.0\vc\include\map

; 244  : 		return (_Try_emplace(_STD move(_Keyval),

	lea	ecx, DWORD PTR _func_luma$[ebp]
	movaps	xmm0, XMMWORD PTR __xmm@00000004000000040000000200000000
; File c:\github\mvtools\sources\variance.cpp

; 168  :     func_luma[make_tuple(4 , 8 , 2, NO_SIMD)] = Luma_C<4 , 8,uint16_t>;

	mov	DWORD PTR [eax+32], OFFSET ??$Luma_C@$03$07G@@YAIPBEH@Z ; Luma_C<4,8,unsigned short>
; File c:\program files (x86)\microsoft visual studio 14.0\vc\include\map

; 244  : 		return (_Try_emplace(_STD move(_Keyval),

	lea	eax, DWORD PTR $T34[ebp]
	push	eax
	lea	eax, DWORD PTR $T82[ebp]
	push	eax
	movups	XMMWORD PTR $T34[ebp], xmm0
	call	??$_Try_emplace@V?$tuple@HHHW4arch_t@@@std@@$$V@?$map@V?$tuple@HHHW4arch_t@@@std@@P6AIPBEH@ZU?$less@V?$tuple@HHHW4arch_t@@@std@@@2@V?$allocator@U?$pair@$$CBV?$tuple@HHHW4arch_t@@@std@@P6AIPBEH@Z@std@@@2@@std@@QAE?AU?$pair@V?$_Tree_iterator@V?$_Tree_val@U?$_Tree_simple_types@U?$pair@$$CBV?$tuple@HHHW4arch_t@@@std@@P6AIPBEH@Z@std@@@std@@@std@@@std@@_N@1@$$QAV?$tuple@HHHW4arch_t@@@1@@Z ; std::map<std::tuple<int,int,int,enum arch_t>,unsigned int (__cdecl*)(unsigned char const *,int),std::less<std::tuple<int,int,int,enum arch_t> >,std::allocator<std::pair<std::tuple<int,int,int,enum arch_t> const ,unsigned int (__cdecl*)(unsigned char const *,int)> > >::_Try_emplace<std::tuple<int,int,int,enum arch_t> >
; File c:\github\mvtools\sources\variance.cpp

; 169  :     func_luma[make_tuple(4 , 4 , 2, NO_SIMD)] = Luma_C<4 , 4,uint16_t>;

	mov	eax, DWORD PTR $T82[ebp]
; File c:\program files (x86)\microsoft visual studio 14.0\vc\include\map

; 244  : 		return (_Try_emplace(_STD move(_Keyval),

	lea	ecx, DWORD PTR _func_luma$[ebp]
	movaps	xmm0, XMMWORD PTR __xmm@00000004000000020000000200000000
; File c:\github\mvtools\sources\variance.cpp

; 169  :     func_luma[make_tuple(4 , 4 , 2, NO_SIMD)] = Luma_C<4 , 4,uint16_t>;

	mov	DWORD PTR [eax+32], OFFSET ??$Luma_C@$03$03G@@YAIPBEH@Z ; Luma_C<4,4,unsigned short>
; File c:\program files (x86)\microsoft visual studio 14.0\vc\include\map

; 244  : 		return (_Try_emplace(_STD move(_Keyval),

	lea	eax, DWORD PTR $T33[ebp]
	push	eax
	lea	eax, DWORD PTR $T81[ebp]
	push	eax
	movups	XMMWORD PTR $T33[ebp], xmm0
	call	??$_Try_emplace@V?$tuple@HHHW4arch_t@@@std@@$$V@?$map@V?$tuple@HHHW4arch_t@@@std@@P6AIPBEH@ZU?$less@V?$tuple@HHHW4arch_t@@@std@@@2@V?$allocator@U?$pair@$$CBV?$tuple@HHHW4arch_t@@@std@@P6AIPBEH@Z@std@@@2@@std@@QAE?AU?$pair@V?$_Tree_iterator@V?$_Tree_val@U?$_Tree_simple_types@U?$pair@$$CBV?$tuple@HHHW4arch_t@@@std@@P6AIPBEH@Z@std@@@std@@@std@@@std@@_N@1@$$QAV?$tuple@HHHW4arch_t@@@1@@Z ; std::map<std::tuple<int,int,int,enum arch_t>,unsigned int (__cdecl*)(unsigned char const *,int),std::less<std::tuple<int,int,int,enum arch_t> >,std::allocator<std::pair<std::tuple<int,int,int,enum arch_t> const ,unsigned int (__cdecl*)(unsigned char const *,int)> > >::_Try_emplace<std::tuple<int,int,int,enum arch_t> >
; File c:\github\mvtools\sources\variance.cpp

; 170  :     func_luma[make_tuple(4 , 2 , 2, NO_SIMD)] = Luma_C<4 , 2,uint16_t>;

	mov	eax, DWORD PTR $T81[ebp]
; File c:\program files (x86)\microsoft visual studio 14.0\vc\include\map

; 244  : 		return (_Try_emplace(_STD move(_Keyval),

	lea	ecx, DWORD PTR _func_luma$[ebp]
	movaps	xmm0, XMMWORD PTR __xmm@00000004000000010000000200000000
; File c:\github\mvtools\sources\variance.cpp

; 170  :     func_luma[make_tuple(4 , 2 , 2, NO_SIMD)] = Luma_C<4 , 2,uint16_t>;

	mov	DWORD PTR [eax+32], OFFSET ??$Luma_C@$03$01G@@YAIPBEH@Z ; Luma_C<4,2,unsigned short>
; File c:\program files (x86)\microsoft visual studio 14.0\vc\include\map

; 244  : 		return (_Try_emplace(_STD move(_Keyval),

	lea	eax, DWORD PTR $T32[ebp]
	push	eax
	lea	eax, DWORD PTR $T80[ebp]
	push	eax
	movups	XMMWORD PTR $T32[ebp], xmm0
	call	??$_Try_emplace@V?$tuple@HHHW4arch_t@@@std@@$$V@?$map@V?$tuple@HHHW4arch_t@@@std@@P6AIPBEH@ZU?$less@V?$tuple@HHHW4arch_t@@@std@@@2@V?$allocator@U?$pair@$$CBV?$tuple@HHHW4arch_t@@@std@@P6AIPBEH@Z@std@@@2@@std@@QAE?AU?$pair@V?$_Tree_iterator@V?$_Tree_val@U?$_Tree_simple_types@U?$pair@$$CBV?$tuple@HHHW4arch_t@@@std@@P6AIPBEH@Z@std@@@std@@@std@@@std@@_N@1@$$QAV?$tuple@HHHW4arch_t@@@1@@Z ; std::map<std::tuple<int,int,int,enum arch_t>,unsigned int (__cdecl*)(unsigned char const *,int),std::less<std::tuple<int,int,int,enum arch_t> >,std::allocator<std::pair<std::tuple<int,int,int,enum arch_t> const ,unsigned int (__cdecl*)(unsigned char const *,int)> > >::_Try_emplace<std::tuple<int,int,int,enum arch_t> >
; File c:\github\mvtools\sources\variance.cpp

; 171  :     func_luma[make_tuple(4 , 1 , 2, NO_SIMD)] = Luma_C<4 , 1,uint16_t>;

	mov	eax, DWORD PTR $T80[ebp]
	movaps	xmm0, XMMWORD PTR __xmm@00000002000000040000000200000000
	mov	DWORD PTR [eax+32], OFFSET ??$Luma_C@$03$00G@@YAIPBEH@Z ; Luma_C<4,1,unsigned short>
; File c:\program files (x86)\microsoft visual studio 14.0\vc\include\map

; 244  : 		return (_Try_emplace(_STD move(_Keyval),

	lea	eax, DWORD PTR $T31[ebp]
	movups	XMMWORD PTR $T31[ebp], xmm0
	push	eax
	lea	eax, DWORD PTR $T79[ebp]
	push	eax
	lea	ecx, DWORD PTR _func_luma$[ebp]
	call	??$_Try_emplace@V?$tuple@HHHW4arch_t@@@std@@$$V@?$map@V?$tuple@HHHW4arch_t@@@std@@P6AIPBEH@ZU?$less@V?$tuple@HHHW4arch_t@@@std@@@2@V?$allocator@U?$pair@$$CBV?$tuple@HHHW4arch_t@@@std@@P6AIPBEH@Z@std@@@2@@std@@QAE?AU?$pair@V?$_Tree_iterator@V?$_Tree_val@U?$_Tree_simple_types@U?$pair@$$CBV?$tuple@HHHW4arch_t@@@std@@P6AIPBEH@Z@std@@@std@@@std@@@std@@_N@1@$$QAV?$tuple@HHHW4arch_t@@@1@@Z ; std::map<std::tuple<int,int,int,enum arch_t>,unsigned int (__cdecl*)(unsigned char const *,int),std::less<std::tuple<int,int,int,enum arch_t> >,std::allocator<std::pair<std::tuple<int,int,int,enum arch_t> const ,unsigned int (__cdecl*)(unsigned char const *,int)> > >::_Try_emplace<std::tuple<int,int,int,enum arch_t> >
; File c:\github\mvtools\sources\variance.cpp

; 172  :     func_luma[make_tuple(2 , 4 , 2, NO_SIMD)] = Luma_C<2 , 4,uint16_t>;

	mov	eax, DWORD PTR $T79[ebp]
; File c:\program files (x86)\microsoft visual studio 14.0\vc\include\map

; 244  : 		return (_Try_emplace(_STD move(_Keyval),

	lea	ecx, DWORD PTR _func_luma$[ebp]
	movaps	xmm0, XMMWORD PTR __xmm@00000002000000020000000200000000
; File c:\github\mvtools\sources\variance.cpp

; 172  :     func_luma[make_tuple(2 , 4 , 2, NO_SIMD)] = Luma_C<2 , 4,uint16_t>;

	mov	DWORD PTR [eax+32], OFFSET ??$Luma_C@$01$03G@@YAIPBEH@Z ; Luma_C<2,4,unsigned short>
; File c:\program files (x86)\microsoft visual studio 14.0\vc\include\map

; 244  : 		return (_Try_emplace(_STD move(_Keyval),

	lea	eax, DWORD PTR $T30[ebp]
	push	eax
	lea	eax, DWORD PTR $T78[ebp]
	push	eax
	movups	XMMWORD PTR $T30[ebp], xmm0
	call	??$_Try_emplace@V?$tuple@HHHW4arch_t@@@std@@$$V@?$map@V?$tuple@HHHW4arch_t@@@std@@P6AIPBEH@ZU?$less@V?$tuple@HHHW4arch_t@@@std@@@2@V?$allocator@U?$pair@$$CBV?$tuple@HHHW4arch_t@@@std@@P6AIPBEH@Z@std@@@2@@std@@QAE?AU?$pair@V?$_Tree_iterator@V?$_Tree_val@U?$_Tree_simple_types@U?$pair@$$CBV?$tuple@HHHW4arch_t@@@std@@P6AIPBEH@Z@std@@@std@@@std@@@std@@_N@1@$$QAV?$tuple@HHHW4arch_t@@@1@@Z ; std::map<std::tuple<int,int,int,enum arch_t>,unsigned int (__cdecl*)(unsigned char const *,int),std::less<std::tuple<int,int,int,enum arch_t> >,std::allocator<std::pair<std::tuple<int,int,int,enum arch_t> const ,unsigned int (__cdecl*)(unsigned char const *,int)> > >::_Try_emplace<std::tuple<int,int,int,enum arch_t> >
; File c:\github\mvtools\sources\variance.cpp

; 173  :     func_luma[make_tuple(2 , 2 , 2, NO_SIMD)] = Luma_C<2 , 2,uint16_t>;

	mov	eax, DWORD PTR $T78[ebp]
; File c:\program files (x86)\microsoft visual studio 14.0\vc\include\map

; 244  : 		return (_Try_emplace(_STD move(_Keyval),

	lea	ecx, DWORD PTR _func_luma$[ebp]
	movaps	xmm0, XMMWORD PTR __xmm@00000002000000010000000200000000
; File c:\github\mvtools\sources\variance.cpp

; 173  :     func_luma[make_tuple(2 , 2 , 2, NO_SIMD)] = Luma_C<2 , 2,uint16_t>;

	mov	DWORD PTR [eax+32], OFFSET ??$Luma_C@$01$01G@@YAIPBEH@Z ; Luma_C<2,2,unsigned short>
; File c:\program files (x86)\microsoft visual studio 14.0\vc\include\map

; 244  : 		return (_Try_emplace(_STD move(_Keyval),

	lea	eax, DWORD PTR $T29[ebp]
	push	eax
	lea	eax, DWORD PTR $T77[ebp]
	push	eax
	movups	XMMWORD PTR $T29[ebp], xmm0
	call	??$_Try_emplace@V?$tuple@HHHW4arch_t@@@std@@$$V@?$map@V?$tuple@HHHW4arch_t@@@std@@P6AIPBEH@ZU?$less@V?$tuple@HHHW4arch_t@@@std@@@2@V?$allocator@U?$pair@$$CBV?$tuple@HHHW4arch_t@@@std@@P6AIPBEH@Z@std@@@2@@std@@QAE?AU?$pair@V?$_Tree_iterator@V?$_Tree_val@U?$_Tree_simple_types@U?$pair@$$CBV?$tuple@HHHW4arch_t@@@std@@P6AIPBEH@Z@std@@@std@@@std@@@std@@_N@1@$$QAV?$tuple@HHHW4arch_t@@@1@@Z ; std::map<std::tuple<int,int,int,enum arch_t>,unsigned int (__cdecl*)(unsigned char const *,int),std::less<std::tuple<int,int,int,enum arch_t> >,std::allocator<std::pair<std::tuple<int,int,int,enum arch_t> const ,unsigned int (__cdecl*)(unsigned char const *,int)> > >::_Try_emplace<std::tuple<int,int,int,enum arch_t> >
; File c:\github\mvtools\sources\variance.cpp

; 174  :     func_luma[make_tuple(2 , 1 , 2, NO_SIMD)] = Luma_C<2 , 1,uint16_t>;

	mov	eax, DWORD PTR $T77[ebp]
; File c:\program files (x86)\microsoft visual studio 14.0\vc\include\map

; 244  : 		return (_Try_emplace(_STD move(_Keyval),

	lea	ecx, DWORD PTR _func_luma$[ebp]
	movaps	xmm0, XMMWORD PTR __xmm@00000020000000200000000100000002
; File c:\github\mvtools\sources\variance.cpp

; 174  :     func_luma[make_tuple(2 , 1 , 2, NO_SIMD)] = Luma_C<2 , 1,uint16_t>;

	mov	DWORD PTR [eax+32], OFFSET ??$Luma_C@$01$00G@@YAIPBEH@Z ; Luma_C<2,1,unsigned short>
; File c:\program files (x86)\microsoft visual studio 14.0\vc\include\map

; 244  : 		return (_Try_emplace(_STD move(_Keyval),

	lea	eax, DWORD PTR $T28[ebp]
	push	eax
	lea	eax, DWORD PTR $T76[ebp]
	push	eax
	movups	XMMWORD PTR $T28[ebp], xmm0
	call	??$_Try_emplace@V?$tuple@HHHW4arch_t@@@std@@$$V@?$map@V?$tuple@HHHW4arch_t@@@std@@P6AIPBEH@ZU?$less@V?$tuple@HHHW4arch_t@@@std@@@2@V?$allocator@U?$pair@$$CBV?$tuple@HHHW4arch_t@@@std@@P6AIPBEH@Z@std@@@2@@std@@QAE?AU?$pair@V?$_Tree_iterator@V?$_Tree_val@U?$_Tree_simple_types@U?$pair@$$CBV?$tuple@HHHW4arch_t@@@std@@P6AIPBEH@Z@std@@@std@@@std@@@std@@_N@1@$$QAV?$tuple@HHHW4arch_t@@@1@@Z ; std::map<std::tuple<int,int,int,enum arch_t>,unsigned int (__cdecl*)(unsigned char const *,int),std::less<std::tuple<int,int,int,enum arch_t> >,std::allocator<std::pair<std::tuple<int,int,int,enum arch_t> const ,unsigned int (__cdecl*)(unsigned char const *,int)> > >::_Try_emplace<std::tuple<int,int,int,enum arch_t> >
; File c:\github\mvtools\sources\variance.cpp

; 176  :     func_luma[make_tuple(32, 32, 1, USE_SSE2)] = Luma32x32_sse2;

	mov	eax, DWORD PTR $T76[ebp]
; File c:\program files (x86)\microsoft visual studio 14.0\vc\include\map

; 244  : 		return (_Try_emplace(_STD move(_Keyval),

	lea	ecx, DWORD PTR _func_luma$[ebp]
	movaps	xmm0, XMMWORD PTR __xmm@00000020000000100000000100000002
; File c:\github\mvtools\sources\variance.cpp

; 176  :     func_luma[make_tuple(32, 32, 1, USE_SSE2)] = Luma32x32_sse2;

	mov	DWORD PTR [eax+32], OFFSET _Luma32x32_sse2
; File c:\program files (x86)\microsoft visual studio 14.0\vc\include\map

; 244  : 		return (_Try_emplace(_STD move(_Keyval),

	lea	eax, DWORD PTR $T27[ebp]
	push	eax
	lea	eax, DWORD PTR $T75[ebp]
	push	eax
	movups	XMMWORD PTR $T27[ebp], xmm0
	call	??$_Try_emplace@V?$tuple@HHHW4arch_t@@@std@@$$V@?$map@V?$tuple@HHHW4arch_t@@@std@@P6AIPBEH@ZU?$less@V?$tuple@HHHW4arch_t@@@std@@@2@V?$allocator@U?$pair@$$CBV?$tuple@HHHW4arch_t@@@std@@P6AIPBEH@Z@std@@@2@@std@@QAE?AU?$pair@V?$_Tree_iterator@V?$_Tree_val@U?$_Tree_simple_types@U?$pair@$$CBV?$tuple@HHHW4arch_t@@@std@@P6AIPBEH@Z@std@@@std@@@std@@@std@@_N@1@$$QAV?$tuple@HHHW4arch_t@@@1@@Z ; std::map<std::tuple<int,int,int,enum arch_t>,unsigned int (__cdecl*)(unsigned char const *,int),std::less<std::tuple<int,int,int,enum arch_t> >,std::allocator<std::pair<std::tuple<int,int,int,enum arch_t> const ,unsigned int (__cdecl*)(unsigned char const *,int)> > >::_Try_emplace<std::tuple<int,int,int,enum arch_t> >
; File c:\github\mvtools\sources\variance.cpp

; 177  :     func_luma[make_tuple(32, 16, 1, USE_SSE2)] = Luma32x16_sse2;

	mov	eax, DWORD PTR $T75[ebp]
; File c:\program files (x86)\microsoft visual studio 14.0\vc\include\map

; 244  : 		return (_Try_emplace(_STD move(_Keyval),

	lea	ecx, DWORD PTR _func_luma$[ebp]
	movaps	xmm0, XMMWORD PTR __xmm@00000010000000200000000100000002
; File c:\github\mvtools\sources\variance.cpp

; 177  :     func_luma[make_tuple(32, 16, 1, USE_SSE2)] = Luma32x16_sse2;

	mov	DWORD PTR [eax+32], OFFSET _Luma32x16_sse2
; File c:\program files (x86)\microsoft visual studio 14.0\vc\include\map

; 244  : 		return (_Try_emplace(_STD move(_Keyval),

	lea	eax, DWORD PTR $T26[ebp]
	push	eax
	lea	eax, DWORD PTR $T74[ebp]
	push	eax
	movups	XMMWORD PTR $T26[ebp], xmm0
	call	??$_Try_emplace@V?$tuple@HHHW4arch_t@@@std@@$$V@?$map@V?$tuple@HHHW4arch_t@@@std@@P6AIPBEH@ZU?$less@V?$tuple@HHHW4arch_t@@@std@@@2@V?$allocator@U?$pair@$$CBV?$tuple@HHHW4arch_t@@@std@@P6AIPBEH@Z@std@@@2@@std@@QAE?AU?$pair@V?$_Tree_iterator@V?$_Tree_val@U?$_Tree_simple_types@U?$pair@$$CBV?$tuple@HHHW4arch_t@@@std@@P6AIPBEH@Z@std@@@std@@@std@@@std@@_N@1@$$QAV?$tuple@HHHW4arch_t@@@1@@Z ; std::map<std::tuple<int,int,int,enum arch_t>,unsigned int (__cdecl*)(unsigned char const *,int),std::less<std::tuple<int,int,int,enum arch_t> >,std::allocator<std::pair<std::tuple<int,int,int,enum arch_t> const ,unsigned int (__cdecl*)(unsigned char const *,int)> > >::_Try_emplace<std::tuple<int,int,int,enum arch_t> >
; File c:\github\mvtools\sources\variance.cpp

; 179  :     func_luma[make_tuple(16, 32, 1, USE_SSE2)] = Luma16x32_sse2;

	mov	eax, DWORD PTR $T74[ebp]
; File c:\program files (x86)\microsoft visual studio 14.0\vc\include\map

; 244  : 		return (_Try_emplace(_STD move(_Keyval),

	lea	ecx, DWORD PTR _func_luma$[ebp]
	movaps	xmm0, XMMWORD PTR __xmm@00000010000000100000000100000002
; File c:\github\mvtools\sources\variance.cpp

; 179  :     func_luma[make_tuple(16, 32, 1, USE_SSE2)] = Luma16x32_sse2;

	mov	DWORD PTR [eax+32], OFFSET _Luma16x32_sse2
; File c:\program files (x86)\microsoft visual studio 14.0\vc\include\map

; 244  : 		return (_Try_emplace(_STD move(_Keyval),

	lea	eax, DWORD PTR $T25[ebp]
	push	eax
	lea	eax, DWORD PTR $T73[ebp]
	push	eax
	movups	XMMWORD PTR $T25[ebp], xmm0
	call	??$_Try_emplace@V?$tuple@HHHW4arch_t@@@std@@$$V@?$map@V?$tuple@HHHW4arch_t@@@std@@P6AIPBEH@ZU?$less@V?$tuple@HHHW4arch_t@@@std@@@2@V?$allocator@U?$pair@$$CBV?$tuple@HHHW4arch_t@@@std@@P6AIPBEH@Z@std@@@2@@std@@QAE?AU?$pair@V?$_Tree_iterator@V?$_Tree_val@U?$_Tree_simple_types@U?$pair@$$CBV?$tuple@HHHW4arch_t@@@std@@P6AIPBEH@Z@std@@@std@@@std@@@std@@_N@1@$$QAV?$tuple@HHHW4arch_t@@@1@@Z ; std::map<std::tuple<int,int,int,enum arch_t>,unsigned int (__cdecl*)(unsigned char const *,int),std::less<std::tuple<int,int,int,enum arch_t> >,std::allocator<std::pair<std::tuple<int,int,int,enum arch_t> const ,unsigned int (__cdecl*)(unsigned char const *,int)> > >::_Try_emplace<std::tuple<int,int,int,enum arch_t> >
; File c:\github\mvtools\sources\variance.cpp

; 180  :     func_luma[make_tuple(16, 16, 1, USE_SSE2)] = Luma16x16_sse2;

	mov	eax, DWORD PTR $T73[ebp]
; File c:\program files (x86)\microsoft visual studio 14.0\vc\include\map

; 244  : 		return (_Try_emplace(_STD move(_Keyval),

	lea	ecx, DWORD PTR _func_luma$[ebp]
	movaps	xmm0, XMMWORD PTR __xmm@00000010000000080000000100000002
; File c:\github\mvtools\sources\variance.cpp

; 180  :     func_luma[make_tuple(16, 16, 1, USE_SSE2)] = Luma16x16_sse2;

	mov	DWORD PTR [eax+32], OFFSET _Luma16x16_sse2
; File c:\program files (x86)\microsoft visual studio 14.0\vc\include\map

; 244  : 		return (_Try_emplace(_STD move(_Keyval),

	lea	eax, DWORD PTR $T24[ebp]
	push	eax
	lea	eax, DWORD PTR $T72[ebp]
	push	eax
	movups	XMMWORD PTR $T24[ebp], xmm0
	call	??$_Try_emplace@V?$tuple@HHHW4arch_t@@@std@@$$V@?$map@V?$tuple@HHHW4arch_t@@@std@@P6AIPBEH@ZU?$less@V?$tuple@HHHW4arch_t@@@std@@@2@V?$allocator@U?$pair@$$CBV?$tuple@HHHW4arch_t@@@std@@P6AIPBEH@Z@std@@@2@@std@@QAE?AU?$pair@V?$_Tree_iterator@V?$_Tree_val@U?$_Tree_simple_types@U?$pair@$$CBV?$tuple@HHHW4arch_t@@@std@@P6AIPBEH@Z@std@@@std@@@std@@@std@@_N@1@$$QAV?$tuple@HHHW4arch_t@@@1@@Z ; std::map<std::tuple<int,int,int,enum arch_t>,unsigned int (__cdecl*)(unsigned char const *,int),std::less<std::tuple<int,int,int,enum arch_t> >,std::allocator<std::pair<std::tuple<int,int,int,enum arch_t> const ,unsigned int (__cdecl*)(unsigned char const *,int)> > >::_Try_emplace<std::tuple<int,int,int,enum arch_t> >
; File c:\github\mvtools\sources\variance.cpp

; 181  :     func_luma[make_tuple(16, 8 , 1, USE_SSE2)] = Luma16x8_sse2;

	mov	eax, DWORD PTR $T72[ebp]
	movaps	xmm0, XMMWORD PTR __xmm@00000010000000020000000100000002
	mov	DWORD PTR [eax+32], OFFSET _Luma16x8_sse2
; File c:\program files (x86)\microsoft visual studio 14.0\vc\include\map

; 244  : 		return (_Try_emplace(_STD move(_Keyval),

	lea	eax, DWORD PTR $T23[ebp]
	push	eax
	movups	XMMWORD PTR $T23[ebp], xmm0
	lea	eax, DWORD PTR $T71[ebp]
	push	eax
	lea	ecx, DWORD PTR _func_luma$[ebp]
	call	??$_Try_emplace@V?$tuple@HHHW4arch_t@@@std@@$$V@?$map@V?$tuple@HHHW4arch_t@@@std@@P6AIPBEH@ZU?$less@V?$tuple@HHHW4arch_t@@@std@@@2@V?$allocator@U?$pair@$$CBV?$tuple@HHHW4arch_t@@@std@@P6AIPBEH@Z@std@@@2@@std@@QAE?AU?$pair@V?$_Tree_iterator@V?$_Tree_val@U?$_Tree_simple_types@U?$pair@$$CBV?$tuple@HHHW4arch_t@@@std@@P6AIPBEH@Z@std@@@std@@@std@@@std@@_N@1@$$QAV?$tuple@HHHW4arch_t@@@1@@Z ; std::map<std::tuple<int,int,int,enum arch_t>,unsigned int (__cdecl*)(unsigned char const *,int),std::less<std::tuple<int,int,int,enum arch_t> >,std::allocator<std::pair<std::tuple<int,int,int,enum arch_t> const ,unsigned int (__cdecl*)(unsigned char const *,int)> > >::_Try_emplace<std::tuple<int,int,int,enum arch_t> >
; File c:\github\mvtools\sources\variance.cpp

; 183  :     func_luma[make_tuple(16, 2 , 1, USE_SSE2)] = Luma16x2_sse2;

	mov	eax, DWORD PTR $T71[ebp]

; 184  :     //func_luma[make_tuple(8 , 16, 1, USE_SSE2)] = Luma8x16_sse2;
; 185  :     func_luma[make_tuple(8 , 8 , 1, USE_SSE2)] = Luma8x8_sse2;

	lea	ecx, DWORD PTR _func_luma$[ebp]
	movaps	xmm0, XMMWORD PTR __xmm@00000008000000080000000100000002
	mov	DWORD PTR [eax+32], OFFSET _Luma16x2_sse2
	lea	eax, DWORD PTR $T22[ebp]
	push	eax
	movups	XMMWORD PTR $T22[ebp], xmm0
	call	??A?$map@V?$tuple@HHHW4arch_t@@@std@@P6AIPBEH@ZU?$less@V?$tuple@HHHW4arch_t@@@std@@@2@V?$allocator@U?$pair@$$CBV?$tuple@HHHW4arch_t@@@std@@P6AIPBEH@Z@std@@@2@@std@@QAEAAP6AIPBEH@Z$$QAV?$tuple@HHHW4arch_t@@@1@@Z ; std::map<std::tuple<int,int,int,enum arch_t>,unsigned int (__cdecl*)(unsigned char const *,int),std::less<std::tuple<int,int,int,enum arch_t> >,std::allocator<std::pair<std::tuple<int,int,int,enum arch_t> const ,unsigned int (__cdecl*)(unsigned char const *,int)> > >::operator[]

; 186  :     func_luma[make_tuple(8 , 4 , 1, USE_SSE2)] = Luma8x4_sse2;

	lea	edx, DWORD PTR $T137[ebp]
	mov	DWORD PTR $T195[ebp], 2
	lea	ecx, DWORD PTR $T21[ebp]
	mov	DWORD PTR $T175[ebp], 1
	mov	DWORD PTR $T156[ebp], 4
	mov	DWORD PTR [eax], OFFSET _Luma8x8_sse2
	lea	eax, DWORD PTR $T195[ebp]
	push	eax
	lea	eax, DWORD PTR $T175[ebp]
	mov	DWORD PTR $T137[ebp], 8
	push	eax
	lea	eax, DWORD PTR $T156[ebp]
	push	eax
	call	??$make_tuple@HHHW4arch_t@@@std@@YA?AV?$tuple@HHHW4arch_t@@@0@$$QAH00$$QAW4arch_t@@@Z ; std::make_tuple<int,int,int,enum arch_t>
	add	esp, 12					; 0000000cH
	lea	ecx, DWORD PTR _func_luma$[ebp]
	push	eax
	call	??A?$map@V?$tuple@HHHW4arch_t@@@std@@P6AIPBEH@ZU?$less@V?$tuple@HHHW4arch_t@@@std@@@2@V?$allocator@U?$pair@$$CBV?$tuple@HHHW4arch_t@@@std@@P6AIPBEH@Z@std@@@2@@std@@QAEAAP6AIPBEH@Z$$QAV?$tuple@HHHW4arch_t@@@1@@Z ; std::map<std::tuple<int,int,int,enum arch_t>,unsigned int (__cdecl*)(unsigned char const *,int),std::less<std::tuple<int,int,int,enum arch_t> >,std::allocator<std::pair<std::tuple<int,int,int,enum arch_t> const ,unsigned int (__cdecl*)(unsigned char const *,int)> > >::operator[]

; 187  :     //func_luma[make_tuple(8 , 2 , 1, USE_SSE2)] = Luma8x2_sse2;
; 188  :     //func_luma[make_tuple(8 , 1 , 1, USE_SSE2)] = Luma8x1_sse2;
; 189  :     //func_luma[make_tuple(4 , 8 , 1, USE_SSE2)] = Luma4x8_sse2;
; 190  :     func_luma[make_tuple(4 , 4 , 1, USE_SSE2)] = Luma4x4_sse2;

	lea	edx, DWORD PTR $T194[ebp]
	mov	DWORD PTR $T136[ebp], 2
	lea	ecx, DWORD PTR $T20[ebp]
	mov	DWORD PTR $T155[ebp], 1
	mov	DWORD PTR $T174[ebp], 4
	mov	DWORD PTR [eax], OFFSET _Luma8x4_sse2
	lea	eax, DWORD PTR $T136[ebp]
	push	eax
	lea	eax, DWORD PTR $T155[ebp]
	mov	DWORD PTR $T194[ebp], 4
	push	eax
	lea	eax, DWORD PTR $T174[ebp]
	push	eax
	call	??$make_tuple@HHHW4arch_t@@@std@@YA?AV?$tuple@HHHW4arch_t@@@0@$$QAH00$$QAW4arch_t@@@Z ; std::make_tuple<int,int,int,enum arch_t>
	add	esp, 12					; 0000000cH
	lea	ecx, DWORD PTR _func_luma$[ebp]
	push	eax
	call	??A?$map@V?$tuple@HHHW4arch_t@@@std@@P6AIPBEH@ZU?$less@V?$tuple@HHHW4arch_t@@@std@@@2@V?$allocator@U?$pair@$$CBV?$tuple@HHHW4arch_t@@@std@@P6AIPBEH@Z@std@@@2@@std@@QAEAAP6AIPBEH@Z$$QAV?$tuple@HHHW4arch_t@@@1@@Z ; std::map<std::tuple<int,int,int,enum arch_t>,unsigned int (__cdecl*)(unsigned char const *,int),std::less<std::tuple<int,int,int,enum arch_t> >,std::allocator<std::pair<std::tuple<int,int,int,enum arch_t> const ,unsigned int (__cdecl*)(unsigned char const *,int)> > >::operator[]

; 191  :     //func_luma[make_tuple(4 , 2 , 1, USE_SSE2)] = Luma4x2_sse2;
; 192  :     //func_luma[make_tuple(2 , 4 , 1, USE_SSE2)] = Luma2x4_sse2;
; 193  :     //func_luma[make_tuple(2 , 2 , 1, USE_SSE2)] = Luma2x2_sse2;
; 194  :     
; 195  :     func_luma[make_tuple(32, 32, 2, USE_SSE2)] = Luma16_sse2<32, 32,uint16_t>;

	lea	edx, DWORD PTR $T193[ebp]
	mov	DWORD PTR $T135[ebp], 2
	lea	ecx, DWORD PTR $T19[ebp]
	mov	DWORD PTR $T154[ebp], 2
	mov	DWORD PTR $T173[ebp], 32		; 00000020H
	mov	DWORD PTR [eax], OFFSET _Luma4x4_sse2
	lea	eax, DWORD PTR $T135[ebp]
	push	eax
	lea	eax, DWORD PTR $T154[ebp]
	mov	DWORD PTR $T193[ebp], 32		; 00000020H
	push	eax
	lea	eax, DWORD PTR $T173[ebp]
	push	eax
	call	??$make_tuple@HHHW4arch_t@@@std@@YA?AV?$tuple@HHHW4arch_t@@@0@$$QAH00$$QAW4arch_t@@@Z ; std::make_tuple<int,int,int,enum arch_t>
	add	esp, 12					; 0000000cH
	lea	ecx, DWORD PTR _func_luma$[ebp]
	push	eax
	call	??A?$map@V?$tuple@HHHW4arch_t@@@std@@P6AIPBEH@ZU?$less@V?$tuple@HHHW4arch_t@@@std@@@2@V?$allocator@U?$pair@$$CBV?$tuple@HHHW4arch_t@@@std@@P6AIPBEH@Z@std@@@2@@std@@QAEAAP6AIPBEH@Z$$QAV?$tuple@HHHW4arch_t@@@1@@Z ; std::map<std::tuple<int,int,int,enum arch_t>,unsigned int (__cdecl*)(unsigned char const *,int),std::less<std::tuple<int,int,int,enum arch_t> >,std::allocator<std::pair<std::tuple<int,int,int,enum arch_t> const ,unsigned int (__cdecl*)(unsigned char const *,int)> > >::operator[]

; 196  :     func_luma[make_tuple(32, 16, 2, USE_SSE2)] = Luma16_sse2<32, 16,uint16_t>;

	lea	edx, DWORD PTR $T192[ebp]
	mov	DWORD PTR $T134[ebp], 2
	lea	ecx, DWORD PTR $T18[ebp]
	mov	DWORD PTR $T153[ebp], 2
	mov	DWORD PTR $T172[ebp], 16		; 00000010H
	mov	DWORD PTR [eax], OFFSET ??$Luma16_sse2@$0CA@$0CA@G@@YAIPBEH@Z ; Luma16_sse2<32,32,unsigned short>
	lea	eax, DWORD PTR $T134[ebp]
	push	eax
	lea	eax, DWORD PTR $T153[ebp]
	mov	DWORD PTR $T192[ebp], 32		; 00000020H
	push	eax
	lea	eax, DWORD PTR $T172[ebp]
	push	eax
	call	??$make_tuple@HHHW4arch_t@@@std@@YA?AV?$tuple@HHHW4arch_t@@@0@$$QAH00$$QAW4arch_t@@@Z ; std::make_tuple<int,int,int,enum arch_t>
	add	esp, 12					; 0000000cH
	push	eax
	lea	ecx, DWORD PTR _func_luma$[ebp]
	call	??A?$map@V?$tuple@HHHW4arch_t@@@std@@P6AIPBEH@ZU?$less@V?$tuple@HHHW4arch_t@@@std@@@2@V?$allocator@U?$pair@$$CBV?$tuple@HHHW4arch_t@@@std@@P6AIPBEH@Z@std@@@2@@std@@QAEAAP6AIPBEH@Z$$QAV?$tuple@HHHW4arch_t@@@1@@Z ; std::map<std::tuple<int,int,int,enum arch_t>,unsigned int (__cdecl*)(unsigned char const *,int),std::less<std::tuple<int,int,int,enum arch_t> >,std::allocator<std::pair<std::tuple<int,int,int,enum arch_t> const ,unsigned int (__cdecl*)(unsigned char const *,int)> > >::operator[]

; 197  :     func_luma[make_tuple(32, 8 , 2, USE_SSE2)] = Luma16_sse2<32, 8,uint16_t>;

	lea	edx, DWORD PTR $T191[ebp]
	mov	DWORD PTR $T133[ebp], 2
	lea	ecx, DWORD PTR $T17[ebp]
	mov	DWORD PTR $T152[ebp], 2
	mov	DWORD PTR $T171[ebp], 8
	mov	DWORD PTR [eax], OFFSET ??$Luma16_sse2@$0CA@$0BA@G@@YAIPBEH@Z ; Luma16_sse2<32,16,unsigned short>
	lea	eax, DWORD PTR $T133[ebp]
	push	eax
	lea	eax, DWORD PTR $T152[ebp]
	mov	DWORD PTR $T191[ebp], 32		; 00000020H
	push	eax
	lea	eax, DWORD PTR $T171[ebp]
	push	eax
	call	??$make_tuple@HHHW4arch_t@@@std@@YA?AV?$tuple@HHHW4arch_t@@@0@$$QAH00$$QAW4arch_t@@@Z ; std::make_tuple<int,int,int,enum arch_t>
	add	esp, 12					; 0000000cH
	lea	ecx, DWORD PTR _func_luma$[ebp]
	push	eax
	call	??A?$map@V?$tuple@HHHW4arch_t@@@std@@P6AIPBEH@ZU?$less@V?$tuple@HHHW4arch_t@@@std@@@2@V?$allocator@U?$pair@$$CBV?$tuple@HHHW4arch_t@@@std@@P6AIPBEH@Z@std@@@2@@std@@QAEAAP6AIPBEH@Z$$QAV?$tuple@HHHW4arch_t@@@1@@Z ; std::map<std::tuple<int,int,int,enum arch_t>,unsigned int (__cdecl*)(unsigned char const *,int),std::less<std::tuple<int,int,int,enum arch_t> >,std::allocator<std::pair<std::tuple<int,int,int,enum arch_t> const ,unsigned int (__cdecl*)(unsigned char const *,int)> > >::operator[]

; 198  :     func_luma[make_tuple(16, 32, 2, USE_SSE2)] = Luma16_sse2<16, 32,uint16_t>;

	lea	edx, DWORD PTR $T190[ebp]
	mov	DWORD PTR $T132[ebp], 2
	lea	ecx, DWORD PTR $T16[ebp]
	mov	DWORD PTR $T151[ebp], 2
	mov	DWORD PTR $T170[ebp], 32		; 00000020H
	mov	DWORD PTR [eax], OFFSET ??$Luma16_sse2@$0CA@$07G@@YAIPBEH@Z ; Luma16_sse2<32,8,unsigned short>
	lea	eax, DWORD PTR $T132[ebp]
	push	eax
	lea	eax, DWORD PTR $T151[ebp]
	mov	DWORD PTR $T190[ebp], 16		; 00000010H
	push	eax
	lea	eax, DWORD PTR $T170[ebp]
	push	eax
	call	??$make_tuple@HHHW4arch_t@@@std@@YA?AV?$tuple@HHHW4arch_t@@@0@$$QAH00$$QAW4arch_t@@@Z ; std::make_tuple<int,int,int,enum arch_t>
	add	esp, 12					; 0000000cH
	lea	ecx, DWORD PTR _func_luma$[ebp]
	push	eax
	call	??A?$map@V?$tuple@HHHW4arch_t@@@std@@P6AIPBEH@ZU?$less@V?$tuple@HHHW4arch_t@@@std@@@2@V?$allocator@U?$pair@$$CBV?$tuple@HHHW4arch_t@@@std@@P6AIPBEH@Z@std@@@2@@std@@QAEAAP6AIPBEH@Z$$QAV?$tuple@HHHW4arch_t@@@1@@Z ; std::map<std::tuple<int,int,int,enum arch_t>,unsigned int (__cdecl*)(unsigned char const *,int),std::less<std::tuple<int,int,int,enum arch_t> >,std::allocator<std::pair<std::tuple<int,int,int,enum arch_t> const ,unsigned int (__cdecl*)(unsigned char const *,int)> > >::operator[]

; 199  :     func_luma[make_tuple(16, 16, 2, USE_SSE2)] = Luma16_sse2<16, 16,uint16_t>;

	lea	edx, DWORD PTR $T189[ebp]
	mov	DWORD PTR $T131[ebp], 2
	lea	ecx, DWORD PTR $T15[ebp]
	mov	DWORD PTR $T150[ebp], 2
	mov	DWORD PTR $T169[ebp], 16		; 00000010H
	mov	DWORD PTR [eax], OFFSET ??$Luma16_sse2@$0BA@$0CA@G@@YAIPBEH@Z ; Luma16_sse2<16,32,unsigned short>
	lea	eax, DWORD PTR $T131[ebp]
	push	eax
	lea	eax, DWORD PTR $T150[ebp]
	mov	DWORD PTR $T189[ebp], 16		; 00000010H
	push	eax
	lea	eax, DWORD PTR $T169[ebp]
	push	eax
	call	??$make_tuple@HHHW4arch_t@@@std@@YA?AV?$tuple@HHHW4arch_t@@@0@$$QAH00$$QAW4arch_t@@@Z ; std::make_tuple<int,int,int,enum arch_t>
	add	esp, 12					; 0000000cH
	lea	ecx, DWORD PTR _func_luma$[ebp]
	push	eax
	call	??A?$map@V?$tuple@HHHW4arch_t@@@std@@P6AIPBEH@ZU?$less@V?$tuple@HHHW4arch_t@@@std@@@2@V?$allocator@U?$pair@$$CBV?$tuple@HHHW4arch_t@@@std@@P6AIPBEH@Z@std@@@2@@std@@QAEAAP6AIPBEH@Z$$QAV?$tuple@HHHW4arch_t@@@1@@Z ; std::map<std::tuple<int,int,int,enum arch_t>,unsigned int (__cdecl*)(unsigned char const *,int),std::less<std::tuple<int,int,int,enum arch_t> >,std::allocator<std::pair<std::tuple<int,int,int,enum arch_t> const ,unsigned int (__cdecl*)(unsigned char const *,int)> > >::operator[]

; 200  :     func_luma[make_tuple(16, 8 , 2, USE_SSE2)] = Luma16_sse2<16, 8,uint16_t>;

	lea	edx, DWORD PTR $T188[ebp]
	mov	DWORD PTR $T130[ebp], 2
	lea	ecx, DWORD PTR $T14[ebp]
	mov	DWORD PTR $T149[ebp], 2
	mov	DWORD PTR $T168[ebp], 8
	mov	DWORD PTR [eax], OFFSET ??$Luma16_sse2@$0BA@$0BA@G@@YAIPBEH@Z ; Luma16_sse2<16,16,unsigned short>
	lea	eax, DWORD PTR $T130[ebp]
	push	eax
	lea	eax, DWORD PTR $T149[ebp]
	mov	DWORD PTR $T188[ebp], 16		; 00000010H
	push	eax
	lea	eax, DWORD PTR $T168[ebp]
	push	eax
	call	??$make_tuple@HHHW4arch_t@@@std@@YA?AV?$tuple@HHHW4arch_t@@@0@$$QAH00$$QAW4arch_t@@@Z ; std::make_tuple<int,int,int,enum arch_t>
	add	esp, 12					; 0000000cH
	lea	ecx, DWORD PTR _func_luma$[ebp]
	push	eax
	call	??A?$map@V?$tuple@HHHW4arch_t@@@std@@P6AIPBEH@ZU?$less@V?$tuple@HHHW4arch_t@@@std@@@2@V?$allocator@U?$pair@$$CBV?$tuple@HHHW4arch_t@@@std@@P6AIPBEH@Z@std@@@2@@std@@QAEAAP6AIPBEH@Z$$QAV?$tuple@HHHW4arch_t@@@1@@Z ; std::map<std::tuple<int,int,int,enum arch_t>,unsigned int (__cdecl*)(unsigned char const *,int),std::less<std::tuple<int,int,int,enum arch_t> >,std::allocator<std::pair<std::tuple<int,int,int,enum arch_t> const ,unsigned int (__cdecl*)(unsigned char const *,int)> > >::operator[]

; 201  :     func_luma[make_tuple(16, 4 , 2, USE_SSE2)] = Luma16_sse2<16, 4,uint16_t>;

	mov	DWORD PTR $T129[ebp], 2
	mov	DWORD PTR $T148[ebp], 2
	mov	DWORD PTR $T167[ebp], 4
	mov	DWORD PTR [eax], OFFSET ??$Luma16_sse2@$0BA@$07G@@YAIPBEH@Z ; Luma16_sse2<16,8,unsigned short>
	lea	eax, DWORD PTR $T129[ebp]
	mov	DWORD PTR $T187[ebp], 16		; 00000010H
	push	eax
	lea	eax, DWORD PTR $T148[ebp]
	push	eax
	lea	eax, DWORD PTR $T167[ebp]
	push	eax
	lea	edx, DWORD PTR $T187[ebp]
	lea	ecx, DWORD PTR $T13[ebp]
	call	??$make_tuple@HHHW4arch_t@@@std@@YA?AV?$tuple@HHHW4arch_t@@@0@$$QAH00$$QAW4arch_t@@@Z ; std::make_tuple<int,int,int,enum arch_t>
	add	esp, 12					; 0000000cH
	lea	ecx, DWORD PTR _func_luma$[ebp]
	push	eax
	call	??A?$map@V?$tuple@HHHW4arch_t@@@std@@P6AIPBEH@ZU?$less@V?$tuple@HHHW4arch_t@@@std@@@2@V?$allocator@U?$pair@$$CBV?$tuple@HHHW4arch_t@@@std@@P6AIPBEH@Z@std@@@2@@std@@QAEAAP6AIPBEH@Z$$QAV?$tuple@HHHW4arch_t@@@1@@Z ; std::map<std::tuple<int,int,int,enum arch_t>,unsigned int (__cdecl*)(unsigned char const *,int),std::less<std::tuple<int,int,int,enum arch_t> >,std::allocator<std::pair<std::tuple<int,int,int,enum arch_t> const ,unsigned int (__cdecl*)(unsigned char const *,int)> > >::operator[]

; 202  :     func_luma[make_tuple(16, 2 , 2, USE_SSE2)] = Luma16_sse2<16, 2,uint16_t>;

	lea	edx, DWORD PTR $T186[ebp]
	mov	DWORD PTR $T128[ebp], 2
	lea	ecx, DWORD PTR $T12[ebp]
	mov	DWORD PTR $T147[ebp], 2
	mov	DWORD PTR $T166[ebp], 2
	mov	DWORD PTR [eax], OFFSET ??$Luma16_sse2@$0BA@$03G@@YAIPBEH@Z ; Luma16_sse2<16,4,unsigned short>
	lea	eax, DWORD PTR $T128[ebp]
	push	eax
	lea	eax, DWORD PTR $T147[ebp]
	mov	DWORD PTR $T186[ebp], 16		; 00000010H
	push	eax
	lea	eax, DWORD PTR $T166[ebp]
	push	eax
	call	??$make_tuple@HHHW4arch_t@@@std@@YA?AV?$tuple@HHHW4arch_t@@@0@$$QAH00$$QAW4arch_t@@@Z ; std::make_tuple<int,int,int,enum arch_t>
	add	esp, 12					; 0000000cH
	lea	ecx, DWORD PTR _func_luma$[ebp]
	push	eax
	call	??A?$map@V?$tuple@HHHW4arch_t@@@std@@P6AIPBEH@ZU?$less@V?$tuple@HHHW4arch_t@@@std@@@2@V?$allocator@U?$pair@$$CBV?$tuple@HHHW4arch_t@@@std@@P6AIPBEH@Z@std@@@2@@std@@QAEAAP6AIPBEH@Z$$QAV?$tuple@HHHW4arch_t@@@1@@Z ; std::map<std::tuple<int,int,int,enum arch_t>,unsigned int (__cdecl*)(unsigned char const *,int),std::less<std::tuple<int,int,int,enum arch_t> >,std::allocator<std::pair<std::tuple<int,int,int,enum arch_t> const ,unsigned int (__cdecl*)(unsigned char const *,int)> > >::operator[]

; 203  :     func_luma[make_tuple(16, 1 , 2, USE_SSE2)] = Luma16_sse2<16, 1,uint16_t>;

	lea	edx, DWORD PTR $T185[ebp]
	mov	DWORD PTR $T127[ebp], 2
	lea	ecx, DWORD PTR $T11[ebp]
	mov	DWORD PTR $T146[ebp], 2
	mov	DWORD PTR $T165[ebp], 1
	mov	DWORD PTR [eax], OFFSET ??$Luma16_sse2@$0BA@$01G@@YAIPBEH@Z ; Luma16_sse2<16,2,unsigned short>
	lea	eax, DWORD PTR $T127[ebp]
	push	eax
	lea	eax, DWORD PTR $T146[ebp]
	mov	DWORD PTR $T185[ebp], 16		; 00000010H
	push	eax
	lea	eax, DWORD PTR $T165[ebp]
	push	eax
	call	??$make_tuple@HHHW4arch_t@@@std@@YA?AV?$tuple@HHHW4arch_t@@@0@$$QAH00$$QAW4arch_t@@@Z ; std::make_tuple<int,int,int,enum arch_t>
	add	esp, 12					; 0000000cH
	lea	ecx, DWORD PTR _func_luma$[ebp]
	push	eax
	call	??A?$map@V?$tuple@HHHW4arch_t@@@std@@P6AIPBEH@ZU?$less@V?$tuple@HHHW4arch_t@@@std@@@2@V?$allocator@U?$pair@$$CBV?$tuple@HHHW4arch_t@@@std@@P6AIPBEH@Z@std@@@2@@std@@QAEAAP6AIPBEH@Z$$QAV?$tuple@HHHW4arch_t@@@1@@Z ; std::map<std::tuple<int,int,int,enum arch_t>,unsigned int (__cdecl*)(unsigned char const *,int),std::less<std::tuple<int,int,int,enum arch_t> >,std::allocator<std::pair<std::tuple<int,int,int,enum arch_t> const ,unsigned int (__cdecl*)(unsigned char const *,int)> > >::operator[]

; 204  :     func_luma[make_tuple(8 , 16, 2, USE_SSE2)] = Luma16_sse2<8 , 16,uint16_t>;

	lea	edx, DWORD PTR $T184[ebp]
	mov	DWORD PTR $T126[ebp], 2
	lea	ecx, DWORD PTR $T10[ebp]
	mov	DWORD PTR $T145[ebp], 2
	mov	DWORD PTR $T164[ebp], 16		; 00000010H
	mov	DWORD PTR [eax], OFFSET ??$Luma16_sse2@$0BA@$00G@@YAIPBEH@Z ; Luma16_sse2<16,1,unsigned short>
	lea	eax, DWORD PTR $T126[ebp]
	push	eax
	lea	eax, DWORD PTR $T145[ebp]
	mov	DWORD PTR $T184[ebp], 8
	push	eax
	lea	eax, DWORD PTR $T164[ebp]
	push	eax
	call	??$make_tuple@HHHW4arch_t@@@std@@YA?AV?$tuple@HHHW4arch_t@@@0@$$QAH00$$QAW4arch_t@@@Z ; std::make_tuple<int,int,int,enum arch_t>
	add	esp, 12					; 0000000cH
	lea	ecx, DWORD PTR _func_luma$[ebp]
	push	eax
	call	??A?$map@V?$tuple@HHHW4arch_t@@@std@@P6AIPBEH@ZU?$less@V?$tuple@HHHW4arch_t@@@std@@@2@V?$allocator@U?$pair@$$CBV?$tuple@HHHW4arch_t@@@std@@P6AIPBEH@Z@std@@@2@@std@@QAEAAP6AIPBEH@Z$$QAV?$tuple@HHHW4arch_t@@@1@@Z ; std::map<std::tuple<int,int,int,enum arch_t>,unsigned int (__cdecl*)(unsigned char const *,int),std::less<std::tuple<int,int,int,enum arch_t> >,std::allocator<std::pair<std::tuple<int,int,int,enum arch_t> const ,unsigned int (__cdecl*)(unsigned char const *,int)> > >::operator[]

; 205  :     func_luma[make_tuple(8 , 8 , 2, USE_SSE2)] = Luma16_sse2<8 , 8,uint16_t>;

	lea	edx, DWORD PTR $T183[ebp]
	mov	DWORD PTR $T125[ebp], 2
	lea	ecx, DWORD PTR $T9[ebp]
	mov	DWORD PTR $T144[ebp], 2
	mov	DWORD PTR $T163[ebp], 8
	mov	DWORD PTR [eax], OFFSET ??$Luma16_sse2@$07$0BA@G@@YAIPBEH@Z ; Luma16_sse2<8,16,unsigned short>
	lea	eax, DWORD PTR $T125[ebp]
	push	eax
	lea	eax, DWORD PTR $T144[ebp]
	mov	DWORD PTR $T183[ebp], 8
	push	eax
	lea	eax, DWORD PTR $T163[ebp]
	push	eax
	call	??$make_tuple@HHHW4arch_t@@@std@@YA?AV?$tuple@HHHW4arch_t@@@0@$$QAH00$$QAW4arch_t@@@Z ; std::make_tuple<int,int,int,enum arch_t>
	add	esp, 12					; 0000000cH
	push	eax
	lea	ecx, DWORD PTR _func_luma$[ebp]
	call	??A?$map@V?$tuple@HHHW4arch_t@@@std@@P6AIPBEH@ZU?$less@V?$tuple@HHHW4arch_t@@@std@@@2@V?$allocator@U?$pair@$$CBV?$tuple@HHHW4arch_t@@@std@@P6AIPBEH@Z@std@@@2@@std@@QAEAAP6AIPBEH@Z$$QAV?$tuple@HHHW4arch_t@@@1@@Z ; std::map<std::tuple<int,int,int,enum arch_t>,unsigned int (__cdecl*)(unsigned char const *,int),std::less<std::tuple<int,int,int,enum arch_t> >,std::allocator<std::pair<std::tuple<int,int,int,enum arch_t> const ,unsigned int (__cdecl*)(unsigned char const *,int)> > >::operator[]

; 206  :     func_luma[make_tuple(8 , 4 , 2, USE_SSE2)] = Luma16_sse2<8 , 4,uint16_t>;

	lea	edx, DWORD PTR $T182[ebp]
	mov	DWORD PTR $T124[ebp], 2
	lea	ecx, DWORD PTR $T8[ebp]
	mov	DWORD PTR $T143[ebp], 2
	mov	DWORD PTR $T162[ebp], 4
	mov	DWORD PTR [eax], OFFSET ??$Luma16_sse2@$07$07G@@YAIPBEH@Z ; Luma16_sse2<8,8,unsigned short>
	lea	eax, DWORD PTR $T124[ebp]
	push	eax
	lea	eax, DWORD PTR $T143[ebp]
	mov	DWORD PTR $T182[ebp], 8
	push	eax
	lea	eax, DWORD PTR $T162[ebp]
	push	eax
	call	??$make_tuple@HHHW4arch_t@@@std@@YA?AV?$tuple@HHHW4arch_t@@@0@$$QAH00$$QAW4arch_t@@@Z ; std::make_tuple<int,int,int,enum arch_t>
	add	esp, 12					; 0000000cH
	lea	ecx, DWORD PTR _func_luma$[ebp]
	push	eax
	call	??A?$map@V?$tuple@HHHW4arch_t@@@std@@P6AIPBEH@ZU?$less@V?$tuple@HHHW4arch_t@@@std@@@2@V?$allocator@U?$pair@$$CBV?$tuple@HHHW4arch_t@@@std@@P6AIPBEH@Z@std@@@2@@std@@QAEAAP6AIPBEH@Z$$QAV?$tuple@HHHW4arch_t@@@1@@Z ; std::map<std::tuple<int,int,int,enum arch_t>,unsigned int (__cdecl*)(unsigned char const *,int),std::less<std::tuple<int,int,int,enum arch_t> >,std::allocator<std::pair<std::tuple<int,int,int,enum arch_t> const ,unsigned int (__cdecl*)(unsigned char const *,int)> > >::operator[]

; 207  :     func_luma[make_tuple(8 , 2 , 2, USE_SSE2)] = Luma16_sse2<8 , 2,uint16_t>;

	lea	edx, DWORD PTR $T181[ebp]
	mov	DWORD PTR $T123[ebp], 2
	lea	ecx, DWORD PTR $T7[ebp]
	mov	DWORD PTR $T142[ebp], 2
	mov	DWORD PTR $T161[ebp], 2
	mov	DWORD PTR [eax], OFFSET ??$Luma16_sse2@$07$03G@@YAIPBEH@Z ; Luma16_sse2<8,4,unsigned short>
	lea	eax, DWORD PTR $T123[ebp]
	push	eax
	lea	eax, DWORD PTR $T142[ebp]
	mov	DWORD PTR $T181[ebp], 8
	push	eax
	lea	eax, DWORD PTR $T161[ebp]
	push	eax
	call	??$make_tuple@HHHW4arch_t@@@std@@YA?AV?$tuple@HHHW4arch_t@@@0@$$QAH00$$QAW4arch_t@@@Z ; std::make_tuple<int,int,int,enum arch_t>
	add	esp, 12					; 0000000cH
	lea	ecx, DWORD PTR _func_luma$[ebp]
	push	eax
	call	??A?$map@V?$tuple@HHHW4arch_t@@@std@@P6AIPBEH@ZU?$less@V?$tuple@HHHW4arch_t@@@std@@@2@V?$allocator@U?$pair@$$CBV?$tuple@HHHW4arch_t@@@std@@P6AIPBEH@Z@std@@@2@@std@@QAEAAP6AIPBEH@Z$$QAV?$tuple@HHHW4arch_t@@@1@@Z ; std::map<std::tuple<int,int,int,enum arch_t>,unsigned int (__cdecl*)(unsigned char const *,int),std::less<std::tuple<int,int,int,enum arch_t> >,std::allocator<std::pair<std::tuple<int,int,int,enum arch_t> const ,unsigned int (__cdecl*)(unsigned char const *,int)> > >::operator[]

; 208  :     func_luma[make_tuple(8 , 1 , 2, USE_SSE2)] = Luma16_sse2<8 , 1,uint16_t>;

	lea	edx, DWORD PTR $T180[ebp]
	mov	DWORD PTR $T122[ebp], 2
	lea	ecx, DWORD PTR $T6[ebp]
	mov	DWORD PTR $T141[ebp], 2
	mov	DWORD PTR $T160[ebp], 1
	mov	DWORD PTR [eax], OFFSET ??$Luma16_sse2@$07$01G@@YAIPBEH@Z ; Luma16_sse2<8,2,unsigned short>
	lea	eax, DWORD PTR $T122[ebp]
	push	eax
	lea	eax, DWORD PTR $T141[ebp]
	mov	DWORD PTR $T180[ebp], 8
	push	eax
	lea	eax, DWORD PTR $T160[ebp]
	push	eax
	call	??$make_tuple@HHHW4arch_t@@@std@@YA?AV?$tuple@HHHW4arch_t@@@0@$$QAH00$$QAW4arch_t@@@Z ; std::make_tuple<int,int,int,enum arch_t>
	add	esp, 12					; 0000000cH
	lea	ecx, DWORD PTR _func_luma$[ebp]
	push	eax
	call	??A?$map@V?$tuple@HHHW4arch_t@@@std@@P6AIPBEH@ZU?$less@V?$tuple@HHHW4arch_t@@@std@@@2@V?$allocator@U?$pair@$$CBV?$tuple@HHHW4arch_t@@@std@@P6AIPBEH@Z@std@@@2@@std@@QAEAAP6AIPBEH@Z$$QAV?$tuple@HHHW4arch_t@@@1@@Z ; std::map<std::tuple<int,int,int,enum arch_t>,unsigned int (__cdecl*)(unsigned char const *,int),std::less<std::tuple<int,int,int,enum arch_t> >,std::allocator<std::pair<std::tuple<int,int,int,enum arch_t> const ,unsigned int (__cdecl*)(unsigned char const *,int)> > >::operator[]

; 209  :     func_luma[make_tuple(4 , 8 , 2, USE_SSE2)] = Luma16_sse2<4 , 8,uint16_t>;

	lea	edx, DWORD PTR $T179[ebp]
	mov	DWORD PTR $T121[ebp], 2
	lea	ecx, DWORD PTR $T5[ebp]
	mov	DWORD PTR $T140[ebp], 2
	mov	DWORD PTR $T159[ebp], 8
	mov	DWORD PTR [eax], OFFSET ??$Luma16_sse2@$07$00G@@YAIPBEH@Z ; Luma16_sse2<8,1,unsigned short>
	lea	eax, DWORD PTR $T121[ebp]
	push	eax
	lea	eax, DWORD PTR $T140[ebp]
	mov	DWORD PTR $T179[ebp], 4
	push	eax
	lea	eax, DWORD PTR $T159[ebp]
	push	eax
	call	??$make_tuple@HHHW4arch_t@@@std@@YA?AV?$tuple@HHHW4arch_t@@@0@$$QAH00$$QAW4arch_t@@@Z ; std::make_tuple<int,int,int,enum arch_t>
	add	esp, 12					; 0000000cH
	lea	ecx, DWORD PTR _func_luma$[ebp]
	push	eax
	call	??A?$map@V?$tuple@HHHW4arch_t@@@std@@P6AIPBEH@ZU?$less@V?$tuple@HHHW4arch_t@@@std@@@2@V?$allocator@U?$pair@$$CBV?$tuple@HHHW4arch_t@@@std@@P6AIPBEH@Z@std@@@2@@std@@QAEAAP6AIPBEH@Z$$QAV?$tuple@HHHW4arch_t@@@1@@Z ; std::map<std::tuple<int,int,int,enum arch_t>,unsigned int (__cdecl*)(unsigned char const *,int),std::less<std::tuple<int,int,int,enum arch_t> >,std::allocator<std::pair<std::tuple<int,int,int,enum arch_t> const ,unsigned int (__cdecl*)(unsigned char const *,int)> > >::operator[]

; 210  :     func_luma[make_tuple(4 , 4 , 2, USE_SSE2)] = Luma16_sse2<4 , 4,uint16_t>;

	mov	DWORD PTR $T120[ebp], 2
	mov	DWORD PTR $T139[ebp], 2
	mov	DWORD PTR $T158[ebp], 4
	mov	DWORD PTR [eax], OFFSET ??$Luma16_sse2@$03$07G@@YAIPBEH@Z ; Luma16_sse2<4,8,unsigned short>
	lea	eax, DWORD PTR $T120[ebp]
	mov	DWORD PTR $T178[ebp], 4
	push	eax
	lea	eax, DWORD PTR $T139[ebp]
	push	eax
	lea	eax, DWORD PTR $T158[ebp]
	push	eax
	lea	edx, DWORD PTR $T178[ebp]
	lea	ecx, DWORD PTR $T4[ebp]
	call	??$make_tuple@HHHW4arch_t@@@std@@YA?AV?$tuple@HHHW4arch_t@@@0@$$QAH00$$QAW4arch_t@@@Z ; std::make_tuple<int,int,int,enum arch_t>
	add	esp, 12					; 0000000cH
	lea	ecx, DWORD PTR _func_luma$[ebp]
	push	eax
	call	??A?$map@V?$tuple@HHHW4arch_t@@@std@@P6AIPBEH@ZU?$less@V?$tuple@HHHW4arch_t@@@std@@@2@V?$allocator@U?$pair@$$CBV?$tuple@HHHW4arch_t@@@std@@P6AIPBEH@Z@std@@@2@@std@@QAEAAP6AIPBEH@Z$$QAV?$tuple@HHHW4arch_t@@@1@@Z ; std::map<std::tuple<int,int,int,enum arch_t>,unsigned int (__cdecl*)(unsigned char const *,int),std::less<std::tuple<int,int,int,enum arch_t> >,std::allocator<std::pair<std::tuple<int,int,int,enum arch_t> const ,unsigned int (__cdecl*)(unsigned char const *,int)> > >::operator[]

; 211  :     func_luma[make_tuple(4 , 2 , 2, USE_SSE2)] = Luma16_sse2<4 , 2,uint16_t>;

	lea	edx, DWORD PTR $T177[ebp]
	mov	DWORD PTR $T119[ebp], 2
	lea	ecx, DWORD PTR $T3[ebp]
	mov	DWORD PTR $T138[ebp], 2
	mov	DWORD PTR $T157[ebp], 2
	mov	DWORD PTR [eax], OFFSET ??$Luma16_sse2@$03$03G@@YAIPBEH@Z ; Luma16_sse2<4,4,unsigned short>
	lea	eax, DWORD PTR $T119[ebp]
	push	eax
	lea	eax, DWORD PTR $T138[ebp]
	mov	DWORD PTR $T177[ebp], 4
	push	eax
	lea	eax, DWORD PTR $T157[ebp]
	push	eax
	call	??$make_tuple@HHHW4arch_t@@@std@@YA?AV?$tuple@HHHW4arch_t@@@0@$$QAH00$$QAW4arch_t@@@Z ; std::make_tuple<int,int,int,enum arch_t>
	add	esp, 12					; 0000000cH
	lea	ecx, DWORD PTR _func_luma$[ebp]
	push	eax
	call	??A?$map@V?$tuple@HHHW4arch_t@@@std@@P6AIPBEH@ZU?$less@V?$tuple@HHHW4arch_t@@@std@@@2@V?$allocator@U?$pair@$$CBV?$tuple@HHHW4arch_t@@@std@@P6AIPBEH@Z@std@@@2@@std@@QAEAAP6AIPBEH@Z$$QAV?$tuple@HHHW4arch_t@@@1@@Z ; std::map<std::tuple<int,int,int,enum arch_t>,unsigned int (__cdecl*)(unsigned char const *,int),std::less<std::tuple<int,int,int,enum arch_t> >,std::allocator<std::pair<std::tuple<int,int,int,enum arch_t> const ,unsigned int (__cdecl*)(unsigned char const *,int)> > >::operator[]
	movaps	xmm0, XMMWORD PTR __xmm@00000002000000030000000500000006
; File c:\program files (x86)\microsoft visual studio 14.0\vc\include\xtree

; 567  : 		: _Myhead(),

	lea	esi, DWORD PTR _archlist$[ebp]
	mov	ebx, DWORD PTR _arch$[ebp]
	movups	XMMWORD PTR _archlist$[ebp], xmm0
; File c:\github\mvtools\sources\variance.cpp

; 211  :     func_luma[make_tuple(4 , 2 , 2, USE_SSE2)] = Luma16_sse2<4 , 2,uint16_t>;

	mov	DWORD PTR [eax], OFFSET ??$Luma16_sse2@$03$01G@@YAIPBEH@Z ; Luma16_sse2<4,2,unsigned short>

; 212  :     // no 4,1 or 2,x,x for uint16_t
; 213  :     
; 214  :     LUMAFunction *result = nullptr;
; 215  :     arch_t archlist[] = { USE_AVX2, USE_AVX, USE_SSE41, USE_SSE2, NO_SIMD };

	mov	DWORD PTR _archlist$[ebp+16], 0
$LL2@get_luma_f:

; 216  :     int index = 0;
; 217  :     while (result == nullptr) {
; 218  :       arch_t current_arch_try = archlist[index++];

	mov	eax, DWORD PTR [esi]
	lea	esi, DWORD PTR [esi+4]
	mov	DWORD PTR _current_arch_try$176[ebp], eax

; 219  :       if (current_arch_try > arch) continue;

	cmp	eax, ebx
	jg	SHORT $LL2@get_luma_f

; 220  :       result = func_luma[make_tuple(BlockX, BlockY, pixelsize, current_arch_try)];

	lea	eax, DWORD PTR _current_arch_try$176[ebp]
	push	eax
	lea	eax, DWORD PTR _pixelsize$[ebp]
	push	eax
	lea	eax, DWORD PTR _BlockY$[ebp]
	push	eax
	lea	edx, DWORD PTR _BlockX$[ebp]
	lea	ecx, DWORD PTR $T2[ebp]
	call	??$make_tuple@AAHAAHAAHAAW4arch_t@@@std@@YA?AV?$tuple@HHHW4arch_t@@@0@AAH00AAW4arch_t@@@Z ; std::make_tuple<int &,int &,int &,enum arch_t &>
	add	esp, 12					; 0000000cH
	lea	ecx, DWORD PTR _func_luma$[ebp]
	push	eax
	call	??A?$map@V?$tuple@HHHW4arch_t@@@std@@P6AIPBEH@ZU?$less@V?$tuple@HHHW4arch_t@@@std@@@2@V?$allocator@U?$pair@$$CBV?$tuple@HHHW4arch_t@@@std@@P6AIPBEH@Z@std@@@2@@std@@QAEAAP6AIPBEH@Z$$QAV?$tuple@HHHW4arch_t@@@1@@Z ; std::map<std::tuple<int,int,int,enum arch_t>,unsigned int (__cdecl*)(unsigned char const *,int),std::less<std::tuple<int,int,int,enum arch_t> >,std::allocator<std::pair<std::tuple<int,int,int,enum arch_t> const ,unsigned int (__cdecl*)(unsigned char const *,int)> > >::operator[]
	mov	edi, DWORD PTR [eax]

; 221  :       if (result == nullptr && current_arch_try == NO_SIMD)

	test	edi, edi
	jne	SHORT $LN4823@get_luma_f
	cmp	DWORD PTR _current_arch_try$176[ebp], edi
	jne	SHORT $LL2@get_luma_f
$LN4823@get_luma_f:

; 222  :         break;
; 223  :     }
; 224  : 
; 225  : #if 0
; 226  :     LUMAFunction *result = func_luma[make_tuple(BlockX, BlockY, pixelsize, arch)];
; 227  : 
; 228  :     arch_t arch_orig = arch;
; 229  : 
; 230  :     // no AVX2 -> try AVX
; 231  :     if (result == nullptr && (arch==USE_AVX2 || arch_orig==USE_AVX)) {
; 232  :       arch = USE_AVX;
; 233  :       result = func_luma[make_tuple(BlockX, BlockY, pixelsize, USE_AVX)];
; 234  :     }
; 235  :     // no AVX -> try SSE2
; 236  :     if (result == nullptr && (arch==USE_AVX || arch_orig==USE_SSE2)) {
; 237  :       arch = USE_SSE2;
; 238  :       result = func_luma[make_tuple(BlockX, BlockY, pixelsize, USE_SSE2)];
; 239  :     }
; 240  :     // no SSE2 -> try C
; 241  :     if (result == nullptr && (arch==USE_SSE2 || arch_orig==NO_SIMD)) {
; 242  :       arch = NO_SIMD;
; 243  :       /* C version variations are only working in SAD
; 244  :       // priority: C version compiled to avx2, avx
; 245  :       if(arch_orig==USE_AVX2)
; 246  :       result = get_luma_avx2_C_function(BlockX, BlockY, pixelsize, NO_SIMD);
; 247  :       else if(arch_orig==USE_AVX)
; 248  :       result = get_luma_avx_C_function(BlockX, BlockY, pixelsize, NO_SIMD);
; 249  :       */
; 250  :       if(result == nullptr)
; 251  :         result = func_luma[make_tuple(BlockX, BlockY, pixelsize, NO_SIMD)]; // fallback to C
; 252  :     }
; 253  : #endif
; 254  :     return result;

	lea	ecx, DWORD PTR _func_luma$[ebp]
	call	??1?$map@V?$tuple@HHHW4arch_t@@@std@@P6AIPBEH@ZU?$less@V?$tuple@HHHW4arch_t@@@std@@@2@V?$allocator@U?$pair@$$CBV?$tuple@HHHW4arch_t@@@std@@P6AIPBEH@Z@std@@@2@@std@@QAE@XZ

; 255  : }

	mov	ecx, DWORD PTR __$EHRec$[ebp]
	mov	eax, edi
	pop	edi
	pop	esi
	pop	ebx
	mov	DWORD PTR fs:0, ecx
	mov	esp, ebp
	pop	ebp
	ret	0
_TEXT	ENDS
;	COMDAT text$x
text$x	SEGMENT
__unwindfunclet$?get_luma_function@@YAP6AIPBEH@ZHHHW4arch_t@@@Z$0:
	lea	ecx, DWORD PTR _func_luma$[ebp]
	jmp	??1?$map@V?$tuple@HHHW4arch_t@@@std@@P6AIPBEH@ZU?$less@V?$tuple@HHHW4arch_t@@@std@@@2@V?$allocator@U?$pair@$$CBV?$tuple@HHHW4arch_t@@@std@@P6AIPBEH@Z@std@@@2@@std@@QAE@XZ
__ehhandler$?get_luma_function@@YAP6AIPBEH@ZHHHW4arch_t@@@Z:
	mov	eax, OFFSET __ehfuncinfo$?get_luma_function@@YAP6AIPBEH@ZHHHW4arch_t@@@Z
	jmp	___CxxFrameHandler3
text$x	ENDS
?get_luma_function@@YAP6AIPBEH@ZHHHW4arch_t@@@Z ENDP	; get_luma_function
; Function compile flags: /Ogtpy
; File c:\program files (x86)\microsoft visual studio 14.0\vc\include\xtree
; File c:\program files (x86)\microsoft visual studio 14.0\vc\include\xmemory0
;	COMDAT ??1?$map@V?$tuple@HHHW4arch_t@@@std@@P6AIPBEH@ZU?$less@V?$tuple@HHHW4arch_t@@@std@@@2@V?$allocator@U?$pair@$$CBV?$tuple@HHHW4arch_t@@@std@@P6AIPBEH@Z@std@@@2@@std@@QAE@XZ
_TEXT	SEGMENT
$T1 = -4						; size = 4
??1?$map@V?$tuple@HHHW4arch_t@@@std@@P6AIPBEH@ZU?$less@V?$tuple@HHHW4arch_t@@@std@@@2@V?$allocator@U?$pair@$$CBV?$tuple@HHHW4arch_t@@@std@@P6AIPBEH@Z@std@@@2@@std@@QAE@XZ PROC ; std::map<std::tuple<int,int,int,enum arch_t>,unsigned int (__cdecl*)(unsigned char const *,int),std::less<std::tuple<int,int,int,enum arch_t> >,std::allocator<std::pair<std::tuple<int,int,int,enum arch_t> const ,unsigned int (__cdecl*)(unsigned char const *,int)> > >::~map<std::tuple<int,int,int,enum arch_t>,unsigned int (__cdecl*)(unsigned char const *,int),std::less<std::tuple<int,int,int,enum arch_t> >,std::allocator<std::pair<std::tuple<int,int,int,enum arch_t> const ,unsigned int (__cdecl*)(unsigned char const *,int)> > >, COMDAT
; _this$ = ecx
	push	ecx
	push	esi
	mov	esi, ecx
; File c:\program files (x86)\microsoft visual studio 14.0\vc\include\xtree

; 43   : 		: _Ptr(_Pnode)

	mov	eax, DWORD PTR [esi]

; 2168 : 		erase(begin(), end());

	push	eax
	push	DWORD PTR [eax]
	lea	eax, DWORD PTR $T1[esp+16]
	push	eax
	call	?erase@?$_Tree@V?$_Tmap_traits@V?$tuple@HHHW4arch_t@@@std@@P6AIPBEH@ZU?$less@V?$tuple@HHHW4arch_t@@@std@@@2@V?$allocator@U?$pair@$$CBV?$tuple@HHHW4arch_t@@@std@@P6AIPBEH@Z@std@@@2@$0A@@std@@@std@@QAE?AV?$_Tree_iterator@V?$_Tree_val@U?$_Tree_simple_types@U?$pair@$$CBV?$tuple@HHHW4arch_t@@@std@@P6AIPBEH@Z@std@@@std@@@std@@@2@V?$_Tree_const_iterator@V?$_Tree_val@U?$_Tree_simple_types@U?$pair@$$CBV?$tuple@HHHW4arch_t@@@std@@P6AIPBEH@Z@std@@@std@@@std@@@2@0@Z ; std::_Tree<std::_Tmap_traits<std::tuple<int,int,int,enum arch_t>,unsigned int (__cdecl*)(unsigned char const *,int),std::less<std::tuple<int,int,int,enum arch_t> >,std::allocator<std::pair<std::tuple<int,int,int,enum arch_t> const ,unsigned int (__cdecl*)(unsigned char const *,int)> >,0> >::erase
; File c:\program files (x86)\microsoft visual studio 14.0\vc\include\xmemory0

; 720  : 		_Deallocate(_Ptr, _Count, sizeof (_Ty));

	mov	ecx, DWORD PTR [esi]
	mov	edx, 1
	push	36					; 00000024H
	call	?_Deallocate@std@@YAXPAXII@Z		; std::_Deallocate
	add	esp, 4
	pop	esi
	pop	ecx
	ret	0
??1?$map@V?$tuple@HHHW4arch_t@@@std@@P6AIPBEH@ZU?$less@V?$tuple@HHHW4arch_t@@@std@@@2@V?$allocator@U?$pair@$$CBV?$tuple@HHHW4arch_t@@@std@@P6AIPBEH@Z@std@@@2@@std@@QAE@XZ ENDP ; std::map<std::tuple<int,int,int,enum arch_t>,unsigned int (__cdecl*)(unsigned char const *,int),std::less<std::tuple<int,int,int,enum arch_t> >,std::allocator<std::pair<std::tuple<int,int,int,enum arch_t> const ,unsigned int (__cdecl*)(unsigned char const *,int)> > >::~map<std::tuple<int,int,int,enum arch_t>,unsigned int (__cdecl*)(unsigned char const *,int),std::less<std::tuple<int,int,int,enum arch_t> >,std::allocator<std::pair<std::tuple<int,int,int,enum arch_t> const ,unsigned int (__cdecl*)(unsigned char const *,int)> > >
_TEXT	ENDS
; Function compile flags: /Ogtpy
; File c:\program files (x86)\microsoft visual studio 14.0\vc\include\xtree
; File c:\program files (x86)\microsoft visual studio 14.0\vc\include\xmemory0
; File c:\program files (x86)\microsoft visual studio 14.0\vc\include\xtree
;	COMDAT ??1?$_Tree@V?$_Tmap_traits@V?$tuple@HHHW4arch_t@@@std@@P6AIPBEH@ZU?$less@V?$tuple@HHHW4arch_t@@@std@@@2@V?$allocator@U?$pair@$$CBV?$tuple@HHHW4arch_t@@@std@@P6AIPBEH@Z@std@@@2@$0A@@std@@@std@@QAE@XZ
_TEXT	SEGMENT
$T1 = -4						; size = 4
??1?$_Tree@V?$_Tmap_traits@V?$tuple@HHHW4arch_t@@@std@@P6AIPBEH@ZU?$less@V?$tuple@HHHW4arch_t@@@std@@@2@V?$allocator@U?$pair@$$CBV?$tuple@HHHW4arch_t@@@std@@P6AIPBEH@Z@std@@@2@$0A@@std@@@std@@QAE@XZ PROC ; std::_Tree<std::_Tmap_traits<std::tuple<int,int,int,enum arch_t>,unsigned int (__cdecl*)(unsigned char const *,int),std::less<std::tuple<int,int,int,enum arch_t> >,std::allocator<std::pair<std::tuple<int,int,int,enum arch_t> const ,unsigned int (__cdecl*)(unsigned char const *,int)> >,0> >::~_Tree<std::_Tmap_traits<std::tuple<int,int,int,enum arch_t>,unsigned int (__cdecl*)(unsigned char const *,int),std::less<std::tuple<int,int,int,enum arch_t> >,std::allocator<std::pair<std::tuple<int,int,int,enum arch_t> const ,unsigned int (__cdecl*)(unsigned char const *,int)> >,0> >, COMDAT
; _this$ = ecx

; 1090 : 		{	// destroy tree

	push	ecx
	push	esi
	mov	esi, ecx

; 43   : 		: _Ptr(_Pnode)

	mov	eax, DWORD PTR [esi]

; 2168 : 		erase(begin(), end());

	push	eax
	push	DWORD PTR [eax]
	lea	eax, DWORD PTR $T1[esp+16]
	push	eax
	call	?erase@?$_Tree@V?$_Tmap_traits@V?$tuple@HHHW4arch_t@@@std@@P6AIPBEH@ZU?$less@V?$tuple@HHHW4arch_t@@@std@@@2@V?$allocator@U?$pair@$$CBV?$tuple@HHHW4arch_t@@@std@@P6AIPBEH@Z@std@@@2@$0A@@std@@@std@@QAE?AV?$_Tree_iterator@V?$_Tree_val@U?$_Tree_simple_types@U?$pair@$$CBV?$tuple@HHHW4arch_t@@@std@@P6AIPBEH@Z@std@@@std@@@std@@@2@V?$_Tree_const_iterator@V?$_Tree_val@U?$_Tree_simple_types@U?$pair@$$CBV?$tuple@HHHW4arch_t@@@std@@P6AIPBEH@Z@std@@@std@@@std@@@2@0@Z ; std::_Tree<std::_Tmap_traits<std::tuple<int,int,int,enum arch_t>,unsigned int (__cdecl*)(unsigned char const *,int),std::less<std::tuple<int,int,int,enum arch_t> >,std::allocator<std::pair<std::tuple<int,int,int,enum arch_t> const ,unsigned int (__cdecl*)(unsigned char const *,int)> >,0> >::erase
; File c:\program files (x86)\microsoft visual studio 14.0\vc\include\xmemory0

; 720  : 		_Deallocate(_Ptr, _Count, sizeof (_Ty));

	mov	ecx, DWORD PTR [esi]
	mov	edx, 1
	push	36					; 00000024H
	call	?_Deallocate@std@@YAXPAXII@Z		; std::_Deallocate
	add	esp, 4
	pop	esi
; File c:\program files (x86)\microsoft visual studio 14.0\vc\include\xtree

; 1092 : 		}

	pop	ecx
	ret	0
??1?$_Tree@V?$_Tmap_traits@V?$tuple@HHHW4arch_t@@@std@@P6AIPBEH@ZU?$less@V?$tuple@HHHW4arch_t@@@std@@@2@V?$allocator@U?$pair@$$CBV?$tuple@HHHW4arch_t@@@std@@P6AIPBEH@Z@std@@@2@$0A@@std@@@std@@QAE@XZ ENDP ; std::_Tree<std::_Tmap_traits<std::tuple<int,int,int,enum arch_t>,unsigned int (__cdecl*)(unsigned char const *,int),std::less<std::tuple<int,int,int,enum arch_t> >,std::allocator<std::pair<std::tuple<int,int,int,enum arch_t> const ,unsigned int (__cdecl*)(unsigned char const *,int)> >,0> >::~_Tree<std::_Tmap_traits<std::tuple<int,int,int,enum arch_t>,unsigned int (__cdecl*)(unsigned char const *,int),std::less<std::tuple<int,int,int,enum arch_t> >,std::allocator<std::pair<std::tuple<int,int,int,enum arch_t> const ,unsigned int (__cdecl*)(unsigned char const *,int)> >,0> >
_TEXT	ENDS
; Function compile flags: /Ogtpy
; File c:\program files (x86)\microsoft visual studio 14.0\vc\include\map
;	COMDAT ??A?$map@V?$tuple@HHHW4arch_t@@@std@@P6AIPBEH@ZU?$less@V?$tuple@HHHW4arch_t@@@std@@@2@V?$allocator@U?$pair@$$CBV?$tuple@HHHW4arch_t@@@std@@P6AIPBEH@Z@std@@@2@@std@@QAEAAP6AIPBEH@Z$$QAV?$tuple@HHHW4arch_t@@@1@@Z
_TEXT	SEGMENT
$T1 = -8						; size = 8
__Keyval$ = 8						; size = 4
??A?$map@V?$tuple@HHHW4arch_t@@@std@@P6AIPBEH@ZU?$less@V?$tuple@HHHW4arch_t@@@std@@@2@V?$allocator@U?$pair@$$CBV?$tuple@HHHW4arch_t@@@std@@P6AIPBEH@Z@std@@@2@@std@@QAEAAP6AIPBEH@Z$$QAV?$tuple@HHHW4arch_t@@@1@@Z PROC ; std::map<std::tuple<int,int,int,enum arch_t>,unsigned int (__cdecl*)(unsigned char const *,int),std::less<std::tuple<int,int,int,enum arch_t> >,std::allocator<std::pair<std::tuple<int,int,int,enum arch_t> const ,unsigned int (__cdecl*)(unsigned char const *,int)> > >::operator[], COMDAT
; _this$ = ecx

; 177  : 		{	// find element matching _Keyval or insert with default mapped

	sub	esp, 8

; 244  : 		return (_Try_emplace(_STD move(_Keyval),

	push	DWORD PTR __Keyval$[esp+4]
	lea	eax, DWORD PTR $T1[esp+12]
	push	eax
	call	??$_Try_emplace@V?$tuple@HHHW4arch_t@@@std@@$$V@?$map@V?$tuple@HHHW4arch_t@@@std@@P6AIPBEH@ZU?$less@V?$tuple@HHHW4arch_t@@@std@@@2@V?$allocator@U?$pair@$$CBV?$tuple@HHHW4arch_t@@@std@@P6AIPBEH@Z@std@@@2@@std@@QAE?AU?$pair@V?$_Tree_iterator@V?$_Tree_val@U?$_Tree_simple_types@U?$pair@$$CBV?$tuple@HHHW4arch_t@@@std@@P6AIPBEH@Z@std@@@std@@@std@@@std@@_N@1@$$QAV?$tuple@HHHW4arch_t@@@1@@Z ; std::map<std::tuple<int,int,int,enum arch_t>,unsigned int (__cdecl*)(unsigned char const *,int),std::less<std::tuple<int,int,int,enum arch_t> >,std::allocator<std::pair<std::tuple<int,int,int,enum arch_t> const ,unsigned int (__cdecl*)(unsigned char const *,int)> > >::_Try_emplace<std::tuple<int,int,int,enum arch_t> >

; 178  : 		return (try_emplace(_STD move(_Keyval)).first->second);

	mov	eax, DWORD PTR $T1[esp+8]
	add	eax, 32					; 00000020H

; 179  : 		}

	add	esp, 8
	ret	4
??A?$map@V?$tuple@HHHW4arch_t@@@std@@P6AIPBEH@ZU?$less@V?$tuple@HHHW4arch_t@@@std@@@2@V?$allocator@U?$pair@$$CBV?$tuple@HHHW4arch_t@@@std@@P6AIPBEH@Z@std@@@2@@std@@QAEAAP6AIPBEH@Z$$QAV?$tuple@HHHW4arch_t@@@1@@Z ENDP ; std::map<std::tuple<int,int,int,enum arch_t>,unsigned int (__cdecl*)(unsigned char const *,int),std::less<std::tuple<int,int,int,enum arch_t> >,std::allocator<std::pair<std::tuple<int,int,int,enum arch_t> const ,unsigned int (__cdecl*)(unsigned char const *,int)> > >::operator[]
_TEXT	ENDS
; Function compile flags: /Ogtpy
; File c:\program files (x86)\microsoft visual studio 14.0\vc\include\map
; File c:\program files (x86)\microsoft visual studio 14.0\vc\include\xtree
; File c:\program files (x86)\microsoft visual studio 14.0\vc\include\map
;	COMDAT ??0?$map@V?$tuple@HHHW4arch_t@@@std@@P6AIPBEH@ZU?$less@V?$tuple@HHHW4arch_t@@@std@@@2@V?$allocator@U?$pair@$$CBV?$tuple@HHHW4arch_t@@@std@@P6AIPBEH@Z@std@@@2@@std@@QAE@XZ
_TEXT	SEGMENT
_this$ = -4						; size = 4
??0?$map@V?$tuple@HHHW4arch_t@@@std@@P6AIPBEH@ZU?$less@V?$tuple@HHHW4arch_t@@@std@@@2@V?$allocator@U?$pair@$$CBV?$tuple@HHHW4arch_t@@@std@@P6AIPBEH@Z@std@@@2@@std@@QAE@XZ PROC ; std::map<std::tuple<int,int,int,enum arch_t>,unsigned int (__cdecl*)(unsigned char const *,int),std::less<std::tuple<int,int,int,enum arch_t> >,std::allocator<std::pair<std::tuple<int,int,int,enum arch_t> const ,unsigned int (__cdecl*)(unsigned char const *,int)> > >::map<std::tuple<int,int,int,enum arch_t>,unsigned int (__cdecl*)(unsigned char const *,int),std::less<std::tuple<int,int,int,enum arch_t> >,std::allocator<std::pair<std::tuple<int,int,int,enum arch_t> const ,unsigned int (__cdecl*)(unsigned char const *,int)> > >, COMDAT
; _this$ = ecx

; 100  : 		{	// construct empty map from defaults

	push	ecx
	push	esi
	mov	esi, ecx
	mov	DWORD PTR _this$[esp+8], esi
; File c:\program files (x86)\microsoft visual studio 14.0\vc\include\xtree

; 567  : 		: _Myhead(),

	mov	DWORD PTR [esi], 0

; 568  : 		_Mysize(0)

	mov	DWORD PTR [esi+4], 0

; 721  : 		_Myhead() = _Buyheadnode();

	call	?_Buyheadnode@?$_Tree_comp_alloc@V?$_Tmap_traits@V?$tuple@HHHW4arch_t@@@std@@P6AIPBEH@ZU?$less@V?$tuple@HHHW4arch_t@@@std@@@2@V?$allocator@U?$pair@$$CBV?$tuple@HHHW4arch_t@@@std@@P6AIPBEH@Z@std@@@2@$0A@@std@@@std@@QAEPAU?$_Tree_node@U?$pair@$$CBV?$tuple@HHHW4arch_t@@@std@@P6AIPBEH@Z@std@@PAX@2@XZ ; std::_Tree_comp_alloc<std::_Tmap_traits<std::tuple<int,int,int,enum arch_t>,unsigned int (__cdecl*)(unsigned char const *,int),std::less<std::tuple<int,int,int,enum arch_t> >,std::allocator<std::pair<std::tuple<int,int,int,enum arch_t> const ,unsigned int (__cdecl*)(unsigned char const *,int)> >,0> >::_Buyheadnode
	mov	DWORD PTR [esi], eax
; File c:\program files (x86)\microsoft visual studio 14.0\vc\include\map

; 101  : 		}

	mov	eax, esi
	pop	esi
	pop	ecx
	ret	0
??0?$map@V?$tuple@HHHW4arch_t@@@std@@P6AIPBEH@ZU?$less@V?$tuple@HHHW4arch_t@@@std@@@2@V?$allocator@U?$pair@$$CBV?$tuple@HHHW4arch_t@@@std@@P6AIPBEH@Z@std@@@2@@std@@QAE@XZ ENDP ; std::map<std::tuple<int,int,int,enum arch_t>,unsigned int (__cdecl*)(unsigned char const *,int),std::less<std::tuple<int,int,int,enum arch_t> >,std::allocator<std::pair<std::tuple<int,int,int,enum arch_t> const ,unsigned int (__cdecl*)(unsigned char const *,int)> > >::map<std::tuple<int,int,int,enum arch_t>,unsigned int (__cdecl*)(unsigned char const *,int),std::less<std::tuple<int,int,int,enum arch_t> >,std::allocator<std::pair<std::tuple<int,int,int,enum arch_t> const ,unsigned int (__cdecl*)(unsigned char const *,int)> > >
_TEXT	ENDS
; Function compile flags: /Ogtpy
; File c:\program files (x86)\microsoft visual studio 14.0\vc\include\xtree
;	COMDAT ??C?$_Tree_iterator@V?$_Tree_val@U?$_Tree_simple_types@U?$pair@$$CBV?$tuple@HHHW4arch_t@@@std@@P6AIPBEH@Z@std@@@std@@@std@@@std@@QBEPAU?$pair@$$CBV?$tuple@HHHW4arch_t@@@std@@P6AIPBEH@Z@1@XZ
_TEXT	SEGMENT
??C?$_Tree_iterator@V?$_Tree_val@U?$_Tree_simple_types@U?$pair@$$CBV?$tuple@HHHW4arch_t@@@std@@P6AIPBEH@Z@std@@@std@@@std@@@std@@QBEPAU?$pair@$$CBV?$tuple@HHHW4arch_t@@@std@@P6AIPBEH@Z@1@XZ PROC ; std::_Tree_iterator<std::_Tree_val<std::_Tree_simple_types<std::pair<std::tuple<int,int,int,enum arch_t> const ,unsigned int (__cdecl*)(unsigned char const *,int)> > > >::operator->, COMDAT
; _this$ = ecx

; 603  : 		return ((reference)_Pnode->_Myval);

	mov	eax, DWORD PTR [ecx]
	add	eax, 16					; 00000010H

; 407  : 		return (pointer_traits<pointer>::pointer_to(**this));
; 408  : 		}

	ret	0
??C?$_Tree_iterator@V?$_Tree_val@U?$_Tree_simple_types@U?$pair@$$CBV?$tuple@HHHW4arch_t@@@std@@P6AIPBEH@Z@std@@@std@@@std@@@std@@QBEPAU?$pair@$$CBV?$tuple@HHHW4arch_t@@@std@@P6AIPBEH@Z@1@XZ ENDP ; std::_Tree_iterator<std::_Tree_val<std::_Tree_simple_types<std::pair<std::tuple<int,int,int,enum arch_t> const ,unsigned int (__cdecl*)(unsigned char const *,int)> > > >::operator->
_TEXT	ENDS
; Function compile flags: /Ogtpy
; File c:\program files (x86)\microsoft visual studio 14.0\vc\include\xtree
; File c:\program files (x86)\microsoft visual studio 14.0\vc\include\xmemory0
; File c:\program files (x86)\microsoft visual studio 14.0\vc\include\xtree
;	COMDAT ??1?$_Tree_comp_alloc@V?$_Tmap_traits@V?$tuple@HHHW4arch_t@@@std@@P6AIPBEH@ZU?$less@V?$tuple@HHHW4arch_t@@@std@@@2@V?$allocator@U?$pair@$$CBV?$tuple@HHHW4arch_t@@@std@@P6AIPBEH@Z@std@@@2@$0A@@std@@@std@@QAE@XZ
_TEXT	SEGMENT
??1?$_Tree_comp_alloc@V?$_Tmap_traits@V?$tuple@HHHW4arch_t@@@std@@P6AIPBEH@ZU?$less@V?$tuple@HHHW4arch_t@@@std@@@2@V?$allocator@U?$pair@$$CBV?$tuple@HHHW4arch_t@@@std@@P6AIPBEH@Z@std@@@2@$0A@@std@@@std@@QAE@XZ PROC ; std::_Tree_comp_alloc<std::_Tmap_traits<std::tuple<int,int,int,enum arch_t>,unsigned int (__cdecl*)(unsigned char const *,int),std::less<std::tuple<int,int,int,enum arch_t> >,std::allocator<std::pair<std::tuple<int,int,int,enum arch_t> const ,unsigned int (__cdecl*)(unsigned char const *,int)> >,0> >::~_Tree_comp_alloc<std::_Tmap_traits<std::tuple<int,int,int,enum arch_t>,unsigned int (__cdecl*)(unsigned char const *,int),std::less<std::tuple<int,int,int,enum arch_t> >,std::allocator<std::pair<std::tuple<int,int,int,enum arch_t> const ,unsigned int (__cdecl*)(unsigned char const *,int)> >,0> >, COMDAT
; _this$ = ecx
; File c:\program files (x86)\microsoft visual studio 14.0\vc\include\xmemory0

; 720  : 		_Deallocate(_Ptr, _Count, sizeof (_Ty));

	mov	ecx, DWORD PTR [ecx]
	mov	edx, 1
	push	36					; 00000024H
	call	?_Deallocate@std@@YAXPAXII@Z		; std::_Deallocate
	pop	ecx
; File c:\program files (x86)\microsoft visual studio 14.0\vc\include\xtree

; 727  : 		}

	ret	0
??1?$_Tree_comp_alloc@V?$_Tmap_traits@V?$tuple@HHHW4arch_t@@@std@@P6AIPBEH@ZU?$less@V?$tuple@HHHW4arch_t@@@std@@@2@V?$allocator@U?$pair@$$CBV?$tuple@HHHW4arch_t@@@std@@P6AIPBEH@Z@std@@@2@$0A@@std@@@std@@QAE@XZ ENDP ; std::_Tree_comp_alloc<std::_Tmap_traits<std::tuple<int,int,int,enum arch_t>,unsigned int (__cdecl*)(unsigned char const *,int),std::less<std::tuple<int,int,int,enum arch_t> >,std::allocator<std::pair<std::tuple<int,int,int,enum arch_t> const ,unsigned int (__cdecl*)(unsigned char const *,int)> >,0> >::~_Tree_comp_alloc<std::_Tmap_traits<std::tuple<int,int,int,enum arch_t>,unsigned int (__cdecl*)(unsigned char const *,int),std::less<std::tuple<int,int,int,enum arch_t> >,std::allocator<std::pair<std::tuple<int,int,int,enum arch_t> const ,unsigned int (__cdecl*)(unsigned char const *,int)> >,0> >
_TEXT	ENDS
; Function compile flags: /Ogtpy
; File c:\program files (x86)\microsoft visual studio 14.0\vc\include\xtree
;	COMDAT ?_Tidy@?$_Tree@V?$_Tmap_traits@V?$tuple@HHHW4arch_t@@@std@@P6AIPBEH@ZU?$less@V?$tuple@HHHW4arch_t@@@std@@@2@V?$allocator@U?$pair@$$CBV?$tuple@HHHW4arch_t@@@std@@P6AIPBEH@Z@std@@@2@$0A@@std@@@std@@IAEXXZ
_TEXT	SEGMENT
$T1 = -4						; size = 4
?_Tidy@?$_Tree@V?$_Tmap_traits@V?$tuple@HHHW4arch_t@@@std@@P6AIPBEH@ZU?$less@V?$tuple@HHHW4arch_t@@@std@@@2@V?$allocator@U?$pair@$$CBV?$tuple@HHHW4arch_t@@@std@@P6AIPBEH@Z@std@@@2@$0A@@std@@@std@@IAEXXZ PROC ; std::_Tree<std::_Tmap_traits<std::tuple<int,int,int,enum arch_t>,unsigned int (__cdecl*)(unsigned char const *,int),std::less<std::tuple<int,int,int,enum arch_t> >,std::allocator<std::pair<std::tuple<int,int,int,enum arch_t> const ,unsigned int (__cdecl*)(unsigned char const *,int)> >,0> >::_Tidy, COMDAT
; _this$ = ecx

; 2167 : 		{	// free all storage

	push	ecx

; 43   : 		: _Ptr(_Pnode)

	mov	eax, DWORD PTR [ecx]

; 2168 : 		erase(begin(), end());

	push	eax
	push	DWORD PTR [eax]
	lea	eax, DWORD PTR $T1[esp+12]
	push	eax
	call	?erase@?$_Tree@V?$_Tmap_traits@V?$tuple@HHHW4arch_t@@@std@@P6AIPBEH@ZU?$less@V?$tuple@HHHW4arch_t@@@std@@@2@V?$allocator@U?$pair@$$CBV?$tuple@HHHW4arch_t@@@std@@P6AIPBEH@Z@std@@@2@$0A@@std@@@std@@QAE?AV?$_Tree_iterator@V?$_Tree_val@U?$_Tree_simple_types@U?$pair@$$CBV?$tuple@HHHW4arch_t@@@std@@P6AIPBEH@Z@std@@@std@@@std@@@2@V?$_Tree_const_iterator@V?$_Tree_val@U?$_Tree_simple_types@U?$pair@$$CBV?$tuple@HHHW4arch_t@@@std@@P6AIPBEH@Z@std@@@std@@@std@@@2@0@Z ; std::_Tree<std::_Tmap_traits<std::tuple<int,int,int,enum arch_t>,unsigned int (__cdecl*)(unsigned char const *,int),std::less<std::tuple<int,int,int,enum arch_t> >,std::allocator<std::pair<std::tuple<int,int,int,enum arch_t> const ,unsigned int (__cdecl*)(unsigned char const *,int)> >,0> >::erase

; 2169 : 		}

	pop	ecx
	ret	0
?_Tidy@?$_Tree@V?$_Tmap_traits@V?$tuple@HHHW4arch_t@@@std@@P6AIPBEH@ZU?$less@V?$tuple@HHHW4arch_t@@@std@@@2@V?$allocator@U?$pair@$$CBV?$tuple@HHHW4arch_t@@@std@@P6AIPBEH@Z@std@@@2@$0A@@std@@@std@@IAEXXZ ENDP ; std::_Tree<std::_Tmap_traits<std::tuple<int,int,int,enum arch_t>,unsigned int (__cdecl*)(unsigned char const *,int),std::less<std::tuple<int,int,int,enum arch_t> >,std::allocator<std::pair<std::tuple<int,int,int,enum arch_t> const ,unsigned int (__cdecl*)(unsigned char const *,int)> >,0> >::_Tidy
_TEXT	ENDS
; Function compile flags: /Ogtpy
; File c:\program files (x86)\microsoft visual studio 14.0\vc\include\xtree
;	COMDAT ??0?$_Tree@V?$_Tmap_traits@V?$tuple@HHHW4arch_t@@@std@@P6AIPBEH@ZU?$less@V?$tuple@HHHW4arch_t@@@std@@@2@V?$allocator@U?$pair@$$CBV?$tuple@HHHW4arch_t@@@std@@P6AIPBEH@Z@std@@@2@$0A@@std@@@std@@QAE@ABU?$less@V?$tuple@HHHW4arch_t@@@std@@@1@@Z
_TEXT	SEGMENT
_this$ = -4						; size = 4
__Parg$dead$ = 8					; size = 4
??0?$_Tree@V?$_Tmap_traits@V?$tuple@HHHW4arch_t@@@std@@P6AIPBEH@ZU?$less@V?$tuple@HHHW4arch_t@@@std@@@2@V?$allocator@U?$pair@$$CBV?$tuple@HHHW4arch_t@@@std@@P6AIPBEH@Z@std@@@2@$0A@@std@@@std@@QAE@ABU?$less@V?$tuple@HHHW4arch_t@@@std@@@1@@Z PROC ; std::_Tree<std::_Tmap_traits<std::tuple<int,int,int,enum arch_t>,unsigned int (__cdecl*)(unsigned char const *,int),std::less<std::tuple<int,int,int,enum arch_t> >,std::allocator<std::pair<std::tuple<int,int,int,enum arch_t> const ,unsigned int (__cdecl*)(unsigned char const *,int)> >,0> >::_Tree<std::_Tmap_traits<std::tuple<int,int,int,enum arch_t>,unsigned int (__cdecl*)(unsigned char const *,int),std::less<std::tuple<int,int,int,enum arch_t> >,std::allocator<std::pair<std::tuple<int,int,int,enum arch_t> const ,unsigned int (__cdecl*)(unsigned char const *,int)> >,0> >, COMDAT
; _this$ = ecx

; 1004 : 		{	// construct empty tree from comparator

	push	ecx
	push	esi
	mov	esi, ecx
	mov	DWORD PTR _this$[esp+8], esi

; 567  : 		: _Myhead(),

	mov	DWORD PTR [esi], 0

; 568  : 		_Mysize(0)

	mov	DWORD PTR [esi+4], 0

; 721  : 		_Myhead() = _Buyheadnode();

	call	?_Buyheadnode@?$_Tree_comp_alloc@V?$_Tmap_traits@V?$tuple@HHHW4arch_t@@@std@@P6AIPBEH@ZU?$less@V?$tuple@HHHW4arch_t@@@std@@@2@V?$allocator@U?$pair@$$CBV?$tuple@HHHW4arch_t@@@std@@P6AIPBEH@Z@std@@@2@$0A@@std@@@std@@QAEPAU?$_Tree_node@U?$pair@$$CBV?$tuple@HHHW4arch_t@@@std@@P6AIPBEH@Z@std@@PAX@2@XZ ; std::_Tree_comp_alloc<std::_Tmap_traits<std::tuple<int,int,int,enum arch_t>,unsigned int (__cdecl*)(unsigned char const *,int),std::less<std::tuple<int,int,int,enum arch_t> >,std::allocator<std::pair<std::tuple<int,int,int,enum arch_t> const ,unsigned int (__cdecl*)(unsigned char const *,int)> >,0> >::_Buyheadnode
	mov	DWORD PTR [esi], eax

; 1005 : 		}

	mov	eax, esi
	pop	esi
	pop	ecx
	ret	4
??0?$_Tree@V?$_Tmap_traits@V?$tuple@HHHW4arch_t@@@std@@P6AIPBEH@ZU?$less@V?$tuple@HHHW4arch_t@@@std@@@2@V?$allocator@U?$pair@$$CBV?$tuple@HHHW4arch_t@@@std@@P6AIPBEH@Z@std@@@2@$0A@@std@@@std@@QAE@ABU?$less@V?$tuple@HHHW4arch_t@@@std@@@1@@Z ENDP ; std::_Tree<std::_Tmap_traits<std::tuple<int,int,int,enum arch_t>,unsigned int (__cdecl*)(unsigned char const *,int),std::less<std::tuple<int,int,int,enum arch_t> >,std::allocator<std::pair<std::tuple<int,int,int,enum arch_t> const ,unsigned int (__cdecl*)(unsigned char const *,int)> >,0> >::_Tree<std::_Tmap_traits<std::tuple<int,int,int,enum arch_t>,unsigned int (__cdecl*)(unsigned char const *,int),std::less<std::tuple<int,int,int,enum arch_t> >,std::allocator<std::pair<std::tuple<int,int,int,enum arch_t> const ,unsigned int (__cdecl*)(unsigned char const *,int)> >,0> >
_TEXT	ENDS
; Function compile flags: /Ogtpy
; File c:\program files (x86)\microsoft visual studio 14.0\vc\include\xmemory0
;	COMDAT ?pointer_to@?$pointer_traits@PAU?$pair@$$CBV?$tuple@HHHW4arch_t@@@std@@P6AIPBEH@Z@std@@@std@@SAPAU?$pair@$$CBV?$tuple@HHHW4arch_t@@@std@@P6AIPBEH@Z@2@AAU32@@Z
_TEXT	SEGMENT
?pointer_to@?$pointer_traits@PAU?$pair@$$CBV?$tuple@HHHW4arch_t@@@std@@P6AIPBEH@Z@std@@@std@@SAPAU?$pair@$$CBV?$tuple@HHHW4arch_t@@@std@@P6AIPBEH@Z@2@AAU32@@Z PROC ; std::pointer_traits<std::pair<std::tuple<int,int,int,enum arch_t> const ,unsigned int (__cdecl*)(unsigned char const *,int)> *>::pointer_to, COMDAT
; __Val$ = ecx

; 280  : 		return (_STD addressof(_Val));

	mov	eax, ecx

; 281  : 		}

	ret	0
?pointer_to@?$pointer_traits@PAU?$pair@$$CBV?$tuple@HHHW4arch_t@@@std@@P6AIPBEH@Z@std@@@std@@SAPAU?$pair@$$CBV?$tuple@HHHW4arch_t@@@std@@P6AIPBEH@Z@2@AAU32@@Z ENDP ; std::pointer_traits<std::pair<std::tuple<int,int,int,enum arch_t> const ,unsigned int (__cdecl*)(unsigned char const *,int)> *>::pointer_to
_TEXT	ENDS
; Function compile flags: /Ogtpy
; File c:\program files (x86)\microsoft visual studio 14.0\vc\include\xtree
;	COMDAT ??D?$_Tree_iterator@V?$_Tree_val@U?$_Tree_simple_types@U?$pair@$$CBV?$tuple@HHHW4arch_t@@@std@@P6AIPBEH@Z@std@@@std@@@std@@@std@@QBEAAU?$pair@$$CBV?$tuple@HHHW4arch_t@@@std@@P6AIPBEH@Z@1@XZ
_TEXT	SEGMENT
??D?$_Tree_iterator@V?$_Tree_val@U?$_Tree_simple_types@U?$pair@$$CBV?$tuple@HHHW4arch_t@@@std@@P6AIPBEH@Z@std@@@std@@@std@@@std@@QBEAAU?$pair@$$CBV?$tuple@HHHW4arch_t@@@std@@P6AIPBEH@Z@1@XZ PROC ; std::_Tree_iterator<std::_Tree_val<std::_Tree_simple_types<std::pair<std::tuple<int,int,int,enum arch_t> const ,unsigned int (__cdecl*)(unsigned char const *,int)> > > >::operator*, COMDAT
; _this$ = ecx

; 603  : 		return ((reference)_Pnode->_Myval);

	mov	eax, DWORD PTR [ecx]
	add	eax, 16					; 00000010H

; 402  : 		return ((reference)**(_Mybase *)this);
; 403  : 		}

	ret	0
??D?$_Tree_iterator@V?$_Tree_val@U?$_Tree_simple_types@U?$pair@$$CBV?$tuple@HHHW4arch_t@@@std@@P6AIPBEH@Z@std@@@std@@@std@@@std@@QBEAAU?$pair@$$CBV?$tuple@HHHW4arch_t@@@std@@P6AIPBEH@Z@1@XZ ENDP ; std::_Tree_iterator<std::_Tree_val<std::_Tree_simple_types<std::pair<std::tuple<int,int,int,enum arch_t> const ,unsigned int (__cdecl*)(unsigned char const *,int)> > > >::operator*
_TEXT	ENDS
; Function compile flags: /Ogtpy
; File c:\program files (x86)\microsoft visual studio 14.0\vc\include\xtree
;	COMDAT ?_Myhead@?$_Tree_comp_alloc@V?$_Tmap_traits@V?$tuple@HHHW4arch_t@@@std@@P6AIPBEH@ZU?$less@V?$tuple@HHHW4arch_t@@@std@@@2@V?$allocator@U?$pair@$$CBV?$tuple@HHHW4arch_t@@@std@@P6AIPBEH@Z@std@@@2@$0A@@std@@@std@@QAEAAPAU?$_Tree_node@U?$pair@$$CBV?$tuple@HHHW4arch_t@@@std@@P6AIPBEH@Z@std@@PAX@2@XZ
_TEXT	SEGMENT
?_Myhead@?$_Tree_comp_alloc@V?$_Tmap_traits@V?$tuple@HHHW4arch_t@@@std@@P6AIPBEH@ZU?$less@V?$tuple@HHHW4arch_t@@@std@@@2@V?$allocator@U?$pair@$$CBV?$tuple@HHHW4arch_t@@@std@@P6AIPBEH@Z@std@@@2@$0A@@std@@@std@@QAEAAPAU?$_Tree_node@U?$pair@$$CBV?$tuple@HHHW4arch_t@@@std@@P6AIPBEH@Z@std@@PAX@2@XZ PROC ; std::_Tree_comp_alloc<std::_Tmap_traits<std::tuple<int,int,int,enum arch_t>,unsigned int (__cdecl*)(unsigned char const *,int),std::less<std::tuple<int,int,int,enum arch_t> >,std::allocator<std::pair<std::tuple<int,int,int,enum arch_t> const ,unsigned int (__cdecl*)(unsigned char const *,int)> >,0> >::_Myhead, COMDAT
; _this$ = ecx

; 930  : 		return (_Get_data()._Myhead);

	mov	eax, ecx

; 931  : 		}

	ret	0
?_Myhead@?$_Tree_comp_alloc@V?$_Tmap_traits@V?$tuple@HHHW4arch_t@@@std@@P6AIPBEH@ZU?$less@V?$tuple@HHHW4arch_t@@@std@@@2@V?$allocator@U?$pair@$$CBV?$tuple@HHHW4arch_t@@@std@@P6AIPBEH@Z@std@@@2@$0A@@std@@@std@@QAEAAPAU?$_Tree_node@U?$pair@$$CBV?$tuple@HHHW4arch_t@@@std@@P6AIPBEH@Z@std@@PAX@2@XZ ENDP ; std::_Tree_comp_alloc<std::_Tmap_traits<std::tuple<int,int,int,enum arch_t>,unsigned int (__cdecl*)(unsigned char const *,int),std::less<std::tuple<int,int,int,enum arch_t> >,std::allocator<std::pair<std::tuple<int,int,int,enum arch_t> const ,unsigned int (__cdecl*)(unsigned char const *,int)> >,0> >::_Myhead
_TEXT	ENDS
; Function compile flags: /Ogtpy
; File c:\program files (x86)\microsoft visual studio 14.0\vc\include\xtree
; File c:\program files (x86)\microsoft visual studio 14.0\vc\include\xmemory0
; File c:\program files (x86)\microsoft visual studio 14.0\vc\include\xtree
;	COMDAT ?_Freeheadnode@?$_Tree_comp_alloc@V?$_Tmap_traits@V?$tuple@HHHW4arch_t@@@std@@P6AIPBEH@ZU?$less@V?$tuple@HHHW4arch_t@@@std@@@2@V?$allocator@U?$pair@$$CBV?$tuple@HHHW4arch_t@@@std@@P6AIPBEH@Z@std@@@2@$0A@@std@@@std@@QAEXPAU?$_Tree_node@U?$pair@$$CBV?$tuple@HHHW4arch_t@@@std@@P6AIPBEH@Z@std@@PAX@2@@Z
_TEXT	SEGMENT
__Pnode$ = 8						; size = 4
?_Freeheadnode@?$_Tree_comp_alloc@V?$_Tmap_traits@V?$tuple@HHHW4arch_t@@@std@@P6AIPBEH@ZU?$less@V?$tuple@HHHW4arch_t@@@std@@@2@V?$allocator@U?$pair@$$CBV?$tuple@HHHW4arch_t@@@std@@P6AIPBEH@Z@std@@@2@$0A@@std@@@std@@QAEXPAU?$_Tree_node@U?$pair@$$CBV?$tuple@HHHW4arch_t@@@std@@P6AIPBEH@Z@std@@PAX@2@@Z PROC ; std::_Tree_comp_alloc<std::_Tmap_traits<std::tuple<int,int,int,enum arch_t>,unsigned int (__cdecl*)(unsigned char const *,int),std::less<std::tuple<int,int,int,enum arch_t> >,std::allocator<std::pair<std::tuple<int,int,int,enum arch_t> const ,unsigned int (__cdecl*)(unsigned char const *,int)> >,0> >::_Freeheadnode, COMDAT
; _this$dead$ = ecx
; File c:\program files (x86)\microsoft visual studio 14.0\vc\include\xmemory0

; 720  : 		_Deallocate(_Ptr, _Count, sizeof (_Ty));

	mov	ecx, DWORD PTR __Pnode$[esp-4]
	mov	edx, 1
	push	36					; 00000024H
	call	?_Deallocate@std@@YAXPAXII@Z		; std::_Deallocate
	pop	ecx
; File c:\program files (x86)\microsoft visual studio 14.0\vc\include\xtree

; 846  : 		}

	ret	4
?_Freeheadnode@?$_Tree_comp_alloc@V?$_Tmap_traits@V?$tuple@HHHW4arch_t@@@std@@P6AIPBEH@ZU?$less@V?$tuple@HHHW4arch_t@@@std@@@2@V?$allocator@U?$pair@$$CBV?$tuple@HHHW4arch_t@@@std@@P6AIPBEH@Z@std@@@2@$0A@@std@@@std@@QAEXPAU?$_Tree_node@U?$pair@$$CBV?$tuple@HHHW4arch_t@@@std@@P6AIPBEH@Z@std@@PAX@2@@Z ENDP ; std::_Tree_comp_alloc<std::_Tmap_traits<std::tuple<int,int,int,enum arch_t>,unsigned int (__cdecl*)(unsigned char const *,int),std::less<std::tuple<int,int,int,enum arch_t> >,std::allocator<std::pair<std::tuple<int,int,int,enum arch_t> const ,unsigned int (__cdecl*)(unsigned char const *,int)> >,0> >::_Freeheadnode
_TEXT	ENDS
; Function compile flags: /Ogtpy
; File c:\program files (x86)\microsoft visual studio 14.0\vc\include\xtree
;	COMDAT ??0?$_Tree_comp_alloc@V?$_Tmap_traits@V?$tuple@HHHW4arch_t@@@std@@P6AIPBEH@ZU?$less@V?$tuple@HHHW4arch_t@@@std@@@2@V?$allocator@U?$pair@$$CBV?$tuple@HHHW4arch_t@@@std@@P6AIPBEH@Z@std@@@2@$0A@@std@@@std@@QAE@ABU?$less@V?$tuple@HHHW4arch_t@@@std@@@1@@Z
_TEXT	SEGMENT
__Parg$dead$ = 8					; size = 4
??0?$_Tree_comp_alloc@V?$_Tmap_traits@V?$tuple@HHHW4arch_t@@@std@@P6AIPBEH@ZU?$less@V?$tuple@HHHW4arch_t@@@std@@@2@V?$allocator@U?$pair@$$CBV?$tuple@HHHW4arch_t@@@std@@P6AIPBEH@Z@std@@@2@$0A@@std@@@std@@QAE@ABU?$less@V?$tuple@HHHW4arch_t@@@std@@@1@@Z PROC ; std::_Tree_comp_alloc<std::_Tmap_traits<std::tuple<int,int,int,enum arch_t>,unsigned int (__cdecl*)(unsigned char const *,int),std::less<std::tuple<int,int,int,enum arch_t> >,std::allocator<std::pair<std::tuple<int,int,int,enum arch_t> const ,unsigned int (__cdecl*)(unsigned char const *,int)> >,0> >::_Tree_comp_alloc<std::_Tmap_traits<std::tuple<int,int,int,enum arch_t>,unsigned int (__cdecl*)(unsigned char const *,int),std::less<std::tuple<int,int,int,enum arch_t> >,std::allocator<std::pair<std::tuple<int,int,int,enum arch_t> const ,unsigned int (__cdecl*)(unsigned char const *,int)> >,0> >, COMDAT
; _this$ = ecx

; 704  : 		{	// construct from comparator

	push	esi
	mov	esi, ecx

; 567  : 		: _Myhead(),

	mov	DWORD PTR [esi], 0

; 568  : 		_Mysize(0)

	mov	DWORD PTR [esi+4], 0

; 721  : 		_Myhead() = _Buyheadnode();

	call	?_Buyheadnode@?$_Tree_comp_alloc@V?$_Tmap_traits@V?$tuple@HHHW4arch_t@@@std@@P6AIPBEH@ZU?$less@V?$tuple@HHHW4arch_t@@@std@@@2@V?$allocator@U?$pair@$$CBV?$tuple@HHHW4arch_t@@@std@@P6AIPBEH@Z@std@@@2@$0A@@std@@@std@@QAEPAU?$_Tree_node@U?$pair@$$CBV?$tuple@HHHW4arch_t@@@std@@P6AIPBEH@Z@std@@PAX@2@XZ ; std::_Tree_comp_alloc<std::_Tmap_traits<std::tuple<int,int,int,enum arch_t>,unsigned int (__cdecl*)(unsigned char const *,int),std::less<std::tuple<int,int,int,enum arch_t> >,std::allocator<std::pair<std::tuple<int,int,int,enum arch_t> const ,unsigned int (__cdecl*)(unsigned char const *,int)> >,0> >::_Buyheadnode
	mov	DWORD PTR [esi], eax

; 705  : 		_Construct();
; 706  : 		}

	mov	eax, esi
	pop	esi
	ret	4
??0?$_Tree_comp_alloc@V?$_Tmap_traits@V?$tuple@HHHW4arch_t@@@std@@P6AIPBEH@ZU?$less@V?$tuple@HHHW4arch_t@@@std@@@2@V?$allocator@U?$pair@$$CBV?$tuple@HHHW4arch_t@@@std@@P6AIPBEH@Z@std@@@2@$0A@@std@@@std@@QAE@ABU?$less@V?$tuple@HHHW4arch_t@@@std@@@1@@Z ENDP ; std::_Tree_comp_alloc<std::_Tmap_traits<std::tuple<int,int,int,enum arch_t>,unsigned int (__cdecl*)(unsigned char const *,int),std::less<std::tuple<int,int,int,enum arch_t> >,std::allocator<std::pair<std::tuple<int,int,int,enum arch_t> const ,unsigned int (__cdecl*)(unsigned char const *,int)> >,0> >::_Tree_comp_alloc<std::_Tmap_traits<std::tuple<int,int,int,enum arch_t>,unsigned int (__cdecl*)(unsigned char const *,int),std::less<std::tuple<int,int,int,enum arch_t> >,std::allocator<std::pair<std::tuple<int,int,int,enum arch_t> const ,unsigned int (__cdecl*)(unsigned char const *,int)> >,0> >
_TEXT	ENDS
; Function compile flags: /Ogtpy
; File c:\program files (x86)\microsoft visual studio 14.0\vc\include\xtree
;	COMDAT ?erase@?$_Tree@V?$_Tmap_traits@V?$tuple@HHHW4arch_t@@@std@@P6AIPBEH@ZU?$less@V?$tuple@HHHW4arch_t@@@std@@@2@V?$allocator@U?$pair@$$CBV?$tuple@HHHW4arch_t@@@std@@P6AIPBEH@Z@std@@@2@$0A@@std@@@std@@QAE?AV?$_Tree_iterator@V?$_Tree_val@U?$_Tree_simple_types@U?$pair@$$CBV?$tuple@HHHW4arch_t@@@std@@P6AIPBEH@Z@std@@@std@@@std@@@2@V?$_Tree_const_iterator@V?$_Tree_val@U?$_Tree_simple_types@U?$pair@$$CBV?$tuple@HHHW4arch_t@@@std@@P6AIPBEH@Z@std@@@std@@@std@@@2@0@Z
_TEXT	SEGMENT
$T1 = -4						; size = 4
___$ReturnUdt$ = 8					; size = 4
__First$ = 12						; size = 4
__Last$ = 16						; size = 4
?erase@?$_Tree@V?$_Tmap_traits@V?$tuple@HHHW4arch_t@@@std@@P6AIPBEH@ZU?$less@V?$tuple@HHHW4arch_t@@@std@@@2@V?$allocator@U?$pair@$$CBV?$tuple@HHHW4arch_t@@@std@@P6AIPBEH@Z@std@@@2@$0A@@std@@@std@@QAE?AV?$_Tree_iterator@V?$_Tree_val@U?$_Tree_simple_types@U?$pair@$$CBV?$tuple@HHHW4arch_t@@@std@@P6AIPBEH@Z@std@@@std@@@std@@@2@V?$_Tree_const_iterator@V?$_Tree_val@U?$_Tree_simple_types@U?$pair@$$CBV?$tuple@HHHW4arch_t@@@std@@P6AIPBEH@Z@std@@@std@@@std@@@2@0@Z PROC ; std::_Tree<std::_Tmap_traits<std::tuple<int,int,int,enum arch_t>,unsigned int (__cdecl*)(unsigned char const *,int),std::less<std::tuple<int,int,int,enum arch_t> >,std::allocator<std::pair<std::tuple<int,int,int,enum arch_t> const ,unsigned int (__cdecl*)(unsigned char const *,int)> >,0> >::erase, COMDAT
; _this$ = ecx

; 1444 : 		{	// erase [_First, _Last)

	push	ecx

; 336  : 		return (this->_Ptr == _Right._Ptr);

	mov	eax, DWORD PTR __First$[esp]

; 1445 : 		if (_First == begin() && _Last == end())

	mov	edx, DWORD PTR __Last$[esp]
	push	esi
	push	edi
	mov	edi, ecx

; 588  : 		return ((_Nodepref)_Pnode->_Left);

	mov	esi, DWORD PTR [edi]

; 336  : 		return (this->_Ptr == _Right._Ptr);

	cmp	eax, DWORD PTR [esi]

; 1445 : 		if (_First == begin() && _Last == end())

	jne	SHORT $LN176@erase

; 336  : 		return (this->_Ptr == _Right._Ptr);

	cmp	edx, esi

; 1445 : 		if (_First == begin() && _Last == end())

	jne	SHORT $LN176@erase

; 1446 : 			{	// erase all
; 1447 : 			clear();

	call	?clear@?$_Tree@V?$_Tmap_traits@V?$tuple@HHHW4arch_t@@@std@@P6AIPBEH@ZU?$less@V?$tuple@HHHW4arch_t@@@std@@@2@V?$allocator@U?$pair@$$CBV?$tuple@HHHW4arch_t@@@std@@P6AIPBEH@Z@std@@@2@$0A@@std@@@std@@QAEXXZ ; std::_Tree<std::_Tmap_traits<std::tuple<int,int,int,enum arch_t>,unsigned int (__cdecl*)(unsigned char const *,int),std::less<std::tuple<int,int,int,enum arch_t> >,std::allocator<std::pair<std::tuple<int,int,int,enum arch_t> const ,unsigned int (__cdecl*)(unsigned char const *,int)> >,0> >::clear

; 588  : 		return ((_Nodepref)_Pnode->_Left);

	mov	eax, DWORD PTR [edi]
	pop	edi
	pop	esi

; 43   : 		: _Ptr(_Pnode)

	mov	ecx, DWORD PTR [eax]
	mov	eax, DWORD PTR ___$ReturnUdt$[esp]
	mov	DWORD PTR [eax], ecx

; 1455 : 			}
; 1456 : 		}

	pop	ecx
	ret	12					; 0000000cH
$LN176@erase:

; 336  : 		return (this->_Ptr == _Right._Ptr);

	cmp	eax, edx

; 1448 : 			return (begin());
; 1449 : 			}
; 1450 : 		else
; 1451 : 			{	// partial erase, one at a time
; 1452 : 			while (_First != _Last)

	je	SHORT $LN3@erase
$LL2@erase:

; 60   : 		if (_Mytree::_Isnil(_Ptr))

	cmp	BYTE PTR [eax+13], 0

; 279  : 		_Myiter _Tmp = *this;

	mov	ecx, eax

; 60   : 		if (_Mytree::_Isnil(_Ptr))

	jne	SHORT $LN133@erase

; 583  : 		return ((char&)_Pnode->_Isnil);

	mov	edx, DWORD PTR [eax+8]

; 62   : 		else if (!_Mytree::_Isnil(_Mytree::_Right(_Ptr)))

	cmp	BYTE PTR [edx+13], 0
	jne	SHORT $LN178@erase

; 583  : 		return ((char&)_Pnode->_Isnil);

	mov	eax, DWORD PTR [edx]

; 615  : 		while (!_Isnil(_Left(_Pnode)))

	cmp	BYTE PTR [eax+13], 0
	jne	SHORT $LN188@erase
	npad	7
$LL144@erase:

; 616  : 			_Pnode = _Left(_Pnode);

	mov	edx, eax

; 583  : 		return ((char&)_Pnode->_Isnil);

	mov	eax, DWORD PTR [edx]

; 615  : 		while (!_Isnil(_Left(_Pnode)))

	cmp	BYTE PTR [eax+13], 0
	je	SHORT $LL144@erase

; 65   : 		else

	jmp	SHORT $LN188@erase
$LN178@erase:

; 66   : 			{	// climb looking for right subtree
; 67   : 			_Nodeptr _Pnode;
; 68   : 			while (!_Mytree::_Isnil(_Pnode = _Mytree::_Parent(_Ptr))
; 69   : 				&& _Ptr == _Mytree::_Right(_Pnode))

	mov	edx, DWORD PTR [eax+4]
	cmp	BYTE PTR [edx+13], 0
	jne	SHORT $LN188@erase
